 ITHelper

 Timestamp is 6a3e42d5 (Fri Jun 26 12:13:57 2026)

 Preferred load address is 0000000140000000

 Start         Length     Name                   Class
 0001:00000000 000236f0H .text$mn                CODE
 0001:000236f0 00000060H .text$mn$00             CODE
 0001:00023750 00000b20H .text$mn$21             CODE
 0001:00024270 00000f00H .text$x                 CODE
 0002:00000000 000004b8H .idata$5                DATA
 0002:000004b8 00000038H .00cfg                  DATA
 0002:000004f0 00000008H .CRT$XCA                DATA
 0002:000004f8 00000008H .CRT$XCAA               DATA
 0002:00000500 00000008H .CRT$XCZ                DATA
 0002:00000508 00000008H .CRT$XIA                DATA
 0002:00000510 00000008H .CRT$XIAA               DATA
 0002:00000518 00000008H .CRT$XIAC               DATA
 0002:00000520 00000020H .CRT$XIC                DATA
 0002:00000540 00000008H .CRT$XIZ                DATA
 0002:00000548 00000008H .CRT$XPA                DATA
 0002:00000550 00000010H .CRT$XPX                DATA
 0002:00000560 00000008H .CRT$XPXA               DATA
 0002:00000568 00000008H .CRT$XPZ                DATA
 0002:00000570 00000008H .CRT$XTA                DATA
 0002:00000578 00000008H .CRT$XTZ                DATA
 0002:00000580 00000000H .gehcont$y              DATA
 0002:00000580 00000000H .gfids$y                DATA
 0002:00000580 0000cc80H .rdata                  DATA
 0002:0000d200 00000180H .rdata$00               DATA
 0002:0000d380 00000000H .rdata$CastGuardVftablesA DATA
 0002:0000d380 00000000H .rdata$CastGuardVftablesC DATA
 0002:0000d380 000009dcH .rdata$r                DATA
 0002:0000dd5c 000000ecH .rdata$voltmd           DATA
 0002:0000de48 00000370H .rdata$zzzdbg           DATA
 0002:0000e1b8 00000008H .rtc$IAA                DATA
 0002:0000e1c0 00000008H .rtc$IZZ                DATA
 0002:0000e1c8 00000008H .rtc$TAA                DATA
 0002:0000e1d0 00000008H .rtc$TZZ                DATA
 0002:0000e1d8 000024f8H .xdata                  DATA
 0002:000106d0 00000364H .xdata$x                DATA
 0002:00010a34 00000000H .edata                  DATA
 0002:00010a34 0000008cH .idata$2                DATA
 0002:00010ac0 00000018H .idata$3                DATA
 0002:00010ad8 000004b8H .idata$4                DATA
 0002:00010f90 000009eeH .idata$6                DATA
 0003:00000000 00000ac0H .data                   DATA
 0003:00000ac0 00000360H .data$r                 DATA
 0003:00000e20 00000320H .data$rs                DATA
 0003:00001140 00000f48H .bss                    DATA
 0004:00000000 00001d34H .pdata                  DATA
 0005:00000000 00000100H .fptable                DATA
 0006:00000000 00000130H .rsrc$01                DATA
 0006:00000130 00000cc0H .rsrc$02                DATA

  Address         Publics by Value              Rva+Base               Lib:Object

 0000:00000000       __AbsoluteZero             0000000000000000     <absolute>
 0000:00000000       ___safe_se_handler_count   0000000000000000     <absolute>
 0000:00000000       ___safe_se_handler_table   0000000000000000     <absolute>
 0000:00000000       __arm64x_extra_rfe_table   0000000000000000     <absolute>
 0000:00000000       __arm64x_extra_rfe_table_size 0000000000000000     <absolute>
 0000:00000000       __arm64x_native_entrypoint 0000000000000000     <absolute>
 0000:00000000       __arm64x_redirection_metadata 0000000000000000     <absolute>
 0000:00000000       __arm64x_redirection_metadata_count 0000000000000000     <absolute>
 0000:00000000       __dynamic_value_reloc_table 0000000000000000     <absolute>
 0000:00000000       __enclave_config           0000000000000000     <absolute>
 0000:00000000       __guard_check_icall_a64n_fptr 0000000000000000     <absolute>
 0000:00000000       __guard_eh_cont_count      0000000000000000     <absolute>
 0000:00000000       __guard_eh_cont_table      0000000000000000     <absolute>
 0000:00000000       __guard_fids_count         0000000000000000     <absolute>
 0000:00000000       __guard_fids_table         0000000000000000     <absolute>
 0000:00000000       __guard_iat_count          0000000000000000     <absolute>
 0000:00000000       __guard_iat_table          0000000000000000     <absolute>
 0000:00000000       __guard_longjmp_count      0000000000000000     <absolute>
 0000:00000000       __guard_longjmp_table      0000000000000000     <absolute>
 0000:00000000       __hybrid_auxiliary_delayload_iat 0000000000000000     <absolute>
 0000:00000000       __hybrid_auxiliary_delayload_iat_copy 0000000000000000     <absolute>
 0000:00000000       __hybrid_auxiliary_iat     0000000000000000     <absolute>
 0000:00000000       __hybrid_auxiliary_iat_copy 0000000000000000     <absolute>
 0000:00000000       __hybrid_code_map          0000000000000000     <absolute>
 0000:00000000       __hybrid_code_map_count    0000000000000000     <absolute>
 0000:00000000       __hybrid_image_info_bitfield 0000000000000000     <absolute>
 0000:00000000       __x64_code_ranges_to_entry_points 0000000000000000     <absolute>
 0000:00000000       __x64_code_ranges_to_entry_points_count 0000000000000000     <absolute>
 0000:00000100       __guard_flags              0000000000000100     <absolute>
 0000:00000000       __ImageBase                0000000140000000     <linker-defined>
 0001:00000000       __local_stdio_printf_options 0000000140001000 f i main.obj
 0001:00000008       swprintf                   0000000140001008 f i main.obj
 0001:00000164       wWinMain                   0000000140001164 f   main.obj
 0001:00000790       ??0exception@std@@QEAA@AEBV01@@Z 0000000140001790 f i Shell.obj
 0001:000007c4       ?what@exception@std@@UEBAPEBDXZ 00000001400017c4 f i Shell.obj
 0001:000007e0       ??_Ebad_alloc@std@@UEAAPEAXI@Z 00000001400017e0 f i * CIL library *:* CIL module *
 0001:000007e0       ??_Ebad_array_new_length@std@@UEAAPEAXI@Z 00000001400017e0 f i * CIL library *:* CIL module *
 0001:000007e0       ??_Ebad_exception@std@@UEAAPEAXI@Z 00000001400017e0 f i libvcruntime:frame.obj
 0001:000007e0       ??_Ebad_function_call@std@@UEAAPEAXI@Z 00000001400017e0 f i libcpmt:xthrow.obj
 0001:000007e0       ??_Eexception@std@@UEAAPEAXI@Z 00000001400017e0 f i * CIL library *:* CIL module *
 0001:000007e0       ??_Elength_error@std@@UEAAPEAXI@Z 00000001400017e0 f i libcpmt:xthrow.obj
 0001:000007e0       ??_Elogic_error@std@@UEAAPEAXI@Z 00000001400017e0 f i libcpmt:xthrow.obj
 0001:000007e0       ??_Eout_of_range@std@@UEAAPEAXI@Z 00000001400017e0 f i libcpmt:xthrow.obj
 0001:000007e0       ??_Eruntime_error@std@@UEAAPEAXI@Z 00000001400017e0 f i libcpmt:xthrow.obj
 0001:000007e0       ??_Gbad_alloc@std@@UEAAPEAXI@Z 00000001400017e0 f i Shell.obj
 0001:000007e0       ??_Gbad_array_new_length@std@@UEAAPEAXI@Z 00000001400017e0 f i Shell.obj
 0001:000007e0       ??_Gbad_exception@std@@UEAAPEAXI@Z 00000001400017e0 f i libvcruntime:frame.obj
 0001:000007e0       ??_Gbad_function_call@std@@UEAAPEAXI@Z 00000001400017e0 f i libcpmt:xthrow.obj
 0001:000007e0       ??_Gexception@std@@UEAAPEAXI@Z 00000001400017e0 f i Shell.obj
 0001:000007e0       ??_Glength_error@std@@UEAAPEAXI@Z 00000001400017e0 f i libcpmt:xthrow.obj
 0001:000007e0       ??_Glogic_error@std@@UEAAPEAXI@Z 00000001400017e0 f i libcpmt:xthrow.obj
 0001:000007e0       ??_Gout_of_range@std@@UEAAPEAXI@Z 00000001400017e0 f i libcpmt:xthrow.obj
 0001:000007e0       ??_Gruntime_error@std@@UEAAPEAXI@Z 00000001400017e0 f i libcpmt:xthrow.obj
 0001:00000830       ??1bad_alloc@std@@UEAA@XZ  0000000140001830 f i Shell.obj
 0001:00000830       ??1bad_array_new_length@std@@UEAA@XZ 0000000140001830 f i Shell.obj
 0001:00000830       ??1bad_exception@std@@UEAA@XZ 0000000140001830 f i libvcruntime:frame.obj
 0001:00000830       ??1bad_function_call@std@@UEAA@XZ 0000000140001830 f i libcpmt:xthrow.obj
 0001:00000830       ??1length_error@std@@UEAA@XZ 0000000140001830 f i libcpmt:xthrow.obj
 0001:00000830       ??1out_of_range@std@@UEAA@XZ 0000000140001830 f i libcpmt:xthrow.obj
 0001:00000830       ??1system_error@std@@UEAA@XZ 0000000140001830 f i libcpmt:thread0.obj
 0001:00000844       ??0bad_array_new_length@std@@QEAA@XZ 0000000140001844 f i Shell.obj
 0001:00000870       ?_Throw_bad_array_new_length@std@@YAXXZ 0000000140001870 f i Shell.obj
 0001:00000870       ?__scrt_throw_std_bad_array_new_length@@YAXXZ 0000000140001870 f i LIBCMT:throw_bad_alloc.obj
 0001:00000890       ??0bad_array_new_length@std@@QEAA@AEBV01@@Z 0000000140001890 f i Shell.obj
 0001:000008cc       ??0bad_alloc@std@@QEAA@AEBV01@@Z 00000001400018cc f i Shell.obj
 0001:00000908       ?_Xlen_string@std@@YAXXZ   0000000140001908 f i Shell.obj
 0001:0000091c       ?Name@AdQueryTool@ith@@UEBA?AV?$basic_string@_WU?$char_traits@_W@std@@V?$allocator@_W@2@@std@@XZ 000000014000191c f i Shell.obj
 0001:0000095c       ?Category@AdQueryTool@ith@@UEBA?AV?$basic_string@_WU?$char_traits@_W@std@@V?$allocator@_W@2@@std@@XZ 000000014000195c f i Shell.obj
 0001:0000099c       ?_Throw_tree_length_error@std@@YAXXZ 000000014000199c f i Shell.obj
 0001:000009b0       ??1?$unordered_map@PEAVITool@ith@@V?$unique_ptr@VToolView@ith@@U?$default_delete@VToolView@ith@@@std@@@std@@U?$hash@PEAVITool@ith@@@4@U?$equal_to@PEAVITool@ith@@@4@V?$allocator@U?$pair@QEAVITool@ith@@V?$unique_ptr@VToolView@ith@@U?$default_delete@VToolView@ith@@@std@@@std@@@std@@@4@@std@@QEAA@XZ 00000001400019b0 f i Shell.obj
 0001:000009d0       ??1Shell@ith@@QEAA@XZ      00000001400019d0 f   Shell.obj
 0001:00000a08       ?RecreateFont@Shell@ith@@AEAAXXZ 0000000140001a08 f   Shell.obj
 0001:00000b10       ??1?$map@V?$basic_string@_WU?$char_traits@_W@std@@V?$allocator@_W@2@@std@@PEAU_TREEITEM@@U?$less@V?$basic_string@_WU?$char_traits@_W@std@@V?$allocator@_W@2@@std@@@2@V?$allocator@U?$pair@$$CBV?$basic_string@_WU?$char_traits@_W@std@@V?$allocator@_W@2@@std@@PEAU_TREEITEM@@@std@@@2@@std@@QEAA@XZ 0000000140001b10 f i Shell.obj
 0001:00000b18       ?SelectTool@Shell@ith@@AEAAXPEAVITool@2@@Z 0000000140001b18 f   Shell.obj
 0001:00000fc4       ?Layout@Shell@ith@@AEAAXXZ 0000000140001fc4 f   Shell.obj
 0001:00001098       ?WndProc@Shell@ith@@CA_JPEAUHWND__@@I_K_J@Z 0000000140002098 f   Shell.obj
 0001:00001a18       ??1?$_Tree@V?$_Tmap_traits@V?$basic_string@_WU?$char_traits@_W@std@@V?$allocator@_W@2@@std@@PEAU_TREEITEM@@U?$less@V?$basic_string@_WU?$char_traits@_W@std@@V?$allocator@_W@2@@std@@@2@V?$allocator@U?$pair@$$CBV?$basic_string@_WU?$char_traits@_W@std@@V?$allocator@_W@2@@std@@PEAU_TREEITEM@@@std@@@2@$0A@@std@@@std@@QEAA@XZ 0000000140002a18 f i Shell.obj
 0001:00001a80       ??1?$unique_ptr@VAdQueryTool@ith@@U?$default_delete@VAdQueryTool@ith@@@std@@@std@@QEAA@XZ 0000000140002a80 f i Shell.obj
 0001:00001a80       ??1?$unique_ptr@VITool@ith@@U?$default_delete@VITool@ith@@@std@@@std@@QEAA@XZ 0000000140002a80 f i Shell.obj
 0001:00001a80       ??1?$unique_ptr@VToolView@ith@@U?$default_delete@VToolView@ith@@@std@@@std@@QEAA@XZ 0000000140002a80 f i Shell.obj
 0001:00001a9c       ??1?$_Hash_vec@V?$allocator@V?$_List_unchecked_iterator@V?$_List_val@U?$_List_simple_types@U?$pair@QEAVITool@ith@@V?$unique_ptr@VToolView@ith@@U?$default_delete@VToolView@ith@@@std@@@std@@@std@@@std@@@std@@@std@@@std@@@std@@QEAA@XZ 0000000140002a9c f i Shell.obj
 0001:00001a9c       ??1?$vector@PEA_WV?$allocator@PEA_W@std@@@std@@QEAA@XZ 0000000140002a9c f i AdQuery.obj
 0001:00001a9c       ??1?$vector@PEB_WV?$allocator@PEB_W@std@@@std@@QEAA@XZ 0000000140002a9c f i AdQuery.obj
 0001:00001b08       ??1?$list@U?$pair@QEAVITool@ith@@V?$unique_ptr@VToolView@ith@@U?$default_delete@VToolView@ith@@@std@@@std@@@std@@V?$allocator@U?$pair@QEAVITool@ith@@V?$unique_ptr@VToolView@ith@@U?$default_delete@VToolView@ith@@@std@@@std@@@std@@@2@@std@@QEAA@XZ 0000000140002b08 f i Shell.obj
 0001:00001b78       ?clear@?$_Hash@V?$_Umap_traits@PEAVITool@ith@@V?$unique_ptr@VToolView@ith@@U?$default_delete@VToolView@ith@@@std@@@std@@V?$_Uhash_compare@PEAVITool@ith@@U?$hash@PEAVITool@ith@@@std@@U?$equal_to@PEAVITool@ith@@@4@@4@V?$allocator@U?$pair@QEAVITool@ith@@V?$unique_ptr@VToolView@ith@@U?$default_delete@VToolView@ith@@@std@@@std@@@std@@@4@$0A@@std@@@std@@QEAAXXZ 0000000140002b78 f i Shell.obj
 0001:00001dbc       ??1?$vector@V?$unique_ptr@VITool@ith@@U?$default_delete@VITool@ith@@@std@@@std@@V?$allocator@V?$unique_ptr@VITool@ith@@U?$default_delete@VITool@ith@@@std@@@std@@@2@@std@@QEAA@XZ 0000000140002dbc f i Shell.obj
 0001:00001dc4       ??1?$basic_string@_WU?$char_traits@_W@std@@V?$allocator@_W@2@@std@@QEAA@XZ 0000000140002dc4 f i Shell.obj
 0001:00001e30       ??0?$basic_string@_WU?$char_traits@_W@std@@V?$allocator@_W@2@@std@@QEAA@QEB_W@Z 0000000140002e30 f i Shell.obj
 0001:00001e7c       ??_EAdQueryTool@ith@@UEAAPEAXI@Z 0000000140002e7c f i * CIL library *:* CIL module *
 0001:00001e7c       ??_GAdQueryTool@ith@@UEAAPEAXI@Z 0000000140002e7c f i Shell.obj
 0001:00001ea0       ??$_Construct@$00PEB_W@?$basic_string@_WU?$char_traits@_W@std@@V?$allocator@_W@2@@std@@AEAAXQEB_W_K@Z 0000000140002ea0 f i Shell.obj
 0001:00001f90       ??1?$_List_node_emplace_op2@V?$allocator@U?$_List_node@U?$pair@QEAVITool@ith@@V?$unique_ptr@VToolView@ith@@U?$default_delete@VToolView@ith@@@std@@@std@@@std@@PEAX@std@@@std@@@std@@QEAA@XZ 0000000140002f90 f i Shell.obj
 0001:00001fd0       ?_Tidy@?$vector@V?$unique_ptr@VITool@ith@@U?$default_delete@VITool@ith@@@std@@@std@@V?$allocator@V?$unique_ptr@VITool@ith@@U?$default_delete@VITool@ith@@@std@@@std@@@2@@std@@AEAAXXZ 0000000140002fd0 f i Shell.obj
 0001:00002080       ??$_Find_lower_bound@V?$basic_string@_WU?$char_traits@_W@std@@V?$allocator@_W@2@@std@@@?$_Tree@V?$_Tmap_traits@V?$basic_string@_WU?$char_traits@_W@std@@V?$allocator@_W@2@@std@@PEAU_TREEITEM@@U?$less@V?$basic_string@_WU?$char_traits@_W@std@@V?$allocator@_W@2@@std@@@2@V?$allocator@U?$pair@$$CBV?$basic_string@_WU?$char_traits@_W@std@@V?$allocator@_W@2@@std@@PEAU_TREEITEM@@@std@@@2@$0A@@std@@@std@@IEBA?AU?$_Tree_find_result@PEAU?$_Tree_node@U?$pair@$$CBV?$basic_string@_WU?$char_traits@_W@std@@V?$allocator@_W@2@@std@@PEAU_TREEITEM@@@std@@PEAX@std@@@1@AEBV?$basic_string@_WU?$char_traits@_W@std@@V?$allocator@_W@2@@1@@Z 0000000140003080 f i Shell.obj
 0001:0000215c       ??$_Erase_tree@V?$allocator@U?$_Tree_node@U?$pair@$$CBV?$basic_string@_WU?$char_traits@_W@std@@V?$allocator@_W@2@@std@@PEAU_TREEITEM@@@std@@PEAX@std@@@std@@@?$_Tree_val@U?$_Tree_simple_types@U?$pair@$$CBV?$basic_string@_WU?$char_traits@_W@std@@V?$allocator@_W@2@@std@@PEAU_TREEITEM@@@std@@@std@@@std@@QEAAXAEAV?$allocator@U?$_Tree_node@U?$pair@$$CBV?$basic_string@_WU?$char_traits@_W@std@@V?$allocator@_W@2@@std@@PEAU_TREEITEM@@@std@@PEAX@std@@@1@PEAU?$_Tree_node@U?$pair@$$CBV?$basic_string@_WU?$char_traits@_W@std@@V?$allocator@_W@2@@std@@PEAU_TREEITEM@@@std@@PEAX@1@@Z 000000014000315c f i Shell.obj
 0001:000021b0       ??1?$_Alloc_construct_ptr@V?$allocator@U?$_List_node@U?$pair@QEAVITool@ith@@V?$unique_ptr@VToolView@ith@@U?$default_delete@VToolView@ith@@@std@@@std@@@std@@PEAX@std@@@std@@@std@@QEAA@XZ 00000001400031b0 f i Shell.obj
 0001:000021cc       ?_Assign_grow@?$_Hash_vec@V?$allocator@V?$_List_unchecked_iterator@V?$_List_val@U?$_List_simple_types@U?$pair@QEAVITool@ith@@V?$unique_ptr@VToolView@ith@@U?$default_delete@VToolView@ith@@@std@@@std@@@std@@@std@@@std@@@std@@@std@@@std@@QEAAX_KV?$_List_unchecked_iterator@V?$_List_val@U?$_List_simple_types@U?$pair@QEAVITool@ith@@V?$unique_ptr@VToolView@ith@@U?$default_delete@VToolView@ith@@@std@@@std@@@std@@@std@@@std@@@2@@Z 00000001400031cc f i Shell.obj
 0001:000022f8       ??1?$_Alloc_construct_ptr@V?$allocator@U?$_Tree_node@U?$pair@$$CBV?$basic_string@_WU?$char_traits@_W@std@@V?$allocator@_W@2@@std@@PEAU_TREEITEM@@@std@@PEAX@std@@@std@@@std@@QEAA@XZ 00000001400032f8 f i Shell.obj
 0001:000022f8       ??1?$_Tree_temp_node_alloc@V?$allocator@U?$_Tree_node@U?$pair@$$CBV?$basic_string@_WU?$char_traits@_W@std@@V?$allocator@_W@2@@std@@PEAU_TREEITEM@@@std@@PEAX@std@@@std@@@std@@QEAA@XZ 00000001400032f8 f i Shell.obj
 0001:00002314       ??1_Reallocation_guard2@?$vector@V?$unique_ptr@VITool@ith@@U?$default_delete@VITool@ith@@@std@@@std@@V?$allocator@V?$unique_ptr@VITool@ith@@U?$default_delete@VITool@ith@@@std@@@std@@@2@@std@@QEAA@XZ 0000000140003314 f i Shell.obj
 0001:000023a4       ?_Xlength@?$vector@EV?$allocator@E@std@@@std@@CAXXZ 00000001400033a4 f i AdQuery.obj
 0001:000023a4       ?_Xlength@?$vector@PEA_WV?$allocator@PEA_W@std@@@std@@CAXXZ 00000001400033a4 f i AdQuery.obj
 0001:000023a4       ?_Xlength@?$vector@PEB_WV?$allocator@PEB_W@std@@@std@@CAXXZ 00000001400033a4 f i AdQuery.obj
 0001:000023a4       ?_Xlength@?$vector@UInfoPair@ith@@V?$allocator@UInfoPair@ith@@@std@@@std@@CAXXZ 00000001400033a4 f i AdQuery.obj
 0001:000023a4       ?_Xlength@?$vector@UNamedEntry@ith@@V?$allocator@UNamedEntry@ith@@@std@@@std@@CAXXZ 00000001400033a4 f i AdQuery.obj
 0001:000023a4       ?_Xlength@?$vector@V?$basic_string@_WU?$char_traits@_W@std@@V?$allocator@_W@2@@std@@V?$allocator@V?$basic_string@_WU?$char_traits@_W@std@@V?$allocator@_W@2@@std@@@2@@std@@CAXXZ 00000001400033a4 f i AdQuery.obj
 0001:000023a4       ?_Xlength@?$vector@V?$unique_ptr@VITool@ith@@U?$default_delete@VITool@ith@@@std@@@std@@V?$allocator@V?$unique_ptr@VITool@ith@@U?$default_delete@VITool@ith@@@std@@@std@@@2@@std@@CAXXZ 00000001400033a4 f i Shell.obj
 0001:000023b8       ??$_Allocate_manually_vector_aligned@U_Default_allocate_traits@std@@@std@@YAPEAX_K@Z 00000001400033b8 f i Shell.obj
 0001:000023f4       ??0?$basic_string@_WU?$char_traits@_W@std@@V?$allocator@_W@2@@std@@QEAA@AEBV01@@Z 00000001400033f4 f i Shell.obj
 0001:000024e8       ??1BstrPtr@ith@@QEAA@XZ    00000001400034e8 f i AdQuery.obj
 0001:0000250c       ??1VariantPtr@ith@@QEAA@XZ 000000014000350c f i AdQuery.obj
 0001:00002514       ?LdapEscape@ith@@YA?AV?$basic_string@_WU?$char_traits@_W@std@@V?$allocator@_W@2@@std@@AEBV23@@Z 0000000140003514 f i AdQuery.obj
 0001:000027d4       ?BytesToLdapFilter@ith@@YA?AV?$basic_string@_WU?$char_traits@_W@std@@V?$allocator@_W@2@@std@@AEBV?$vector@EV?$allocator@E@std@@@3@@Z 00000001400037d4 f i AdQuery.obj
 0001:00002c64       ??1?$optional@V?$vector@EV?$allocator@E@std@@@std@@@std@@QEAA@XZ 0000000140003c64 f i AdQuery.obj
 0001:00002c78       ?FileTime64ToString@ith@@YA?AV?$basic_string@_WU?$char_traits@_W@std@@V?$allocator@_W@2@@std@@_J@Z 0000000140003c78 f i AdQuery.obj
 0001:00003194       ??1?$optional@V?$basic_string@_WU?$char_traits@_W@std@@V?$allocator@_W@2@@std@@@std@@QEAA@XZ 0000000140004194 f i AdQuery.obj
 0001:00003850       ??1NamedEntry@ith@@QEAA@XZ 0000000140004850 f i AdQuery.obj
 0001:00003858       ??1?$_Func_class@XPEAX@std@@QEAA@XZ 0000000140004858 f i AdQuery.obj
 0001:00003858       ??1?$function@$$A6AXPEAX@Z@std@@QEAA@XZ 0000000140004858 f i AdQuery.obj
 0001:00003914       ?RunAdQuery@ith@@YA?AV?$unique_ptr@UAdResult@ith@@U?$default_delete@UAdResult@ith@@@std@@@std@@AEBUAdQueryRequest@1@@Z 0000000140004914 f   AdQuery.obj
 0001:000061e0       ??1InfoPair@ith@@QEAA@XZ   00000001400071e0 f i AdQuery.obj
 0001:00006200       ??$?H_WU?$char_traits@_W@std@@V?$allocator@_W@1@@std@@YA?AV?$basic_string@_WU?$char_traits@_W@std@@V?$allocator@_W@2@@0@$$QEAV10@QEB_W@Z 0000000140007200 f i AdQuery.obj
 0001:0000627c       ??$emplace_back@AEBQEA_W@?$vector@V?$basic_string@_WU?$char_traits@_W@std@@V?$allocator@_W@2@@std@@V?$allocator@V?$basic_string@_WU?$char_traits@_W@std@@V?$allocator@_W@2@@std@@@2@@std@@QEAAAEAV?$basic_string@_WU?$char_traits@_W@std@@V?$allocator@_W@2@@1@AEBQEA_W@Z 000000014000727c f i AdQuery.obj
 0001:0000656c       ??$?H_WU?$char_traits@_W@std@@V?$allocator@_W@1@@std@@YA?AV?$basic_string@_WU?$char_traits@_W@std@@V?$allocator@_W@2@@0@QEB_WAEBV10@@Z 000000014000756c f i AdQuery.obj
 0001:000065e0       ??$?H_WU?$char_traits@_W@std@@V?$allocator@_W@1@@std@@YA?AV?$basic_string@_WU?$char_traits@_W@std@@V?$allocator@_W@2@@0@QEB_W$$QEAV10@@Z 00000001400075e0 f i AdQuery.obj
 0001:0000683c       ??$?H_WU?$char_traits@_W@std@@V?$allocator@_W@1@@std@@YA?AV?$basic_string@_WU?$char_traits@_W@std@@V?$allocator@_W@2@@0@$$QEAV10@AEBV10@@Z 000000014000783c f i AdQuery.obj
 0001:00006950       ??$?0AEAV?$basic_string@_WU?$char_traits@_W@std@@V?$allocator@_W@2@@std@@$0A@@?$optional@V?$basic_string@_WU?$char_traits@_W@std@@V?$allocator@_W@2@@std@@@std@@QEAA@AEAV?$basic_string@_WU?$char_traits@_W@std@@V?$allocator@_W@2@@1@@Z 0000000140007950 f i AdQuery.obj
 0001:0000696c       ??0?$vector@PEB_WV?$allocator@PEB_W@std@@@std@@QEAA@V?$initializer_list@PEB_W@1@AEBV?$allocator@PEB_W@1@@Z 000000014000796c f i AdQuery.obj
 0001:00006a3c       ??1?$ComPtr@UIADs@@@WRL@Microsoft@@QEAA@XZ 0000000140007a3c f i AdQuery.obj
 0001:00006a3c       ??1?$ComPtr@UIDirectorySearch@@@WRL@Microsoft@@QEAA@XZ 0000000140007a3c f i AdQuery.obj
 0001:00006a60       ??1?$vector@V?$basic_string@_WU?$char_traits@_W@std@@V?$allocator@_W@2@@std@@V?$allocator@V?$basic_string@_WU?$char_traits@_W@std@@V?$allocator@_W@2@@std@@@2@@std@@QEAA@XZ 0000000140007a60 f i AdQuery.obj
 0001:00006a68       ??1?$vector@EV?$allocator@E@std@@@std@@QEAA@XZ 0000000140007a68 f i AdQuery.obj
 0001:00006acc       ??0?$vector@EV?$allocator@E@std@@@std@@QEAA@AEBV01@@Z 0000000140007acc f i AdQuery.obj
 0001:00006b78       ??1?$unique_ptr@UAdResult@ith@@U?$default_delete@UAdResult@ith@@@std@@@std@@QEAA@XZ 0000000140007b78 f i AdQuery.obj
 0001:00006bcc       ?push_back@?$vector@UNamedEntry@ith@@V?$allocator@UNamedEntry@ith@@@std@@@std@@QEAAX$$QEAUNamedEntry@ith@@@Z 0000000140007bcc f i AdQuery.obj
 0001:00006f0c       ??1?$vector@UNamedEntry@ith@@V?$allocator@UNamedEntry@ith@@@std@@@std@@QEAA@XZ 0000000140007f0c f i AdQuery.obj
 0001:00006f14       ?push_back@?$vector@UInfoPair@ith@@V?$allocator@UInfoPair@ith@@@std@@@std@@QEAAX$$QEAUInfoPair@ith@@@Z 0000000140007f14 f i AdQuery.obj
 0001:0000719c       ?reserve@?$basic_string@_WU?$char_traits@_W@std@@V?$allocator@_W@2@@std@@QEAAX_K@Z 000000014000819c f i AdQuery.obj
 0001:000072dc       ??4?$basic_string@_WU?$char_traits@_W@std@@V?$allocator@_W@2@@std@@QEAAAEAV01@$$QEAV01@@Z 00000001400082dc f i AdQuery.obj
 0001:00007c14       ??$_Assign@_W@?$basic_string@_WU?$char_traits@_W@std@@V?$allocator@_W@2@@std@@AEAAAEAV01@QEB_W_K@Z 0000000140008c14 f i AdQuery.obj
 0001:00007d74       ?_Tidy@?$vector@V?$basic_string@_WU?$char_traits@_W@std@@V?$allocator@_W@2@@std@@V?$allocator@V?$basic_string@_WU?$char_traits@_W@std@@V?$allocator@_W@2@@std@@@2@@std@@AEAAXXZ 0000000140008d74 f i AdQuery.obj
 0001:00007e0c       ?_Tidy@?$vector@UNamedEntry@ith@@V?$allocator@UNamedEntry@ith@@@std@@@std@@AEAAXXZ 0000000140008e0c f i AdQuery.obj
 0001:00007ec8       ??1?$vector@UInfoPair@ith@@V?$allocator@UInfoPair@ith@@@std@@@std@@QEAA@XZ 0000000140008ec8 f i AdQuery.obj
 0001:00007f68       ??0?$basic_string@_WU?$char_traits@_W@std@@V?$allocator@_W@2@@std@@QEAA@U_String_constructor_concat_tag@1@AEBV01@QEB_W_K23@Z 0000000140008f68 f i AdQuery.obj
 0001:00008070       ??$_Append@_W@?$basic_string@_WU?$char_traits@_W@std@@V?$allocator@_W@2@@std@@AEAAAEAV01@QEB_W_K@Z 0000000140009070 f i AdQuery.obj
 0001:00008b00       __scrt_exe_initialize_mta  0000000140009b00 f   LIBCMT:utility_desktop.obj
 0001:00008b00       __scrt_initialize_winrt    0000000140009b00 f   LIBCMT:utility_desktop.obj
 0001:00008b00       __scrt_stub_for_initialize_mta 0000000140009b00 f   LIBCMT:utility_desktop.obj
 0001:00008b00       _get_startup_commit_mode   0000000140009b00 f   LIBCMT:commit_mode.obj
 0001:00008b00       _get_startup_new_mode      0000000140009b00 f   LIBCMT:new_mode.obj
 0001:00008b00       _get_startup_thread_locale_mode 0000000140009b00 f   LIBCMT:thread_locale.obj
 0001:00008b00       _matherr                   0000000140009b00 f   LIBCMT:matherr.obj
 0001:00008e60       ??1?$_Tidy_guard@V?$vector@PEB_WV?$allocator@PEB_W@std@@@std@@@std@@QEAA@XZ 0000000140009e60 f i AdQuery.obj
 0001:00008ed8       ??1?$_Tidy_guard@V?$vector@EV?$allocator@E@std@@@std@@@std@@QEAA@XZ 0000000140009ed8 f i AdQuery.obj
 0001:000090d8       ??$construct@UInfoPair@ith@@U12@@?$_Default_allocator_traits@V?$allocator@UInfoPair@ith@@@std@@@std@@SAXAEAV?$allocator@UInfoPair@ith@@@1@QEAUInfoPair@ith@@$$QEAU34@@Z 000000014000a0d8 f i AdQuery.obj
 0001:00009168       ??1_Reallocation_guard2@?$vector@V?$basic_string@_WU?$char_traits@_W@std@@V?$allocator@_W@2@@std@@V?$allocator@V?$basic_string@_WU?$char_traits@_W@std@@V?$allocator@_W@2@@std@@@2@@std@@QEAA@XZ 000000014000a168 f i AdQuery.obj
 0001:000091e8       ??1_Reallocation_guard2@?$vector@UNamedEntry@ith@@V?$allocator@UNamedEntry@ith@@@std@@@std@@QEAA@XZ 000000014000a1e8 f i AdQuery.obj
 0001:00009274       ??1_Reallocation_guard2@?$vector@UInfoPair@ith@@V?$allocator@UInfoPair@ith@@@std@@@std@@QEAA@XZ 000000014000a274 f i AdQuery.obj
 0001:000093e0       ??$swap@UNamedEntry@ith@@$0A@@std@@YAXAEAUNamedEntry@ith@@0@Z 000000014000a3e0 f i AdQuery.obj
 0001:00009584       ??1?$_Uninitialized_backout_al@V?$allocator@UInfoPair@ith@@@std@@@std@@QEAA@XZ 000000014000a584 f i AdQuery.obj
 0001:000095bc       ??1?$_Uninitialized_backout_al@V?$allocator@UNamedEntry@ith@@@std@@@std@@QEAA@XZ 000000014000a5bc f i AdQuery.obj
 0001:000095ec       ?_Xran@?$_String_val@U?$_Simple_types@_W@std@@@std@@SAXXZ 000000014000a5ec f i AdQuery.obj
 0001:00009600       ??1ComApartment@ith@@QEAA@XZ 000000014000a600 f i AdQueryTool.obj
 0001:00009618       ?Handle@AdQueryView@ith@@UEBAPEAUHWND__@@XZ 000000014000a618 f i AdQueryTool.obj
 0001:00009620       ??1thread@std@@QEAA@XZ     000000014000a620 f i AdQueryTool.obj
 0001:000097c4       ??1AdQueryRequest@ith@@QEAA@XZ 000000014000a7c4 f i AdQueryTool.obj
 0001:0000aac4       ??_EAdQueryView@ith@@UEAAPEAXI@Z 000000014000bac4 f i * CIL library *:* CIL module *
 0001:0000aac4       ??_GAdQueryView@ith@@UEAAPEAXI@Z 000000014000bac4 f i AdQueryTool.obj
 0001:0000aaf8       ??1AdQueryView@ith@@UEAA@XZ 000000014000baf8 f   AdQueryTool.obj
 0001:0000ac64       ?LayoutResults@AdQueryView@ith@@AEAAXXZ 000000014000bc64 f   AdQueryTool.obj
 0001:0000b340       ?BeginSearch@AdQueryView@ith@@AEAAXXZ 000000014000c340 f   AdQueryTool.obj
 0001:0000bb08       ?FillNamedList@AdQueryView@ith@@AEAAXPEAUHWND__@@AEBV?$vector@UNamedEntry@ith@@V?$allocator@UNamedEntry@ith@@@std@@@std@@@Z 000000014000cb08 f   AdQueryTool.obj
 0001:0000bba0       ?CopyTextToClipboard@AdQueryView@ith@@AEAAXAEBV?$basic_string@_WU?$char_traits@_W@std@@V?$allocator@_W@2@@std@@@Z 000000014000cba0 f   AdQueryTool.obj
 0001:0000bcfc       ?CopySelected@AdQueryView@ith@@AEAAXPEAUHWND__@@H@Z 000000014000ccfc f   AdQueryTool.obj
 0001:0000bef0       ?SetBounds@AdQueryView@ith@@UEAAXAEBUtagRECT@@@Z 000000014000cef0 f   AdQueryTool.obj
 0001:0000bf24       ?Show@AdQueryView@ith@@UEAAX_N@Z 000000014000cf24 f   AdQueryTool.obj
 0001:0000bf38       ?CreateView@AdQueryTool@ith@@UEAA?AV?$unique_ptr@VToolView@ith@@U?$default_delete@VToolView@ith@@@std@@@std@@PEAUHWND__@@PEAUHFONT__@@@Z 000000014000cf38 f   AdQueryTool.obj
 0001:0000c5f4       ??$?H_WU?$char_traits@_W@std@@V?$allocator@_W@1@@std@@YA?AV?$basic_string@_WU?$char_traits@_W@std@@V?$allocator@_W@2@@0@$$QEAV10@0@Z 000000014000d5f4 f i AdQueryTool.obj
 0001:0000c844       ??4?$vector@UNamedEntry@ith@@V?$allocator@UNamedEntry@ith@@@std@@@std@@QEAAAEAV01@AEBV01@@Z 000000014000d844 f i AdQueryTool.obj
 0001:0000cb24       ??$_Invoke@V?$tuple@P6AXPEAUHWND__@@IUAdQueryRequest@ith@@@ZPEAU1@IU23@@std@@$0A@$00$01$02@thread@std@@CAIPEAX@Z 000000014000db24 f i AdQueryTool.obj
 0001:0000cc94       ??1?$unique_ptr@V?$tuple@P6AXPEAUHWND__@@IUAdQueryRequest@ith@@@ZPEAU1@IU23@@std@@U?$default_delete@V?$tuple@P6AXPEAUHWND__@@IUAdQueryRequest@ith@@@ZPEAU1@IU23@@std@@@2@@std@@QEAA@XZ 000000014000dc94 f i AdQueryTool.obj
 0001:0000ccc8       ?find@?$_WChar_traits@_W@std@@SAPEB_WPEB_W_KAEB_W@Z 000000014000dcc8 f i AdQueryTool.obj
 0001:0000ce00       ??0bad_alloc@std@@QEAA@XZ  000000014000de00 f i libcpmt:xthrow.obj
 0001:0000ce30       ??0bad_function_call@std@@QEAA@AEBV01@@Z 000000014000de30 f i libcpmt:xthrow.obj
 0001:0000ce70       ??0bad_function_call@std@@QEAA@XZ 000000014000de70 f i libcpmt:xthrow.obj
 0001:0000ce90       ??0length_error@std@@QEAA@AEBV01@@Z 000000014000de90 f i libcpmt:xthrow.obj
 0001:0000ced0       ??0length_error@std@@QEAA@PEBD@Z 000000014000ded0 f i libcpmt:xthrow.obj
 0001:0000cf20       ??0logic_error@std@@QEAA@AEBV01@@Z 000000014000df20 f i libcpmt:xthrow.obj
 0001:0000cf60       ??0out_of_range@std@@QEAA@AEBV01@@Z 000000014000df60 f i libcpmt:xthrow.obj
 0001:0000cfa0       ??0out_of_range@std@@QEAA@PEBD@Z 000000014000dfa0 f i libcpmt:xthrow.obj
 0001:0000cff0       ??0runtime_error@std@@QEAA@AEBV01@@Z 000000014000dff0 f i libcpmt:xthrow.obj
 0001:0000d030       ?_Xbad_function_call@std@@YAXXZ 000000014000e030 f   libcpmt:xthrow.obj
 0001:0000d050       ?_Xlength_error@std@@YAXPEBD@Z 000000014000e050 f   libcpmt:xthrow.obj
 0001:0000d080       ?_Xout_of_range@std@@YAXPEBD@Z 000000014000e080 f   libcpmt:xthrow.obj
 0001:0000d0b0       ?what@bad_function_call@std@@UEBAPEBDXZ 000000014000e0b0 f i libcpmt:xthrow.obj
 0001:0000df90       __std_find_first_not_of_trivial_pos_2 000000014000ef90 f   libcpmt:vector_algorithms.obj
 0001:0000e0a0       __std_find_last_not_of_trivial_pos_2 000000014000f0a0 f   libcpmt:vector_algorithms.obj
 0001:0000e0b0       __std_mismatch_2           000000014000f0b0 f   libcpmt:vector_algorithms.obj
 0001:0000e0c0       ??$_Append@D@?$basic_string@DU?$char_traits@D@std@@V?$allocator@D@2@@std@@AEAAAEAV01@QEBD_K@Z 000000014000f0c0 f i libcpmt:thread0.obj
 0001:0000e1b0       ??$_Construct@$00PEBD@?$basic_string@DU?$char_traits@D@std@@V?$allocator@D@2@@std@@AEAAXQEBD_K@Z 000000014000f1b0 f i libcpmt:thread0.obj
 0001:0000e300       ??$_Reallocate_grow_by@V<lambda_1>@?1???$_Append@D@?$basic_string@DU?$char_traits@D@std@@V?$allocator@D@2@@std@@AEAAAEAV23@QEBD_K@Z@PEBD_K@?$basic_string@DU?$char_traits@D@std@@V?$allocator@D@2@@std@@AEAAAEAV01@_KV<lambda_1>@?1???$_Append@D@01@AEAAAEAV01@QEBD0@Z@PEBD_K@Z 000000014000f300 f i libcpmt:thread0.obj
 0001:0000e530       ??0?$basic_string@DU?$char_traits@D@std@@V?$allocator@D@2@@std@@QEAA@AEBV01@@Z 000000014000f530 f i libcpmt:thread0.obj
 0001:0000e690       ??0_System_error@std@@IEAA@Verror_code@1@AEBV?$basic_string@DU?$char_traits@D@std@@V?$allocator@D@2@@1@@Z 000000014000f690 f i libcpmt:thread0.obj
 0001:0000e890       ??0_System_error@std@@QEAA@AEBV01@@Z 000000014000f890 f i libcpmt:thread0.obj
 0001:0000e8e0       ??0system_error@std@@QEAA@AEBV01@@Z 000000014000f8e0 f i libcpmt:thread0.obj
 0001:0000e940       ??0system_error@std@@QEAA@HAEBVerror_category@1@PEBD@Z 000000014000f940 f i libcpmt:thread0.obj
 0001:0000ea80       ??1?$basic_string@DU?$char_traits@D@std@@V?$allocator@D@2@@std@@QEAA@XZ 000000014000fa80 f i libcpmt:thread0.obj
 0001:0000eb30       ??_E_Generic_error_category@std@@UEAAPEAXI@Z 000000014000fb30 f i libcpmt:thread0.obj
 0001:0000eb30       ??_G_Generic_error_category@std@@UEAAPEAXI@Z 000000014000fb30 f i libcpmt:thread0.obj
 0001:0000eb60       ??_E_System_error@std@@UEAAPEAXI@Z 000000014000fb60 f i libcpmt:thread0.obj
 0001:0000eb60       ??_Esystem_error@std@@UEAAPEAXI@Z 000000014000fb60 f i libcpmt:thread0.obj
 0001:0000eb60       ??_G_System_error@std@@UEAAPEAXI@Z 000000014000fb60 f i libcpmt:thread0.obj
 0001:0000eb60       ??_Gsystem_error@std@@UEAAPEAXI@Z 000000014000fb60 f i libcpmt:thread0.obj
 0001:0000ebb0       ?_Throw_Cpp_error@std@@YAXH@Z 000000014000fbb0 f   libcpmt:thread0.obj
 0001:0000ec00       ?default_error_condition@error_category@std@@UEBA?AVerror_condition@2@H@Z 000000014000fc00 f i libcpmt:thread0.obj
 0001:0000ec10       ?equivalent@error_category@std@@UEBA_NAEBVerror_code@2@H@Z 000000014000fc10 f i libcpmt:thread0.obj
 0001:0000ec30       ?equivalent@error_category@std@@UEBA_NHAEBVerror_condition@2@@Z 000000014000fc30 f i libcpmt:thread0.obj
 0001:0000ec80       ?generic_category@std@@YAAEBVerror_category@1@XZ 000000014000fc80 f i libcpmt:thread0.obj
 0001:0000ec90       ?message@_Generic_error_category@std@@UEBA?AV?$basic_string@DU?$char_traits@D@std@@V?$allocator@D@2@@2@H@Z 000000014000fc90 f i libcpmt:thread0.obj
 0001:0000ece0       ?name@_Generic_error_category@std@@UEBAPEBDXZ 000000014000fce0 f i libcpmt:thread0.obj
 0001:0000ecf0       _Cnd_do_broadcast_at_thread_exit 000000014000fcf0 f   libcpmt:xnotify.obj
 0001:0000ede0       _Thrd_detach               000000014000fde0 f   libcpmt:cthread.obj
 0001:0000ee00       _Thrd_id                   000000014000fe00 f   libcpmt:cthread.obj
 0001:0000ee10       ?_Syserror_map@std@@YAPEBDH@Z 000000014000fe10 f   libcpmt:syserror.obj
 0001:0000ee40       _Mtx_lock                  000000014000fe40 f   libcpmt:mutex.obj
 0001:0000eed0       _Mtx_unlock                000000014000fed0 f   libcpmt:mutex.obj
 0001:0000ef00       _Cnd_broadcast             000000014000ff00 f   libcpmt:cond.obj
 0001:0000ef30       __security_check_cookie    000000014000ff30 f   LIBCMT:amdsecgs.obj
 0001:0000ef50       ??2@YAPEAX_K@Z             000000014000ff50 f   LIBCMT:new_scalar.obj
 0001:0000efa0       ??3@YAXPEAX@Z              000000014000ffa0 f   LIBCMT:delete_scalar.obj
 0001:0000efb0       ??3@YAXPEAX_K@Z            000000014000ffb0 f   LIBCMT:delete_scalar_size.obj
 0001:0000efc0       ??_Etype_info@@UEAAPEAXI@Z 000000014000ffc0 f i LIBCMT:std_type_info_static.obj
 0001:0000efc0       ??_Gtype_info@@UEAAPEAXI@Z 000000014000ffc0 f i LIBCMT:std_type_info_static.obj
 0001:0000eff0       __report_gsfailure         000000014000fff0 f   LIBCMT:gs_report.obj
 0001:0000f270       wWinMainCRTStartup         0000000140010270 f   LIBCMT:exe_wwinmain.obj
 0001:0000f290       __GSHandlerCheck           0000000140010290 f   LIBCMT:gshandler.obj
 0001:0000f2b0       __GSHandlerCheckCommon     00000001400102b0 f   LIBCMT:gshandler.obj
 0001:0000f480       __isa_available_init       0000000140010480 f   LIBCMT:cpu_disp.obj
 0001:0000f730       __GSHandlerCheck_EH4       0000000140010730 f   LIBCMT:gshandlereh4.obj
 0001:0000f7a0       __sanitizer_annotate_contiguous_container 00000001400107a0 f i libcpmt:asan_noop.obj
 0001:0000f7a0       __sanitizer_annotate_contiguous_container_default 00000001400107a0 f i libcpmt:asan_noop.obj
 0001:0000f7a0       _guard_check_icall_nop     00000001400107a0 f i LIBCMT:guard_support.obj
 0001:0000f7a0       _initialize_denormal_control 00000001400107a0 f i LIBCMT:denormal_control.obj
 0001:0000f7a0       _initialize_invalid_parameter_handler 00000001400107a0 f i LIBCMT:invalid_parameter_handler.obj
 0001:0000f7b0       ?__scrt_throw_std_bad_alloc@@YAXXZ 00000001400107b0 f   LIBCMT:throw_bad_alloc.obj
 0001:0000f7d0       __scrt_acquire_startup_lock 00000001400107d0 f   LIBCMT:utility.obj
 0001:0000f820       __scrt_initialize_crt      0000000140010820 f   LIBCMT:utility.obj
 0001:0000f860       __scrt_initialize_onexit_tables 0000000140010860 f   LIBCMT:utility.obj
 0001:0000f900       __scrt_is_nonwritable_in_current_image 0000000140010900 f   LIBCMT:utility.obj
 0001:0000f9a0       __scrt_release_startup_lock 00000001400109a0 f   LIBCMT:utility.obj
 0001:0000f9d0       __scrt_uninitialize_crt    00000001400109d0 f   LIBCMT:utility.obj
 0001:0000fa00       atexit                     0000000140010a00 f   LIBCMT:utility.obj
 0001:0000fa40       __security_init_cookie     0000000140010a40 f   LIBCMT:gs_support.obj
 0001:0000fb00       _get_startup_argv_mode     0000000140010b00 f   LIBCMT:argv_mode.obj
 0001:0000fb10       _get_startup_file_mode     0000000140010b10 f   LIBCMT:file_mode.obj
 0001:0000fb20       ?__scrt_initialize_type_info@@YAXXZ 0000000140010b20 f   LIBCMT:tncleanup.obj
 0001:0000fb30       __acrt_uninitialize_command_line 0000000140010b30 f   libucrt:argv_data.obj
 0001:0000fb30       _should_initialize_environment 0000000140010b30 f   LIBCMT:env_mode.obj
 0001:0000fb40       __local_stdio_scanf_options 0000000140010b40 f i LIBCMT:default_local_stdio_options.obj
 0001:0000fb50       __scrt_initialize_default_local_stdio_options 0000000140010b50 f   LIBCMT:default_local_stdio_options.obj
 0001:0000fb70       __scrt_is_user_matherr_present 0000000140010b70 f   LIBCMT:matherr_detection.obj
 0001:0000fb80       __scrt_get_dyn_tls_init_callback 0000000140010b80 f   LIBCMT:dyn_tls_init.obj
 0001:0000fb90       __scrt_get_dyn_tls_dtor_callback 0000000140010b90 f   LIBCMT:dyn_tls_dtor.obj
 0001:0000fba0       __crt_debugger_hook        0000000140010ba0 f   LIBCMT:utility_desktop.obj
 0001:0000fbb0       __scrt_fastfail            0000000140010bb0 f   LIBCMT:utility_desktop.obj
 0001:0000fbc0       __scrt_get_show_window_mode 0000000140010bc0 f   LIBCMT:utility_desktop.obj
 0001:0000fc20       __scrt_initialize_mta      0000000140010c20 f   LIBCMT:utility_desktop.obj
 0001:0000fc30       __scrt_is_managed_app      0000000140010c30 f   LIBCMT:utility_desktop.obj
 0001:0000fc90       __scrt_set_unhandled_exception_filter 0000000140010c90 f   LIBCMT:utility_desktop.obj
 0001:0000fca0       __scrt_unhandled_exception_filter 0000000140010ca0 f   LIBCMT:utility_desktop.obj
 0001:0000fd00       _RTC_Initialize            0000000140010d00 f   LIBCMT:initsect.obj
 0001:0000fd50       _RTC_Terminate             0000000140010d50 f   LIBCMT:initsect.obj
 0001:0000fda0       __scrt_is_ucrt_dll_in_use  0000000140010da0 f   LIBCMT:ucrt_detection.obj
 0001:0000fdb0       ??$_CallSETranslator@V__FrameHandler3@@@@YAHPEAUEHExceptionRecord@@PEA_KPEAU_CONTEXT@@PEAU_xDISPATCHER_CONTEXT@@PEBU_s_FuncInfo@@K1H@Z 0000000140010db0 f i libvcruntime:risctrnsctrl.obj
 0001:0000fe00       ??$_CallSETranslator@V__FrameHandler4@@@@YAHPEAUEHExceptionRecord@@PEA_KPEAU_CONTEXT@@PEAU_xDISPATCHER_CONTEXT@@PEAUFuncInfo4@FH4@@K1H@Z 0000000140010e00 f i libvcruntime:risctrnsctrl.obj
 0001:0000fe50       ?DecompFuncInfo@FH4@@YA_JPEAEAEAUFuncInfo4@1@_KH_N@Z 0000000140010e50 f i libvcruntime:risctrnsctrl.obj
 0001:0000ff60       ?ExecutionInCatch@__FrameHandler3@@SA_NPEAU_xDISPATCHER_CONTEXT@@PEBU_s_FuncInfo@@@Z 0000000140010f60 f   libvcruntime:risctrnsctrl.obj
 0001:0000ffd0       ?ExecutionInCatch@__FrameHandler4@@SA_NPEAU_xDISPATCHER_CONTEXT@@PEAUFuncInfo4@FH4@@@Z 0000000140010fd0 f   libvcruntime:risctrnsctrl.obj
 0001:0000ffe0       ?FrameUnwindToEmptyState@__FrameHandler3@@SAXPEA_KPEAU_xDISPATCHER_CONTEXT@@PEBU_s_FuncInfo@@@Z 0000000140010fe0 f   libvcruntime:risctrnsctrl.obj
 0001:00010110       ?FrameUnwindToEmptyState@__FrameHandler4@@SAXPEA_KPEAU_xDISPATCHER_CONTEXT@@PEAUFuncInfo4@FH4@@@Z 0000000140011110 f   libvcruntime:risctrnsctrl.obj
 0001:00010150       ?GetEstablisherFrame@__FrameHandler3@@SAPEA_KPEA_KPEAU_xDISPATCHER_CONTEXT@@PEBU_s_FuncInfo@@0@Z 0000000140011150 f   libvcruntime:risctrnsctrl.obj
 0001:00010250       ?GetEstablisherFrame@__FrameHandler4@@SAPEA_KPEA_KPEAU_xDISPATCHER_CONTEXT@@PEAUFuncInfo4@FH4@@0@Z 0000000140011250 f   libvcruntime:risctrnsctrl.obj
 0001:00010280       ?GetRangeOfTrysToCheck@__FrameHandler3@@SA?AU?$pair@Viterator@TryBlockMap@__FrameHandler3@@V123@@std@@AEAVTryBlockMap@1@HPEAU_xDISPATCHER_CONTEXT@@PEBU_s_FuncInfo@@H@Z 0000000140011280 f   libvcruntime:risctrnsctrl.obj
 0001:000103b0       ?GetRangeOfTrysToCheck@__FrameHandler4@@SA?AU?$pair@Viterator@TryBlockMap4@FH4@@V123@@std@@AEAVTryBlockMap4@FH4@@HPEAU_xDISPATCHER_CONTEXT@@PEAUFuncInfo4@5@H@Z 00000001400113b0 f   libvcruntime:risctrnsctrl.obj
 0001:00010530       ?UnwindNestedFrames@__FrameHandler3@@SAXPEA_KPEAUEHExceptionRecord@@PEAU_CONTEXT@@0PEAXPEBU_s_FuncInfo@@HHPEBU_s_HandlerType@@PEAU_xDISPATCHER_CONTEXT@@E@Z 0000000140011530 f   libvcruntime:risctrnsctrl.obj
 0001:00010660       ?UnwindNestedFrames@__FrameHandler4@@SAXPEA_KPEAUEHExceptionRecord@@PEAU_CONTEXT@@0PEAXPEAUFuncInfo4@FH4@@HHPEAUHandlerType4@5@PEAU_xDISPATCHER_CONTEXT@@E@Z 0000000140011660 f   libvcruntime:risctrnsctrl.obj
 0001:000107e0       ?setBuffer@TryBlockMap4@FH4@@QEAAXViterator@12@@Z 00000001400117e0 f i libvcruntime:risctrnsctrl.obj
 0001:000109d0       _CreateFrameInfo           00000001400119d0 f   libvcruntime:risctrnsctrl.obj
 0001:00010a10       _FindAndUnlinkFrame        0000000140011a10 f   libvcruntime:risctrnsctrl.obj
 0001:00010a70       _GetImageBase              0000000140011a70 f   libvcruntime:risctrnsctrl.obj
 0001:00010a90       _GetThrowImageBase         0000000140011a90 f   libvcruntime:risctrnsctrl.obj
 0001:00010ab0       _SetImageBase              0000000140011ab0 f   libvcruntime:risctrnsctrl.obj
 0001:00010ad0       _SetThrowImageBase         0000000140011ad0 f   libvcruntime:risctrnsctrl.obj
 0001:00010af0       __CxxFrameHandler3         0000000140011af0 f   libvcruntime:risctrnsctrl.obj
 0001:00010b70       __CxxFrameHandler4         0000000140011b70 f   libvcruntime:risctrnsctrl.obj
 0001:00010c30       __std_exception_copy       0000000140011c30 f   libvcruntime:std_exception.obj
 0001:00010cd0       __std_exception_destroy    0000000140011cd0 f   libvcruntime:std_exception.obj
 0001:00010d10       __DestructExceptionObject  0000000140011d10 f   libvcruntime:ehhelpers.obj
 0001:00010d80       ?_CallMemberFunction0@@YAXQEAX0@Z 0000000140011d80 f i libvcruntime:ehhelpers.obj
 0001:00010d90       _IsExceptionObjectToBeDestroyed 0000000140011d90 f   libvcruntime:ehhelpers.obj
 0001:00010dd0       __AdjustPointer            0000000140011dd0 f   libvcruntime:ehhelpers.obj
 0001:00010e00       __FrameUnwindFilter        0000000140011e00 f   libvcruntime:ehhelpers.obj
 0001:00010e70       __current_exception        0000000140011e70 f   libvcruntime:ehhelpers.obj
 0001:00010e90       __current_exception_context 0000000140011e90 f   libvcruntime:ehhelpers.obj
 0001:00010eb0       __std_terminate            0000000140011eb0 f   libvcruntime:ehhelpers.obj
 0001:00010ec0       _CxxThrowException         0000000140011ec0 f   libvcruntime:throw.obj
 0001:00010f70       __C_specific_handler       0000000140011f70 f   libvcruntime:riscchandler.obj
 0001:00011190       __vcrt_initialize          0000000140012190 f   libvcruntime:initialization.obj
 0001:000111c0       __vcrt_uninitialize        00000001400121c0 f   libvcruntime:initialization.obj
 0001:000111e0       __std_type_info_compare    00000001400121e0 f   libvcruntime:std_type_info.obj
 0001:00011210       __vcrt_freefls             0000000140012210 f   libvcruntime:per_thread_data.obj
 0001:00011230       __vcrt_getptd              0000000140012230 f   libvcruntime:per_thread_data.obj
 0001:00011310       __vcrt_initialize_ptd      0000000140012310 f   libvcruntime:per_thread_data.obj
 0001:00011380       __vcrt_uninitialize_ptd    0000000140012380 f   libvcruntime:per_thread_data.obj
 0001:000113b0       ?GetCurrentState@__FrameHandler3@@SAHPEA_KPEAU_xDISPATCHER_CONTEXT@@PEBU_s_FuncInfo@@@Z 00000001400123b0 f   libvcruntime:ehstate.obj
 0001:00011440       ?GetUnwindTryBlock@__FrameHandler3@@SAHPEA_KPEAU_xDISPATCHER_CONTEXT@@PEBU_s_FuncInfo@@@Z 0000000140012440 f   libvcruntime:ehstate.obj
 0001:00011470       ?SetState@__FrameHandler3@@SAXPEA_KPEAU_xDISPATCHER_CONTEXT@@PEBU_s_FuncInfo@@H@Z 0000000140012470 f   libvcruntime:ehstate.obj
 0001:00011480       ?SetUnwindTryBlock@__FrameHandler3@@SAXPEA_KPEAU_xDISPATCHER_CONTEXT@@PEBU_s_FuncInfo@@H@Z 0000000140012480 f   libvcruntime:ehstate.obj
 0001:000114c0       ?StateFromControlPc@__FrameHandler3@@SAHPEBU_s_FuncInfo@@PEAU_xDISPATCHER_CONTEXT@@@Z 00000001400124c0 f   libvcruntime:ehstate.obj
 0001:00011530       ?StateFromControlPc@__FrameHandler4@@SAHPEAUFuncInfo4@FH4@@PEAU_xDISPATCHER_CONTEXT@@@Z 0000000140012530 f   libvcruntime:ehstate.obj
 0001:00011630       ?StateFromIp@__FrameHandler3@@SAHPEBU_s_FuncInfo@@PEAU_xDISPATCHER_CONTEXT@@_K@Z 0000000140012630 f   libvcruntime:ehstate.obj
 0001:000116a0       ?StateFromIp@__FrameHandler4@@SAHPEAUFuncInfo4@FH4@@PEAU_xDISPATCHER_CONTEXT@@_K@Z 00000001400126a0 f   libvcruntime:ehstate.obj
 0001:00012e10       ??$TypeMatchHelper@V__FrameHandler3@@@@YAHPEBU_s_HandlerType@@PEBU_s_CatchableType@@PEBU_s_ThrowInfo@@@Z 0000000140013e10 f i libvcruntime:frame.obj
 0001:00012f40       ??$TypeMatchHelper@V__FrameHandler4@@@@YAHPEAUHandlerType4@FH4@@PEBU_s_CatchableType@@PEBU_s_ThrowInfo@@@Z 0000000140013f40 f i libvcruntime:frame.obj
 0001:00013070       ??$__InternalCxxFrameHandler@V__FrameHandler3@@@@YA?AW4_EXCEPTION_DISPOSITION@@PEAUEHExceptionRecord@@PEA_KPEAU_CONTEXT@@PEAU_xDISPATCHER_CONTEXT@@PEBU_s_FuncInfo@@H1E@Z 0000000140014070 f i libvcruntime:frame.obj
 0001:000132a0       ??$__InternalCxxFrameHandler@V__FrameHandler4@@@@YA?AW4_EXCEPTION_DISPOSITION@@PEAUEHExceptionRecord@@PEA_KPEAU_CONTEXT@@PEAU_xDISPATCHER_CONTEXT@@PEAUFuncInfo4@FH4@@H1E@Z 00000001400142a0 f i libvcruntime:frame.obj
 0001:00013500       ??$__InternalCxxFrameHandlerWrapper@V__FrameHandler3@@@@YA?AW4_EXCEPTION_DISPOSITION@@PEAUEHExceptionRecord@@PEA_KPEAU_CONTEXT@@PEAU_xDISPATCHER_CONTEXT@@PEBU_s_FuncInfo@@H1E@Z 0000000140014500 f i libvcruntime:frame.obj
 0001:00013510       ??$__InternalCxxFrameHandlerWrapper@V__FrameHandler4@@@@YA?AW4_EXCEPTION_DISPOSITION@@PEAUEHExceptionRecord@@PEA_KPEAU_CONTEXT@@PEAU_xDISPATCHER_CONTEXT@@PEAUFuncInfo4@FH4@@H1E@Z 0000000140014510 f i libvcruntime:frame.obj
 0001:00013570       ??0TryBlockMap4@FH4@@QEAA@PEBUFuncInfo4@1@_K@Z 0000000140014570 f i libvcruntime:frame.obj
 0001:00013660       ??0bad_exception@std@@QEAA@AEBV01@@Z 0000000140014660 f i libvcruntime:frame.obj
 0001:000136a0       ??0bad_exception@std@@QEAA@XZ 00000001400146a0 f i libvcruntime:frame.obj
 0001:000136d0       ?CxxCallCatchBlock@__FrameHandler3@@SAPEAXPEAU_EXCEPTION_RECORD@@@Z 00000001400146d0 f   libvcruntime:frame.obj
 0001:000138e0       ?CxxCallCatchBlock@__FrameHandler4@@SAPEAXPEAU_EXCEPTION_RECORD@@@Z 00000001400148e0 f   libvcruntime:frame.obj
 0001:00013b40       ?DecompHandler@HandlerMap4@FH4@@AEAAXXZ 0000000140014b40 f i libvcruntime:frame.obj
 0001:00013d90       ?FrameUnwindToState@__FrameHandler3@@SAXPEA_KPEAU_xDISPATCHER_CONTEXT@@PEBU_s_FuncInfo@@H@Z 0000000140014d90 f   libvcruntime:frame.obj
 0001:00013f40       ?FrameUnwindToState@__FrameHandler4@@SAXPEA_KPEAU_xDISPATCHER_CONTEXT@@PEAUFuncInfo4@FH4@@H@Z 0000000140014f40 f   libvcruntime:frame.obj
 0001:00014320       ?GetHandlerSearchState@__FrameHandler4@@SAHPEA_KPEAU_xDISPATCHER_CONTEXT@@PEAUFuncInfo4@FH4@@@Z 0000000140015320 f i libvcruntime:frame.obj
 0001:00014390       ?GetMaxState@__FrameHandler4@@SAHPEAU_xDISPATCHER_CONTEXT@@PEAUFuncInfo4@FH4@@@Z 0000000140015390 f i libvcruntime:frame.obj
 0001:00014570       ?ReadEntry@UWMap4@FH4@@AEAAXPEAPEAE@Z 0000000140015570 f i libvcruntime:frame.obj
 0001:00014610       ?_CallMemberFunction1@@YAXQEAX00@Z 0000000140015610 f i libvcruntime:frame.obj
 0001:00014620       ?_CallMemberFunction2@@YAXQEAX00H@Z 0000000140015620 f i libvcruntime:frame.obj
 0001:00014630       ?getStateFromIterators@UWMap4@FH4@@SAHAEBViterator@12@H0H0@Z 0000000140015630 f i libvcruntime:frame.obj
 0001:00014710       ?setBuffer@HandlerMap4@FH4@@QEAAXI@Z 0000000140015710 f i libvcruntime:frame.obj
 0001:00014930       _NLG_Notify                0000000140015930 f   libvcruntime:notify.obj
 0001:00014950       __NLG_Dispatch2            0000000140015950 f   libvcruntime:notify.obj
 0001:00014960       __NLG_Return2              0000000140015960 f   libvcruntime:notify.obj
 0001:00014970       __except_validate_context_record 0000000140015970 f   libvcruntime:jbcxrval.obj
 0001:000149b0       __vcrt_initialize_locks    00000001400159b0 f   libvcruntime:locks.obj
 0001:00014a40       __vcrt_uninitialize_locks  0000000140015a40 f   libvcruntime:locks.obj
 0001:00014ad0       _CallSettingFrame          0000000140015ad0 f   libvcruntime:handlers.obj
 0001:00014b10       _CallSettingFrame_LookupContinuationIndex 0000000140015b10 f   libvcruntime:handlers.obj
 0001:00014b40       _CallSettingFrame_NotifyContinuationAddr 0000000140015b40 f   libvcruntime:handlers.obj
 0001:00014b70       _CallSettingFrameEncoded   0000000140015b70 f   libvcruntime:handlers.obj
 0001:00014bb8       ??$ensure_buffer_is_big_enough@D@formatting_buffer@__crt_stdio_output@@QEAA_N_KAEAV__crt_cached_ptd_host@@@Z 0000000140015bb8 f i libucrt:output.obj
 0001:00014c60       ??$ensure_buffer_is_big_enough@_W@formatting_buffer@__crt_stdio_output@@QEAA_N_KAEAV__crt_cached_ptd_host@@@Z 0000000140015c60 f i libucrt:output.obj
 0001:00014d0c       ??$is_wide_character_specifier@_W@__crt_stdio_output@@YA_N_K_WW4length_modifier@0@@Z 0000000140015d0c f i libucrt:output.obj
 0001:00014d4c       ??$parse_integer@KV?$c_string_character_source@_W@__crt_strtox@@$0A@@__crt_strtox@@YAKAEAV__crt_cached_ptd_host@@V?$c_string_character_source@_W@0@H_N@Z 0000000140015d4c f i libucrt:output.obj
 0001:000154b8       ??$type_case_integer@$07@?$output_processor@_WV?$string_output_adapter@_W@__crt_stdio_output@@V?$standard_base@_WV?$string_output_adapter@_W@__crt_stdio_output@@@2@@__crt_stdio_output@@AEAA_N_N@Z 00000001400164b8 f i libucrt:output.obj
 0001:000156c4       ??$type_case_integer@$09@?$output_processor@_WV?$string_output_adapter@_W@__crt_stdio_output@@V?$standard_base@_WV?$string_output_adapter@_W@__crt_stdio_output@@@2@@__crt_stdio_output@@AEAA_N_N@Z 00000001400166c4 f i libucrt:output.obj
 0001:000158d0       ??$type_case_integer@$0BA@@?$output_processor@_WV?$string_output_adapter@_W@__crt_stdio_output@@V?$standard_base@_WV?$string_output_adapter@_W@__crt_stdio_output@@@2@@__crt_stdio_output@@AEAA_N_N@Z 00000001400168d0 f i libucrt:output.obj
 0001:00015adc       ??$type_case_integer_parse_into_buffer@I$07@?$output_processor@_WV?$string_output_adapter@_W@__crt_stdio_output@@V?$standard_base@_WV?$string_output_adapter@_W@__crt_stdio_output@@@2@@__crt_stdio_output@@AEAAXI_N@Z 0000000140016adc f i libucrt:output.obj
 0001:00015b60       ??$type_case_integer_parse_into_buffer@I$09@?$output_processor@_WV?$string_output_adapter@_W@__crt_stdio_output@@V?$standard_base@_WV?$string_output_adapter@_W@__crt_stdio_output@@@2@@__crt_stdio_output@@AEAAXI_N@Z 0000000140016b60 f i libucrt:output.obj
 0001:00015c20       ??$type_case_integer_parse_into_buffer@I$0BA@@?$output_processor@_WV?$string_output_adapter@_W@__crt_stdio_output@@V?$standard_base@_WV?$string_output_adapter@_W@__crt_stdio_output@@@2@@__crt_stdio_output@@AEAAXI_N@Z 0000000140016c20 f i libucrt:output.obj
 0001:00015cc0       ??$type_case_integer_parse_into_buffer@_K$07@?$output_processor@_WV?$string_output_adapter@_W@__crt_stdio_output@@V?$standard_base@_WV?$string_output_adapter@_W@__crt_stdio_output@@@2@@__crt_stdio_output@@AEAAX_K_N@Z 0000000140016cc0 f i libucrt:output.obj
 0001:00015d48       ??$type_case_integer_parse_into_buffer@_K$09@?$output_processor@_WV?$string_output_adapter@_W@__crt_stdio_output@@V?$standard_base@_WV?$string_output_adapter@_W@__crt_stdio_output@@@2@@__crt_stdio_output@@AEAAX_K_N@Z 0000000140016d48 f i libucrt:output.obj
 0001:00015e0c       ??$type_case_integer_parse_into_buffer@_K$0BA@@?$output_processor@_WV?$string_output_adapter@_W@__crt_stdio_output@@V?$standard_base@_WV?$string_output_adapter@_W@__crt_stdio_output@@@2@@__crt_stdio_output@@AEAAX_K_N@Z 0000000140016e0c f i libucrt:output.obj
 0001:00015eac       ?crop_zeroes@__crt_stdio_output@@YAXPEADQEAU__crt_locale_pointers@@@Z 0000000140016eac f i libucrt:output.obj
 0001:00015f20       ?get_raw_ptd@__crt_cached_ptd_host@@QEAAPEAU__acrt_ptd@@XZ 0000000140016f20 f i libucrt:output.obj
 0001:00015f88       ?parse_int_from_format_string@?$output_processor@_WV?$string_output_adapter@_W@__crt_stdio_output@@V?$standard_base@_WV?$string_output_adapter@_W@__crt_stdio_output@@@2@@__crt_stdio_output@@AEAA_NQEAH@Z 0000000140016f88 f i libucrt:output.obj
 0001:00016018       ?process@?$output_processor@_WV?$string_output_adapter@_W@__crt_stdio_output@@V?$standard_base@_WV?$string_output_adapter@_W@__crt_stdio_output@@@2@@__crt_stdio_output@@QEAAHXZ 0000000140017018 f i libucrt:output.obj
 0001:000162dc       ?state_case_size@?$output_processor@_WV?$string_output_adapter@_W@__crt_stdio_output@@V?$standard_base@_WV?$string_output_adapter@_W@__crt_stdio_output@@@2@@__crt_stdio_output@@AEAA_NXZ 00000001400172dc f i libucrt:output.obj
 0001:0001648c       ?state_case_type@?$output_processor@_WV?$string_output_adapter@_W@__crt_stdio_output@@V?$standard_base@_WV?$string_output_adapter@_W@__crt_stdio_output@@@2@@__crt_stdio_output@@AEAA_NXZ 000000014001748c f i libucrt:output.obj
 0001:00016a04       ?type_case_Z@?$output_processor@_WV?$string_output_adapter@_W@__crt_stdio_output@@V?$standard_base@_WV?$string_output_adapter@_W@__crt_stdio_output@@@2@@__crt_stdio_output@@AEAA_NXZ 0000000140017a04 f i libucrt:output.obj
 0001:00016a78       ?type_case_a@?$output_processor@_WV?$string_output_adapter@_W@__crt_stdio_output@@V?$standard_base@_WV?$string_output_adapter@_W@__crt_stdio_output@@@2@@__crt_stdio_output@@AEAA_NXZ 0000000140017a78 f i libucrt:output.obj
 0001:00016cf4       ?type_case_c_tchar@?$output_processor@_WV?$string_output_adapter@_W@__crt_stdio_output@@V?$standard_base@_WV?$string_output_adapter@_W@__crt_stdio_output@@@2@@__crt_stdio_output@@AEAA_N_W@Z 0000000140017cf4 f i libucrt:output.obj
 0001:00016db8       ?type_case_n@?$output_processor@_WV?$string_output_adapter@_W@__crt_stdio_output@@V?$standard_base@_WV?$string_output_adapter@_W@__crt_stdio_output@@@2@@__crt_stdio_output@@AEAA_NXZ 0000000140017db8 f i libucrt:output.obj
 0001:00016e70       ?type_case_s@?$output_processor@_WV?$string_output_adapter@_W@__crt_stdio_output@@V?$standard_base@_WV?$string_output_adapter@_W@__crt_stdio_output@@@2@@__crt_stdio_output@@AEAA_NXZ 0000000140017e70 f i libucrt:output.obj
 0001:00016f0c       ?type_case_s_compute_narrow_string_length@?$output_processor@_WV?$string_output_adapter@_W@__crt_stdio_output@@V?$standard_base@_WV?$string_output_adapter@_W@__crt_stdio_output@@@2@@__crt_stdio_output@@AEAAHH_W@Z 0000000140017f0c f i libucrt:output.obj
 0001:00016fd0       ?update_locale_slow@__crt_cached_ptd_host@@AEAAXXZ 0000000140017fd0 f i libucrt:output.obj
 0001:00017048       ?write_string@?$string_output_adapter@_W@__crt_stdio_output@@QEBAXQEB_WHQEAHAEAV__crt_cached_ptd_host@@@Z 0000000140018048 f i libucrt:output.obj
 0001:000170f0       __stdio_common_vswprintf   00000001400180f0 f   libucrt:output.obj
 0001:00017350       wcscpy_s                   0000000140018350 f   libucrt:wcscpy_s.obj
 0001:000173e0       ceilf                      00000001400183e0 f   libucrt:ceilf.obj
 0001:00017480       wcslen                     0000000140018480 f   libucrt:strnlen.obj
 0001:000175d0       wcsnlen                    00000001400185d0 f   libucrt:strnlen.obj
 0001:00017908       _beginthreadex             0000000140018908 f   libucrt:thread.obj
 0001:000179e8       _endthreadex               00000001400189e8 f   libucrt:thread.obj
 0001:000179f4       terminate                  00000001400189f4 f   libucrt:terminate.obj
 0001:00017a14       abort                      0000000140018a14 f   libucrt:abort.obj
 0001:00017a70       calloc                     0000000140018a70 f   libucrt:calloc.obj
 0001:00017a78       __acrt_initialize_stdio    0000000140018a78 f   libucrt:_file.obj
 0001:00017b98       __acrt_uninitialize_stdio  0000000140018b98 f   libucrt:_file.obj
 0001:00017bf4       _lock_file                 0000000140018bf4 f   libucrt:_file.obj
 0001:00017c00       _unlock_file               0000000140018c00 f   libucrt:_file.obj
 0001:00017c10       free                       0000000140018c10 f   libucrt:free.obj
 0001:00017c20       _callnewh                  0000000140018c20 f   libucrt:new_handler.obj
 0001:00017c60       __acrt_initialize_new_handler 0000000140018c60 f   libucrt:new_handler.obj
 0001:00017c70       _query_new_handler         0000000140018c70 f   libucrt:new_handler.obj
 0001:00017cb0       _set_new_handler           0000000140018cb0 f   libucrt:new_handler.obj
 0001:00017d10       ?_set_new_handler@@YAP6AH_K@ZH@Z 0000000140018d10 f   libucrt:new_handler.obj
 0001:00017d20       malloc                     0000000140018d20 f   libucrt:malloc.obj
 0001:00017d28       _seh_filter_exe            0000000140018d28 f   libucrt:exception_filter.obj
 0001:00017e94       _query_app_type            0000000140018e94 f   libucrt:report_runtime_error.obj
 0001:00017e9c       _set_app_type              0000000140018e9c f   libucrt:report_runtime_error.obj
 0001:00017eb0       __acrt_has_user_matherr    0000000140018eb0 f   libucrt:matherr.obj
 0001:00017ed0       __acrt_initialize_user_matherr 0000000140018ed0 f   libucrt:matherr.obj
 0001:00017ee0       __acrt_invoke_user_matherr 0000000140018ee0 f   libucrt:matherr.obj
 0001:00017f10       __setusermatherr           0000000140018f10 f   libucrt:matherr.obj
 0001:000180d8       __acrt_allocate_buffer_for_argv 00000001400190d8 f   libucrt:argv_parsing.obj
 0001:00018138       _configure_wide_argv       0000000140019138 f   libucrt:argv_parsing.obj
 0001:000184c0       __dcrt_uninitialize_environments_nolock 00000001400194c0 f   libucrt:environment_initialization.obj
 0001:00018504       _initialize_wide_environment 0000000140019504 f   libucrt:environment_initialization.obj
 0001:0001850c       _get_wide_winmain_command_line 000000014001950c f   libucrt:argv_winmain.obj
 0001:00018560       _initterm                  0000000140019560 f   libucrt:initterm.obj
 0001:00018598       _initterm_e                0000000140019598 f   libucrt:initterm.obj
 0001:00018844       __acrt_initialize_thread_local_exit_callback 0000000140019844 f   libucrt:exit.obj
 0001:0001884c       _c_exit                    000000014001984c f   libucrt:exit.obj
 0001:0001885c       _cexit                     000000014001985c f   libucrt:exit.obj
 0001:0001886c       _exit                      000000014001986c f   libucrt:exit.obj
 0001:00018878       _register_thread_local_exe_atexit_callback 0000000140019878 f   libucrt:exit.obj
 0001:000188b4       exit                       00000001400198b4 f   libucrt:exit.obj
 0001:000188c0       _set_fmode                 00000001400198c0 f   libucrt:setmode.obj
 0001:00018970       __acrt_set_locale_changed  0000000140019970 f   libucrt:wsetlocale.obj
 0001:0001897c       __acrt_uninitialize_locale 000000014001997c f   libucrt:wsetlocale.obj
 0001:000189ac       _configthreadlocale        00000001400199ac f   libucrt:wsetlocale.obj
 0001:00018a20       _query_new_mode            0000000140019a20 f   libucrt:new_mode.obj
 0001:00018a30       _set_new_mode              0000000140019a30 f   libucrt:new_mode.obj
 0001:00018a5c       __p__commode               0000000140019a5c f   libucrt:ncommode.obj
 0001:00018da4       _crt_atexit                0000000140019da4 f   libucrt:onexit.obj
 0001:00018db4       _execute_onexit_table      0000000140019db4 f   libucrt:onexit.obj
 0001:00018df8       _initialize_onexit_table   0000000140019df8 f   libucrt:onexit.obj
 0001:00018e20       _register_onexit_function  0000000140019e20 f   libucrt:onexit.obj
 0001:00018f94       __acrt_initialize          0000000140019f94 f   libucrt:initialization.obj
 0001:00018fa8       __acrt_uninitialize        0000000140019fa8 f   libucrt:initialization.obj
 0001:00018fe0       strcpy_s                   0000000140019fe0 f   libucrt:strcpy_s.obj
 0001:00019060       ?get_raw_ptd_noexit@__crt_cached_ptd_host@@QEAAPEAU__acrt_ptd@@XZ 000000014001a060 f i libucrt:invalid_parameter.obj
 0001:000190cc       ?value@?$dual_state_global@P6AXPEB_W00I_K@Z@__crt_state_management@@QEAAAEAP6AXPEB_W00I_K@ZAEAV__crt_cached_ptd_host@@@Z 000000014001a0cc f i libucrt:invalid_parameter.obj
 0001:00019118       __acrt_call_reportfault    000000014001a118 f   libucrt:invalid_parameter.obj
 0001:00019288       __acrt_initialize_invalid_parameter_handler 000000014001a288 f   libucrt:invalid_parameter.obj
 0001:00019290       _invalid_parameter         000000014001a290 f   libucrt:invalid_parameter.obj
 0001:0001932c       _invalid_parameter_internal 000000014001a32c f   libucrt:invalid_parameter.obj
 0001:000193e4       _invalid_parameter_noinfo  000000014001a3e4 f   libucrt:invalid_parameter.obj
 0001:00019404       _invoke_watson             000000014001a404 f   libucrt:invalid_parameter.obj
 0001:0001944c       __acrt_errno_from_os_error 000000014001a44c f   libucrt:errno.obj
 0001:0001951c       __acrt_errno_map_os_error  000000014001a51c f   libucrt:errno.obj
 0001:00019544       __acrt_errno_map_os_error_ptd 000000014001a544 f   libucrt:errno.obj
 0001:00019568       __doserrno                 000000014001a568 f   libucrt:errno.obj
 0001:0001958c       _errno                     000000014001a58c f   libucrt:errno.obj
 0001:000195b0       _free_base                 000000014001a5b0 f   libucrt:free_base.obj
 0001:00019610       _malloc_base               000000014001a610 f   libucrt:malloc_base.obj
 0001:00019670       __acrt_update_locale_info  000000014001a670 f   libucrt:locale_update.obj
 0001:000196a4       __acrt_update_locale_info_explicit 000000014001a6a4 f   libucrt:locale_update.obj
 0001:000196dc       __acrt_update_multibyte_info 000000014001a6dc f   libucrt:locale_update.obj
 0001:00019710       __acrt_update_multibyte_info_explicit 000000014001a710 f   libucrt:locale_update.obj
 0001:0001a258       __acrt_fp_format           000000014001b258 f   libucrt:cvt.obj
 0001:0001a540       _mbtowc_internal           000000014001b540 f   libucrt:mbtowc.obj
 0001:0001a6b8       ?__mblen_utf8@__crt_mbstring@@YAHPEBD@Z 000000014001b6b8 f   libucrt:mbrtoc32.obj
 0001:0001a6f0       ?__mbrtoc32_utf8@__crt_mbstring@@YA_KPEA_UPEBD_KPEAU_Mbstatet@@AEAV__crt_cached_ptd_host@@@Z 000000014001b6f0 f   libucrt:mbrtoc32.obj
 0001:0001a8b0       ?__mbrtowc_utf8@__crt_mbstring@@YA_KPEA_WPEBD_KPEAU_Mbstatet@@AEAV__crt_cached_ptd_host@@@Z 000000014001b8b0 f   libucrt:mbrtowc.obj
 0001:0001a8f8       ?__mbsrtowcs_utf8@__crt_mbstring@@YA_KPEA_WPEAPEBD_KPEAU_Mbstatet@@AEAV__crt_cached_ptd_host@@@Z 000000014001b8f8 f   libucrt:mbrtowc.obj
 0001:0001aab0       _fileno                    000000014001bab0 f   libucrt:fileno.obj
 0001:0001aad8       _get_printf_count_output   000000014001bad8 f   libucrt:printf_count_output.obj
 0001:0001ae00       ?internal_get_ptd_head_slow@@YAPEAU__acrt_ptd@@XZ 000000014001be00 f   libucrt:per_thread_data.obj
 0001:0001af20       __acrt_getptd              000000014001bf20 f   libucrt:per_thread_data.obj
 0001:0001af3c       __acrt_getptd_head         000000014001bf3c f   libucrt:per_thread_data.obj
 0001:0001af80       __acrt_getptd_noexit       000000014001bf80 f   libucrt:per_thread_data.obj
 0001:0001b010       __acrt_getptd_noexit_explicit 000000014001c010 f   libucrt:per_thread_data.obj
 0001:0001b06c       __acrt_initialize_ptd      000000014001c06c f   libucrt:per_thread_data.obj
 0001:0001b0b0       __acrt_uninitialize_ptd    000000014001c0b0 f   libucrt:per_thread_data.obj
 0001:0001b2dc       __acrt_initialize_lowio    000000014001c2dc f   libucrt:ioinit.obj
 0001:0001b318       __acrt_uninitialize_lowio  000000014001c318 f   libucrt:ioinit.obj
 0001:0001b470       _handle_error              000000014001c470 f   libucrt:libm_error.obj
 0001:0001b5b0       _handle_nan                000000014001c5b0 f   libucrt:libm_error.obj
 0001:0001b5d0       _handle_nanf               000000014001c5d0 f   libucrt:libm_error.obj
 0001:0001b5e0       ceil_sse41                 000000014001c5e0 f   libucrt:floorceil_sse41.obj
 0001:0001b5f0       ceilf_sse41                000000014001c5f0 f   libucrt:floorceil_sse41.obj
 0001:0001b600       _calloc_base               000000014001c600 f   libucrt:calloc_base.obj
 0001:0001b82c       __acrt_AppPolicyGetProcessTerminationMethodInternal 000000014001c82c f   libucrt:winapi_thunks.obj
 0001:0001b888       __acrt_AppPolicyGetThreadInitializationTypeInternal 000000014001c888 f   libucrt:winapi_thunks.obj
 0001:0001b8e4       __acrt_FlsAlloc            000000014001c8e4 f   libucrt:winapi_thunks.obj
 0001:0001b8ec       __acrt_FlsFree             000000014001c8ec f   libucrt:winapi_thunks.obj
 0001:0001b8f4       __acrt_FlsGetValue         000000014001c8f4 f   libucrt:winapi_thunks.obj
 0001:0001b8fc       __acrt_FlsGetValue2        000000014001c8fc f   libucrt:winapi_thunks.obj
 0001:0001b908       __acrt_FlsSetValue         000000014001c908 f   libucrt:winapi_thunks.obj
 0001:0001b910       __acrt_InitializeCriticalSectionEx 000000014001c910 f   libucrt:winapi_thunks.obj
 0001:0001b918       __acrt_LCMapStringEx       000000014001c918 f   libucrt:winapi_thunks.obj
 0001:0001ba0c       __acrt_LocaleNameToLCID    000000014001ca0c f   libucrt:winapi_thunks.obj
 0001:0001ba70       __acrt_RoInitialize        000000014001ca70 f   libucrt:winapi_thunks.obj
 0001:0001bac0       __acrt_RoUninitialize      000000014001cac0 f   libucrt:winapi_thunks.obj
 0001:0001bb04       __acrt_initialize_winapi_thunks 000000014001cb04 f   libucrt:winapi_thunks.obj
 0001:0001bb34       __acrt_tls2_supported      000000014001cb34 f   libucrt:winapi_thunks.obj
 0001:0001bb78       __acrt_uninitialize_winapi_thunks 000000014001cb78 f   libucrt:winapi_thunks.obj
 0001:0001bbbc       __acrt_get_begin_thread_init_policy 000000014001cbbc f   libucrt:win_policies.obj
 0001:0001bbfc       __acrt_get_process_end_policy 000000014001cbfc f   libucrt:win_policies.obj
 0001:0001bc78       __acrt_get_sigabrt_handler 000000014001cc78 f   libucrt:signal.obj
 0001:0001bca8       __acrt_initialize_signal_handlers 000000014001cca8 f   libucrt:signal.obj
 0001:0001bcc8       raise                      000000014001ccc8 f   libucrt:signal.obj
 0001:0001bf24       _fcloseall                 000000014001cf24 f   libucrt:closeall.obj
 0001:0001c1b8       __acrt_stdio_flush_nolock  000000014001d1b8 f   libucrt:fflush.obj
 0001:0001c244       _fflush_nolock             000000014001d244 f   libucrt:fflush.obj
 0001:0001c318       _flushall                  000000014001d318 f   libucrt:fflush.obj
 0001:0001c320       __acrt_stdio_free_buffer_nolock 000000014001d320 f   libucrt:_freebuf.obj
 0001:0001c364       __acrt_initialize_locks    000000014001d364 f   libucrt:locks.obj
 0001:0001c3ac       __acrt_lock                000000014001d3ac f   libucrt:locks.obj
 0001:0001c3c8       __acrt_uninitialize_locks  000000014001d3c8 f   libucrt:locks.obj
 0001:0001c400       __acrt_unlock              000000014001d400 f   libucrt:locks.obj
 0001:0001c420       wcsncpy_s                  000000014001d420 f   libucrt:wcsncpy_s.obj
 0001:0001cb00       ??0_LocaleUpdate@@QEAA@QEAU__crt_locale_pointers@@@Z 000000014001db00 f i libucrt:argv_wildcards.obj
 0001:0001cb9c       __acrt_expand_wide_argv_wildcards 000000014001db9c f   libucrt:argv_wildcards.obj
 0001:0001d3ac       __acrt_initialize_multibyte 000000014001e3ac f   libucrt:mbctype.obj
 0001:0001d40c       __acrt_update_thread_multibyte_data 000000014001e40c f   libucrt:mbctype.obj
 0001:0001d428       _setmbcp_nolock            000000014001e428 f   libucrt:mbctype.obj
 0001:0001d6f0       __acrt_initialize_command_line 000000014001e6f0 f   libucrt:argv_data.obj
 0001:0001d718       __acrt_MultiByteToWideChar 000000014001e718 f   libucrt:multibytetowidechar.obj
 0001:0001d7a8       __acrt_WideCharToMultiByte 000000014001e7a8 f   libucrt:widechartomultibyte.obj
 0001:0001d888       __dcrt_get_wide_environment_from_os 000000014001e888 f   libucrt:get_environment_from_os.obj
 0001:0001d924       __acrt_app_verifier_enabled 000000014001e924 f   libucrt:peb_access.obj
 0001:0001d940       __acrt_is_secure_process   000000014001e940 f   libucrt:peb_access.obj
 0001:0001d958       __acrt_lowio_create_handle_array 000000014001e958 f   libucrt:osfinfo.obj
 0001:0001da00       __acrt_lowio_destroy_handle_array 000000014001ea00 f   libucrt:osfinfo.obj
 0001:0001da50       __acrt_lowio_ensure_fh_exists 000000014001ea50 f   libucrt:osfinfo.obj
 0001:0001daf8       __acrt_lowio_lock_fh       000000014001eaf8 f   libucrt:osfinfo.obj
 0001:0001db20       __acrt_lowio_unlock_fh     000000014001eb20 f   libucrt:osfinfo.obj
 0001:0001db48       _free_osfhnd               000000014001eb48 f   libucrt:osfinfo.obj
 0001:0001dc04       _get_osfhandle             000000014001ec04 f   libucrt:osfinfo.obj
 0001:0001dc7c       __acrt_initialize_fmode    000000014001ec7c f   libucrt:txtmode.obj
 0001:0001dc94       __acrt_locale_free_monetary 000000014001ec94 f   libucrt:initmon.obj
 0001:0001dda0       __acrt_locale_free_numeric 000000014001eda0 f   libucrt:initnum.obj
 0001:0001de40       __acrt_locale_free_time    000000014001ee40 f   libucrt:inittime.obj
 0001:0001df50       wcsncmp                    000000014001ef50 f   libucrt:wcsncmp.obj
 0001:0001df90       wcspbrk                    000000014001ef90 f   libucrt:wcspbrk.obj
 0001:0001dfe8       __acrt_GetStringTypeA      000000014001efe8 f   libucrt:getstringtypea.obj
 0001:0001e178       __acrt_add_locale_ref      000000014001f178 f   libucrt:locale_refcounting.obj
 0001:0001e204       __acrt_free_locale         000000014001f204 f   libucrt:locale_refcounting.obj
 0001:0001e37c       __acrt_locale_add_lc_time_reference 000000014001f37c f   libucrt:locale_refcounting.obj
 0001:0001e3a4       __acrt_locale_free_lc_time_if_unreferenced 000000014001f3a4 f   libucrt:locale_refcounting.obj
 0001:0001e3dc       __acrt_locale_release_lc_time_reference 000000014001f3dc f   libucrt:locale_refcounting.obj
 0001:0001e404       __acrt_release_locale_ref  000000014001f404 f   libucrt:locale_refcounting.obj
 0001:0001e4ac       __acrt_update_thread_locale_data 000000014001f4ac f   libucrt:locale_refcounting.obj
 0001:0001e51c       _updatetlocinfoEx_nolock   000000014001f51c f   libucrt:locale_refcounting.obj
 0001:0001e590       _recalloc_base             000000014001f590 f   libucrt:recalloc.obj
 0001:0001e630       _recalloc                  000000014001f630 f   libucrt:recalloc.obj
 0001:0001e640       _get_heap_handle           000000014001f640 f   libucrt:heap_handle.obj
 0001:0001e650       __acrt_initialize_heap     000000014001f650 f   libucrt:heap_handle.obj
 0001:0001e680       __acrt_uninitialize_heap   000000014001f680 f   libucrt:heap_handle.obj
 0001:0001e6a0       __acrt_getheap             000000014001f6a0 f   libucrt:heap_handle.obj
 0001:0001e6a8       __acrt_execute_initializers 000000014001f6a8 f   libucrt:shared_initialization.obj
 0001:0001e728       __acrt_execute_uninitializers 000000014001f728 f   libucrt:shared_initialization.obj
 0001:0001e834       __acrt_fp_strflt_to_string 000000014001f834 f   libucrt:_fptostr.obj
 0001:0001e950       ?divide@__crt_strtox@@YA_KAEAUbig_integer@1@AEBU21@@Z 000000014001f950 f i libucrt:cfout.obj
 0001:0001eddc       __acrt_fltout              000000014001fddc f   libucrt:cfout.obj
 0001:000200f0       fegetround                 00000001400210f0 f   libucrt:fegetround.obj
 0001:00020104       ?reset_and_return@__crt_mbstring@@YA_K_KPEAU_Mbstatet@@@Z 0000000140021104 f   libucrt:common_utf8.obj
 0001:0002010c       ?return_illegal_sequence@__crt_mbstring@@YA_KPEAU_Mbstatet@@AEAV__crt_cached_ptd_host@@@Z 000000014002110c f   libucrt:common_utf8.obj
 0001:00020120       _isatty                    0000000140021120 f   libucrt:isatty.obj
 0001:00020180       _clrfp                     0000000140021180 f   libucrt:fpctrl.obj
 0001:000201a0       _ctrlfp                    00000001400211a0 f   libucrt:fpctrl.obj
 0001:00020220       _get_fpcsr                 0000000140021220 f   libucrt:fpctrl.obj
 0001:00020220       _get_fpsr                  0000000140021220 f   libucrt:fpctrl.obj
 0001:00020230       _set_fpcsr                 0000000140021230 f   libucrt:fpctrl.obj
 0001:00020230       _set_fpsr                  0000000140021230 f   libucrt:fpctrl.obj
 0001:00020240       _set_statfp                0000000140021240 f   libucrt:fpctrl.obj
 0001:00020260       _statfp                    0000000140021260 f   libucrt:fpctrl.obj
 0001:00020270       _raise_exc                 0000000140021270 f   libucrt:fpexcept.obj
 0001:000202a0       _raise_exc_ex              00000001400212a0 f   libucrt:fpexcept.obj
 0001:000205b0       _set_errno_from_matherr    00000001400215b0 f   libucrt:fpexcept.obj
 0001:000205e4       __acrt_DownlevelLocaleNameToLCID 00000001400215e4 f   libucrt:lcidtoname_downlevel.obj
 0001:000207b0       fclose                     00000001400217b0 f   libucrt:fclose.obj
 0001:000208d4       _commit                    00000001400218d4 f   libucrt:commit.obj
 0001:00021194       _write_internal            0000000140022194 f   libucrt:write.obj
 0001:000212b4       _write_nolock              00000001400222b4 f   libucrt:write.obj
 0001:00021694       _lseeki64_nolock_internal  0000000140022694 f   libucrt:lseek.obj
 0001:000216a0       qsort                      00000001400226a0 f   libucrt:qsort.obj
 0001:00021d6c       __acrt_LCMapStringA        0000000140022d6c f   libucrt:lcmapstringa.obj
 0001:00021e20       __ascii_wcsnicmp           0000000140022e20 f   libucrt:wcsnicmp.obj
 0001:00021e90       _msize_base                0000000140022e90 f   libucrt:msize.obj
 0001:00021ed0       _msize                     0000000140022ed0 f   libucrt:msize.obj
 0001:00021ee0       _realloc_base              0000000140022ee0 f   libucrt:realloc_base.obj
 0001:00021f60       _controlfp_s               0000000140022f60 f   libucrt:contrlfp.obj
 0001:00021fd0       fegetenv                   0000000140022fd0 f   libucrt:fegetenv.obj
 0001:00021ff0       fesetenv                   0000000140022ff0 f   libucrt:fesetenv.obj
 0001:00022060       feholdexcept               0000000140023060 f   libucrt:feholdexcept.obj
 0001:000220c0       ceil                       00000001400230c0 f   libucrt:ceil.obj
 0001:00022190       log10                      0000000140023190 f   libucrt:log10.obj
 0001:00022740       __acrt_fenv_get_common_round_control 0000000140023740 f   libucrt:_fenvutils.obj
 0001:00022750       __acrt_fenv_get_control    0000000140023750 f   libucrt:_fenvutils.obj
 0001:00022830       __acrt_fenv_get_status     0000000140023830 f   libucrt:_fenvutils.obj
 0001:00022890       __acrt_fenv_set_control    0000000140023890 f   libucrt:_fenvutils.obj
 0001:000229c0       __acrt_fenv_set_status     00000001400239c0 f   libucrt:_fenvutils.obj
 0001:00022aac       _close_internal            0000000140023aac f   libucrt:close.obj
 0001:00022b70       _close_nolock_internal     0000000140023b70 f   libucrt:close.obj
 0001:00022c40       ?__acrt_stdio_free_stream@@YAXV__crt_stdio_stream@@@Z 0000000140023c40 f   libucrt:stream.obj
 0001:00022c5c       _putwch_nolock             0000000140023c5c f   libucrt:putwch.obj
 0001:00022c9c       _guard_check_icall         0000000140023c9c f i libucrt:checkcfg.obj
 0001:00022cc0       __strncnt                  0000000140023cc0 f   libucrt:strncnt.obj
 0001:00022ce0       _clearfp                   0000000140023ce0 f   libucrt:ieee.obj
 0001:00022d50       _control87                 0000000140023d50 f   libucrt:ieee.obj
 0001:00023000       __acrt_initialize_fma3     0000000140024000 f   libucrt:fma3_available.obj
 0001:000230c0       _log10_special             00000001400240c0 f   libucrt:log_special.obj
 0001:0002317c       __dcrt_lowio_ensure_console_output_initialized 000000014002417c f   libucrt:initcon.obj
 0001:000231d0       __dcrt_terminate_console_output 00000001400241d0 f   libucrt:initcon.obj
 0001:000231ec       __dcrt_write_console       00000001400241ec f   libucrt:initcon.obj
 0001:000232b0       _FindPESection             00000001400242b0 f   LIBCMT:pesect.obj
 0001:00023300       _IsNonwritableInCurrentImage 0000000140024300 f   LIBCMT:pesect.obj
 0001:00023350       _ValidateImageBase         0000000140024350 f   LIBCMT:pesect.obj
 0001:00023380       __GSHandlerCheck_SEH       0000000140024380 f   LIBCMT:gshandlerseh.obj
 0001:00023400       __GSHandlerCheck_EH        0000000140024400 f   LIBCMT:gshandlereh.obj
 0001:00023480       __chkstk                   0000000140024480 f   LIBCMT:chkstk.obj
 0001:00023480       _alloca_probe              0000000140024480 f   LIBCMT:chkstk.obj
 0001:000234d0       __C_specific_handler_noexcept 00000001400244d0 f   libvcruntime:chandler_noexcept.obj
 0001:00023520       strrchr                    0000000140024520 f   libvcruntime:strrchr.obj
 0001:00023660       wcschr                     0000000140024660 f   libvcruntime:wcschr.obj
 0001:00023700       _guard_dispatch_icall_nop  0000000140024700 f   LIBCMT:guard_dispatch.obj
 0001:00023720       _guard_xfg_dispatch_icall_nop 0000000140024720 f   LIBCMT:guard_xfg_dispatch.obj
 0001:00023740       _guard_dispatch_icall      0000000140024740 f   libucrt:dispatchcfg.obj
 0001:00023740       _guard_dispatch_icall_$fo_default$ 0000000140024740     libucrt:dispatchcfg.obj
 0001:00023770       memcpy_repmovs             0000000140024770 f   libvcruntime:memcpy.obj
 0001:00023780       memcpy                     0000000140024780 f   libvcruntime:memcpy.obj
 0001:00023780       memcpy_$fo_default$        0000000140024780     libvcruntime:memcpy.obj
 0001:00023780       memmove                    0000000140024780 f   libvcruntime:memcpy.obj
 0001:00023e40       memset_repstos             0000000140024e40 f   libvcruntime:memset.obj
 0001:00023e50       memset                     0000000140024e50 f   libvcruntime:memset.obj
 0001:00023e50       memset_$fo_default$        0000000140024e50     libvcruntime:memset.obj
 0001:000241f0       strncmp                    00000001400251f0 f   libucrt:strncmp.obj
 0002:00000000       __imp_ADsOpenObject        0000000140027000     activeds:ACTIVEDS.dll
 0002:00000008       \177ACTIVEDS_NULL_THUNK_DATA 0000000140027008     activeds:ACTIVEDS.dll
 0002:00000010       __imp_InitCommonControlsEx 0000000140027010     comctl32:COMCTL32.dll
 0002:00000018       __imp_DefSubclassProc      0000000140027018     comctl32:COMCTL32.dll
 0002:00000020       __imp_SetWindowSubclass    0000000140027020     comctl32:COMCTL32.dll
 0002:00000028       __imp_RemoveWindowSubclass 0000000140027028     comctl32:COMCTL32.dll
 0002:00000030       \177COMCTL32_NULL_THUNK_DATA 0000000140027030     comctl32:COMCTL32.dll
 0002:00000038       __imp_SetBkColor           0000000140027038     gdi32:GDI32.dll
 0002:00000040       __imp_DeleteObject         0000000140027040     gdi32:GDI32.dll
 0002:00000048       __imp_CreateFontIndirectW  0000000140027048     gdi32:GDI32.dll
 0002:00000050       __imp_SetBkMode            0000000140027050     gdi32:GDI32.dll
 0002:00000058       \177GDI32_NULL_THUNK_DATA  0000000140027058     gdi32:GDI32.dll
 0002:00000060       __imp_HeapSize             0000000140027060     kernel32:KERNEL32.dll
 0002:00000068       __imp_GetConsoleMode       0000000140027068     kernel32:KERNEL32.dll
 0002:00000070       __imp_GetConsoleOutputCP   0000000140027070     kernel32:KERNEL32.dll
 0002:00000078       __imp_FlushFileBuffers     0000000140027078     kernel32:KERNEL32.dll
 0002:00000080       __imp_GetProcessHeap       0000000140027080     kernel32:KERNEL32.dll
 0002:00000088       __imp_GetStringTypeW       0000000140027088     kernel32:KERNEL32.dll
 0002:00000090       __imp_SetStdHandle         0000000140027090     kernel32:KERNEL32.dll
 0002:00000098       __imp_FreeEnvironmentStringsW 0000000140027098     kernel32:KERNEL32.dll
 0002:000000a0       __imp_GetEnvironmentStringsW 00000001400270a0     kernel32:KERNEL32.dll
 0002:000000a8       __imp_WideCharToMultiByte  00000001400270a8     kernel32:KERNEL32.dll
 0002:000000b0       __imp_MultiByteToWideChar  00000001400270b0     kernel32:KERNEL32.dll
 0002:000000b8       __imp_GetCommandLineW      00000001400270b8     kernel32:KERNEL32.dll
 0002:000000c0       __imp_GetCommandLineA      00000001400270c0     kernel32:KERNEL32.dll
 0002:000000c8       __imp_GetCPInfo            00000001400270c8     kernel32:KERNEL32.dll
 0002:000000d0       __imp_GetOEMCP             00000001400270d0     kernel32:KERNEL32.dll
 0002:000000d8       __imp_GetACP               00000001400270d8     kernel32:KERNEL32.dll
 0002:000000e0       __imp_IsValidCodePage      00000001400270e0     kernel32:KERNEL32.dll
 0002:000000e8       __imp_FindNextFileW        00000001400270e8     kernel32:KERNEL32.dll
 0002:000000f0       __imp_FindFirstFileExW     00000001400270f0     kernel32:KERNEL32.dll
 0002:000000f8       __imp_FindClose            00000001400270f8     kernel32:KERNEL32.dll
 0002:00000100       __imp_HeapReAlloc          0000000140027100     kernel32:KERNEL32.dll
 0002:00000108       __imp_SetFilePointerEx     0000000140027108     kernel32:KERNEL32.dll
 0002:00000110       __imp_LCMapStringW         0000000140027110     kernel32:KERNEL32.dll
 0002:00000118       __imp_LoadLibraryExW       0000000140027118     kernel32:KERNEL32.dll
 0002:00000120       __imp_VirtualProtect       0000000140027120     kernel32:KERNEL32.dll
 0002:00000128       __imp_GetFileType          0000000140027128     kernel32:KERNEL32.dll
 0002:00000130       __imp_HeapAlloc            0000000140027130     kernel32:KERNEL32.dll
 0002:00000138       __imp_HeapFree             0000000140027138     kernel32:KERNEL32.dll
 0002:00000140       __imp_UnhandledExceptionFilter 0000000140027140     kernel32:KERNEL32.dll
 0002:00000148       __imp_IsDebuggerPresent    0000000140027148     kernel32:KERNEL32.dll
 0002:00000150       __imp_RtlVirtualUnwind     0000000140027150     kernel32:KERNEL32.dll
 0002:00000158       __imp_RtlCaptureContext    0000000140027158     kernel32:KERNEL32.dll
 0002:00000160       __imp_GetProcAddress       0000000140027160     kernel32:KERNEL32.dll
 0002:00000168       __imp_TerminateProcess     0000000140027168     kernel32:KERNEL32.dll
 0002:00000170       __imp_ExitProcess          0000000140027170     kernel32:KERNEL32.dll
 0002:00000178       __imp_GetCurrentProcess    0000000140027178     kernel32:KERNEL32.dll
 0002:00000180       __imp_CreateFileW          0000000140027180     kernel32:KERNEL32.dll
 0002:00000188       __imp_WriteConsoleW        0000000140027188     kernel32:KERNEL32.dll
 0002:00000190       __imp_GetModuleHandleExW   0000000140027190     kernel32:KERNEL32.dll
 0002:00000198       __imp_GetModuleFileNameW   0000000140027198     kernel32:KERNEL32.dll
 0002:000001a0       __imp_SetUnhandledExceptionFilter 00000001400271a0     kernel32:KERNEL32.dll
 0002:000001a8       __imp_MulDiv               00000001400271a8     kernel32:KERNEL32.dll
 0002:000001b0       __imp_CompareStringOrdinal 00000001400271b0     kernel32:KERNEL32.dll
 0002:000001b8       __imp_FormatMessageW       00000001400271b8     kernel32:KERNEL32.dll
 0002:000001c0       __imp_FileTimeToSystemTime 00000001400271c0     kernel32:KERNEL32.dll
 0002:000001c8       __imp_FileTimeToLocalFileTime 00000001400271c8     kernel32:KERNEL32.dll
 0002:000001d0       __imp_LocalFree            00000001400271d0     kernel32:KERNEL32.dll
 0002:000001d8       __imp_GlobalAlloc          00000001400271d8     kernel32:KERNEL32.dll
 0002:000001e0       __imp_GlobalFree           00000001400271e0     kernel32:KERNEL32.dll
 0002:000001e8       __imp_GlobalLock           00000001400271e8     kernel32:KERNEL32.dll
 0002:000001f0       __imp_GlobalUnlock         00000001400271f0     kernel32:KERNEL32.dll
 0002:000001f8       __imp_GetCurrentThreadId   00000001400271f8     kernel32:KERNEL32.dll
 0002:00000200       __imp_CloseHandle          0000000140027200     kernel32:KERNEL32.dll
 0002:00000208       __imp_GetLastError         0000000140027208     kernel32:KERNEL32.dll
 0002:00000210       __imp_ReleaseSRWLockExclusive 0000000140027210     kernel32:KERNEL32.dll
 0002:00000218       __imp_AcquireSRWLockExclusive 0000000140027218     kernel32:KERNEL32.dll
 0002:00000220       __imp_WakeAllConditionVariable 0000000140027220     kernel32:KERNEL32.dll
 0002:00000228       __imp_QueryPerformanceCounter 0000000140027228     kernel32:KERNEL32.dll
 0002:00000230       __imp_GetCurrentProcessId  0000000140027230     kernel32:KERNEL32.dll
 0002:00000238       __imp_GetSystemTimeAsFileTime 0000000140027238     kernel32:KERNEL32.dll
 0002:00000240       __imp_InitializeSListHead  0000000140027240     kernel32:KERNEL32.dll
 0002:00000248       __imp_GetStartupInfoW      0000000140027248     kernel32:KERNEL32.dll
 0002:00000250       __imp_GetModuleHandleW     0000000140027250     kernel32:KERNEL32.dll
 0002:00000258       __imp_WriteFile            0000000140027258     kernel32:KERNEL32.dll
 0002:00000260       __imp_RtlLookupFunctionEntry 0000000140027260     kernel32:KERNEL32.dll
 0002:00000268       __imp_RtlUnwindEx          0000000140027268     kernel32:KERNEL32.dll
 0002:00000270       __imp_RtlPcToFileHeader    0000000140027270     kernel32:KERNEL32.dll
 0002:00000278       __imp_RaiseException       0000000140027278     kernel32:KERNEL32.dll
 0002:00000280       __imp_SetLastError         0000000140027280     kernel32:KERNEL32.dll
 0002:00000288       __imp_FlsAlloc             0000000140027288     kernel32:KERNEL32.dll
 0002:00000290       __imp_FlsGetValue          0000000140027290     kernel32:KERNEL32.dll
 0002:00000298       __imp_FlsSetValue          0000000140027298     kernel32:KERNEL32.dll
 0002:000002a0       __imp_FlsFree              00000001400272a0     kernel32:KERNEL32.dll
 0002:000002a8       __imp_EncodePointer        00000001400272a8     kernel32:KERNEL32.dll
 0002:000002b0       __imp_EnterCriticalSection 00000001400272b0     kernel32:KERNEL32.dll
 0002:000002b8       __imp_LeaveCriticalSection 00000001400272b8     kernel32:KERNEL32.dll
 0002:000002c0       __imp_InitializeCriticalSectionEx 00000001400272c0     kernel32:KERNEL32.dll
 0002:000002c8       __imp_DeleteCriticalSection 00000001400272c8     kernel32:KERNEL32.dll
 0002:000002d0       __imp_CreateThread         00000001400272d0     kernel32:KERNEL32.dll
 0002:000002d8       __imp_ExitThread           00000001400272d8     kernel32:KERNEL32.dll
 0002:000002e0       __imp_FreeLibrary          00000001400272e0     kernel32:KERNEL32.dll
 0002:000002e8       __imp_FreeLibraryAndExitThread 00000001400272e8     kernel32:KERNEL32.dll
 0002:000002f0       __imp_IsProcessorFeaturePresent 00000001400272f0     kernel32:KERNEL32.dll
 0002:000002f8       __imp_GetStdHandle         00000001400272f8     kernel32:KERNEL32.dll
 0002:00000300       \177KERNEL32_NULL_THUNK_DATA 0000000140027300     kernel32:KERNEL32.dll
 0002:00000308       __imp_SysAllocString       0000000140027308     oleaut32:OLEAUT32.dll
 0002:00000310       __imp_VariantInit          0000000140027310     oleaut32:OLEAUT32.dll
 0002:00000318       __imp_VariantClear         0000000140027318     oleaut32:OLEAUT32.dll
 0002:00000320       __imp_SysFreeString        0000000140027320     oleaut32:OLEAUT32.dll
 0002:00000328       \177OLEAUT32_NULL_THUNK_DATA 0000000140027328     oleaut32:OLEAUT32.dll
 0002:00000330       __imp_SetWindowTextW       0000000140027330     user32:USER32.dll
 0002:00000338       __imp_CreatePopupMenu      0000000140027338     user32:USER32.dll
 0002:00000340       __imp_GetScrollInfo        0000000140027340     user32:USER32.dll
 0002:00000348       __imp_TrackPopupMenu       0000000140027348     user32:USER32.dll
 0002:00000350       __imp_OpenClipboard        0000000140027350     user32:USER32.dll
 0002:00000358       __imp_CloseClipboard       0000000140027358     user32:USER32.dll
 0002:00000360       __imp_EmptyClipboard       0000000140027360     user32:USER32.dll
 0002:00000368       __imp_GetSysColor          0000000140027368     user32:USER32.dll
 0002:00000370       __imp_DestroyMenu          0000000140027370     user32:USER32.dll
 0002:00000378       __imp_ScrollWindowEx       0000000140027378     user32:USER32.dll
 0002:00000380       __imp_SetClipboardData     0000000140027380     user32:USER32.dll
 0002:00000388       __imp_GetDlgItem           0000000140027388     user32:USER32.dll
 0002:00000390       __imp_AppendMenuW          0000000140027390     user32:USER32.dll
 0002:00000398       __imp_GetSysColorBrush     0000000140027398     user32:USER32.dll
 0002:000003a0       __imp_SetScrollPos         00000001400273a0     user32:USER32.dll
 0002:000003a8       __imp_GetParent            00000001400273a8     user32:USER32.dll
 0002:000003b0       __imp_InvalidateRect       00000001400273b0     user32:USER32.dll
 0002:000003b8       __imp_GetCursorPos         00000001400273b8     user32:USER32.dll
 0002:000003c0       __imp_EnableWindow         00000001400273c0     user32:USER32.dll
 0002:000003c8       __imp_GetWindowRect        00000001400273c8     user32:USER32.dll
 0002:000003d0       __imp_DefWindowProcW       00000001400273d0     user32:USER32.dll
 0002:000003d8       __imp_PostMessageW         00000001400273d8     user32:USER32.dll
 0002:000003e0       __imp_GetDpiForWindow      00000001400273e0     user32:USER32.dll
 0002:000003e8       __imp_SetWindowLongPtrW    00000001400273e8     user32:USER32.dll
 0002:000003f0       __imp_CreateWindowExW      00000001400273f0     user32:USER32.dll
 0002:000003f8       __imp_SendMessageW         00000001400273f8     user32:USER32.dll
 0002:00000400       __imp_GetWindowLongPtrW    0000000140027400     user32:USER32.dll
 0002:00000408       __imp_RegisterClassExW     0000000140027408     user32:USER32.dll
 0002:00000410       __imp_ShowWindow           0000000140027410     user32:USER32.dll
 0002:00000418       __imp_MoveWindow           0000000140027418     user32:USER32.dll
 0002:00000420       __imp_LoadIconW            0000000140027420     user32:USER32.dll
 0002:00000428       __imp_LoadCursorW          0000000140027428     user32:USER32.dll
 0002:00000430       __imp_GetClientRect        0000000140027430     user32:USER32.dll
 0002:00000438       __imp_PostQuitMessage      0000000140027438     user32:USER32.dll
 0002:00000440       __imp_SystemParametersInfoForDpi 0000000140027440     user32:USER32.dll
 0002:00000448       __imp_UpdateWindow         0000000140027448     user32:USER32.dll
 0002:00000450       __imp_GetMessageW          0000000140027450     user32:USER32.dll
 0002:00000458       __imp_MessageBoxW          0000000140027458     user32:USER32.dll
 0002:00000460       __imp_DispatchMessageW     0000000140027460     user32:USER32.dll
 0002:00000468       __imp_TranslateMessage     0000000140027468     user32:USER32.dll
 0002:00000470       __imp_DestroyWindow        0000000140027470     user32:USER32.dll
 0002:00000478       __imp_GetKeyState          0000000140027478     user32:USER32.dll
 0002:00000480       __imp_GetWindowTextW       0000000140027480     user32:USER32.dll
 0002:00000488       __imp_SetScrollInfo        0000000140027488     user32:USER32.dll
 0002:00000490       __imp_SetWindowPos         0000000140027490     user32:USER32.dll
 0002:00000498       \177USER32_NULL_THUNK_DATA 0000000140027498     user32:USER32.dll
 0002:000004a0       __imp_CoUninitialize       00000001400274a0     ole32:ole32.dll
 0002:000004a8       __imp_CoInitializeEx       00000001400274a8     ole32:ole32.dll
 0002:000004b0       \177ole32_NULL_THUNK_DATA  00000001400274b0     ole32:ole32.dll
 0002:000004b8       __guard_check_icall_fptr   00000001400274b8     LIBCMT:guard_support.obj
 0002:000004c0       __guard_xfg_check_icall_fptr 00000001400274c0     LIBCMT:guard_support.obj
 0002:000004c8       __guard_dispatch_icall_fptr 00000001400274c8     LIBCMT:guard_support.obj
 0002:000004d0       __guard_xfg_dispatch_icall_fptr 00000001400274d0     LIBCMT:guard_support.obj
 0002:000004d8       __guard_xfg_table_dispatch_icall_fptr 00000001400274d8     LIBCMT:guard_support.obj
 0002:000004e0       __castguard_check_failure_os_handled_fptr 00000001400274e0     LIBCMT:guard_support.obj
 0002:000004e8       __guard_memcpy_fptr        00000001400274e8     libvcruntime:softmemtag.obj
 0002:000004f0       __xc_a                     00000001400274f0     LIBCMT:initializers.obj
 0002:00000500       __xc_z                     0000000140027500     LIBCMT:initializers.obj
 0002:00000508       __xi_a                     0000000140027508     LIBCMT:initializers.obj
 0002:00000520       __acrt_stdio_initializer   0000000140027520     libucrt:stdio_initializer.obj
 0002:00000528       __acrt_multibyte_initializer 0000000140027528     libucrt:multibyte_initializer.obj
 0002:00000530       __acrt_fmode_initializer   0000000140027530     libucrt:fmode_initializer.obj
 0002:00000538       __acrt_tran_fma3_initializer 0000000140027538     libucrt:fma3_initializer.obj
 0002:00000540       __xi_z                     0000000140027540     LIBCMT:initializers.obj
 0002:00000548       __xp_a                     0000000140027548     LIBCMT:initializers.obj
 0002:00000550       __acrt_locale_terminator   0000000140027550     libucrt:locale_initializer.obj
 0002:00000558       __dcrt_console_output_terminator 0000000140027558     libucrt:console_output_initializer.obj
 0002:00000560       __acrt_stdio_terminator    0000000140027560     libucrt:stdio_initializer.obj
 0002:00000568       __xp_z                     0000000140027568     LIBCMT:initializers.obj
 0002:00000570       __xt_a                     0000000140027570     LIBCMT:initializers.obj
 0002:00000578       __xt_z                     0000000140027578     LIBCMT:initializers.obj
 0002:00000580       IID_IDirectorySearch       0000000140027580     adsiid:guid.obj
 0002:00000590       IID_IADs                   0000000140027590     adsiid:guid.obj
 0002:000005a8       ??_7exception@std@@6B@     00000001400275a8     libcpmt:xthrow.obj
 0002:000005c0       ??_7bad_alloc@std@@6B@     00000001400275c0     libcpmt:xthrow.obj
 0002:000005d0       ??_C@_0P@GHFPNOJB@bad?5allocation@ 00000001400275d0     libcpmt:xthrow.obj
 0002:000005e8       ??_7bad_function_call@std@@6B@ 00000001400275e8     libcpmt:xthrow.obj
 0002:000005f8       ??_C@_0BC@DPJNKNAF@bad?5function?5call@ 00000001400275f8     libcpmt:xthrow.obj
 0002:00000618       ??_7logic_error@std@@6B@   0000000140027618     libcpmt:xthrow.obj
 0002:00000630       ??_7length_error@std@@6B@  0000000140027630     libcpmt:xthrow.obj
 0002:00000648       ??_7out_of_range@std@@6B@  0000000140027648     libcpmt:xthrow.obj
 0002:00000660       ??_7runtime_error@std@@6B@ 0000000140027660     libcpmt:xthrow.obj
 0002:00002ba0       __xmm@ff00ff00ff00ff00ff00ff00ff00ff00 0000000140029ba0     libcpmt:vector_algorithms.obj
 0002:00002bb0       __xmm@ffffffffffffffffffffffffffffffff 0000000140029bb0     libcpmt:vector_algorithms.obj
 0002:00002bc0       __ymm@0000000100000001000000010000000100000001000000010000000100000001 0000000140029bc0     libcpmt:vector_algorithms.obj
 0002:00002be0       __ymm@0000001f0000001f0000001f0000001f0000001f0000001f0000001f0000001f 0000000140029be0     libcpmt:vector_algorithms.obj
 0002:00002c00       __ymm@000000e0000000c0000000a00000008000000060000000400000002000000000 0000000140029c00     libcpmt:vector_algorithms.obj
 0002:00002c20       __ymm@ffffff00ffffff00ffffff00ffffff00ffffff00ffffff00ffffff00ffffff00 0000000140029c20     libcpmt:vector_algorithms.obj
 0002:00002c98       ??_C@_0BI@NGCEHDD@device?5or?5resource?5busy@ 0000000140029c98     libcpmt:thread0.obj
 0002:00002cb0       ??_C@_0BB@FCMFBGOM@invalid?5argument@ 0000000140029cb0     libcpmt:thread0.obj
 0002:00002cc8       ??_C@_0BA@ENLPPKBN@no?5such?5process@ 0000000140029cc8     libcpmt:thread0.obj
 0002:00002cd8       ??_C@_0BC@ENOOLCNF@not?5enough?5memory@ 0000000140029cd8     libcpmt:thread0.obj
 0002:00002cf0       ??_C@_0BI@OHIEJAAB@operation?5not?5permitted@ 0000000140029cf0     libcpmt:thread0.obj
 0002:00002d08       ??_C@_0BO@BJBOMOEJ@resource?5deadlock?5would?5occur@ 0000000140029d08     libcpmt:thread0.obj
 0002:00002d28       ??_C@_0BP@LKNGHENJ@resource?5unavailable?5try?5again@ 0000000140029d28     libcpmt:thread0.obj
 0002:00002d50       ??_7bad_array_new_length@std@@6B@ 0000000140029d50     libcpmt:thread0.obj
 0002:00002d68       ??_7_System_error@std@@6B@ 0000000140029d68     libcpmt:thread0.obj
 0002:00002d78       ??_C@_02LMMGGCAJ@?3?5@     0000000140029d78     libcpmt:thread0.obj
 0002:00002d88       ??_7system_error@std@@6B@  0000000140029d88     libcpmt:thread0.obj
 0002:00002da0       ??_7_Generic_error_category@std@@6B@ 0000000140029da0     libcpmt:thread0.obj
 0002:00002dd0       ??_C@_07DCLBNMLN@generic@  0000000140029dd0     libcpmt:thread0.obj
 0002:00003570       ??_C@_07IPNMCAN@success@   000000014002a570     libcpmt:syserror.obj
 0002:00003578       ??_C@_0BN@LKKBCCDB@address?5family?5not?5supported@ 000000014002a578     libcpmt:syserror.obj
 0002:00003598       ??_C@_0P@LDMLAFHI@address?5in?5use@ 000000014002a598     libcpmt:syserror.obj
 0002:000035a8       ??_C@_0BG@DHPCNBJB@address?5not?5available@ 000000014002a5a8     libcpmt:syserror.obj
 0002:000035c0       ??_C@_0BC@DFIBIBIL@already?5connected@ 000000014002a5c0     libcpmt:syserror.obj
 0002:000035d8       ??_C@_0BH@CAKOHOMI@argument?5list?5too?5long@ 000000014002a5d8     libcpmt:syserror.obj
 0002:000035f0       ??_C@_0BH@CGIMPKIM@argument?5out?5of?5domain@ 000000014002a5f0     libcpmt:syserror.obj
 0002:00003608       ??_C@_0M@KGHGGJGL@bad?5address@ 000000014002a608     libcpmt:syserror.obj
 0002:00003618       ??_C@_0BE@MPJPGCEO@bad?5file?5descriptor@ 000000014002a618     libcpmt:syserror.obj
 0002:00003630       ??_C@_0M@PMMIEFCP@bad?5message@ 000000014002a630     libcpmt:syserror.obj
 0002:00003640       ??_C@_0M@KPHOFDBE@broken?5pipe@ 000000014002a640     libcpmt:syserror.obj
 0002:00003650       ??_C@_0BD@MGNDDEGM@connection?5aborted@ 000000014002a650     libcpmt:syserror.obj
 0002:00003668       ??_C@_0BP@KAIHPOGN@connection?5already?5in?5progress@ 000000014002a668     libcpmt:syserror.obj
 0002:00003688       ??_C@_0BD@PJLIIJEL@connection?5refused@ 000000014002a688     libcpmt:syserror.obj
 0002:000036a0       ??_C@_0BB@IECNJNOI@connection?5reset@ 000000014002a6a0     libcpmt:syserror.obj
 0002:000036b8       ??_C@_0BC@PPHBOELF@cross?5device?5link@ 000000014002a6b8     libcpmt:syserror.obj
 0002:000036d0       ??_C@_0BN@KDMIFEIP@destination?5address?5required@ 000000014002a6d0     libcpmt:syserror.obj
 0002:000036f0       ??_C@_0BE@JIDOCPHM@directory?5not?5empty@ 000000014002a6f0     libcpmt:syserror.obj
 0002:00003708       ??_C@_0BI@BNCLIGPB@executable?5format?5error@ 000000014002a708     libcpmt:syserror.obj
 0002:00003720       ??_C@_0M@MIDIAGJP@file?5exists@ 000000014002a720     libcpmt:syserror.obj
 0002:00003730       ??_C@_0P@DNAJLBJK@file?5too?5large@ 000000014002a730     libcpmt:syserror.obj
 0002:00003740       ??_C@_0BC@EJHOMAAK@filename?5too?5long@ 000000014002a740     libcpmt:syserror.obj
 0002:00003758       ??_C@_0BH@KEFGLDAF@function?5not?5supported@ 000000014002a758     libcpmt:syserror.obj
 0002:00003770       ??_C@_0BB@DHFDFGDM@host?5unreachable@ 000000014002a770     libcpmt:syserror.obj
 0002:00003788       ??_C@_0BD@JPHBMONG@identifier?5removed@ 000000014002a788     libcpmt:syserror.obj
 0002:000037a0       ??_C@_0BG@CDNPAGJK@illegal?5byte?5sequence@ 000000014002a7a0     libcpmt:syserror.obj
 0002:000037b8       ??_C@_0CD@BNPLBMNA@inappropriate?5io?5control?5operat@ 000000014002a7b8     libcpmt:syserror.obj
 0002:000037e0       ??_C@_0M@EGEKIIMP@interrupted@ 000000014002a7e0     libcpmt:syserror.obj
 0002:000037f0       ??_C@_0N@OHAFKDEK@invalid?5seek@ 000000014002a7f0     libcpmt:syserror.obj
 0002:00003800       ??_C@_08GLNPIFBN@io?5error@ 000000014002a800     libcpmt:syserror.obj
 0002:00003810       ??_C@_0P@FLLDBIDK@is?5a?5directory@ 000000014002a810     libcpmt:syserror.obj
 0002:00003820       ??_C@_0N@IFLPBIOP@message?5size@ 000000014002a820     libcpmt:syserror.obj
 0002:00003830       ??_C@_0N@KIIEAAIO@network?5down@ 000000014002a830     libcpmt:syserror.obj
 0002:00003840       ??_C@_0O@FNPDBHEE@network?5reset@ 000000014002a840     libcpmt:syserror.obj
 0002:00003850       ??_C@_0BE@IFNCKGE@network?5unreachable@ 000000014002a850     libcpmt:syserror.obj
 0002:00003868       ??_C@_0BA@PFFCAOFK@no?5buffer?5space@ 000000014002a868     libcpmt:syserror.obj
 0002:00003878       ??_C@_0BB@IEPBLJHK@no?5child?5process@ 000000014002a878     libcpmt:syserror.obj
 0002:00003890       ??_C@_07PLECNNKG@no?5link@ 000000014002a890     libcpmt:syserror.obj
 0002:00003898       ??_C@_0BC@NJECKMKE@no?5lock?5available@ 000000014002a898     libcpmt:syserror.obj
 0002:000038b0       ??_C@_0BF@PBGGPKKE@no?5message?5available@ 000000014002a8b0     libcpmt:syserror.obj
 0002:000038c8       ??_C@_0L@EDOLMPAK@no?5message@ 000000014002a8c8     libcpmt:syserror.obj
 0002:000038d8       ??_C@_0BD@EAMBFIDF@no?5protocol?5option@ 000000014002a8d8     libcpmt:syserror.obj
 0002:000038f0       ??_C@_0BD@IJDJKDEA@no?5space?5on?5device@ 000000014002a8f0     libcpmt:syserror.obj
 0002:00003908       ??_C@_0BE@MKFDAFMP@no?5stream?5resources@ 000000014002a908     libcpmt:syserror.obj
 0002:00003920       ??_C@_0BK@IMCPHCBI@no?5such?5device?5or?5address@ 000000014002a920     libcpmt:syserror.obj
 0002:00003940       ??_C@_0P@FDINDDOK@no?5such?5device@ 000000014002a940     libcpmt:syserror.obj
 0002:00003950       ??_C@_0BK@NDOCBPGE@no?5such?5file?5or?5directory@ 000000014002a950     libcpmt:syserror.obj
 0002:00003970       ??_C@_0BA@DOCPFFJG@not?5a?5directory@ 000000014002a970     libcpmt:syserror.obj
 0002:00003980       ??_C@_0N@POEIPGGF@not?5a?5socket@ 000000014002a980     libcpmt:syserror.obj
 0002:00003990       ??_C@_0N@LGAPMMPI@not?5a?5stream@ 000000014002a990     libcpmt:syserror.obj
 0002:000039a0       ??_C@_0O@GLMIBBEG@not?5connected@ 000000014002a9a0     libcpmt:syserror.obj
 0002:000039b0       ??_C@_0O@NHEDABJP@not?5supported@ 000000014002a9b0     libcpmt:syserror.obj
 0002:000039c0       ??_C@_0BD@MOLBPMEA@operation?5canceled@ 000000014002a9c0     libcpmt:syserror.obj
 0002:000039d8       ??_C@_0BG@KDKHOPCO@operation?5in?5progress@ 000000014002a9d8     libcpmt:syserror.obj
 0002:000039f0       ??_C@_0BI@LNEGIFLN@operation?5not?5supported@ 000000014002a9f0     libcpmt:syserror.obj
 0002:00003a08       ??_C@_0BG@OEMDKMEE@operation?5would?5block@ 000000014002aa08     libcpmt:syserror.obj
 0002:00003a20       ??_C@_0L@BLPOFLNJ@owner?5dead@ 000000014002aa20     libcpmt:syserror.obj
 0002:00003a30       ??_C@_0BC@CIJDGCDI@permission?5denied@ 000000014002aa30     libcpmt:syserror.obj
 0002:00003a48       ??_C@_0P@FNPOCJBE@protocol?5error@ 000000014002aa48     libcpmt:syserror.obj
 0002:00003a58       ??_C@_0BH@JPPPLHJB@protocol?5not?5supported@ 000000014002aa58     libcpmt:syserror.obj
 0002:00003a70       ??_C@_0BG@EICBIHDP@read?5only?5file?5system@ 000000014002aa70     libcpmt:syserror.obj
 0002:00003a88       ??_C@_0BE@GOIPJJHG@result?5out?5of?5range@ 000000014002aa88     libcpmt:syserror.obj
 0002:00003aa0       ??_C@_0BG@MPLKFPAE@state?5not?5recoverable@ 000000014002aaa0     libcpmt:syserror.obj
 0002:00003ab8       ??_C@_0P@DIIFGFCG@stream?5timeout@ 000000014002aab8     libcpmt:syserror.obj
 0002:00003ac8       ??_C@_0P@IPFDMIFL@text?5file?5busy@ 000000014002aac8     libcpmt:syserror.obj
 0002:00003ad8       ??_C@_09KJPPMAOI@timed?5out@ 000000014002aad8     libcpmt:syserror.obj
 0002:00003ae8       ??_C@_0BO@HACHBEKI@too?5many?5files?5open?5in?5system@ 000000014002aae8     libcpmt:syserror.obj
 0002:00003b08       ??_C@_0BE@GHAFMPAH@too?5many?5files?5open@ 000000014002ab08     libcpmt:syserror.obj
 0002:00003b20       ??_C@_0P@HCOMKFCC@too?5many?5links@ 000000014002ab20     libcpmt:syserror.obj
 0002:00003b30       ??_C@_0BO@EFGOJEF@too?5many?5symbolic?5link?5levels@ 000000014002ab30     libcpmt:syserror.obj
 0002:00003b50       ??_C@_0BA@KGKGOOJA@value?5too?5large@ 000000014002ab50     libcpmt:syserror.obj
 0002:00003b60       ??_C@_0BE@MIEJDDNH@wrong?5protocol?5type@ 000000014002ab60     libcpmt:syserror.obj
 0002:00003b78       ??_C@_0O@BFJCFAAK@unknown?5error@ 000000014002ab78     libcpmt:syserror.obj
 0002:00003b86       ?nothrow@std@@3Unothrow_t@1@B 000000014002ab86     libcpmt:nothrow.obj
 0002:00003c98       ??_7type_info@@6B@         000000014002ac98     LIBCMT:std_type_info_static.obj
 0002:00003ca0       ?s_negLengthTab@FH4@@3QBCB 000000014002aca0     libvcruntime:risctrnsctrl.obj
 0002:00003cb0       ?s_shiftTab@FH4@@3QBEB     000000014002acb0     libvcruntime:risctrnsctrl.obj
 0002:00003df8       _pDestructExceptionObject  000000014002adf8     libvcruntime:ehhelpers.obj
 0002:00003e08       ??_7bad_exception@std@@6B@ 000000014002ae08     libvcruntime:frame.obj
 0002:00003e18       ??_C@_0O@DPKOEFFH@bad?5exception@ 000000014002ae18     libvcruntime:frame.obj
 0002:00004540       ??_C@_08EHJDFFNH@__based?$CI@ 000000014002b540     libvcruntime:undname.obj
 0002:00004550       ??_C@_07KOLFKCDI@__cdecl@  000000014002b550     libvcruntime:undname.obj
 0002:00004558       ??_C@_09IFJBGAPI@__stdcall@ 000000014002b558     libvcruntime:undname.obj
 0002:00004568       ??_C@_0L@NPHFGOKO@__thiscall@ 000000014002b568     libvcruntime:undname.obj
 0002:00004578       ??_C@_0L@JMKHOMEK@__fastcall@ 000000014002b578     libvcruntime:undname.obj
 0002:00004588       ??_C@_0N@BCKKPABJ@__vectorcall@ 000000014002b588     libvcruntime:undname.obj
 0002:00004598       ??_C@_0BA@NAGGFLJK@__preserve_none@ 000000014002b598     libvcruntime:undname.obj
 0002:000045a8       ??_C@_09HIJEGCPM@__clrcall@ 000000014002b5a8     libvcruntime:undname.obj
 0002:000045b4       ??_C@_06GHPCKEAG@__eabi@   000000014002b5b4     libvcruntime:undname.obj
 0002:000045c0       ??_C@_09IOPIDJLG@__swift_1@ 000000014002b5c0     libvcruntime:undname.obj
 0002:000045d0       ??_C@_09KFNFGKHF@__swift_2@ 000000014002b5d0     libvcruntime:undname.obj
 0002:000045e0       ??_C@_09LMMOFLDE@__swift_3@ 000000014002b5e0     libvcruntime:undname.obj
 0002:000045f0       ??_C@_07JOMMBBKO@__ptr64@  000000014002b5f0     libvcruntime:undname.obj
 0002:000045f8       ??_C@_0L@PILCLIHE@__restrict@ 000000014002b5f8     libvcruntime:undname.obj
 0002:00004608       ??_C@_0M@GFIIJFMG@__unaligned@ 000000014002b608     libvcruntime:undname.obj
 0002:00004618       ??_C@_09DHDLOLLB@restrict?$CI@ 000000014002b618     libvcruntime:undname.obj
 0002:00004622       ??_C@_00CNPNBAHC@@         000000014002b622     libvcruntime:undname.obj
 0002:00004624       ??_C@_04NIHEBCM@?5new@     000000014002b624     libvcruntime:undname.obj
 0002:00004630       ??_C@_07FPCDHGMM@?5delete@ 000000014002b630     libvcruntime:undname.obj
 0002:00004638       ??_C@_01NEMOKFLO@?$DN@     000000014002b638     libvcruntime:undname.obj
 0002:0000463c       ??_C@_02GPIOPFAK@?$DO?$DO@ 000000014002b63c     libvcruntime:undname.obj
 0002:00004640       ??_C@_02FODMEDOG@?$DM?$DM@ 000000014002b640     libvcruntime:undname.obj
 0002:00004644       ??_C@_01DCLJPIOD@?$CB@     000000014002b644     libvcruntime:undname.obj
 0002:00004648       ??_C@_02EGOFBIJA@?$DN?$DN@ 000000014002b648     libvcruntime:undname.obj
 0002:0000464c       ??_C@_02FDNJECIE@?$CB?$DN@ 000000014002b64c     libvcruntime:undname.obj
 0002:00004650       ??_C@_02GPECMEKF@?$FL?$FN@ 000000014002b650     libvcruntime:undname.obj
 0002:00004658       ??_C@_08LHJFAFGD@operator@ 000000014002b658     libvcruntime:undname.obj
 0002:00004664       ??_C@_02HBOOOICD@?9?$DO@   000000014002b664     libvcruntime:undname.obj
 0002:00004668       ??_C@_01NBENCBCI@?$CK@     000000014002b668     libvcruntime:undname.obj
 0002:0000466c       ??_C@_02ECNGHCIF@?$CL?$CL@ 000000014002b66c     libvcruntime:undname.obj
 0002:00004670       ??_C@_02BAABKJLB@?9?9@     000000014002b670     libvcruntime:undname.obj
 0002:00004674       ??_C@_01JOAMLHOP@?9@       000000014002b674     libvcruntime:undname.obj
 0002:00004678       ??_C@_01MIFGBAGJ@?$CL@     000000014002b678     libvcruntime:undname.obj
 0002:0000467c       ??_C@_01HNPIGOCE@?$CG@     000000014002b67c     libvcruntime:undname.obj
 0002:00004680       ??_C@_03MNHNFDLC@?9?$DO?$CK@ 000000014002b680     libvcruntime:undname.obj
 0002:00004684       ??_C@_01KMDKNFGN@?1@       000000014002b684     libvcruntime:undname.obj
 0002:00004688       ??_C@_01FGNFDNOH@?$CF@     000000014002b688     libvcruntime:undname.obj
 0002:0000468c       ??_C@_01MNNFJEPP@?$DM@     000000014002b68c     libvcruntime:undname.obj
 0002:00004690       ??_C@_02EHCHHCKH@?$DM?$DN@ 000000014002b690     libvcruntime:undname.obj
 0002:00004694       ??_C@_01PPODPGHN@?$DO@     000000014002b694     libvcruntime:undname.obj
 0002:00004698       ??_C@_02EEKDKGMJ@?$DO?$DN@ 000000014002b698     libvcruntime:undname.obj
 0002:0000469c       ??_C@_01IHBHIGKO@?0@       000000014002b69c     libvcruntime:undname.obj
 0002:000046a0       ??_C@_02HCKGKOFO@?$CI?$CJ@ 000000014002b6a0     libvcruntime:undname.obj
 0002:000046a4       ??_C@_01PJKLJHI@?$HO@      000000014002b6a4     libvcruntime:undname.obj
 0002:000046a8       ??_C@_01JKBOJNNK@?$FO@     000000014002b6a8     libvcruntime:undname.obj
 0002:000046ac       ??_C@_01DNKMNLPK@?$HM@     000000014002b6ac     libvcruntime:undname.obj
 0002:000046b0       ??_C@_02PPKAJPJL@?$CG?$CG@ 000000014002b6b0     libvcruntime:undname.obj
 0002:000046b4       ??_C@_02NONPIBCD@?$HM?$HM@ 000000014002b6b4     libvcruntime:undname.obj
 0002:000046b8       ??_C@_02FPIMKNGF@?$CK?$DN@ 000000014002b6b8     libvcruntime:undname.obj
 0002:000046bc       ??_C@_02FOEOMHFC@?$CL?$DN@ 000000014002b6bc     libvcruntime:undname.obj
 0002:000046c0       ??_C@_02FKMDLLOA@?9?$DN@   000000014002b6c0     libvcruntime:undname.obj
 0002:000046c4       ??_C@_02FJEHGPIO@?1?$DN@   000000014002b6c4     libvcruntime:undname.obj
 0002:000046c8       ??_C@_02FENAOKFI@?$CF?$DN@ 000000014002b6c8     libvcruntime:undname.obj
 0002:000046cc       ??_C@_03IKFCCPFF@?$DO?$DO?$DN@ 000000014002b6cc     libvcruntime:undname.obj
 0002:000046d0       ??_C@_03CDNPDDLA@?$DM?$DM?$DN@ 000000014002b6d0     libvcruntime:undname.obj
 0002:000046d4       ??_C@_02FGJGFEAB@?$CG?$DN@ 000000014002b6d4     libvcruntime:undname.obj
 0002:000046d8       ??_C@_02DHLNPPGH@?$HM?$DN@ 000000014002b6d8     libvcruntime:undname.obj
 0002:000046dc       ??_C@_02MHEGNOJ@?$FO?$DN@  000000014002b6dc     libvcruntime:undname.obj
 0002:000046e0       ??_C@_09IFPLHPGF@?$GAvftable?8@ 000000014002b6e0     libvcruntime:undname.obj
 0002:000046f0       ??_C@_09BLBHBJP@?$GAvbtable?8@ 000000014002b6f0     libvcruntime:undname.obj
 0002:00004700       ??_C@_07FEEIOKP@?$GAvcall?8@ 000000014002b700     libvcruntime:undname.obj
 0002:00004708       ??_C@_08LLFFHHDJ@?$GAtypeof?8@ 000000014002b708     libvcruntime:undname.obj
 0002:00004718       ??_C@_0BF@KDPPACIK@?$GAlocal?5static?5guard?8@ 000000014002b718     libvcruntime:undname.obj
 0002:00004730       ??_C@_08OBABFOLI@?$GAstring?8@ 000000014002b730     libvcruntime:undname.obj
 0002:00004740       ??_C@_0BD@JDLKDPAB@?$GAvbase?5destructor?8@ 000000014002b740     libvcruntime:undname.obj
 0002:00004758       ??_C@_0BN@DEGPLNFK@?$GAvector?5deleting?5destructor?8@ 000000014002b758     libvcruntime:undname.obj
 0002:00004778       ??_C@_0BO@OBMKPJIG@?$GAdefault?5constructor?5closure?8@ 000000014002b778     libvcruntime:undname.obj
 0002:00004798       ??_C@_0BN@IMDCHIKM@?$GAscalar?5deleting?5destructor?8@ 000000014002b798     libvcruntime:undname.obj
 0002:000047b8       ??_C@_0BO@PFGOCPJJ@?$GAvector?5constructor?5iterator?8@ 000000014002b7b8     libvcruntime:undname.obj
 0002:000047d8       ??_C@_0BN@LFPFMEDL@?$GAvector?5destructor?5iterator?8@ 000000014002b7d8     libvcruntime:undname.obj
 0002:000047f8       ??_C@_0CE@IKBNEHA@?$GAvector?5vbase?5constructor?5itera@ 000000014002b7f8     libvcruntime:undname.obj
 0002:00004820       ??_C@_0BL@NILFHHPC@?$GAvirtual?5displacement?5map?8@ 000000014002b820     libvcruntime:undname.obj
 0002:00004840       ??_C@_0CB@JONCMFFK@?$GAeh?5vector?5constructor?5iterator@ 000000014002b840     libvcruntime:undname.obj
 0002:00004868       ??_C@_0CA@GCEOPDGL@?$GAeh?5vector?5destructor?5iterator?8@ 000000014002b868     libvcruntime:undname.obj
 0002:00004888       ??_C@_0CH@OOJPLCPH@?$GAeh?5vector?5vbase?5constructor?5it@ 000000014002b888     libvcruntime:undname.obj
 0002:000048b0       ??_C@_0BL@LLKPOHJI@?$GAcopy?5constructor?5closure?8@ 000000014002b8b0     libvcruntime:undname.obj
 0002:000048d0       ??_C@_0BA@KBCDOMBN@?$GAudt?5returning?8@ 000000014002b8d0     libvcruntime:undname.obj
 0002:000048e0       ??_C@_03KLGMFNMG@?$GAEH@   000000014002b8e0     libvcruntime:undname.obj
 0002:000048e4       ??_C@_05KHLCHHI@?$GARTTI@  000000014002b8e4     libvcruntime:undname.obj
 0002:000048f0       ??_C@_0BA@KKLDJDLB@?$GAlocal?5vftable?8@ 000000014002b8f0     libvcruntime:undname.obj
 0002:00004900       ??_C@_0CE@IIHCMGGL@?$GAlocal?5vftable?5constructor?5clos@ 000000014002b900     libvcruntime:undname.obj
 0002:00004924       ??_C@_06FHBGPFGH@?5new?$FL?$FN@ 000000014002b924     libvcruntime:undname.obj
 0002:00004930       ??_C@_09LBNFPBCA@?5delete?$FL?$FN@ 000000014002b930     libvcruntime:undname.obj
 0002:00004940       ??_C@_0P@HJKNJFNN@?$GAomni?5callsig?8@ 000000014002b940     libvcruntime:undname.obj
 0002:00004950       ??_C@_0BL@CNOONJFP@?$GAplacement?5delete?5closure?8@ 000000014002b950     libvcruntime:undname.obj
 0002:00004970       ??_C@_0BN@CKNJLHMB@?$GAplacement?5delete?$FL?$FN?5closure?8@ 000000014002b970     libvcruntime:undname.obj
 0002:00004990       ??_C@_0CG@CFDHKGGD@?$GAmanaged?5vector?5constructor?5ite@ 000000014002b990     libvcruntime:undname.obj
 0002:000049b8       ??_C@_0CF@IMGKMJNO@?$GAmanaged?5vector?5destructor?5iter@ 000000014002b9b8     libvcruntime:undname.obj
 0002:000049e0       ??_C@_0CG@HLDDJMAG@?$GAeh?5vector?5copy?5constructor?5ite@ 000000014002b9e0     libvcruntime:undname.obj
 0002:00004a08       ??_C@_0CM@FCBBDIGB@?$GAeh?5vector?5vbase?5copy?5construct@ 000000014002ba08     libvcruntime:undname.obj
 0002:00004a38       ??_C@_0BL@CLIPGLGB@?$GAdynamic?5initializer?5for?5?8@ 000000014002ba38     libvcruntime:undname.obj
 0002:00004a58       ??_C@_0CB@PDBIFEP@?$GAdynamic?5atexit?5destructor?5for?5@ 000000014002ba58     libvcruntime:undname.obj
 0002:00004a80       ??_C@_0CD@CGAJBKEJ@?$GAvector?5copy?5constructor?5iterat@ 000000014002ba80     libvcruntime:undname.obj
 0002:00004aa8       ??_C@_0CJ@GJELGAMM@?$GAvector?5vbase?5copy?5constructor?5@ 000000014002baa8     libvcruntime:undname.obj
 0002:00004ad8       ??_C@_0CL@FGIJHLCE@?$GAmanaged?5vector?5copy?5constructo@ 000000014002bad8     libvcruntime:undname.obj
 0002:00004b08       ??_C@_0BM@PMGGMLDN@?$GAlocal?5static?5thread?5guard?8@ 000000014002bb08     libvcruntime:undname.obj
 0002:00004b28       ??_C@_0N@BDNMDMOL@operator?5?$CC?$CC?5@ 000000014002bb28     libvcruntime:undname.obj
 0002:00004b38       ??_C@_0BC@GGEBGALA@operator?5co_await@ 000000014002bb38     libvcruntime:undname.obj
 0002:00004b50       ??_C@_0M@GAAIMMOH@operator?$DM?$DN?$DO@ 000000014002bb50     libvcruntime:undname.obj
 0002:00004b60       ??_C@_0BC@DAFEJGAK@?5Type?5Descriptor?8@ 000000014002bb60     libvcruntime:undname.obj
 0002:00004b78       ??_C@_0BM@LDKODKLH@?5Base?5Class?5Descriptor?5at?5?$CI@ 000000014002bb78     libvcruntime:undname.obj
 0002:00004b98       ??_C@_0BD@LGICGFMM@?5Base?5Class?5Array?8@ 000000014002bb98     libvcruntime:undname.obj
 0002:00004bb0       ??_C@_0BN@MECKDCOJ@?5Class?5Hierarchy?5Descriptor?8@ 000000014002bbb0     libvcruntime:undname.obj
 0002:00004bd0       ??_C@_0BK@CFCOFLF@?5Complete?5Object?5Locator?8@ 000000014002bbd0     libvcruntime:undname.obj
 0002:00004bf0       ??_C@_0BG@JNJLAMPM@?$GAanonymous?5namespace?8@ 000000014002bbf0     libvcruntime:undname.obj
 0002:00004c10       ?standard_lookup_table_spectre@__crt_stdio_output@@3V?$spectre_mitigated_lookup_table@Ustate_transition_pair@__crt_stdio_output@@$0IA@@1@B 000000014002bc10     libucrt:output.obj
 0002:00004d60       ??_C@_1O@CEDCILHN@?$AA?$CI?$AAn?$AAu?$AAl?$AAl?$AA?$CJ@ 000000014002bd60     libucrt:output.obj
 0002:00004d70       ??_C@_06OJHGLDPL@?$CInull?$CJ@ 000000014002bd70     libucrt:output.obj
 0002:00004d78       __real@3f800000            000000014002bd78     libucrt:ceilf.obj
 0002:00004d80       __acrt_exception_action_table 000000014002bd80     libucrt:exception_filter.obj
 0002:00004e40       __acrt_signal_action_table_count 000000014002be40     libucrt:exception_filter.obj
 0002:00004e48       __acrt_signal_action_first_fpe_index 000000014002be48     libucrt:exception_filter.obj
 0002:00004e50       __acrt_signal_action_fpe_count 000000014002be50     libucrt:exception_filter.obj
 0002:00004ed0       ??_C@_1BI@BGOHAHKC@?$AAm?$AAs?$AAc?$AAo?$AAr?$AAe?$AAe?$AA?4?$AAd?$AAl?$AAl@ 000000014002bed0     libucrt:exit.obj
 0002:00004ee8       ??_C@_0P@MIGLKIOC@CorExitProcess@ 000000014002bee8     libucrt:exit.obj
 0002:00005210       ??_C@_03OEIAHPBN@INF@      000000014002c210     libucrt:cvt.obj
 0002:00005214       ??_C@_03OJHLLCGB@inf@      000000014002c214     libucrt:cvt.obj
 0002:00005218       ??_C@_03LKNCIKJB@NAN@      000000014002c218     libucrt:cvt.obj
 0002:0000521c       ??_C@_03LHCJEHON@nan@      000000014002c21c     libucrt:cvt.obj
 0002:00005220       ??_C@_09OFJJIMPC@NAN?$CISNAN?$CJ@ 000000014002c220     libucrt:cvt.obj
 0002:00005230       ??_C@_09IPFBKMDL@nan?$CIsnan?$CJ@ 000000014002c230     libucrt:cvt.obj
 0002:00005240       ??_C@_08IKHNHAJ@NAN?$CIIND?$CJ@ 000000014002c240     libucrt:cvt.obj
 0002:00005250       ??_C@_08OFCDMILK@nan?$CIind?$CJ@ 000000014002c250     libucrt:cvt.obj
 0002:0000525c       ??_C@_05KLBDPFGC@e?$CL000@ 000000014002c25c     libucrt:cvt.obj
 0002:00005270       __lc_time_c                000000014002c270     libucrt:nlsdata.obj
 0002:00005530       ??_C@_03KOEHGMDN@Sun@      000000014002c530     libucrt:nlsdata.obj
 0002:00005534       ??_C@_03PDAGKDH@Mon@       000000014002c534     libucrt:nlsdata.obj
 0002:00005538       ??_C@_03NAGEINEP@Tue@      000000014002c538     libucrt:nlsdata.obj
 0002:0000553c       ??_C@_03MHOMLAJA@Wed@      000000014002c53c     libucrt:nlsdata.obj
 0002:00005540       ??_C@_03IOFIKPDN@Thu@      000000014002c540     libucrt:nlsdata.obj
 0002:00005544       ??_C@_03IDIOELNC@Fri@      000000014002c544     libucrt:nlsdata.obj
 0002:00005548       ??_C@_03FEFJNEK@Sat@       000000014002c548     libucrt:nlsdata.obj
 0002:0000554c       ??_C@_06OOPIFAJ@Sunday@    000000014002c54c     libucrt:nlsdata.obj
 0002:00005554       ??_C@_06JLEDEDGH@Monday@   000000014002c554     libucrt:nlsdata.obj
 0002:00005560       ??_C@_07BAAGCFCM@Tuesday@  000000014002c560     libucrt:nlsdata.obj
 0002:00005568       ??_C@_09DLIGFAKA@Wednesday@ 000000014002c568     libucrt:nlsdata.obj
 0002:00005578       ??_C@_08HACCIKIA@Thursday@ 000000014002c578     libucrt:nlsdata.obj
 0002:00005584       ??_C@_06JECMNKMI@Friday@   000000014002c584     libucrt:nlsdata.obj
 0002:00005590       ??_C@_08INBOOONO@Saturday@ 000000014002c590     libucrt:nlsdata.obj
 0002:0000559c       ??_C@_03JIHJHPIE@Jan@      000000014002c59c     libucrt:nlsdata.obj
 0002:000055a0       ??_C@_03HJBDCHOM@Feb@      000000014002c5a0     libucrt:nlsdata.obj
 0002:000055a4       ??_C@_03ODNJBKGA@Mar@      000000014002c5a4     libucrt:nlsdata.obj
 0002:000055a8       ??_C@_03LEOLGMJP@Apr@      000000014002c5a8     libucrt:nlsdata.obj
 0002:000055ac       ??_C@_03CNMDKL@May@        000000014002c5ac     libucrt:nlsdata.obj
 0002:000055b0       ??_C@_03IDFGHECI@Jun@      000000014002c5b0     libucrt:nlsdata.obj
 0002:000055b4       ??_C@_03LBGABGKK@Jul@      000000014002c5b4     libucrt:nlsdata.obj
 0002:000055b8       ??_C@_03IFJFEIGA@Aug@      000000014002c5b8     libucrt:nlsdata.obj
 0002:000055bc       ??_C@_03GGCAPAJC@Sep@      000000014002c5bc     libucrt:nlsdata.obj
 0002:000055c0       ??_C@_03BMAOKBAD@Oct@      000000014002c5c0     libucrt:nlsdata.obj
 0002:000055c4       ??_C@_03JPJOFNIA@Nov@      000000014002c5c4     libucrt:nlsdata.obj
 0002:000055c8       ??_C@_03MKABNOCG@Dec@      000000014002c5c8     libucrt:nlsdata.obj
 0002:000055d0       ??_C@_07CGJPFGJA@January@  000000014002c5d0     libucrt:nlsdata.obj
 0002:000055d8       ??_C@_08GNJGEPFN@February@ 000000014002c5d8     libucrt:nlsdata.obj
 0002:000055e4       ??_C@_05HPCKOFNC@March@    000000014002c5e4     libucrt:nlsdata.obj
 0002:000055ec       ??_C@_05DMJDNLEJ@April@    000000014002c5ec     libucrt:nlsdata.obj
 0002:000055f4       ??_C@_04CNLMGBGM@June@     000000014002c5f4     libucrt:nlsdata.obj
 0002:000055fc       ??_C@_04MIEPOIFP@July@     000000014002c5fc     libucrt:nlsdata.obj
 0002:00005604       ??_C@_06LBBHFDDG@August@   000000014002c604     libucrt:nlsdata.obj
 0002:00005610       ??_C@_09BHHEALKD@September@ 000000014002c610     libucrt:nlsdata.obj
 0002:00005620       ??_C@_07JJNFCEND@October@  000000014002c620     libucrt:nlsdata.obj
 0002:00005628       ??_C@_08HCHEGEOA@November@ 000000014002c628     libucrt:nlsdata.obj
 0002:00005638       ??_C@_08EDHMEBNP@December@ 000000014002c638     libucrt:nlsdata.obj
 0002:00005644       ??_C@_02DEDBPAFC@AM@       000000014002c644     libucrt:nlsdata.obj
 0002:00005648       ??_C@_02CJNFDJBF@PM@       000000014002c648     libucrt:nlsdata.obj
 0002:00005650       ??_C@_08BPBNCDIB@MM?1dd?1yy@ 000000014002c650     libucrt:nlsdata.obj
 0002:00005660       ??_C@_0BE@CKGJFCPC@dddd?0?5MMMM?5dd?0?5yyyy@ 000000014002c660     libucrt:nlsdata.obj
 0002:00005678       ??_C@_08JCCMCCIL@HH?3mm?3ss@ 000000014002c678     libucrt:nlsdata.obj
 0002:00005688       ??_C@_17MBGCMIPB@?$AAS?$AAu?$AAn@ 000000014002c688     libucrt:nlsdata.obj
 0002:00005690       ??_C@_17KBOMKBF@?$AAM?$AAo?$AAn@ 000000014002c690     libucrt:nlsdata.obj
 0002:00005698       ??_C@_17BMKGEGOJ@?$AAT?$AAu?$AAe@ 000000014002c698     libucrt:nlsdata.obj
 0002:000056a0       ??_C@_17CJEDCEPE@?$AAW?$AAe?$AAd@ 000000014002c6a0     libucrt:nlsdata.obj
 0002:000056a8       ??_C@_17PDPHAADD@?$AAT?$AAh?$AAu@ 000000014002c6a8     libucrt:nlsdata.obj
 0002:000056b0       ??_C@_17HFOLPPLP@?$AAF?$AAr?$AAi@ 000000014002c6b0     libucrt:nlsdata.obj
 0002:000056b8       ??_C@_17GGIBDPIH@?$AAS?$AAa?$AAt@ 000000014002c6b8     libucrt:nlsdata.obj
 0002:000056c0       ??_C@_1O@IHNHDHPB@?$AAS?$AAu?$AAn?$AAd?$AAa?$AAy@ 000000014002c6c0     libucrt:nlsdata.obj
 0002:000056d0       ??_C@_1O@MMNBFLIA@?$AAM?$AAo?$AAn?$AAd?$AAa?$AAy@ 000000014002c6d0     libucrt:nlsdata.obj
 0002:000056e0       ??_C@_1BA@ENFBFFEK@?$AAT?$AAu?$AAe?$AAs?$AAd?$AAa?$AAy@ 000000014002c6e0     libucrt:nlsdata.obj
 0002:000056f0       ??_C@_1BE@EBOGMDOH@?$AAW?$AAe?$AAd?$AAn?$AAe?$AAs?$AAd?$AAa?$AAy@ 000000014002c6f0     libucrt:nlsdata.obj
 0002:00005708       ??_C@_1BC@HHMNLIHE@?$AAT?$AAh?$AAu?$AAr?$AAs?$AAd?$AAa?$AAy@ 000000014002c708     libucrt:nlsdata.obj
 0002:00005720       ??_C@_1O@PDICJHAG@?$AAF?$AAr?$AAi?$AAd?$AAa?$AAy@ 000000014002c720     libucrt:nlsdata.obj
 0002:00005730       ??_C@_1BC@ENMNNPAJ@?$AAS?$AAa?$AAt?$AAu?$AAr?$AAd?$AAa?$AAy@ 000000014002c730     libucrt:nlsdata.obj
 0002:00005748       ??_C@_17DKNBKCHM@?$AAJ?$AAa?$AAn@ 000000014002c748     libucrt:nlsdata.obj
 0002:00005750       ??_C@_17LMDJEKJN@?$AAF?$AAe?$AAb@ 000000014002c750     libucrt:nlsdata.obj
 0002:00005758       ??_C@_17CKNLEDEC@?$AAM?$AAa?$AAr@ 000000014002c758     libucrt:nlsdata.obj
 0002:00005760       ??_C@_17LFPOIHDD@?$AAA?$AAp?$AAr@ 000000014002c760     libucrt:nlsdata.obj
 0002:00005768       ??_C@_17PNNKMEED@?$AAM?$AAa?$AAy@ 000000014002c768     libucrt:nlsdata.obj
 0002:00005770       ??_C@_17KCJGOCPB@?$AAJ?$AAu?$AAn@ 000000014002c770     libucrt:nlsdata.obj
 0002:00005778       ??_C@_17IJPCKHK@?$AAJ?$AAu?$AAl@ 000000014002c778     libucrt:nlsdata.obj
 0002:00005780       ??_C@_17ICPELBCN@?$AAA?$AAu?$AAg@ 000000014002c780     libucrt:nlsdata.obj
 0002:00005788       ??_C@_17HCHCOKMG@?$AAS?$AAe?$AAp@ 000000014002c788     libucrt:nlsdata.obj
 0002:00005790       ??_C@_17FNLKOI@?$AAO?$AAc?$AAt@ 000000014002c790     libucrt:nlsdata.obj
 0002:00005798       ??_C@_17BBDMLCIG@?$AAN?$AAo?$AAv@ 000000014002c798     libucrt:nlsdata.obj
 0002:000057a0       ??_C@_17EGKACKIF@?$AAD?$AAe?$AAc@ 000000014002c7a0     libucrt:nlsdata.obj
 0002:000057a8       ??_C@_1BA@EFMEIEBA@?$AAJ?$AAa?$AAn?$AAu?$AAa?$AAr?$AAy@ 000000014002c7a8     libucrt:nlsdata.obj
 0002:000057b8       ??_C@_1BC@JGDDFFAM@?$AAF?$AAe?$AAb?$AAr?$AAu?$AAa?$AAr?$AAy@ 000000014002c7b8     libucrt:nlsdata.obj
 0002:000057d0       ??_C@_1M@IKEENEDF@?$AAM?$AAa?$AAr?$AAc?$AAh@ 000000014002c7d0     libucrt:nlsdata.obj
 0002:000057e0       ??_C@_1M@GJNLMHFD@?$AAA?$AAp?$AAr?$AAi?$AAl@ 000000014002c7e0     libucrt:nlsdata.obj
 0002:000057f0       ??_C@_19EPFLPGAP@?$AAJ?$AAu?$AAn?$AAe@ 000000014002c7f0     libucrt:nlsdata.obj
 0002:00005800       ??_C@_19BIFMLPCD@?$AAJ?$AAu?$AAl?$AAy@ 000000014002c800     libucrt:nlsdata.obj
 0002:00005810       ??_C@_1O@PAHLKOAC@?$AAA?$AAu?$AAg?$AAu?$AAs?$AAt@ 000000014002c810     libucrt:nlsdata.obj
 0002:00005820       ??_C@_1BE@DKAAMBJL@?$AAS?$AAe?$AAp?$AAt?$AAe?$AAm?$AAb?$AAe?$AAr@ 000000014002c820     libucrt:nlsdata.obj
 0002:00005838       ??_C@_1BA@EPANDLNG@?$AAO?$AAc?$AAt?$AAo?$AAb?$AAe?$AAr@ 000000014002c838     libucrt:nlsdata.obj
 0002:00005848       ??_C@_1BC@BGLIFPF@?$AAN?$AAo?$AAv?$AAe?$AAm?$AAb?$AAe?$AAr@ 000000014002c848     libucrt:nlsdata.obj
 0002:00005860       ??_C@_1BC@FEMKIFH@?$AAD?$AAe?$AAc?$AAe?$AAm?$AAb?$AAe?$AAr@ 000000014002c860     libucrt:nlsdata.obj
 0002:00005874       ??_C@_15ODEHAHHF@?$AAA?$AAM@ 000000014002c874     libucrt:nlsdata.obj
 0002:0000587c       ??_C@_15CLMNNGEL@?$AAP?$AAM@ 000000014002c87c     libucrt:nlsdata.obj
 0002:00005888       ??_C@_1BC@IEBCMHCM@?$AAM?$AAM?$AA?1?$AAd?$AAd?$AA?1?$AAy?$AAy@ 000000014002c888     libucrt:nlsdata.obj
 0002:000058a0       ??_C@_1CI@KNAKOEBC@?$AAd?$AAd?$AAd?$AAd?$AA?0?$AA?5?$AAM?$AAM?$AAM?$AAM?$AA?5?$AAd?$AAd?$AA?0?$AA?5@ 000000014002c8a0     libucrt:nlsdata.obj
 0002:000058c8       ??_C@_1BC@GDGBMEMK@?$AAH?$AAH?$AA?3?$AAm?$AAm?$AA?3?$AAs?$AAs@ 000000014002c8c8     libucrt:nlsdata.obj
 0002:000058e0       ??_C@_1M@BMHNFIME@?$AAe?$AAn?$AA?9?$AAU?$AAS@ 000000014002c8e0     libucrt:nlsdata.obj
 0002:000059f0       ??_C@_1EA@JGEFHKEI@?$AAa?$AAp?$AAi?$AA?9?$AAm?$AAs?$AA?9?$AAw?$AAi?$AAn?$AA?9?$AAc?$AAo?$AAr?$AAe@ 000000014002c9f0     libucrt:winapi_thunks.obj
 0002:00005a30       ??_C@_1DM@LFJCLCKP@?$AAa?$AAp?$AAi?$AA?9?$AAm?$AAs?$AA?9?$AAw?$AAi?$AAn?$AA?9?$AAc?$AAo?$AAr?$AAe@ 000000014002ca30     libucrt:winapi_thunks.obj
 0002:00005a70       ??_C@_1DI@KMEPCBPN@?$AAa?$AAp?$AAi?$AA?9?$AAm?$AAs?$AA?9?$AAw?$AAi?$AAn?$AA?9?$AAc?$AAo?$AAr?$AAe@ 000000014002ca70     libucrt:winapi_thunks.obj
 0002:00005aa8       ??_C@_1DI@IJCEHOCB@?$AAa?$AAp?$AAi?$AA?9?$AAm?$AAs?$AA?9?$AAw?$AAi?$AAn?$AA?9?$AAc?$AAo?$AAr?$AAe@ 000000014002caa8     libucrt:winapi_thunks.obj
 0002:00005ae0       ??_C@_1DI@FFFOPEOO@?$AAa?$AAp?$AAi?$AA?9?$AAm?$AAs?$AA?9?$AAw?$AAi?$AAn?$AA?9?$AAc?$AAo?$AAr?$AAe@ 000000014002cae0     libucrt:winapi_thunks.obj
 0002:00005b20       ??_C@_1EI@MPIAOHOC@?$AAa?$AAp?$AAi?$AA?9?$AAm?$AAs?$AA?9?$AAw?$AAi?$AAn?$AA?9?$AAc?$AAo?$AAr?$AAe@ 000000014002cb20     libucrt:winapi_thunks.obj
 0002:00005b70       ??_C@_1FK@FPHCKFIE@?$AAa?$AAp?$AAi?$AA?9?$AAm?$AAs?$AA?9?$AAw?$AAi?$AAn?$AA?9?$AAc?$AAo?$AAr?$AAe@ 000000014002cb70     libucrt:winapi_thunks.obj
 0002:00005bd0       ??_C@_1EM@DILCGIIO@?$AAa?$AAp?$AAi?$AA?9?$AAm?$AAs?$AA?9?$AAw?$AAi?$AAn?$AA?9?$AAc?$AAo?$AAr?$AAe@ 000000014002cbd0     libucrt:winapi_thunks.obj
 0002:00005c20       ??_C@_1DM@LNCGDDPN@?$AAa?$AAp?$AAi?$AA?9?$AAm?$AAs?$AA?9?$AAw?$AAi?$AAn?$AA?9?$AAc?$AAo?$AAr?$AAe@ 000000014002cc20     libucrt:winapi_thunks.obj
 0002:00005c60       ??_C@_1DK@LPPGFMPP@?$AAa?$AAp?$AAi?$AA?9?$AAm?$AAs?$AA?9?$AAw?$AAi?$AAn?$AA?9?$AAc?$AAo?$AAr?$AAe@ 000000014002cc60     libucrt:winapi_thunks.obj
 0002:00005ca0       ??_C@_1DO@FPAPJEMD@?$AAa?$AAp?$AAi?$AA?9?$AAm?$AAs?$AA?9?$AAw?$AAi?$AAn?$AA?9?$AAc?$AAo?$AAr?$AAe@ 000000014002cca0     libucrt:winapi_thunks.obj
 0002:00005ce0       ??_C@_1DK@NDHNAHIO@?$AAa?$AAp?$AAi?$AA?9?$AAm?$AAs?$AA?9?$AAw?$AAi?$AAn?$AA?9?$AAc?$AAo?$AAr?$AAe@ 000000014002cce0     libucrt:winapi_thunks.obj
 0002:00005d20       ??_C@_1DM@KGHDGBCM@?$AAa?$AAp?$AAi?$AA?9?$AAm?$AAs?$AA?9?$AAw?$AAi?$AAn?$AA?9?$AAc?$AAo?$AAr?$AAe@ 000000014002cd20     libucrt:winapi_thunks.obj
 0002:00005d60       ??_C@_1EO@IJIOEFOH@?$AAa?$AAp?$AAi?$AA?9?$AAm?$AAs?$AA?9?$AAw?$AAi?$AAn?$AA?9?$AAr?$AAt?$AAc?$AAo@ 000000014002cd60     libucrt:winapi_thunks.obj
 0002:00005db0       ??_C@_1FG@HHGEKANL@?$AAa?$AAp?$AAi?$AA?9?$AAm?$AAs?$AA?9?$AAw?$AAi?$AAn?$AA?9?$AAs?$AAe?$AAc?$AAu@ 000000014002cdb0     libucrt:winapi_thunks.obj
 0002:00005e10       ??_C@_1EG@DBIOJECG@?$AAe?$AAx?$AAt?$AA?9?$AAm?$AAs?$AA?9?$AAw?$AAi?$AAn?$AA?9?$AAn?$AAt?$AAu?$AAs@ 000000014002ce10     libucrt:winapi_thunks.obj
 0002:00005e60       ??_C@_1EO@FIHMJCLF@?$AAe?$AAx?$AAt?$AA?9?$AAm?$AAs?$AA?9?$AAw?$AAi?$AAn?$AA?9?$AAn?$AAt?$AAu?$AAs@ 000000014002ce60     libucrt:winapi_thunks.obj
 0002:00005eb0       ??_C@_1BC@DNHGCMLG@?$AAa?$AAd?$AAv?$AAa?$AAp?$AAi?$AA3?$AA2@ 000000014002ceb0     libucrt:winapi_thunks.obj
 0002:00005ec8       ??_C@_1BC@GDMECMAK@?$AAk?$AAe?$AAr?$AAn?$AAe?$AAl?$AA3?$AA2@ 000000014002cec8     libucrt:winapi_thunks.obj
 0002:00005ee0       ??_C@_1BG@CJPGBMEF@?$AAk?$AAe?$AAr?$AAn?$AAe?$AAl?$AAb?$AAa?$AAs?$AAe@ 000000014002cee0     libucrt:winapi_thunks.obj
 0002:00005ef8       ??_C@_1M@OAIMIKLP@?$AAn?$AAt?$AAd?$AAl?$AAl@ 000000014002cef8     libucrt:winapi_thunks.obj
 0002:00005f10       ??_C@_1EG@DPGNFKGC@?$AAa?$AAp?$AAi?$AA?9?$AAm?$AAs?$AA?9?$AAw?$AAi?$AAn?$AA?9?$AAa?$AAp?$AAp?$AAm@ 000000014002cf10     libucrt:winapi_thunks.obj
 0002:00005f58       ??_C@_1O@BCCLBEOE@?$AAu?$AAs?$AAe?$AAr?$AA3?$AA2@ 000000014002cf58     libucrt:winapi_thunks.obj
 0002:00005f68       ??_C@_1BA@PFFKHIOG@?$AAa?$AAp?$AAi?$AA?9?$AAm?$AAs?$AA?9@ 000000014002cf68     libucrt:winapi_thunks.obj
 0002:00005f78       ??_C@_1BA@IAIFMGEF@?$AAe?$AAx?$AAt?$AA?9?$AAm?$AAs?$AA?9@ 000000014002cf78     libucrt:winapi_thunks.obj
 0002:00005f90       ??_C@_0N@MFBBDCAC@FlsGetValue2@ 000000014002cf90     libucrt:winapi_thunks.obj
 0002:00005fa8       ??_C@_0O@KKBNKAPF@LCMapStringEx@ 000000014002cfa8     libucrt:winapi_thunks.obj
 0002:00005fc0       ??_C@_0BB@HBDEELFH@LocaleNameToLCID@ 000000014002cfc0     libucrt:winapi_thunks.obj
 0002:00005fd8       ??_C@_0N@PPOMPGGK@RoInitialize@ 000000014002cfd8     libucrt:winapi_thunks.obj
 0002:00005ff0       ??_C@_0P@LLFHBIJD@RoUninitialize@ 000000014002cff0     libucrt:winapi_thunks.obj
 0002:00006008       ??_C@_0CF@OJOFEIGO@AppPolicyGetProcessTerminationM@ 000000014002d008     libucrt:winapi_thunks.obj
 0002:00006038       ??_C@_0CF@NNDFDCOC@AppPolicyGetThreadInitializatio@ 000000014002d038     libucrt:winapi_thunks.obj
 0002:00006080       ??_C@_1M@HPNHIDJI@?$AAj?$AAa?$AA?9?$AAJ?$AAP@ 000000014002d080     libucrt:mbctype.obj
 0002:00006090       ??_C@_1M@BIBDDEMK@?$AAz?$AAh?$AA?9?$AAC?$AAN@ 000000014002d090     libucrt:mbctype.obj
 0002:000060a0       ??_C@_1M@JLOOOEGK@?$AAk?$AAo?$AA?9?$AAK?$AAR@ 000000014002d0a0     libucrt:mbctype.obj
 0002:000060b0       ??_C@_1M@CLNBBOPM@?$AAz?$AAh?$AA?9?$AAT?$AAW@ 000000014002d0b0     libucrt:mbctype.obj
 0002:000060c0       __newctype                 000000014002d0c0     libucrt:ctype.obj
 0002:000063c0       __newclmap                 000000014002d3c0     libucrt:ctype.obj
 0002:00006540       __newcumap                 000000014002d540     libucrt:ctype.obj
 0002:000066c0       ??_C@_15PJPFLCCM@?$AAu?$AAk@ 000000014002d6c0     libucrt:get_qualified_locale.obj
 0002:000066d0       ?large_power_data@?1??multiply_by_power_of_ten@__crt_strtox@@YA_NAEAUbig_integer@2@I@Z@4QBIB 000000014002d6d0     libucrt:cfout.obj
 0002:00006fe0       ?large_power_indices@?1??multiply_by_power_of_ten@__crt_strtox@@YA_NAEAUbig_integer@2@I@Z@4QBUunpack_index@?1??12@YA_N0I@Z@B 000000014002dfe0     libucrt:cfout.obj
 0002:00007078       ?small_powers_of_ten@?1??multiply_by_power_of_ten@__crt_strtox@@YA_NAEAUbig_integer@2@I@Z@4QBIB 000000014002e078     libucrt:cfout.obj
 0002:0000709c       ??_C@_01GBGANLPD@0@        000000014002e09c     libucrt:cfout.obj
 0002:000070a0       ??_C@_05DNEBIAHO@1?$CDINF@ 000000014002e0a0     libucrt:cfout.obj
 0002:000070a8       ??_C@_06IMKFLFPG@1?$CDQNAN@ 000000014002e0a8     libucrt:cfout.obj
 0002:000070b0       ??_C@_06PGGFOGJG@1?$CDSNAN@ 000000014002e0b0     libucrt:cfout.obj
 0002:000070b8       ??_C@_05PHHOCPM@1?$CDIND@  000000014002e0b8     libucrt:cfout.obj
 0002:000070c0       ??_C@_05HGHHAHAP@log10@    000000014002e0c0     libucrt:fpexcept.obj
 0002:00007f10       ??_C@_15EMKDOKLE@?$AAa?$AAr@ 000000014002ef10     libucrt:lcidtoname_downlevel.obj
 0002:00007f18       ??_C@_15KNPADPLH@?$AAb?$AAg@ 000000014002ef18     libucrt:lcidtoname_downlevel.obj
 0002:00007f20       ??_C@_15EDMHLDMO@?$AAc?$AAa@ 000000014002ef20     libucrt:lcidtoname_downlevel.obj
 0002:00007f28       ??_C@_1O@BPEAJADD@?$AAz?$AAh?$AA?9?$AAC?$AAH?$AAS@ 000000014002ef28     libucrt:lcidtoname_downlevel.obj
 0002:00007f38       ??_C@_15LJNHCMNK@?$AAc?$AAs@ 000000014002ef38     libucrt:lcidtoname_downlevel.obj
 0002:00007f40       ??_C@_15FOMCIDHG@?$AAd?$AAa@ 000000014002ef40     libucrt:lcidtoname_downlevel.obj
 0002:00007f48       ??_C@_15NBKABECB@?$AAd?$AAe@ 000000014002ef48     libucrt:lcidtoname_downlevel.obj
 0002:00007f50       ??_C@_15GHPEIIAO@?$AAe?$AAl@ 000000014002ef50     libucrt:lcidtoname_downlevel.obj
 0002:00007f58       ??_C@_15MNPNEAIF@?$AAe?$AAn@ 000000014002ef58     libucrt:lcidtoname_downlevel.obj
 0002:00007f60       ??_C@_15GPIOMPMH@?$AAe?$AAs@ 000000014002ef60     libucrt:lcidtoname_downlevel.obj
 0002:00007f68       ??_C@_15NGLOAKJC@?$AAf?$AAi@ 000000014002ef68     libucrt:lcidtoname_downlevel.obj
 0002:00007f70       ??_C@_15FBKGNKAM@?$AAf?$AAr@ 000000014002ef70     libucrt:lcidtoname_downlevel.obj
 0002:00007f78       ??_C@_15KGGCNEFK@?$AAh?$AAe@ 000000014002ef78     libucrt:lcidtoname_downlevel.obj
 0002:00007f80       ??_C@_15PGHLIDMF@?$AAh?$AAu@ 000000014002ef80     libucrt:lcidtoname_downlevel.obj
 0002:00007f88       ??_C@_15BIEMAPLM@?$AAi?$AAs@ 000000014002ef88     libucrt:lcidtoname_downlevel.obj
 0002:00007f90       ??_C@_15IFJLDHAF@?$AAi?$AAt@ 000000014002ef90     libucrt:lcidtoname_downlevel.obj
 0002:00007f98       ??_C@_15GEMIOCAG@?$AAj?$AAa@ 000000014002ef98     libucrt:lcidtoname_downlevel.obj
 0002:00007fa0       ??_C@_15EPELEGJA@?$AAk?$AAo@ 000000014002efa0     libucrt:lcidtoname_downlevel.obj
 0002:00007fa8       ??_C@_15NDDHIMN@?$AAn?$AAl@ 000000014002efa8     libucrt:lcidtoname_downlevel.obj
 0002:00007fb0       ??_C@_15BPIGNHCD@?$AAn?$AAo@ 000000014002efb0     libucrt:lcidtoname_downlevel.obj
 0002:00007fb8       ??_C@_15DEOPBLCG@?$AAp?$AAl@ 000000014002efb8     libucrt:lcidtoname_downlevel.obj
 0002:00007fc0       ??_C@_15KBECGEFG@?$AAp?$AAt@ 000000014002efc0     libucrt:lcidtoname_downlevel.obj
 0002:00007fc8       ??_C@_15GLJCBFMD@?$AAr?$AAo@ 000000014002efc8     libucrt:lcidtoname_downlevel.obj
 0002:00007fd0       ??_C@_15FEDGKCDI@?$AAr?$AAu@ 000000014002efd0     libucrt:lcidtoname_downlevel.obj
 0002:00007fd8       ??_C@_15GLKMLLHM@?$AAh?$AAr@ 000000014002efd8     libucrt:lcidtoname_downlevel.obj
 0002:00007fe0       ??_C@_15CPKMFBDB@?$AAs?$AAk@ 000000014002efe0     libucrt:lcidtoname_downlevel.obj
 0002:00007fe8       ??_C@_15BAAIOGMK@?$AAs?$AAq@ 000000014002efe8     libucrt:lcidtoname_downlevel.obj
 0002:00007ff0       ??_C@_15INNPNOHD@?$AAs?$AAv@ 000000014002eff0     libucrt:lcidtoname_downlevel.obj
 0002:00007ff8       ??_C@_15CABMMOGH@?$AAt?$AAh@ 000000014002eff8     libucrt:lcidtoname_downlevel.obj
 0002:00008000       ??_C@_15BPLIHJJM@?$AAt?$AAr@ 000000014002f000     libucrt:lcidtoname_downlevel.obj
 0002:00008008       ??_C@_15NEOEKKDJ@?$AAu?$AAr@ 000000014002f008     libucrt:lcidtoname_downlevel.obj
 0002:00008010       ??_C@_15NFICGAJK@?$AAi?$AAd@ 000000014002f010     libucrt:lcidtoname_downlevel.obj
 0002:00008018       ??_C@_15HPJPHDM@?$AAb?$AAe@ 000000014002f018     libucrt:lcidtoname_downlevel.obj
 0002:00008020       ??_C@_15LCHLGJII@?$AAs?$AAl@ 000000014002f020     libucrt:lcidtoname_downlevel.obj
 0002:00008028       ??_C@_15PCFJPHHO@?$AAe?$AAt@ 000000014002f028     libucrt:lcidtoname_downlevel.obj
 0002:00008030       ??_C@_15HPFPGODN@?$AAl?$AAv@ 000000014002f030     libucrt:lcidtoname_downlevel.obj
 0002:00008038       ??_C@_15NFFGKGLG@?$AAl?$AAt@ 000000014002f038     libucrt:lcidtoname_downlevel.obj
 0002:00008040       ??_C@_15BDAKCCHN@?$AAf?$AAa@ 000000014002f040     libucrt:lcidtoname_downlevel.obj
 0002:00008048       ??_C@_15NFGIAIAJ@?$AAv?$AAi@ 000000014002f048     libucrt:lcidtoname_downlevel.obj
 0002:00008050       ??_C@_15LMKNDMHN@?$AAh?$AAy@ 000000014002f050     libucrt:lcidtoname_downlevel.obj
 0002:00008058       ??_C@_15IJBHMCFL@?$AAa?$AAz@ 000000014002f058     libucrt:lcidtoname_downlevel.obj
 0002:00008060       ??_C@_15EKOFJABL@?$AAe?$AAu@ 000000014002f060     libucrt:lcidtoname_downlevel.obj
 0002:00008068       ??_C@_15BGHADCNK@?$AAm?$AAk@ 000000014002f068     libucrt:lcidtoname_downlevel.obj
 0002:00008070       ??_C@_15JDNICKHM@?$AAa?$AAf@ 000000014002f070     libucrt:lcidtoname_downlevel.obj
 0002:00008078       ??_C@_15KPJEDBKD@?$AAk?$AAa@ 000000014002f078     libucrt:lcidtoname_downlevel.obj
 0002:00008080       ??_C@_15PDNFFFEO@?$AAf?$AAo@ 000000014002f080     libucrt:lcidtoname_downlevel.obj
 0002:00008088       ??_C@_15OMLEGLOC@?$AAh?$AAi@ 000000014002f088     libucrt:lcidtoname_downlevel.obj
 0002:00008090       ??_C@_15IDNNENKK@?$AAm?$AAs@ 000000014002f090     libucrt:lcidtoname_downlevel.obj
 0002:00008098       ??_C@_15MACJNBMH@?$AAk?$AAk@ 000000014002f098     libucrt:lcidtoname_downlevel.obj
 0002:000080a0       ??_C@_15DKDJEOND@?$AAk?$AAy@ 000000014002f0a0     libucrt:lcidtoname_downlevel.obj
 0002:000080a8       ??_C@_15DFGDLJBG@?$AAs?$AAw@ 000000014002f0a8     libucrt:lcidtoname_downlevel.obj
 0002:000080b0       ??_C@_15BBFAICNG@?$AAu?$AAz@ 000000014002f0b0     libucrt:lcidtoname_downlevel.obj
 0002:000080b8       ??_C@_15DKNDCGEA@?$AAt?$AAt@ 000000014002f0b8     libucrt:lcidtoname_downlevel.obj
 0002:000080c0       ??_C@_15MGIFMDPL@?$AAp?$AAa@ 000000014002f0c0     libucrt:lcidtoname_downlevel.obj
 0002:000080c8       ??_C@_15HCNDBBA@?$AAg?$AAu@ 000000014002f0c8     libucrt:lcidtoname_downlevel.obj
 0002:000080d0       ??_C@_15FNBEIBON@?$AAt?$AAa@ 000000014002f0d0     libucrt:lcidtoname_downlevel.obj
 0002:000080d8       ??_C@_15NCHGBGLK@?$AAt?$AAe@ 000000014002f0d8     libucrt:lcidtoname_downlevel.obj
 0002:000080e0       ??_C@_15PHPHCBPF@?$AAk?$AAn@ 000000014002f0e0     libucrt:lcidtoname_downlevel.obj
 0002:000080e8       ??_C@_15DLGBCKMP@?$AAm?$AAr@ 000000014002f0e8     libucrt:lcidtoname_downlevel.obj
 0002:000080f0       ??_C@_15EABBLBFF@?$AAs?$AAa@ 000000014002f0f0     libucrt:lcidtoname_downlevel.obj
 0002:000080f8       ??_C@_15CBKOMCOI@?$AAm?$AAn@ 000000014002f0f8     libucrt:lcidtoname_downlevel.obj
 0002:00008100       ??_C@_15CKDMCJAF@?$AAg?$AAl@ 000000014002f100     libucrt:lcidtoname_downlevel.obj
 0002:00008108       ??_C@_17CNJFBPG@?$AAk?$AAo?$AAk@ 000000014002f108     libucrt:lcidtoname_downlevel.obj
 0002:00008110       ??_C@_17FFBJICPL@?$AAs?$AAy?$AAr@ 000000014002f110     libucrt:lcidtoname_downlevel.obj
 0002:00008118       ??_C@_17KPNDCPAF@?$AAd?$AAi?$AAv@ 000000014002f118     libucrt:lcidtoname_downlevel.obj
 0002:00008120       ??_C@_1M@OKAHONE@?$AAa?$AAr?$AA?9?$AAS?$AAA@ 000000014002f120     libucrt:lcidtoname_downlevel.obj
 0002:00008130       ??_C@_1M@FFFIGIGK@?$AAb?$AAg?$AA?9?$AAB?$AAG@ 000000014002f130     libucrt:lcidtoname_downlevel.obj
 0002:00008140       ??_C@_1M@BJNKEDC@?$AAc?$AAa?$AA?9?$AAE?$AAS@ 000000014002f140     libucrt:lcidtoname_downlevel.obj
 0002:00008150       ??_C@_1M@IJJHFJHA@?$AAc?$AAs?$AA?9?$AAC?$AAZ@ 000000014002f150     libucrt:lcidtoname_downlevel.obj
 0002:00008160       ??_C@_1M@CLPEOBGI@?$AAd?$AAa?$AA?9?$AAD?$AAK@ 000000014002f160     libucrt:lcidtoname_downlevel.obj
 0002:00008170       ??_C@_1M@MCMADGCB@?$AAd?$AAe?$AA?9?$AAD?$AAE@ 000000014002f170     libucrt:lcidtoname_downlevel.obj
 0002:00008180       ??_C@_1M@OOCKEMAM@?$AAe?$AAl?$AA?9?$AAG?$AAR@ 000000014002f180     libucrt:lcidtoname_downlevel.obj
 0002:00008190       ??_C@_1M@DDNJFGID@?$AAf?$AAi?$AA?9?$AAF?$AAI@ 000000014002f190     libucrt:lcidtoname_downlevel.obj
 0002:000081a0       ??_C@_1M@GLIPPMAC@?$AAf?$AAr?$AA?9?$AAF?$AAR@ 000000014002f1a0     libucrt:lcidtoname_downlevel.obj
 0002:000081b0       ??_C@_1M@GFMCHPE@?$AAh?$AAe?$AA?9?$AAI?$AAL@ 000000014002f1b0     libucrt:lcidtoname_downlevel.obj
 0002:000081c0       ??_C@_1M@MHLPGNKM@?$AAh?$AAu?$AA?9?$AAH?$AAU@ 000000014002f1c0     libucrt:lcidtoname_downlevel.obj
 0002:000081d0       ??_C@_1M@LPDDNNPN@?$AAi?$AAs?$AA?9?$AAI?$AAS@ 000000014002f1d0     libucrt:lcidtoname_downlevel.obj
 0002:000081e0       ??_C@_1M@MADIPODN@?$AAi?$AAt?$AA?9?$AAI?$AAT@ 000000014002f1e0     libucrt:lcidtoname_downlevel.obj
 0002:000081f0       ??_C@_1M@IHBJJGG@?$AAn?$AAl?$AA?9?$AAN?$AAL@ 000000014002f1f0     libucrt:lcidtoname_downlevel.obj
 0002:00008200       ??_C@_1M@EANAGDL@?$AAn?$AAb?$AA?9?$AAN?$AAO@ 000000014002f200     libucrt:lcidtoname_downlevel.obj
 0002:00008210       ??_C@_1M@NEIEMEGP@?$AAp?$AAl?$AA?9?$AAP?$AAL@ 000000014002f210     libucrt:lcidtoname_downlevel.obj
 0002:00008220       ??_C@_1M@BOCFIGEP@?$AAp?$AAt?$AA?9?$AAB?$AAR@ 000000014002f220     libucrt:lcidtoname_downlevel.obj
 0002:00008230       ??_C@_1M@IMPFOPBG@?$AAr?$AAo?$AA?9?$AAR?$AAO@ 000000014002f230     libucrt:lcidtoname_downlevel.obj
 0002:00008240       ??_C@_1M@IDNNEJMM@?$AAr?$AAu?$AA?9?$AAR?$AAU@ 000000014002f240     libucrt:lcidtoname_downlevel.obj
 0002:00008250       ??_C@_1M@LILEEOGM@?$AAh?$AAr?$AA?9?$AAH?$AAR@ 000000014002f250     libucrt:lcidtoname_downlevel.obj
 0002:00008260       ??_C@_1M@FKIFEHPB@?$AAs?$AAk?$AA?9?$AAS?$AAK@ 000000014002f260     libucrt:lcidtoname_downlevel.obj
 0002:00008270       ??_C@_1M@LJMAMNPJ@?$AAs?$AAq?$AA?9?$AAA?$AAL@ 000000014002f270     libucrt:lcidtoname_downlevel.obj
 0002:00008280       ??_C@_1M@GIAKDKJK@?$AAs?$AAv?$AA?9?$AAS?$AAE@ 000000014002f280     libucrt:lcidtoname_downlevel.obj
 0002:00008290       ??_C@_1M@MKJKIKCL@?$AAt?$AAh?$AA?9?$AAT?$AAH@ 000000014002f290     libucrt:lcidtoname_downlevel.obj
 0002:000082a0       ??_C@_1M@MFLCCMPB@?$AAt?$AAr?$AA?9?$AAT?$AAR@ 000000014002f2a0     libucrt:lcidtoname_downlevel.obj
 0002:000082b0       ??_C@_1M@OIJHDKJN@?$AAu?$AAr?$AA?9?$AAP?$AAK@ 000000014002f2b0     libucrt:lcidtoname_downlevel.obj
 0002:000082c0       ??_C@_1M@LHIPCIEK@?$AAi?$AAd?$AA?9?$AAI?$AAD@ 000000014002f2c0     libucrt:lcidtoname_downlevel.obj
 0002:000082d0       ??_C@_1M@MFMOBGI@?$AAu?$AAk?$AA?9?$AAU?$AAA@ 000000014002f2d0     libucrt:lcidtoname_downlevel.obj
 0002:000082e0       ??_C@_1M@OBGLJIPL@?$AAb?$AAe?$AA?9?$AAB?$AAY@ 000000014002f2e0     libucrt:lcidtoname_downlevel.obj
 0002:000082f0       ??_C@_1M@BCFAJEAD@?$AAs?$AAl?$AA?9?$AAS?$AAI@ 000000014002f2f0     libucrt:lcidtoname_downlevel.obj
 0002:00008300       ??_C@_1M@FKFFEDDN@?$AAe?$AAt?$AA?9?$AAE?$AAE@ 000000014002f300     libucrt:lcidtoname_downlevel.obj
 0002:00008310       ??_C@_1M@KGKKAACI@?$AAl?$AAv?$AA?9?$AAL?$AAV@ 000000014002f310     libucrt:lcidtoname_downlevel.obj
 0002:00008320       ??_C@_1M@IFGBIJO@?$AAl?$AAt?$AA?9?$AAL?$AAT@ 000000014002f320     libucrt:lcidtoname_downlevel.obj
 0002:00008330       ??_C@_1M@FGEAHEDM@?$AAf?$AAa?$AA?9?$AAI?$AAR@ 000000014002f330     libucrt:lcidtoname_downlevel.obj
 0002:00008340       ??_C@_1M@KBMAIBFN@?$AAv?$AAi?$AA?9?$AAV?$AAN@ 000000014002f340     libucrt:lcidtoname_downlevel.obj
 0002:00008350       ??_C@_1M@GPCBKDJK@?$AAh?$AAy?$AA?9?$AAA?$AAM@ 000000014002f350     libucrt:lcidtoname_downlevel.obj
 0002:00008360       ??_C@_1BG@BECMDDJB@?$AAa?$AAz?$AA?9?$AAA?$AAZ?$AA?9?$AAL?$AAa?$AAt?$AAn@ 000000014002f360     libucrt:lcidtoname_downlevel.obj
 0002:00008378       ??_C@_1M@MAOFCAEA@?$AAe?$AAu?$AA?9?$AAE?$AAS@ 000000014002f378     libucrt:lcidtoname_downlevel.obj
 0002:00008388       ??_C@_1M@IGHABKPI@?$AAm?$AAk?$AA?9?$AAM?$AAK@ 000000014002f388     libucrt:lcidtoname_downlevel.obj
 0002:00008398       ??_C@_1M@IAIGNEJG@?$AAt?$AAn?$AA?9?$AAZ?$AAA@ 000000014002f398     libucrt:lcidtoname_downlevel.obj
 0002:000083a8       ??_C@_1M@IIJCOJFA@?$AAx?$AAh?$AA?9?$AAZ?$AAA@ 000000014002f3a8     libucrt:lcidtoname_downlevel.obj
 0002:000083b8       ??_C@_1M@LGPJHNJH@?$AAz?$AAu?$AA?9?$AAZ?$AAA@ 000000014002f3b8     libucrt:lcidtoname_downlevel.obj
 0002:000083c8       ??_C@_1M@HOKAOIO@?$AAa?$AAf?$AA?9?$AAZ?$AAA@ 000000014002f3c8     libucrt:lcidtoname_downlevel.obj
 0002:000083d8       ??_C@_1M@DPCLHLIE@?$AAk?$AAa?$AA?9?$AAG?$AAE@ 000000014002f3d8     libucrt:lcidtoname_downlevel.obj
 0002:000083e8       ??_C@_1M@BLKMHJBI@?$AAf?$AAo?$AA?9?$AAF?$AAO@ 000000014002f3e8     libucrt:lcidtoname_downlevel.obj
 0002:000083f8       ??_C@_1M@LGGJAPPB@?$AAh?$AAi?$AA?9?$AAI?$AAN@ 000000014002f3f8     libucrt:lcidtoname_downlevel.obj
 0002:00008408       ??_C@_1M@FIKPIHFE@?$AAm?$AAt?$AA?9?$AAM?$AAT@ 000000014002f408     libucrt:lcidtoname_downlevel.obj
 0002:00008418       ??_C@_1M@HEGGPBFA@?$AAs?$AAe?$AA?9?$AAN?$AAO@ 000000014002f418     libucrt:lcidtoname_downlevel.obj
 0002:00008428       ??_C@_1M@EIBJEEPA@?$AAm?$AAs?$AA?9?$AAM?$AAY@ 000000014002f428     libucrt:lcidtoname_downlevel.obj
 0002:00008438       ??_C@_1M@FHLBGMPP@?$AAk?$AAk?$AA?9?$AAK?$AAZ@ 000000014002f438     libucrt:lcidtoname_downlevel.obj
 0002:00008448       ??_C@_1M@NGJJLCGI@?$AAk?$AAy?$AA?9?$AAK?$AAG@ 000000014002f448     libucrt:lcidtoname_downlevel.obj
 0002:00008458       ??_C@_1M@GIENNBFC@?$AAs?$AAw?$AA?9?$AAK?$AAE@ 000000014002f458     libucrt:lcidtoname_downlevel.obj
 0002:00008468       ??_C@_1BG@NDGMJIMJ@?$AAu?$AAz?$AA?9?$AAU?$AAZ?$AA?9?$AAL?$AAa?$AAt?$AAn@ 000000014002f468     libucrt:lcidtoname_downlevel.obj
 0002:00008480       ??_C@_1M@IDCCIHBC@?$AAt?$AAt?$AA?9?$AAR?$AAU@ 000000014002f480     libucrt:lcidtoname_downlevel.obj
 0002:00008490       ??_C@_1M@LOICPMOJ@?$AAb?$AAn?$AA?9?$AAI?$AAN@ 000000014002f490     libucrt:lcidtoname_downlevel.obj
 0002:000084a0       ??_C@_1M@KPKKNEAH@?$AAp?$AAa?$AA?9?$AAI?$AAN@ 000000014002f4a0     libucrt:lcidtoname_downlevel.obj
 0002:000084b0       ??_C@_1M@PJGPPBOG@?$AAg?$AAu?$AA?9?$AAI?$AAN@ 000000014002f4b0     libucrt:lcidtoname_downlevel.obj
 0002:000084c0       ??_C@_1M@KMKMOPHI@?$AAt?$AAa?$AA?9?$AAI?$AAN@ 000000014002f4c0     libucrt:lcidtoname_downlevel.obj
 0002:000084d0       ??_C@_1M@KFEHEPAC@?$AAt?$AAe?$AA?9?$AAI?$AAN@ 000000014002f4d0     libucrt:lcidtoname_downlevel.obj
 0002:000084e0       ??_C@_1M@CDCLMGHI@?$AAk?$AAn?$AA?9?$AAI?$AAN@ 000000014002f4e0     libucrt:lcidtoname_downlevel.obj
 0002:000084f0       ??_C@_1M@MIODLDKF@?$AAm?$AAl?$AA?9?$AAI?$AAN@ 000000014002f4f0     libucrt:lcidtoname_downlevel.obj
 0002:00008500       ??_C@_1M@PBIEACPO@?$AAm?$AAr?$AA?9?$AAI?$AAN@ 000000014002f500     libucrt:lcidtoname_downlevel.obj
 0002:00008510       ??_C@_1M@NIDEAGPH@?$AAs?$AAa?$AA?9?$AAI?$AAN@ 000000014002f510     libucrt:lcidtoname_downlevel.obj
 0002:00008520       ??_C@_1M@FHIHCBIO@?$AAm?$AAn?$AA?9?$AAM?$AAN@ 000000014002f520     libucrt:lcidtoname_downlevel.obj
 0002:00008530       ??_C@_1M@JAIJPENP@?$AAc?$AAy?$AA?9?$AAG?$AAB@ 000000014002f530     libucrt:lcidtoname_downlevel.obj
 0002:00008540       ??_C@_1M@PHGFBEPN@?$AAg?$AAl?$AA?9?$AAE?$AAS@ 000000014002f540     libucrt:lcidtoname_downlevel.obj
 0002:00008550       ??_C@_1O@KPIPDNCP@?$AAk?$AAo?$AAk?$AA?9?$AAI?$AAN@ 000000014002f550     libucrt:lcidtoname_downlevel.obj
 0002:00008560       ??_C@_1O@KNHJLDJA@?$AAs?$AAy?$AAr?$AA?9?$AAS?$AAY@ 000000014002f560     libucrt:lcidtoname_downlevel.obj
 0002:00008570       ??_C@_1O@MKEKBLAH@?$AAd?$AAi?$AAv?$AA?9?$AAM?$AAV@ 000000014002f570     libucrt:lcidtoname_downlevel.obj
 0002:00008580       ??_C@_1O@OHDCKDDF@?$AAq?$AAu?$AAz?$AA?9?$AAB?$AAO@ 000000014002f580     libucrt:lcidtoname_downlevel.obj
 0002:00008590       ??_C@_1M@LEPJNLFD@?$AAn?$AAs?$AA?9?$AAZ?$AAA@ 000000014002f590     libucrt:lcidtoname_downlevel.obj
 0002:000085a0       ??_C@_1M@OMLEIIJB@?$AAm?$AAi?$AA?9?$AAN?$AAZ@ 000000014002f5a0     libucrt:lcidtoname_downlevel.obj
 0002:000085b0       ??_C@_1M@PMPEAILG@?$AAa?$AAr?$AA?9?$AAI?$AAQ@ 000000014002f5b0     libucrt:lcidtoname_downlevel.obj
 0002:000085c0       ??_C@_1M@CNKPNOEE@?$AAd?$AAe?$AA?9?$AAC?$AAH@ 000000014002f5c0     libucrt:lcidtoname_downlevel.obj
 0002:000085d0       ??_C@_1M@LKMGMLKO@?$AAe?$AAn?$AA?9?$AAG?$AAB@ 000000014002f5d0     libucrt:lcidtoname_downlevel.obj
 0002:000085e0       ??_C@_1M@PGKJFFGL@?$AAe?$AAs?$AA?9?$AAM?$AAX@ 000000014002f5e0     libucrt:lcidtoname_downlevel.obj
 0002:000085f0       ??_C@_1M@DNNANBDC@?$AAf?$AAr?$AA?9?$AAB?$AAE@ 000000014002f5f0     libucrt:lcidtoname_downlevel.obj
 0002:00008600       ??_C@_1M@HLGMDFHM@?$AAi?$AAt?$AA?9?$AAC?$AAH@ 000000014002f600     libucrt:lcidtoname_downlevel.obj
 0002:00008610       ??_C@_1M@CLLBGJH@?$AAn?$AAl?$AA?9?$AAB?$AAE@ 000000014002f610     libucrt:lcidtoname_downlevel.obj
 0002:00008620       ??_C@_1M@BODBOGLF@?$AAn?$AAn?$AA?9?$AAN?$AAO@ 000000014002f620     libucrt:lcidtoname_downlevel.obj
 0002:00008630       ??_C@_1M@HFFAHKAD@?$AAp?$AAt?$AA?9?$AAP?$AAT@ 000000014002f630     libucrt:lcidtoname_downlevel.obj
 0002:00008640       ??_C@_1BG@LNOAKHIE@?$AAs?$AAr?$AA?9?$AAS?$AAP?$AA?9?$AAL?$AAa?$AAt?$AAn@ 000000014002f640     libucrt:lcidtoname_downlevel.obj
 0002:00008658       ??_C@_1M@HBMHBGAK@?$AAs?$AAv?$AA?9?$AAF?$AAI@ 000000014002f658     libucrt:lcidtoname_downlevel.obj
 0002:00008668       ??_C@_1BG@DGCJGJBE@?$AAa?$AAz?$AA?9?$AAA?$AAZ?$AA?9?$AAC?$AAy?$AAr?$AAl@ 000000014002f668     libucrt:lcidtoname_downlevel.obj
 0002:00008680       ??_C@_1M@KEJDAAHB@?$AAs?$AAe?$AA?9?$AAS?$AAE@ 000000014002f680     libucrt:lcidtoname_downlevel.obj
 0002:00008690       ??_C@_1M@HEIBJJAD@?$AAm?$AAs?$AA?9?$AAB?$AAN@ 000000014002f690     libucrt:lcidtoname_downlevel.obj
 0002:000086a0       ??_C@_1BG@PBGJMCEM@?$AAu?$AAz?$AA?9?$AAU?$AAZ?$AA?9?$AAC?$AAy?$AAr?$AAl@ 000000014002f6a0     libucrt:lcidtoname_downlevel.obj
 0002:000086b8       ??_C@_1O@LAOBCMDF@?$AAq?$AAu?$AAz?$AA?9?$AAE?$AAC@ 000000014002f6b8     libucrt:lcidtoname_downlevel.obj
 0002:000086c8       ??_C@_1M@POEEMAIO@?$AAa?$AAr?$AA?9?$AAE?$AAG@ 000000014002f6c8     libucrt:lcidtoname_downlevel.obj
 0002:000086d8       ??_C@_1M@EFAKDEDL@?$AAz?$AAh?$AA?9?$AAH?$AAK@ 000000014002f6d8     libucrt:lcidtoname_downlevel.obj
 0002:000086e8       ??_C@_1M@HKKIJHGI@?$AAd?$AAe?$AA?9?$AAA?$AAT@ 000000014002f6e8     libucrt:lcidtoname_downlevel.obj
 0002:000086f8       ??_C@_1M@KBFBEHJF@?$AAe?$AAn?$AA?9?$AAA?$AAU@ 000000014002f6f8     libucrt:lcidtoname_downlevel.obj
 0002:00008708       ??_C@_1M@MNPLFAAH@?$AAe?$AAs?$AA?9?$AAE?$AAS@ 000000014002f708     libucrt:lcidtoname_downlevel.obj
 0002:00008718       ??_C@_1M@HJOOJFMA@?$AAf?$AAr?$AA?9?$AAC?$AAA@ 000000014002f718     libucrt:lcidtoname_downlevel.obj
 0002:00008728       ??_C@_1BG@JPOFPNAB@?$AAs?$AAr?$AA?9?$AAS?$AAP?$AA?9?$AAC?$AAy?$AAr?$AAl@ 000000014002f728     libucrt:lcidtoname_downlevel.obj
 0002:00008740       ??_C@_1M@LNFOCMOB@?$AAs?$AAe?$AA?9?$AAF?$AAI@ 000000014002f740     libucrt:lcidtoname_downlevel.obj
 0002:00008750       ??_C@_1O@MGJBOAMB@?$AAq?$AAu?$AAz?$AA?9?$AAP?$AAE@ 000000014002f750     libucrt:lcidtoname_downlevel.obj
 0002:00008760       ??_C@_1M@GJINLBOK@?$AAa?$AAr?$AA?9?$AAL?$AAY@ 000000014002f760     libucrt:lcidtoname_downlevel.obj
 0002:00008770       ??_C@_1M@GGMNHJNL@?$AAz?$AAh?$AA?9?$AAS?$AAG@ 000000014002f770     libucrt:lcidtoname_downlevel.obj
 0002:00008780       ??_C@_1M@HOIKODND@?$AAd?$AAe?$AA?9?$AAL?$AAU@ 000000014002f780     libucrt:lcidtoname_downlevel.obj
 0002:00008790       ??_C@_1M@DDOCCGFG@?$AAe?$AAn?$AA?9?$AAC?$AAA@ 000000014002f790     libucrt:lcidtoname_downlevel.obj
 0002:000087a0       ??_C@_1M@BNOEMJLF@?$AAe?$AAs?$AA?9?$AAG?$AAT@ 000000014002f7a0     libucrt:lcidtoname_downlevel.obj
 0002:000087b0       ??_C@_1M@EOGNKEK@?$AAf?$AAr?$AA?9?$AAC?$AAH@ 000000014002f7b0     libucrt:lcidtoname_downlevel.obj
 0002:000087c0       ??_C@_1M@FLIDJFHL@?$AAh?$AAr?$AA?9?$AAB?$AAA@ 000000014002f7c0     libucrt:lcidtoname_downlevel.obj
 0002:000087d0       ??_C@_1O@FMCELNAJ@?$AAs?$AAm?$AAj?$AA?9?$AAN?$AAO@ 000000014002f7d0     libucrt:lcidtoname_downlevel.obj
 0002:000087e0       ??_C@_1M@JHGLJMGJ@?$AAa?$AAr?$AA?9?$AAD?$AAZ@ 000000014002f7e0     libucrt:lcidtoname_downlevel.obj
 0002:000087f0       ??_C@_1M@JKKFDCNP@?$AAz?$AAh?$AA?9?$AAM?$AAO@ 000000014002f7f0     libucrt:lcidtoname_downlevel.obj
 0002:00008800       ??_C@_1M@GEEFALPE@?$AAd?$AAe?$AA?9?$AAL?$AAI@ 000000014002f800     libucrt:lcidtoname_downlevel.obj
 0002:00008810       ??_C@_1M@IGEOFBG@?$AAe?$AAn?$AA?9?$AAN?$AAZ@ 000000014002f810     libucrt:lcidtoname_downlevel.obj
 0002:00008820       ??_C@_1M@KDBONEHP@?$AAe?$AAs?$AA?9?$AAC?$AAR@ 000000014002f820     libucrt:lcidtoname_downlevel.obj
 0002:00008830       ??_C@_1M@FHMDOHNN@?$AAf?$AAr?$AA?9?$AAL?$AAU@ 000000014002f830     libucrt:lcidtoname_downlevel.obj
 0002:00008840       ??_C@_1BG@NFKKMAFG@?$AAb?$AAs?$AA?9?$AAB?$AAA?$AA?9?$AAL?$AAa?$AAt?$AAn@ 000000014002f840     libucrt:lcidtoname_downlevel.obj
 0002:00008858       ??_C@_1O@IMNBEMCI@?$AAs?$AAm?$AAj?$AA?9?$AAS?$AAE@ 000000014002f858     libucrt:lcidtoname_downlevel.obj
 0002:00008868       ??_C@_1M@DHHMBNDP@?$AAa?$AAr?$AA?9?$AAM?$AAA@ 000000014002f868     libucrt:lcidtoname_downlevel.obj
 0002:00008878       ??_C@_1M@BNBLJCGH@?$AAe?$AAn?$AA?9?$AAI?$AAE@ 000000014002f878     libucrt:lcidtoname_downlevel.obj
 0002:00008888       ??_C@_1M@GEPAFMDL@?$AAe?$AAs?$AA?9?$AAP?$AAA@ 000000014002f888     libucrt:lcidtoname_downlevel.obj
 0002:00008898       ??_C@_1M@OJONDMDL@?$AAf?$AAr?$AA?9?$AAM?$AAC@ 000000014002f898     libucrt:lcidtoname_downlevel.obj
 0002:000088a8       ??_C@_1BG@OBCNFJB@?$AAs?$AAr?$AA?9?$AAB?$AAA?$AA?9?$AAL?$AAa?$AAt?$AAn@ 000000014002f8a8     libucrt:lcidtoname_downlevel.obj
 0002:000088c0       ??_C@_1O@KEMEEGPO@?$AAs?$AAm?$AAa?$AA?9?$AAN?$AAO@ 000000014002f8c0     libucrt:lcidtoname_downlevel.obj
 0002:000088d0       ??_C@_1M@ELMGFODK@?$AAa?$AAr?$AA?9?$AAT?$AAN@ 000000014002f8d0     libucrt:lcidtoname_downlevel.obj
 0002:000088e0       ??_C@_1M@BHDLHFAF@?$AAe?$AAn?$AA?9?$AAZ?$AAA@ 000000014002f8e0     libucrt:lcidtoname_downlevel.obj
 0002:000088f0       ??_C@_1M@BMGIGLIF@?$AAe?$AAs?$AA?9?$AAD?$AAO@ 000000014002f8f0     libucrt:lcidtoname_downlevel.obj
 0002:00008900       ??_C@_1BG@CMBHIPBE@?$AAs?$AAr?$AA?9?$AAB?$AAA?$AA?9?$AAC?$AAy?$AAr?$AAl@ 000000014002f900     libucrt:lcidtoname_downlevel.obj
 0002:00008918       ??_C@_1O@HEDBLHNP@?$AAs?$AAm?$AAa?$AA?9?$AAS?$AAE@ 000000014002f918     libucrt:lcidtoname_downlevel.obj
 0002:00008928       ??_C@_1M@DAGCADIM@?$AAa?$AAr?$AA?9?$AAO?$AAM@ 000000014002f928     libucrt:lcidtoname_downlevel.obj
 0002:00008938       ??_C@_1M@FODLMICG@?$AAe?$AAn?$AA?9?$AAJ?$AAM@ 000000014002f938     libucrt:lcidtoname_downlevel.obj
 0002:00008948       ??_C@_1M@DNMLCIHB@?$AAe?$AAs?$AA?9?$AAV?$AAE@ 000000014002f948     libucrt:lcidtoname_downlevel.obj
 0002:00008958       ??_C@_1O@EOKHMKJK@?$AAs?$AAm?$AAs?$AA?9?$AAF?$AAI@ 000000014002f958     libucrt:lcidtoname_downlevel.obj
 0002:00008968       ??_C@_1M@CAFJMKOF@?$AAa?$AAr?$AA?9?$AAY?$AAE@ 000000014002f968     libucrt:lcidtoname_downlevel.obj
 0002:00008978       ??_C@_1M@CBFHIJLI@?$AAe?$AAn?$AA?9?$AAC?$AAB@ 000000014002f978     libucrt:lcidtoname_downlevel.obj
 0002:00008988       ??_C@_1M@BGNFLDN@?$AAe?$AAs?$AA?9?$AAC?$AAO@ 000000014002f988     libucrt:lcidtoname_downlevel.obj
 0002:00008998       ??_C@_1O@JMPHMAMC@?$AAs?$AAm?$AAn?$AA?9?$AAF?$AAI@ 000000014002f998     libucrt:lcidtoname_downlevel.obj
 0002:000089a8       ??_C@_1M@JLANABKE@?$AAa?$AAr?$AA?9?$AAS?$AAY@ 000000014002f9a8     libucrt:lcidtoname_downlevel.obj
 0002:000089b8       ??_C@_1M@HPKGCFGN@?$AAe?$AAn?$AA?9?$AAB?$AAZ@ 000000014002f9b8     libucrt:lcidtoname_downlevel.obj
 0002:000089c8       ??_C@_1M@OLJCMLGM@?$AAe?$AAs?$AA?9?$AAP?$AAE@ 000000014002f9c8     libucrt:lcidtoname_downlevel.obj
 0002:000089d8       ??_C@_1M@MKKGFKLE@?$AAa?$AAr?$AA?9?$AAJ?$AAO@ 000000014002f9d8     libucrt:lcidtoname_downlevel.obj
 0002:000089e8       ??_C@_1M@EKPGLDNI@?$AAe?$AAn?$AA?9?$AAT?$AAT@ 000000014002f9e8     libucrt:lcidtoname_downlevel.obj
 0002:000089f8       ??_C@_1M@OONGHFHE@?$AAe?$AAs?$AA?9?$AAA?$AAR@ 000000014002f9f8     libucrt:lcidtoname_downlevel.obj
 0002:00008a08       ??_C@_1M@OOJFGBHE@?$AAa?$AAr?$AA?9?$AAL?$AAB@ 000000014002fa08     libucrt:lcidtoname_downlevel.obj
 0002:00008a18       ??_C@_1M@GCEJHNEG@?$AAe?$AAn?$AA?9?$AAZ?$AAW@ 000000014002fa18     libucrt:lcidtoname_downlevel.obj
 0002:00008a28       ??_C@_1M@JNOCAHJI@?$AAe?$AAs?$AA?9?$AAE?$AAC@ 000000014002fa28     libucrt:lcidtoname_downlevel.obj
 0002:00008a38       ??_C@_1M@JEFHPGGB@?$AAa?$AAr?$AA?9?$AAK?$AAW@ 000000014002fa38     libucrt:lcidtoname_downlevel.obj
 0002:00008a48       ??_C@_1M@MLKIBJOJ@?$AAe?$AAn?$AA?9?$AAP?$AAH@ 000000014002fa48     libucrt:lcidtoname_downlevel.obj
 0002:00008a58       ??_C@_1M@BDNIPEND@?$AAe?$AAs?$AA?9?$AAC?$AAL@ 000000014002fa58     libucrt:lcidtoname_downlevel.obj
 0002:00008a68       ??_C@_1M@MPNMEKBD@?$AAa?$AAr?$AA?9?$AAA?$AAE@ 000000014002fa68     libucrt:lcidtoname_downlevel.obj
 0002:00008a78       ??_C@_1M@KBJALCPI@?$AAe?$AAs?$AA?9?$AAU?$AAY@ 000000014002fa78     libucrt:lcidtoname_downlevel.obj
 0002:00008a88       ??_C@_1M@LLCCOAGA@?$AAa?$AAr?$AA?9?$AAB?$AAH@ 000000014002fa88     libucrt:lcidtoname_downlevel.obj
 0002:00008a98       ??_C@_1M@PBFNCDEL@?$AAe?$AAs?$AA?9?$AAP?$AAY@ 000000014002fa98     libucrt:lcidtoname_downlevel.obj
 0002:00008aa8       ??_C@_1M@EDGINPNP@?$AAa?$AAr?$AA?9?$AAQ?$AAA@ 000000014002faa8     libucrt:lcidtoname_downlevel.obj
 0002:00008ab8       ??_C@_1M@MKDBIIJI@?$AAe?$AAs?$AA?9?$AAB?$AAO@ 000000014002fab8     libucrt:lcidtoname_downlevel.obj
 0002:00008ac8       ??_C@_1M@CPKKEBLD@?$AAe?$AAs?$AA?9?$AAS?$AAV@ 000000014002fac8     libucrt:lcidtoname_downlevel.obj
 0002:00008ad8       ??_C@_1M@NDBGMMJL@?$AAe?$AAs?$AA?9?$AAH?$AAN@ 000000014002fad8     libucrt:lcidtoname_downlevel.obj
 0002:00008ae8       ??_C@_1M@JIJIBHDP@?$AAe?$AAs?$AA?9?$AAN?$AAI@ 000000014002fae8     libucrt:lcidtoname_downlevel.obj
 0002:00008af8       ??_C@_1M@CGFMKEEK@?$AAe?$AAs?$AA?9?$AAP?$AAR@ 000000014002faf8     libucrt:lcidtoname_downlevel.obj
 0002:00008b08       ??_C@_1O@ICJHKIIK@?$AAz?$AAh?$AA?9?$AAC?$AAH?$AAT@ 000000014002fb08     libucrt:lcidtoname_downlevel.obj
 0002:00008b18       ??_C@_15CLNEJCE@?$AAs?$AAr@ 000000014002fb18     libucrt:lcidtoname_downlevel.obj
 0002:00009960       ??_C@_1M@KAHEKEIG@?$AAa?$AAf?$AA?9?$AAz?$AAa@ 0000000140030960     libucrt:lcidtoname_downlevel.obj
 0002:00009970       ??_C@_1M@GIECOABL@?$AAa?$AAr?$AA?9?$AAa?$AAe@ 0000000140030970     libucrt:lcidtoname_downlevel.obj
 0002:00009980       ??_C@_1M@BMLMEKGI@?$AAa?$AAr?$AA?9?$AAb?$AAh@ 0000000140030980     libucrt:lcidtoname_downlevel.obj
 0002:00009990       ??_C@_1M@DAPFDGGB@?$AAa?$AAr?$AA?9?$AAd?$AAz@ 0000000140030990     libucrt:lcidtoname_downlevel.obj
 0002:000099a0       ??_C@_1M@FJNKGKIG@?$AAa?$AAr?$AA?9?$AAe?$AAg@ 00000001400309a0     libucrt:lcidtoname_downlevel.obj
 0002:000099b0       ??_C@_1M@FLGKKCLO@?$AAa?$AAr?$AA?9?$AAi?$AAq@ 00000001400309b0     libucrt:lcidtoname_downlevel.obj
 0002:000099c0       ??_C@_1M@GNDIPALM@?$AAa?$AAr?$AA?9?$AAj?$AAo@ 00000001400309c0     libucrt:lcidtoname_downlevel.obj
 0002:000099d0       ??_C@_1M@DDMJFMGJ@?$AAa?$AAr?$AA?9?$AAk?$AAw@ 00000001400309d0     libucrt:lcidtoname_downlevel.obj
 0002:000099e0       ??_C@_1M@EJALMLHM@?$AAa?$AAr?$AA?9?$AAl?$AAb@ 00000001400309e0     libucrt:lcidtoname_downlevel.obj
 0002:000099f0       ??_C@_1M@MOBDBLOC@?$AAa?$AAr?$AA?9?$AAl?$AAy@ 00000001400309f0     libucrt:lcidtoname_downlevel.obj
 0002:00009a00       ??_C@_1M@JAOCLHDH@?$AAa?$AAr?$AA?9?$AAm?$AAa@ 0000000140030a00     libucrt:lcidtoname_downlevel.obj
 0002:00009a10       ??_C@_1M@JHPMKJIE@?$AAa?$AAr?$AA?9?$AAo?$AAm@ 0000000140030a10     libucrt:lcidtoname_downlevel.obj
 0002:00009a20       ??_C@_1M@OEPGHFNH@?$AAa?$AAr?$AA?9?$AAq?$AAa@ 0000000140030a20     libucrt:lcidtoname_downlevel.obj
 0002:00009a30       ??_C@_1M@KJDONENM@?$AAa?$AAr?$AA?9?$AAs?$AAa@ 0000000140030a30     libucrt:lcidtoname_downlevel.obj
 0002:00009a40       ??_C@_1M@DMJDKLKM@?$AAa?$AAr?$AA?9?$AAs?$AAy@ 0000000140030a40     libucrt:lcidtoname_downlevel.obj
 0002:00009a50       ??_C@_1M@OMFIPEDC@?$AAa?$AAr?$AA?9?$AAt?$AAn@ 0000000140030a50     libucrt:lcidtoname_downlevel.obj
 0002:00009a60       ??_C@_1M@IHMHGAON@?$AAa?$AAr?$AA?9?$AAy?$AAe@ 0000000140030a60     libucrt:lcidtoname_downlevel.obj
 0002:00009a70       ??_C@_1BG@KDCPGJGB@?$AAa?$AAz?$AA?9?$AAa?$AAz?$AA?9?$AAc?$AAy?$AAr?$AAl@ 0000000140030a70     libucrt:lcidtoname_downlevel.obj
 0002:00009a88       ??_C@_1BG@IBCKDDOE@?$AAa?$AAz?$AA?9?$AAa?$AAz?$AA?9?$AAl?$AAa?$AAt?$AAn@ 0000000140030a88     libucrt:lcidtoname_downlevel.obj
 0002:00009aa0       ??_C@_1M@EGPFDCPD@?$AAb?$AAe?$AA?9?$AAb?$AAy@ 0000000140030aa0     libucrt:lcidtoname_downlevel.obj
 0002:00009ab0       ??_C@_1M@PCMGMCGC@?$AAb?$AAg?$AA?9?$AAb?$AAg@ 0000000140030ab0     libucrt:lcidtoname_downlevel.obj
 0002:00009ac0       ??_C@_1M@BJBMFGOB@?$AAb?$AAn?$AA?9?$AAi?$AAn@ 0000000140030ac0     libucrt:lcidtoname_downlevel.obj
 0002:00009ad0       ??_C@_1BG@EAKMMACD@?$AAb?$AAs?$AA?9?$AAb?$AAa?$AA?9?$AAl?$AAa?$AAt?$AAn@ 0000000140030ad0     libucrt:lcidtoname_downlevel.obj
 0002:00009ae8       ??_C@_1M@KGADAODK@?$AAc?$AAa?$AA?9?$AAe?$AAs@ 0000000140030ae8     libucrt:lcidtoname_downlevel.obj
 0002:00009af8       ??_C@_1M@COAJPDHI@?$AAc?$AAs?$AA?9?$AAc?$AAz@ 0000000140030af8     libucrt:lcidtoname_downlevel.obj
 0002:00009b08       ??_C@_1M@DHBHFONH@?$AAc?$AAy?$AA?9?$AAg?$AAb@ 0000000140030b08     libucrt:lcidtoname_downlevel.obj
 0002:00009b18       ??_C@_1M@IMGKELGA@?$AAd?$AAa?$AA?9?$AAd?$AAk@ 0000000140030b18     libucrt:lcidtoname_downlevel.obj
 0002:00009b28       ??_C@_1M@NNDGDNGA@?$AAd?$AAe?$AA?9?$AAa?$AAt@ 0000000140030b28     libucrt:lcidtoname_downlevel.obj
 0002:00009b38       ??_C@_1M@IKDBHEEM@?$AAd?$AAe?$AA?9?$AAc?$AAh@ 0000000140030b38     libucrt:lcidtoname_downlevel.obj
 0002:00009b48       ??_C@_1M@GFFOJMCJ@?$AAd?$AAe?$AA?9?$AAd?$AAe@ 0000000140030b48     libucrt:lcidtoname_downlevel.obj
 0002:00009b58       ??_C@_1M@MDNLKBPM@?$AAd?$AAe?$AA?9?$AAl?$AAi@ 0000000140030b58     libucrt:lcidtoname_downlevel.obj
 0002:00009b68       ??_C@_1M@NJBEEJNL@?$AAd?$AAe?$AA?9?$AAl?$AAu@ 0000000140030b68     libucrt:lcidtoname_downlevel.obj
 0002:00009b78       ??_C@_1O@GNNELBAP@?$AAd?$AAi?$AAv?$AA?9?$AAm?$AAv@ 0000000140030b78     libucrt:lcidtoname_downlevel.obj
 0002:00009b88       ??_C@_1M@EJLEOGAE@?$AAe?$AAl?$AA?9?$AAg?$AAr@ 0000000140030b88     libucrt:lcidtoname_downlevel.obj
 0002:00009b98       ??_C@_1M@GMPONJN@?$AAe?$AAn?$AA?9?$AAa?$AAu@ 0000000140030b98     libucrt:lcidtoname_downlevel.obj
 0002:00009ba8       ??_C@_1M@NIDIIPGF@?$AAe?$AAn?$AA?9?$AAb?$AAz@ 0000000140030ba8     libucrt:lcidtoname_downlevel.obj
 0002:00009bb8       ??_C@_1M@JEHMIMFO@?$AAe?$AAn?$AA?9?$AAc?$AAa@ 0000000140030bb8     libucrt:lcidtoname_downlevel.obj
 0002:00009bc8       ??_C@_1M@IGMJCDLA@?$AAe?$AAn?$AA?9?$AAc?$AAb@ 0000000140030bc8     libucrt:lcidtoname_downlevel.obj
 0002:00009bd8       ??_C@_1M@BNFIGBKG@?$AAe?$AAn?$AA?9?$AAg?$AAb@ 0000000140030bd8     libucrt:lcidtoname_downlevel.obj
 0002:00009be8       ??_C@_1M@LKIFDIGP@?$AAe?$AAn?$AA?9?$AAi?$AAe@ 0000000140030be8     libucrt:lcidtoname_downlevel.obj
 0002:00009bf8       ??_C@_1M@PJKFGCCO@?$AAe?$AAn?$AA?9?$AAj?$AAm@ 0000000140030bf8     libucrt:lcidtoname_downlevel.obj
 0002:00009c08       ??_C@_1M@KPPKEPBO@?$AAe?$AAn?$AA?9?$AAn?$AAz@ 0000000140030c08     libucrt:lcidtoname_downlevel.obj
 0002:00009c18       ??_C@_1M@GMDGLDOB@?$AAe?$AAn?$AA?9?$AAp?$AAh@ 0000000140030c18     libucrt:lcidtoname_downlevel.obj
 0002:00009c28       ??_C@_1M@ONGIBJNA@?$AAe?$AAn?$AA?9?$AAt?$AAt@ 0000000140030c28     libucrt:lcidtoname_downlevel.obj
 0002:00009c38       ??_C@_1M@LLODPCMM@?$AAe?$AAn?$AA?9?$AAu?$AAs@ 0000000140030c38     libucrt:lcidtoname_downlevel.obj
 0002:00009c48       ??_C@_1M@LAKFNPAN@?$AAe?$AAn?$AA?9?$AAz?$AAa@ 0000000140030c48     libucrt:lcidtoname_downlevel.obj
 0002:00009c58       ??_C@_1M@MFNHNHEO@?$AAe?$AAn?$AA?9?$AAz?$AAw@ 0000000140030c58     libucrt:lcidtoname_downlevel.obj
 0002:00009c68       ??_C@_1M@EJEINPHM@?$AAe?$AAs?$AA?9?$AAa?$AAr@ 0000000140030c68     libucrt:lcidtoname_downlevel.obj
 0002:00009c78       ??_C@_1M@GNKPCCJA@?$AAe?$AAs?$AA?9?$AAb?$AAo@ 0000000140030c78     libucrt:lcidtoname_downlevel.obj
 0002:00009c88       ??_C@_1M@LEEGFONL@?$AAe?$AAs?$AA?9?$AAc?$AAl@ 0000000140030c88     libucrt:lcidtoname_downlevel.obj
 0002:00009c98       ??_C@_1M@KGPDPBDF@?$AAe?$AAs?$AA?9?$AAc?$AAo@ 0000000140030c98     libucrt:lcidtoname_downlevel.obj
 0002:00009ca8       ??_C@_1M@EIAHOHH@?$AAe?$AAs?$AA?9?$AAc?$AAr@ 0000000140030ca8     libucrt:lcidtoname_downlevel.obj
 0002:00009cb8       ??_C@_1M@LLPGMBIN@?$AAe?$AAs?$AA?9?$AAd?$AAo@ 0000000140030cb8     libucrt:lcidtoname_downlevel.obj
 0002:00009cc8       ??_C@_1M@DKHMKNJA@?$AAe?$AAs?$AA?9?$AAe?$AAc@ 0000000140030cc8     libucrt:lcidtoname_downlevel.obj
 0002:00009cd8       ??_C@_1M@GKGFPKAP@?$AAe?$AAs?$AA?9?$AAe?$AAs@ 0000000140030cd8     libucrt:lcidtoname_downlevel.obj
 0002:00009ce8       ??_C@_1M@LKHKGDLN@?$AAe?$AAs?$AA?9?$AAg?$AAt@ 0000000140030ce8     libucrt:lcidtoname_downlevel.obj
 0002:00009cf8       ??_C@_1M@HEIIGGJD@?$AAe?$AAs?$AA?9?$AAh?$AAn@ 0000000140030cf8     libucrt:lcidtoname_downlevel.obj
 0002:00009d08       ??_C@_1M@FBDHPPGD@?$AAe?$AAs?$AA?9?$AAm?$AAx@ 0000000140030d08     libucrt:lcidtoname_downlevel.obj
 0002:00009d18       ??_C@_1M@DPAGLNDH@?$AAe?$AAs?$AA?9?$AAn?$AAi@ 0000000140030d18     libucrt:lcidtoname_downlevel.obj
 0002:00009d28       ??_C@_1M@MDGOPGDD@?$AAe?$AAs?$AA?9?$AAp?$AAa@ 0000000140030d28     libucrt:lcidtoname_downlevel.obj
 0002:00009d38       ??_C@_1M@EMAMGBGE@?$AAe?$AAs?$AA?9?$AAp?$AAe@ 0000000140030d38     libucrt:lcidtoname_downlevel.obj
 0002:00009d48       ??_C@_1M@IBMCAOEC@?$AAe?$AAs?$AA?9?$AAp?$AAr@ 0000000140030d48     libucrt:lcidtoname_downlevel.obj
 0002:00009d58       ??_C@_1M@FGMDIJED@?$AAe?$AAs?$AA?9?$AAp?$AAy@ 0000000140030d58     libucrt:lcidtoname_downlevel.obj
 0002:00009d68       ??_C@_1M@IIDEOLLL@?$AAe?$AAs?$AA?9?$AAs?$AAv@ 0000000140030d68     libucrt:lcidtoname_downlevel.obj
 0002:00009d78       ??_C@_1M@GAOBIPA@?$AAe?$AAs?$AA?9?$AAu?$AAy@ 0000000140030d78     libucrt:lcidtoname_downlevel.obj
 0002:00009d88       ??_C@_1M@JKFFICHJ@?$AAe?$AAs?$AA?9?$AAv?$AAe@ 0000000140030d88     libucrt:lcidtoname_downlevel.obj
 0002:00009d98       ??_C@_1M@PNMLOJDF@?$AAe?$AAt?$AA?9?$AAe?$AAe@ 0000000140030d98     libucrt:lcidtoname_downlevel.obj
 0002:00009da8       ??_C@_1M@GHHLIKEI@?$AAe?$AAu?$AA?9?$AAe?$AAs@ 0000000140030da8     libucrt:lcidtoname_downlevel.obj
 0002:00009db8       ??_C@_1M@PBNONODE@?$AAf?$AAa?$AA?9?$AAi?$AAr@ 0000000140030db8     libucrt:lcidtoname_downlevel.obj
 0002:00009dc8       ??_C@_1M@JEEHPMIL@?$AAf?$AAi?$AA?9?$AAf?$AAi@ 0000000140030dc8     libucrt:lcidtoname_downlevel.obj
 0002:00009dd8       ??_C@_1M@LMDCNDBA@?$AAf?$AAo?$AA?9?$AAf?$AAo@ 0000000140030dd8     libucrt:lcidtoname_downlevel.obj
 0002:00009de8       ??_C@_1M@JKEOHLDK@?$AAf?$AAr?$AA?9?$AAb?$AAe@ 0000000140030de8     libucrt:lcidtoname_downlevel.obj
 0002:00009df8       ??_C@_1M@NOHADPMI@?$AAf?$AAr?$AA?9?$AAc?$AAa@ 0000000140030df8     libucrt:lcidtoname_downlevel.obj
 0002:00009e08       ??_C@_1M@KDHIHAEC@?$AAf?$AAr?$AA?9?$AAc?$AAh@ 0000000140030e08     libucrt:lcidtoname_downlevel.obj
 0002:00009e18       ??_C@_1M@MMBBFGAK@?$AAf?$AAr?$AA?9?$AAf?$AAr@ 0000000140030e18     libucrt:lcidtoname_downlevel.obj
 0002:00009e28       ??_C@_1M@PAFNENNF@?$AAf?$AAr?$AA?9?$AAl?$AAu@ 0000000140030e28     libucrt:lcidtoname_downlevel.obj
 0002:00009e38       ??_C@_1M@EOHDJGDD@?$AAf?$AAr?$AA?9?$AAm?$AAc@ 0000000140030e38     libucrt:lcidtoname_downlevel.obj
 0002:00009e48       ??_C@_1M@FAPLLOPF@?$AAg?$AAl?$AA?9?$AAe?$AAs@ 0000000140030e48     libucrt:lcidtoname_downlevel.obj
 0002:00009e58       ??_C@_1M@FOPBFLOO@?$AAg?$AAu?$AA?9?$AAi?$AAn@ 0000000140030e58     libucrt:lcidtoname_downlevel.obj
 0002:00009e68       ??_C@_1M@KBMCINPM@?$AAh?$AAe?$AA?9?$AAi?$AAl@ 0000000140030e68     libucrt:lcidtoname_downlevel.obj
 0002:00009e78       ??_C@_1M@BBPHKFPJ@?$AAh?$AAi?$AA?9?$AAi?$AAn@ 0000000140030e78     libucrt:lcidtoname_downlevel.obj
 0002:00009e88       ??_C@_1M@PMBNDPHD@?$AAh?$AAr?$AA?9?$AAb?$AAa@ 0000000140030e88     libucrt:lcidtoname_downlevel.obj
 0002:00009e98       ??_C@_1M@BPCKOEGE@?$AAh?$AAr?$AA?9?$AAh?$AAr@ 0000000140030e98     libucrt:lcidtoname_downlevel.obj
 0002:00009ea8       ??_C@_1M@GACBMHKE@?$AAh?$AAu?$AA?9?$AAh?$AAu@ 0000000140030ea8     libucrt:lcidtoname_downlevel.obj
 0002:00009eb8       ??_C@_1M@MILPAJJC@?$AAh?$AAy?$AA?9?$AAa?$AAm@ 0000000140030eb8     libucrt:lcidtoname_downlevel.obj
 0002:00009ec8       ??_C@_1M@BABBICEC@?$AAi?$AAd?$AA?9?$AAi?$AAd@ 0000000140030ec8     libucrt:lcidtoname_downlevel.obj
 0002:00009ed8       ??_C@_1M@BIKNHHPF@?$AAi?$AAs?$AA?9?$AAi?$AAs@ 0000000140030ed8     libucrt:lcidtoname_downlevel.obj
 0002:00009ee8       ??_C@_1M@NMPCJPHE@?$AAi?$AAt?$AA?9?$AAc?$AAh@ 0000000140030ee8     libucrt:lcidtoname_downlevel.obj
 0002:00009ef8       ??_C@_1M@GHKGFEDF@?$AAi?$AAt?$AA?9?$AAi?$AAt@ 0000000140030ef8     libucrt:lcidtoname_downlevel.obj
 0002:00009f08       ??_C@_1M@NIEJCJJA@?$AAj?$AAa?$AA?9?$AAj?$AAp@ 0000000140030f08     libucrt:lcidtoname_downlevel.obj
 0002:00009f18       ??_C@_1M@JILFNBIM@?$AAk?$AAa?$AA?9?$AAg?$AAe@ 0000000140030f18     libucrt:lcidtoname_downlevel.obj
 0002:00009f28       ??_C@_1M@PACPMGPH@?$AAk?$AAk?$AA?9?$AAk?$AAz@ 0000000140030f28     libucrt:lcidtoname_downlevel.obj
 0002:00009f38       ??_C@_1M@IELFGMHA@?$AAk?$AAn?$AA?9?$AAi?$AAn@ 0000000140030f38     libucrt:lcidtoname_downlevel.obj
 0002:00009f48       ??_C@_1O@IBBJHCH@?$AAk?$AAo?$AAk?$AA?9?$AAi?$AAn@ 0000000140030f48     libucrt:lcidtoname_downlevel.obj
 0002:00009f58       ??_C@_1M@DMHAEOGC@?$AAk?$AAo?$AA?9?$AAk?$AAr@ 0000000140030f58     libucrt:lcidtoname_downlevel.obj
 0002:00009f68       ??_C@_1M@HBAHBIGA@?$AAk?$AAy?$AA?9?$AAk?$AAg@ 0000000140030f68     libucrt:lcidtoname_downlevel.obj
 0002:00009f78       ??_C@_1M@KPMILCJG@?$AAl?$AAt?$AA?9?$AAl?$AAt@ 0000000140030f78     libucrt:lcidtoname_downlevel.obj
 0002:00009f88       ??_C@_1M@BDEKKCA@?$AAl?$AAv?$AA?9?$AAl?$AAv@ 0000000140030f88     libucrt:lcidtoname_downlevel.obj
 0002:00009f98       ??_C@_1M@ELCKCCJJ@?$AAm?$AAi?$AA?9?$AAn?$AAz@ 0000000140030f98     libucrt:lcidtoname_downlevel.obj
 0002:00009fa8       ??_C@_1M@CBOOLAPA@?$AAm?$AAk?$AA?9?$AAm?$AAk@ 0000000140030fa8     libucrt:lcidtoname_downlevel.obj
 0002:00009fb8       ??_C@_1M@GPHNBJKN@?$AAm?$AAl?$AA?9?$AAi?$AAn@ 0000000140030fb8     libucrt:lcidtoname_downlevel.obj
 0002:00009fc8       ??_C@_1M@PABJILIG@?$AAm?$AAn?$AA?9?$AAm?$AAn@ 0000000140030fc8     libucrt:lcidtoname_downlevel.obj
 0002:00009fd8       ??_C@_1M@FGBKKIPG@?$AAm?$AAr?$AA?9?$AAi?$AAn@ 0000000140030fd8     libucrt:lcidtoname_downlevel.obj
 0002:00009fe8       ??_C@_1M@NDBPDDAL@?$AAm?$AAs?$AA?9?$AAb?$AAn@ 0000000140030fe8     libucrt:lcidtoname_downlevel.obj
 0002:00009ff8       ??_C@_1M@OPIHOOPI@?$AAm?$AAs?$AA?9?$AAm?$AAy@ 0000000140030ff8     libucrt:lcidtoname_downlevel.obj
 0002:0000a008       ??_C@_1M@PPDBCNFM@?$AAm?$AAt?$AA?9?$AAm?$AAt@ 0000000140031008     libucrt:lcidtoname_downlevel.obj
 0002:0000a018       ??_C@_1M@KDJDKMDD@?$AAn?$AAb?$AA?9?$AAn?$AAo@ 0000000140031018     libucrt:lcidtoname_downlevel.obj
 0002:0000a028       ??_C@_1M@KFCFLMJP@?$AAn?$AAl?$AA?9?$AAb?$AAe@ 0000000140031028     libucrt:lcidtoname_downlevel.obj
 0002:0000a038       ??_C@_1M@KPOPDDGO@?$AAn?$AAl?$AA?9?$AAn?$AAl@ 0000000140031038     libucrt:lcidtoname_downlevel.obj
 0002:0000a048       ??_C@_1M@LJKPEMLN@?$AAn?$AAn?$AA?9?$AAn?$AAo@ 0000000140031048     libucrt:lcidtoname_downlevel.obj
 0002:0000a058       ??_C@_1M@BDGHHBFL@?$AAn?$AAs?$AA?9?$AAz?$AAa@ 0000000140031058     libucrt:lcidtoname_downlevel.obj
 0002:0000a068       ??_C@_1M@IDEHOAP@?$AAp?$AAa?$AA?9?$AAi?$AAn@ 0000000140031068     libucrt:lcidtoname_downlevel.obj
 0002:0000a078       ??_C@_1M@HDBKGOGH@?$AAp?$AAl?$AA?9?$AAp?$AAl@ 0000000140031078     libucrt:lcidtoname_downlevel.obj
 0002:0000a088       ??_C@_1M@LJLLCMEH@?$AAp?$AAt?$AA?9?$AAb?$AAr@ 0000000140031088     libucrt:lcidtoname_downlevel.obj
 0002:0000a098       ??_C@_1M@NCMONAAL@?$AAp?$AAt?$AA?9?$AAp?$AAt@ 0000000140031098     libucrt:lcidtoname_downlevel.obj
 0002:0000a0a8       ??_C@_1O@EAKMAJDN@?$AAq?$AAu?$AAz?$AA?9?$AAb?$AAo@ 00000001400310a8     libucrt:lcidtoname_downlevel.obj
 0002:0000a0b8       ??_C@_1O@BHHPIGDN@?$AAq?$AAu?$AAz?$AA?9?$AAe?$AAc@ 00000001400310b8     libucrt:lcidtoname_downlevel.obj
 0002:0000a0c8       ??_C@_1O@GBAPEKMJ@?$AAq?$AAu?$AAz?$AA?9?$AAp?$AAe@ 00000001400310c8     libucrt:lcidtoname_downlevel.obj
 0002:0000a0d8       ??_C@_1M@CLGLEFBO@?$AAr?$AAo?$AA?9?$AAr?$AAo@ 00000001400310d8     libucrt:lcidtoname_downlevel.obj
 0002:0000a0e8       ??_C@_1M@CEEDODME@?$AAr?$AAu?$AA?9?$AAr?$AAu@ 00000001400310e8     libucrt:lcidtoname_downlevel.obj
 0002:0000a0f8       ??_C@_1M@HPKKKMPP@?$AAs?$AAa?$AA?9?$AAi?$AAn@ 00000001400310f8     libucrt:lcidtoname_downlevel.obj
 0002:0000a108       ??_C@_1M@BKMAIGOJ@?$AAs?$AAe?$AA?9?$AAf?$AAi@ 0000000140031108     libucrt:lcidtoname_downlevel.obj
 0002:0000a118       ??_C@_1M@NDPIFLFI@?$AAs?$AAe?$AA?9?$AAn?$AAo@ 0000000140031118     libucrt:lcidtoname_downlevel.obj
 0002:0000a128       ??_C@_1M@DANKKHJ@?$AAs?$AAe?$AA?9?$AAs?$AAe@ 0000000140031128     libucrt:lcidtoname_downlevel.obj
 0002:0000a138       ??_C@_1M@PNBLONPJ@?$AAs?$AAk?$AA?9?$AAs?$AAk@ 0000000140031138     libucrt:lcidtoname_downlevel.obj
 0002:0000a148       ??_C@_1M@LFMODOAL@?$AAs?$AAl?$AA?9?$AAs?$AAi@ 0000000140031148     libucrt:lcidtoname_downlevel.obj
 0002:0000a158       ??_C@_1O@DFKOMPG@?$AAs?$AAm?$AAa?$AA?9?$AAn?$AAo@ 0000000140031158     libucrt:lcidtoname_downlevel.obj
 0002:0000a168       ??_C@_1O@NDKPBNNH@?$AAs?$AAm?$AAa?$AA?9?$AAs?$AAe@ 0000000140031168     libucrt:lcidtoname_downlevel.obj
 0002:0000a178       ??_C@_1O@PLLKBHAB@?$AAs?$AAm?$AAj?$AA?9?$AAn?$AAo@ 0000000140031178     libucrt:lcidtoname_downlevel.obj
 0002:0000a188       ??_C@_1O@CLEPOGCA@?$AAs?$AAm?$AAj?$AA?9?$AAs?$AAe@ 0000000140031188     libucrt:lcidtoname_downlevel.obj
 0002:0000a198       ??_C@_1O@DLGJGKMK@?$AAs?$AAm?$AAn?$AA?9?$AAf?$AAi@ 0000000140031198     libucrt:lcidtoname_downlevel.obj
 0002:0000a1a8       ??_C@_1O@OJDJGAJC@?$AAs?$AAm?$AAs?$AA?9?$AAf?$AAi@ 00000001400311a8     libucrt:lcidtoname_downlevel.obj
 0002:0000a1b8       ??_C@_1M@BOFOGHPB@?$AAs?$AAq?$AA?9?$AAa?$AAl@ 00000001400311b8     libucrt:lcidtoname_downlevel.obj
 0002:0000a1c8       ??_C@_1BG@LJBBIPGB@?$AAs?$AAr?$AA?9?$AAb?$AAa?$AA?9?$AAc?$AAy?$AAr?$AAl@ 00000001400311c8     libucrt:lcidtoname_downlevel.obj
 0002:0000a1e0       ??_C@_1BG@JLBENFOE@?$AAs?$AAr?$AA?9?$AAb?$AAa?$AA?9?$AAl?$AAa?$AAt?$AAn@ 00000001400311e0     libucrt:lcidtoname_downlevel.obj
 0002:0000a1f8       ??_C@_1BG@KODPNHE@?$AAs?$AAr?$AA?9?$AAs?$AAp?$AA?9?$AAc?$AAy?$AAr?$AAl@ 00000001400311f8     libucrt:lcidtoname_downlevel.obj
 0002:0000a210       ??_C@_1BG@CIOGKHPB@?$AAs?$AAr?$AA?9?$AAs?$AAp?$AA?9?$AAl?$AAa?$AAt?$AAn@ 0000000140031210     libucrt:lcidtoname_downlevel.obj
 0002:0000a228       ??_C@_1M@NGFJLMAC@?$AAs?$AAv?$AA?9?$AAf?$AAi@ 0000000140031228     libucrt:lcidtoname_downlevel.obj
 0002:0000a238       ??_C@_1M@MPJEJAJC@?$AAs?$AAv?$AA?9?$AAs?$AAe@ 0000000140031238     libucrt:lcidtoname_downlevel.obj
 0002:0000a248       ??_C@_1M@MPNDHLFK@?$AAs?$AAw?$AA?9?$AAk?$AAe@ 0000000140031248     libucrt:lcidtoname_downlevel.obj
 0002:0000a258       ??_C@_1O@KOHBJJI@?$AAs?$AAy?$AAr?$AA?9?$AAs?$AAy@ 0000000140031258     libucrt:lcidtoname_downlevel.obj
 0002:0000a268       ??_C@_1M@LDCEFHA@?$AAt?$AAa?$AA?9?$AAi?$AAn@ 0000000140031268     libucrt:lcidtoname_downlevel.obj
 0002:0000a278       ??_C@_1M@CNJOFAK@?$AAt?$AAe?$AA?9?$AAi?$AAn@ 0000000140031278     libucrt:lcidtoname_downlevel.obj
 0002:0000a288       ??_C@_1M@GNAECACD@?$AAt?$AAh?$AA?9?$AAt?$AAh@ 0000000140031288     libucrt:lcidtoname_downlevel.obj
 0002:0000a298       ??_C@_1M@CHBIHOJO@?$AAt?$AAn?$AA?9?$AAz?$AAa@ 0000000140031298     libucrt:lcidtoname_downlevel.obj
 0002:0000a2a8       ??_C@_1M@GCCMIGPJ@?$AAt?$AAr?$AA?9?$AAt?$AAr@ 00000001400312a8     libucrt:lcidtoname_downlevel.obj
 0002:0000a2b8       ??_C@_1M@CELMCNBK@?$AAt?$AAt?$AA?9?$AAr?$AAu@ 00000001400312b8     libucrt:lcidtoname_downlevel.obj
 0002:0000a2c8       ??_C@_1M@KLMCELGA@?$AAu?$AAk?$AA?9?$AAu?$AAa@ 00000001400312c8     libucrt:lcidtoname_downlevel.obj
 0002:0000a2d8       ??_C@_1M@EPAJJAJF@?$AAu?$AAr?$AA?9?$AAp?$AAk@ 00000001400312d8     libucrt:lcidtoname_downlevel.obj
 0002:0000a2e8       ??_C@_1BG@GEGPMCDJ@?$AAu?$AAz?$AA?9?$AAu?$AAz?$AA?9?$AAc?$AAy?$AAr?$AAl@ 00000001400312e8     libucrt:lcidtoname_downlevel.obj
 0002:0000a300       ??_C@_1BG@EGGKJILM@?$AAu?$AAz?$AA?9?$AAu?$AAz?$AA?9?$AAl?$AAa?$AAt?$AAn@ 0000000140031300     libucrt:lcidtoname_downlevel.obj
 0002:0000a318       ??_C@_1M@GFOCLFF@?$AAv?$AAi?$AA?9?$AAv?$AAn@ 0000000140031318     libucrt:lcidtoname_downlevel.obj
 0002:0000a328       ??_C@_1M@CPAMEDFI@?$AAx?$AAh?$AA?9?$AAz?$AAa@ 0000000140031328     libucrt:lcidtoname_downlevel.obj
 0002:0000a338       ??_C@_1O@EBKIFIGN@?$AAz?$AAh?$AA?9?$AAc?$AAh?$AAs@ 0000000140031338     libucrt:lcidtoname_downlevel.obj
 0002:0000a348       ??_C@_1O@NMHPGANE@?$AAz?$AAh?$AA?9?$AAc?$AAh?$AAt@ 0000000140031348     libucrt:lcidtoname_downlevel.obj
 0002:0000a358       ??_C@_1M@LPINJOMC@?$AAz?$AAh?$AA?9?$AAc?$AAn@ 0000000140031358     libucrt:lcidtoname_downlevel.obj
 0002:0000a368       ??_C@_1M@OCJEJODD@?$AAz?$AAh?$AA?9?$AAh?$AAk@ 0000000140031368     libucrt:lcidtoname_downlevel.obj
 0002:0000a378       ??_C@_1M@DNDLJINH@?$AAz?$AAh?$AA?9?$AAm?$AAo@ 0000000140031378     libucrt:lcidtoname_downlevel.obj
 0002:0000a388       ??_C@_1M@MBFDNDND@?$AAz?$AAh?$AA?9?$AAs?$AAg@ 0000000140031388     libucrt:lcidtoname_downlevel.obj
 0002:0000a398       ??_C@_1M@IMEPLEPE@?$AAz?$AAh?$AA?9?$AAt?$AAw@ 0000000140031398     libucrt:lcidtoname_downlevel.obj
 0002:0000a3a8       ??_C@_1M@BBGHNHJP@?$AAz?$AAu?$AA?9?$AAz?$AAa@ 00000001400313a8     libucrt:lcidtoname_downlevel.obj
 0002:0000a3e0       __real@3ff0000000000000    00000001400313e0     libucrt:ceil.obj
 0002:0000a640       __log10_256_lead           0000000140031640     libucrt:log10_256_lead_tail_table.obj
 0002:0000ae50       __log10_256_tail           0000000140031e50     libucrt:log10_256_lead_tail_table.obj
 0002:0000b660       __log_F_inv_qword          0000000140032660     libucrt:log_f_inv_qword_table.obj
 0002:0000be70       ??_C@_1BA@BALFACEM@?$AAC?$AAO?$AAN?$AAO?$AAU?$AAT?$AA$@ 0000000140032e70     libucrt:initcon.obj
 0002:0000be80       _Asan_string_should_annotate 0000000140032e80     libcpmt:asan_noop.obj
 0002:0000be80       _Asan_string_should_annotate_default 0000000140032e80     libcpmt:asan_noop.obj
 0002:0000be81       _Asan_vector_should_annotate_default 0000000140032e81     libcpmt:asan_noop.obj
 0002:0000be82       _Asan_optional_should_annotate_default 0000000140032e82     libcpmt:asan_noop.obj
 0002:0000be88       ??_C@_1BK@ILMGHIHD@?$AA?$CI?$AAb?$AAi?$AAl?$AAi?$AAn?$AAm?$AAi?$AAy?$AAo?$AAr?$AA?$CJ@ 0000000140032e88     main.obj
 0002:0000beb0       ??_C@_1BCG@IPAOGENI@?$AAB?$AAe?$AAk?$AAl?$AAe?$AAn?$AAm?$AAe?$AAy?$AAe?$AAn?$AA?5?$AAb?$AAi?$AAr?$AA?5@ 0000000140032eb0     main.obj
 0002:0000bfd8       ??_C@_1CO@EAKOAKCM@?$AAI?$AAT?$AAH?$AAe?$AAl?$AAp?$AAe?$AAr?$AA?5?5?$BE?$AA?5?$AAK?$AAr?$AAi?$AAt?$AAi@ 0000000140032fd8     main.obj
 0002:0000c008       ??_C@_1BC@PKJHKNJD@?$AAI?$AAT?$AAH?$AAe?$AAl?$AAp?$AAe?$AAr@ 0000000140033008     main.obj
 0002:0000c020       ??_C@_1DI@HFHPIKG@?$AAA?$AAn?$AAa?$AA?5?$AAp?$AAe?$AAn?$AAc?$AAe?$AAr?$AAe?$AA?5?$AAo?$AAl?$AAu?$AB_@ 0000000140033020     main.obj
 0002:0000c060       ??_C@_1GI@OOPFHAPO@?$AAU?$AAy?$AAg?$AAu?$AAl?$AAa?$AAm?$AAa?$AA?5?$AAb?$AAa?$AB_?$AAl?$AAa?$AAt?$AB1@ 0000000140033060     main.obj
 0002:0000c0c8       ??_C@_0BC@EOODALEL@Unknown?5exception@ 00000001400330c8     Shell.obj
 0002:0000c0e0       ??_C@_0BF@KINCDENJ@bad?5array?5new?5length@ 00000001400330e0     Shell.obj
 0002:0000c0f8       ??_C@_0BA@JFNIOLAK@string?5too?5long@ 00000001400330f8     Shell.obj
 0002:0000c108       ??_C@_1BG@FJJGANHJ@?$AAA?$AAD?$AA?5?$AAS?$AAo?$AAr?$AAg?$AAu?$AAs?$AAu@ 0000000140033108     Shell.obj
 0002:0000c120       ??_C@_1CC@OJILPOO@?$AAA?$AAc?$AAt?$AAi?$AAv?$AAe?$AA?5?$AAD?$AAi?$AAr?$AAe?$AAc?$AAt?$AAo?$AAr?$AAy@ 0000000140033120     Shell.obj
 0002:0000c148       ??_C@_0BB@GCADKGJO@map?1set?5too?5long@ 0000000140033148     Shell.obj
 0002:0000c160       ??_C@_1BE@JBACCBAN@?$AAI?$AAT?$AAH?$AA_?$AAS?$AAh?$AAe?$AAl?$AAl@ 0000000140033160     Shell.obj
 0002:0000c178       ??_C@_1BC@GCGFGEDI@?$AAS?$AAe?$AAg?$AAo?$AAe?$AA?5?$AAU?$AAI@ 0000000140033178     Shell.obj
 0002:0000c190       ??_C@_1EA@HNCDEEML@?$AAI?$AAT?$AAH?$AAe?$AAl?$AAp?$AAe?$AAr?$AA?5?5?$BE?$AA?5?$AAI?$AAT?$AA?5?$AAY?$AAa@ 0000000140033190     Shell.obj
 0002:0000c1d0       ??_C@_11LOCGONAA@@         00000001400331d0     Shell.obj
 0002:0000c1d8       ??_C@_1BM@POPPCGII@?$AAS?$AAy?$AAs?$AAT?$AAr?$AAe?$AAe?$AAV?$AAi?$AAe?$AAw?$AA3?$AA2@ 00000001400331d8     Shell.obj
 0002:0000c1f8       ??_C@_0BL@GOIGLPKN@unordered_map?1set?5too?5long@ 00000001400331f8     Shell.obj
 0002:0000c218       ??_C@_0BK@OGNNAFAB@invalid?5hash?5bucket?5count@ 0000000140033218     Shell.obj
 0002:0000c238       ??_C@_0BA@FOIKENOD@vector?5too?5long@ 0000000140033238     Shell.obj
 0002:0000c250       ??_7AdQueryTool@ith@@6B@   0000000140033250     Shell.obj
 0002:0000c288       ??_C@_17FCHMPANP@?$AA?2?$AA2?$AAa@ 0000000140033288     AdQuery.obj
 0002:0000c290       ??_C@_17OEHJLAPH@?$AA?2?$AA2?$AA8@ 0000000140033290     AdQuery.obj
 0002:0000c298       ??_C@_17FMMFNHJC@?$AA?2?$AA2?$AA9@ 0000000140033298     AdQuery.obj
 0002:0000c2a0       ??_C@_17OFHAAIOM@?$AA?2?$AA5?$AAc@ 00000001400332a0     AdQuery.obj
 0002:0000c2a8       ??_C@_17GMAFDJBD@?$AA?2?$AA0?$AA0@ 00000001400332a8     AdQuery.obj
 0002:0000c2b0       ??_C@_1CC@FLKNJKKC@?$AA0?$AA1?$AA2?$AA3?$AA4?$AA5?$AA6?$AA7?$AA8?$AA9?$AAa?$AAb?$AAc?$AAd?$AAe?$AAf@ 00000001400332b0     AdQuery.obj
 0002:0000c2d8       ??_C@_17EPGNONN@?$AAH?$AAi?$AA?g@ 00000001400332d8     AdQuery.obj
 0002:0000c2e0       ??_C@_1DM@JPDDDKCE@?$AA?$CF?$AA0?$AA2?$AAd?$AA?4?$AA?$CF?$AA0?$AA2?$AAd?$AA?4?$AA?$CF?$AA0?$AA4?$AAd?$AA?5?$AA?$CF@ 00000001400332e0     AdQuery.obj
 0002:0000c31c       ??_C@_13DJINKGML@?5?$BE@   000000014003331c     AdQuery.obj
 0002:0000c320       ??_C@_1BE@LEBMGOD@?$AA?5?$AA?$CI?$AA0?$AAx?$AA?$CF?$AA0?$AA8?$AAX?$AA?$CJ@ 0000000140033320     AdQuery.obj
 0002:0000c340       ??_C@_1EA@KKJCDGIK@?$AAA?$AAc?$AAt?$AAi?$AAv?$AAe?$AA?5?$AAD?$AAi?$AAr?$AAe?$AAc?$AAt?$AAo?$AAr?$AAy@ 0000000140033340     AdQuery.obj
 0002:0000c380       ??_C@_1BA@MKHJNDJL@?$AAL?$AAD?$AAA?$AAP?$AA?3?$AA?1?$AA?1@ 0000000140033380     AdQuery.obj
 0002:0000c390       ??_C@_13CGOKJPIL@?$AA?1@   0000000140033390     AdQuery.obj
 0002:0000c3a0       ??_C@_1BA@LPKINBNF@?$AAr?$AAo?$AAo?$AAt?$AAD?$AAS?$AAE@ 00000001400333a0     AdQuery.obj
 0002:0000c3b0       ??_C@_1CK@PLPKJNOD@?$AAd?$AAe?$AAf?$AAa?$AAu?$AAl?$AAt?$AAN?$AAa?$AAm?$AAi?$AAn?$AAg?$AAC?$AAo?$AAn@ 00000001400333b0     AdQuery.obj
 0002:0000c3e0       ??_C@_1BI@LKHJNJMH@?$AAd?$AAi?$AAs?$AAp?$AAl?$AAa?$AAy?$AAN?$AAa?$AAm?$AAe@ 00000001400333e0     AdQuery.obj
 0002:0000c3f8       ??_C@_15BLKEKDJI@?$AAc?$AAn@ 00000001400333f8     AdQuery.obj
 0002:0000c400       ??_C@_19HHIIBINK@?$AAn?$AAa?$AAm?$AAe@ 0000000140033400     AdQuery.obj
 0002:0000c410       ??_C@_1BO@KOMDEGAB@?$AAs?$AAA?$AAM?$AAA?$AAc?$AAc?$AAo?$AAu?$AAn?$AAt?$AAN?$AAa?$AAm?$AAe@ 0000000140033410     AdQuery.obj
 0002:0000c430       ??_C@_1BA@MIADMBGP@?$AA?$CI?$AAa?$AAd?$AAs?$AB1?$AAz?$AA?$CJ@ 0000000140033430     AdQuery.obj
 0002:0000c440       ??_C@_1BC@JMBKJGPD@?$AAc?$AAo?$AAm?$AAp?$AAu?$AAt?$AAe?$AAr@ 0000000140033440     AdQuery.obj
 0002:0000c458       ??_C@_1M@BDEHGHEL@?$AAg?$AAr?$AAo?$AAu?$AAp@ 0000000140033458     AdQuery.obj
 0002:0000c468       ??_C@_1BI@PHJBOPCE@?$AAo?$AAb?$AAj?$AAe?$AAc?$AAt?$AAC?$AAl?$AAa?$AAs?$AAs@ 0000000140033468     AdQuery.obj
 0002:0000c480       ??_C@_1FK@CLGPOMEK@?$AA?$CI?$AA?$CG?$AA?$CI?$AAo?$AAb?$AAj?$AAe?$AAc?$AAt?$AAC?$AAa?$AAt?$AAe?$AAg?$AAo?$AAr@ 0000000140033480     AdQuery.obj
 0002:0000c4e0       ??_C@_1CO@ENAODELG@?$AA?$CI?$AAo?$AAb?$AAj?$AAe?$AAc?$AAt?$AAC?$AAa?$AAt?$AAe?$AAg?$AAo?$AAr?$AAy?$AA?$DN@ 00000001400334e0     AdQuery.obj
 0002:0000c510       ??_C@_1DE@EHNLCMGD@?$AA?$CI?$AAo?$AAb?$AAj?$AAe?$AAc?$AAt?$AAC?$AAa?$AAt?$AAe?$AAg?$AAo?$AAr?$AAy?$AA?$DN@ 0000000140033510     AdQuery.obj
 0002:0000c548       ??_C@_1CA@CGKDPGGM@?$AA?$CI?$AAo?$AAb?$AAj?$AAe?$AAc?$AAt?$AAC?$AAl?$AAa?$AAs?$AAs?$AA?$DN?$AA?$CK?$AA?$CJ@ 0000000140033548     AdQuery.obj
 0002:0000c568       ??_C@_1O@CHBCJGPP@?$AAG?$AAl?$AAo?$AAb?$AAa?$AAl@ 0000000140033568     AdQuery.obj
 0002:0000c580       ??_C@_1EA@OMEBCLKF@?$AAY?$AAe?$AAr?$AAe?$AAl?$AA?5?$AAe?$AAt?$AAk?$AAi?$AA?5?$AAa?$AAl?$AAa?$AAn?$AB1@ 0000000140033580     AdQuery.obj
 0002:0000c5c0       ??_C@_1CK@FLDIFKLG@?$AAE?$AAv?$AAr?$AAe?$AAn?$AAs?$AAe?$AAl?$AA?5?$AA?$CI?$AAU?$AAn?$AAi?$AAv?$AAe?$AAr@ 00000001400335c0     AdQuery.obj
 0002:0000c5f0       ??_C@_1BG@CMLKEMGE@?$AAB?$AAi?$AAl?$AAi?$AAn?$AAm?$AAi?$AAy?$AAo?$AAr@ 00000001400335f0     AdQuery.obj
 0002:0000c608       ??_C@_1CE@OEKOHCPI@?$AAd?$AAi?$AAs?$AAt?$AAi?$AAn?$AAg?$AAu?$AAi?$AAs?$AAh?$AAe?$AAd?$AAN?$AAa?$AAm@ 0000000140033608     AdQuery.obj
 0002:0000c630       ??_C@_1BE@GEFKMAIL@?$AAo?$AAb?$AAj?$AAe?$AAc?$AAt?$AAS?$AAi?$AAd@ 0000000140033630     AdQuery.obj
 0002:0000c648       ??_C@_1BO@ENCKJGPG@?$AAp?$AAr?$AAi?$AAm?$AAa?$AAr?$AAy?$AAG?$AAr?$AAo?$AAu?$AAp?$AAI?$AAD@ 0000000140033648     AdQuery.obj
 0002:0000c668       ??_C@_1CE@IAFEIKAE@?$AAu?$AAs?$AAe?$AAr?$AAP?$AAr?$AAi?$AAn?$AAc?$AAi?$AAp?$AAa?$AAl?$AAN?$AAa?$AAm@ 0000000140033668     AdQuery.obj
 0002:0000c690       ??_C@_19HKCGKOEF@?$AAm?$AAa?$AAi?$AAl@ 0000000140033690     AdQuery.obj
 0002:0000c6a0       ??_C@_1BE@KCLCMFPL@?$AAh?$AAo?$AAm?$AAe?$AAP?$AAh?$AAo?$AAn?$AAe@ 00000001400336a0     AdQuery.obj
 0002:0000c6b8       ??_C@_1O@CGNNCNPO@?$AAm?$AAo?$AAb?$AAi?$AAl?$AAe@ 00000001400336b8     AdQuery.obj
 0002:0000c6c8       ??_C@_1BI@MFBGCOGB@?$AAd?$AAe?$AAs?$AAc?$AAr?$AAi?$AAp?$AAt?$AAi?$AAo?$AAn@ 00000001400336c8     AdQuery.obj
 0002:0000c6e0       ??_C@_1CG@IPHDBMMC@?$AAu?$AAs?$AAe?$AAr?$AAA?$AAc?$AAc?$AAo?$AAu?$AAn?$AAt?$AAC?$AAo?$AAn?$AAt?$AAr@ 00000001400336e0     AdQuery.obj
 0002:0000c708       ??_C@_1CG@PIJBPLPG@?$AAl?$AAa?$AAs?$AAt?$AAL?$AAo?$AAg?$AAo?$AAn?$AAT?$AAi?$AAm?$AAe?$AAs?$AAt?$AAa@ 0000000140033708     AdQuery.obj
 0002:0000c730       ??_C@_1BE@LMBNNCP@?$AAg?$AAr?$AAo?$AAu?$AAp?$AAT?$AAy?$AAp?$AAe@ 0000000140033730     AdQuery.obj
 0002:0000c750       ??_C@_1JA@EIAFOGBI@?$AA?6?$AAM?$AAa?$AAk?$AAi?$AAn?$AAe?$AA?5?$AAb?$AAi?$AAr?$AA?5?$AAe?$AAt?$AAk?$AAi@ 0000000140033750     AdQuery.obj
 0002:0000c7e0       ??_C@_1DK@IGOGAJNJ@?$AAE?$AAt?$AAk?$AAi?$AA?5?$AAa?$AAl?$AAa?$AAn?$AB1?$AAn?$AAa?$AA?5?$AAb?$AAa?$AB?$BP@ 00000001400337e0     AdQuery.obj
 0002:0000c820       ??_C@_1DE@LGEHFBME@?$AAD?$AAi?$AAz?$AAi?$AAn?$AA?5?$AAa?$AAr?$AAa?$AAm?$AAa?$AAs?$AB1?$AA?5?$AAa?$AA?g@ 0000000140033820     AdQuery.obj
 0002:0000c858       ??_C@_17IBHNONKB@?$AA?$CJ?$AA?$CJ?$AA?$CJ@ 0000000140033858     AdQuery.obj
 0002:0000c860       ??_C@_1O@ENEFDKLI@?$AA$?$AA?$CJ?$AA?$CI?$AAc?$AAn?$AA?$DN@ 0000000140033860     AdQuery.obj
 0002:0000c870       ??_C@_1CE@LPHFKHNG@?$AA?$CJ?$AA?$CI?$AAs?$AAA?$AAM?$AAA?$AAc?$AAc?$AAo?$AAu?$AAn?$AAt?$AAN?$AAa?$AAm?$AAe@ 0000000140033870     AdQuery.obj
 0002:0000c8a0       ??_C@_1CG@DFMJPPBB@?$AA?$CI?$AA?$HM?$AA?$CI?$AAs?$AAA?$AAM?$AAA?$AAc?$AAc?$AAo?$AAu?$AAn?$AAt?$AAN?$AAa?$AAm@ 00000001400338a0     AdQuery.obj
 0002:0000c8c8       ??_C@_15CAJLCJOF@?$AA?$CI?$AA?$CG@ 00000001400338c8     AdQuery.obj
 0002:0000c8d0       ??_C@_15LDKEOKBG@?$AA?$CJ?$AA?$CJ@ 00000001400338d0     AdQuery.obj
 0002:0000c8e0       ??_C@_1CC@GIJBNOGL@?$AA?$CI?$AAs?$AAA?$AAM?$AAA?$AAc?$AAc?$AAo?$AAu?$AAn?$AAt?$AAN?$AAa?$AAm?$AAe?$AA?$DN@ 00000001400338e0     AdQuery.obj
 0002:0000c908       ??_C@_19FPKKMJKH@?$AA?$CK?$AA?$CJ?$AA?$CJ?$AA?$CJ@ 0000000140033908     AdQuery.obj
 0002:0000c920       ??_C@_1CC@GDIJEDF@?$AA?$CK?$AA?$CJ?$AA?$CI?$AAd?$AAi?$AAs?$AAp?$AAl?$AAa?$AAy?$AAN?$AAa?$AAm?$AAe?$AA?$DN?$AA?$CK@ 0000000140033920     AdQuery.obj
 0002:0000c950       ??_C@_1BA@FBNAJLG@?$AA?$CK?$AA?$CJ?$AA?$CI?$AAc?$AAn?$AA?$DN?$AA?$CK@ 0000000140033950     AdQuery.obj
 0002:0000c960       ??_C@_1CI@LBFELGAO@?$AA?$CI?$AA?$HM?$AA?$CI?$AAs?$AAA?$AAM?$AAA?$AAc?$AAc?$AAo?$AAu?$AAn?$AAt?$AAN?$AAa?$AAm@ 0000000140033960     AdQuery.obj
 0002:0000c990       ??_C@_1EC@JINFLCOF@?$AA?8?$AA?5?$AAi?$AA?g?$AAi?$AAn?$AA?5?$AAe?$AB_?$AAl?$AAe?$AB_?$AAe?$AAn?$AA?5?$AAn@ 0000000140033990     AdQuery.obj
 0002:0000c9d4       ??_C@_13ODFOLHGE@?$AA?8@   00000001400339d4     AdQuery.obj
 0002:0000c9d8       ??_C@_1BG@IGFHIMDI@?$AAG?$AA?v?$AAr?$AA?$PM?$AAn?$AAe?$AAn?$AA?5?$AAa?$AAd@ 00000001400339d8     AdQuery.obj
 0002:0000c9f0       ??_C@_1EC@BEHKKGLB@?$AAO?$AAt?$AAu?$AAr?$AAu?$AAm?$AA?5?$AAa?$AA?g?$AAm?$AAa?$AA?5?$AAa?$AAd?$AB1?$AA?5@ 00000001400339f0     AdQuery.obj
 0002:0000ca38       ??_C@_1DC@HNGCLMPN@?$AAK?$AAu?$AAl?$AAl?$AAa?$AAn?$AB1?$AAc?$AB1?$AA?5?$AAa?$AAs?$AB1?$AAl?$AA?5?$AAa@ 0000000140033a38     AdQuery.obj
 0002:0000ca70       ??_C@_1BA@IKNAAAO@?$AAE?$AA?9?$AAp?$AAo?$AAs?$AAt?$AAa@ 0000000140033a70     AdQuery.obj
 0002:0000ca80       ??_C@_1BI@DNMGCLLL@?$AAE?$AAv?$AA?5?$AAt?$AAe?$AAl?$AAe?$AAf?$AAo?$AAn?$AAu@ 0000000140033a80     AdQuery.obj
 0002:0000ca98       ??_C@_1BK@ILEBHBII@?$AAC?$AAe?$AAp?$AA?5?$AAt?$AAe?$AAl?$AAe?$AAf?$AAo?$AAn?$AAu@ 0000000140033a98     AdQuery.obj
 0002:0000cab8       ??_C@_1BC@HJLBCEN@?$AAA?$AA?g?$AB1?$AAk?$AAl?$AAa?$AAm?$AAa@ 0000000140033ab8     AdQuery.obj
 0002:0000cad0       ??_C@_1M@KKMLLONN@?$AAE?$AAt?$AAk?$AAi?$AAn@ 0000000140033ad0     AdQuery.obj
 0002:0000cae0       ??_C@_1M@MAPIIME@?$AAH?$AAa?$AAy?$AB1?$AAr@ 0000000140033ae0     AdQuery.obj
 0002:0000caf0       ??_C@_19LCLNGKFI@?$AAE?$AAv?$AAe?$AAt@ 0000000140033af0     AdQuery.obj
 0002:0000cb00       ??_C@_1CK@MANACJKO@?$AAS?$AAo?$AAn?$AA?5?$AAo?$AAt?$AAu?$AAr?$AAu?$AAm?$AA?5?$AA?$CI?$AAr?$AAe?$AAp?$AAl@ 0000000140033b00     AdQuery.obj
 0002:0000cb30       ??_C@_1BA@PDDIGCOJ@?$AAA?$AAd?$AA?5?$AA?$CI?$AAc?$AAn?$AA?$CJ@ 0000000140033b30     AdQuery.obj
 0002:0000cb40       ??_C@_1O@ENEAIKIJ@?$AAK?$AAa?$AAp?$AAs?$AAa?$AAm@ 0000000140033b40     AdQuery.obj
 0002:0000cb50       ??_C@_17OINHGMNP@?$AAT?$AA?$PM?$AAr@ 0000000140033b50     AdQuery.obj
 0002:0000cb58       ??_C@_1BC@MOBEILNP@?$AAG?$AA?$PM?$AAv?$AAe?$AAn?$AAl?$AAi?$AAk@ 0000000140033b58     AdQuery.obj
 0002:0000cb70       ??_C@_1BA@MEIBHNIM@?$AAD?$AAa?$AB?$BP?$AB1?$AAt?$AB1?$AAm@ 0000000140033b70     AdQuery.obj
 0002:0000cb80       ??_C@_15DOHNOHMB@?$AAA?$AAd@ 0000000140033b80     AdQuery.obj
 0002:0000cb90       ??_C@_1EC@JPPHIGKE@?$AA?$CI?$AA?$CG?$AA?$CI?$AAo?$AAb?$AAj?$AAe?$AAc?$AAt?$AAC?$AAa?$AAt?$AAe?$AAg?$AAo?$AAr@ 0000000140033b90     AdQuery.obj
 0002:0000cbe0       ??_C@_1EI@EEHFGCO@?$AA?$CI?$AA?$CG?$AA?$CI?$AAo?$AAb?$AAj?$AAe?$AAc?$AAt?$AAC?$AAa?$AAt?$AAe?$AAg?$AAo?$AAr@ 0000000140033be0     AdQuery.obj
 0002:0000cc28       ??_C@_13DIBMAFH@?$AA?$CJ@  0000000140033c28     AdQuery.obj
 0002:0000cc30       ??_C@_1BG@MPMKHDEG@?$AA?$CI?$AAm?$AAe?$AAm?$AAb?$AAe?$AAr?$AAO?$AAf?$AA?$DN@ 0000000140033c30     AdQuery.obj
 0002:0000cc48       ??_C@_15EFLNJKHH@?$AA?$CF?$AAu@ 0000000140033c48     AdQuery.obj
 0002:0000cc50       ??_C@_1CE@GCFLOBJB@?$AA?$CJ?$AA?$CI?$AAp?$AAr?$AAi?$AAm?$AAa?$AAr?$AAy?$AAG?$AAr?$AAo?$AAu?$AAp?$AAI?$AAD@ 0000000140033c50     AdQuery.obj
 0002:0000cc80       ??_C@_1BK@OJJDIIK@?$AA?$CI?$AA?$HM?$AA?$CI?$AAm?$AAe?$AAm?$AAb?$AAe?$AAr?$AAO?$AAf?$AA?$DN@ 0000000140033c80     AdQuery.obj
 0002:0000cca0       ??_C@_0BI@CFPLBAOH@invalid?5string?5position@ 0000000140033ca0     AdQuery.obj
 0002:0000cd28       ??_C@_1BG@HJODGPBL@?$AAI?$AAT?$AAH?$AA_?$AAA?$AAD?$AAV?$AAi?$AAe?$AAw@ 0000000140033d28     AdQueryTool.obj
 0002:0000cd40       ??_C@_1BM@JKPABPBH@?$AAI?$AAT?$AAH?$AA_?$AAA?$AAD?$AAR?$AAe?$AAs?$AAu?$AAl?$AAt?$AAs@ 0000000140033d40     AdQueryTool.obj
 0002:0000cd60       ??_C@_1BE@LGIFCOAM@?$AAK?$AAu?$AAl?$AAl?$AAa?$AAn?$AB1?$AAc?$AB1@ 0000000140033d60     AdQueryTool.obj
 0002:0000cd78       ??_C@_19LOLGCBFD@?$AAG?$AAr?$AAu?$AAp@ 0000000140033d78     AdQueryTool.obj
 0002:0000cd88       ??_C@_1BG@KFABAPGJ@?$AAB?$AAi?$AAl?$AAg?$AAi?$AAs?$AAa?$AAy?$AAa?$AAr@ 0000000140033d88     AdQueryTool.obj
 0002:0000cda0       ??_C@_1DI@KKMMPKJL@?$AAC?$AAO?$AAM?$AA?5?$AAb?$AAa?$AB_?$AAl?$AAa?$AAt?$AB1?$AAl?$AAa?$AAm?$AAa?$AAd@ 0000000140033da0     AdQueryTool.obj
 0002:0000cde0       ??_C@_1FK@PKJOFJNI@?$AAS?$AAo?$AAr?$AAg?$AAu?$AA?5?$AAs?$AB1?$AAr?$AAa?$AAs?$AB1?$AAn?$AAd?$AAa?$AA?5@ 0000000140033de0     AdQueryTool.obj
 0002:0000ce40       ??_C@_1O@ELLBDENI@?$AAS?$AAT?$AAA?$AAT?$AAI?$AAC@ 0000000140033e40     AdQueryTool.obj
 0002:0000ce50       ??_C@_1BM@FEGPDFAG@?$AAS?$AAy?$AAs?$AAL?$AAi?$AAs?$AAt?$AAV?$AAi?$AAe?$AAw?$AA3?$AA2@ 0000000140033e50     AdQueryTool.obj
 0002:0000ce70       ??_C@_1BI@BHPIEBNE@?$AAN?$AAe?$AAs?$AAn?$AAe?$AA?5?$AAt?$AAi?$AAp?$AAi?$AA?3@ 0000000140033e70     AdQueryTool.obj
 0002:0000ce88       ??_C@_1BC@LGNOKEPM@?$AAC?$AAO?$AAM?$AAB?$AAO?$AAB?$AAO?$AAX@ 0000000140033e88     AdQueryTool.obj
 0002:0000cea0       ??_C@_17HDBJLHGM@?$AAA?$AAd?$AA?3@ 0000000140033ea0     AdQueryTool.obj
 0002:0000cea8       ??_C@_19KFAJFECL@?$AAE?$AAD?$AAI?$AAT@ 0000000140033ea8     AdQueryTool.obj
 0002:0000ceb8       ??_C@_1BO@JNMHEDKE@?$AAD?$AAo?$AAm?$AAa?$AAi?$AAn?$AA?5?$AA?$CI?$AAo?$AAp?$AAs?$AA?4?$AA?$CJ?$AA?3@ 0000000140033eb8     AdQueryTool.obj
 0002:0000ced8       ??_C@_17LKJKNOEJ@?$AAA?$AAr?$AAa@ 0000000140033ed8     AdQueryTool.obj
 0002:0000cee0       ??_C@_1O@MOBNNEMB@?$AAB?$AAU?$AAT?$AAT?$AAO?$AAN@ 0000000140033ee0     AdQueryTool.obj
 0002:0000cef0       ??_C@_1CE@JHEMIBLN@?$AAm?$AAs?$AAc?$AAt?$AAl?$AAs?$AA_?$AAp?$AAr?$AAo?$AAg?$AAr?$AAe?$AAs?$AAs?$AA3@ 0000000140033ef0     AdQueryTool.obj
 0002:0000cf18       ??_C@_1BC@KNMFPDL@?$AAB?$AAi?$AAl?$AAg?$AAi?$AAl?$AAe?$AAr@ 0000000140033f18     AdQueryTool.obj
 0002:0000cf30       ??_C@_1BA@NDJLPFIC@?$AA?V?$AAz?$AAe?$AAl?$AAl?$AAi?$AAk@ 0000000140033f30     AdQueryTool.obj
 0002:0000cf40       ??_C@_1M@BKGCKEOG@?$AAD?$AAe?$AB?$BP?$AAe?$AAr@ 0000000140033f40     AdQueryTool.obj
 0002:0000cf50       ??_C@_1CK@FMEDNCOA@?$AA?$NM?$AAy?$AAe?$AAs?$AAi?$AA?5?$AAo?$AAl?$AAd?$AAu?$AB?$BP?$AAu?$AA?5?$AAg?$AAr?$AAu@ 0000000140033f50     AdQueryTool.obj
 0002:0000cf80       ??_C@_1O@DAKPAEDB@?$AA?$NM?$AAy?$AAe?$AAl?$AAe?$AAr@ 0000000140033f80     AdQueryTool.obj
 0002:0000cf90       ??_C@_15DEJJBEOA@?$AA?5?$AA?7@ 0000000140033f90     AdQueryTool.obj
 0002:0000cf98       ??_C@_1DM@BIOCFCBC@?$AAL?$AA?$PM?$AAt?$AAf?$AAe?$AAn?$AA?5?$AAa?$AAr?$AAa?$AAn?$AAa?$AAc?$AAa?$AAk?$AA?5@ 0000000140033f98     AdQueryTool.obj
 0002:0000cfd8       ??_C@_1CE@MCGPIIOB@?$AAA?$AAD?$AA?5?$AAS?$AAo?$AAr?$AAg?$AAu?$AAs?$AAu?$AA?5?5?$BE?$AA?5?$AAH?$AAa?$AAt@ 0000000140033fd8     AdQueryTool.obj
 0002:0000cffc       ??_C@_15JNBOKNOG@?$AA?$AN?$AA?6@ 0000000140033ffc     AdQueryTool.obj
 0002:0000d004       ??_C@_15ELOONFKJ@?$AA?3?$AA?5@ 0000000140034004     AdQueryTool.obj
 0002:0000d010       ??_C@_1BO@MAKBOOMM@?$AAD?$AAe?$AB?$BP?$AAe?$AAr?$AAi?$AA?5?$AAk?$AAo?$AAp?$AAy?$AAa?$AAl?$AAa@ 0000000140034010     AdQueryTool.obj
 0002:0000d030       ??_C@_1BO@HOIHKEIA@?$AAS?$AAa?$AAt?$AB1?$AAr?$AB1?$AA?5?$AAk?$AAo?$AAp?$AAy?$AAa?$AAl?$AAa@ 0000000140034030     AdQueryTool.obj
 0002:0000d050       ??_C@_1BA@HDFDICPG@?$AAK?$AAo?$AAp?$AAy?$AAa?$AAl?$AAa@ 0000000140034050     AdQueryTool.obj
 0002:0000d068       ??_7AdQueryView@ith@@6B@   0000000140034068     AdQueryTool.obj
 0002:0000d088       __real@5f000000            0000000140034088     Shell.obj
 0002:0000d090       __xmm@ffffffffffff0002ffffffffffff0000 0000000140034090     Shell.obj
 0002:0000d0a0       _load_config_used          00000001400340a0     LIBCMT:loadcfg.obj
 0002:0000d380       ??_R4bad_function_call@std@@6B@ 0000000140034380     libcpmt:xthrow.obj
 0002:0000d3a8       ??_R3bad_function_call@std@@8 00000001400343a8     libcpmt:xthrow.obj
 0002:0000d3c0       ??_R2bad_function_call@std@@8 00000001400343c0     libcpmt:xthrow.obj
 0002:0000d3d8       ??_R1A@?0A@EA@bad_function_call@std@@8 00000001400343d8     libcpmt:xthrow.obj
 0002:0000d400       ??_R4logic_error@std@@6B@  0000000140034400     libcpmt:xthrow.obj
 0002:0000d428       ??_R3logic_error@std@@8    0000000140034428     libcpmt:xthrow.obj
 0002:0000d440       ??_R2logic_error@std@@8    0000000140034440     libcpmt:xthrow.obj
 0002:0000d458       ??_R1A@?0A@EA@logic_error@std@@8 0000000140034458     libcpmt:xthrow.obj
 0002:0000d480       ??_R4length_error@std@@6B@ 0000000140034480     libcpmt:xthrow.obj
 0002:0000d4a8       ??_R3length_error@std@@8   00000001400344a8     libcpmt:xthrow.obj
 0002:0000d4c0       ??_R2length_error@std@@8   00000001400344c0     libcpmt:xthrow.obj
 0002:0000d4e0       ??_R1A@?0A@EA@length_error@std@@8 00000001400344e0     libcpmt:xthrow.obj
 0002:0000d508       ??_R4out_of_range@std@@6B@ 0000000140034508     libcpmt:xthrow.obj
 0002:0000d530       ??_R3out_of_range@std@@8   0000000140034530     libcpmt:xthrow.obj
 0002:0000d548       ??_R2out_of_range@std@@8   0000000140034548     libcpmt:xthrow.obj
 0002:0000d568       ??_R1A@?0A@EA@out_of_range@std@@8 0000000140034568     libcpmt:xthrow.obj
 0002:0000d590       ??_R4runtime_error@std@@6B@ 0000000140034590     libcpmt:xthrow.obj
 0002:0000d5b8       ??_R3runtime_error@std@@8  00000001400345b8     libcpmt:xthrow.obj
 0002:0000d5d0       ??_R2runtime_error@std@@8  00000001400345d0     libcpmt:xthrow.obj
 0002:0000d5e8       ??_R1A@?0A@EA@runtime_error@std@@8 00000001400345e8     libcpmt:xthrow.obj
 0002:0000d610       ??_R3error_category@std@@8 0000000140034610     libcpmt:thread0.obj
 0002:0000d628       ??_R2error_category@std@@8 0000000140034628     libcpmt:thread0.obj
 0002:0000d638       ??_R1A@?0A@EA@error_category@std@@8 0000000140034638     libcpmt:thread0.obj
 0002:0000d660       ??_R4_System_error@std@@6B@ 0000000140034660     libcpmt:thread0.obj
 0002:0000d688       ??_R3_System_error@std@@8  0000000140034688     libcpmt:thread0.obj
 0002:0000d6a0       ??_R2_System_error@std@@8  00000001400346a0     libcpmt:thread0.obj
 0002:0000d6c0       ??_R1A@?0A@EA@_System_error@std@@8 00000001400346c0     libcpmt:thread0.obj
 0002:0000d6e8       ??_R4system_error@std@@6B@ 00000001400346e8     libcpmt:thread0.obj
 0002:0000d710       ??_R3system_error@std@@8   0000000140034710     libcpmt:thread0.obj
 0002:0000d728       ??_R2system_error@std@@8   0000000140034728     libcpmt:thread0.obj
 0002:0000d750       ??_R1A@?0A@EA@system_error@std@@8 0000000140034750     libcpmt:thread0.obj
 0002:0000d778       ??_R4_Generic_error_category@std@@6B@ 0000000140034778     libcpmt:thread0.obj
 0002:0000d7a0       ??_R3_Generic_error_category@std@@8 00000001400347a0     libcpmt:thread0.obj
 0002:0000d7b8       ??_R2_Generic_error_category@std@@8 00000001400347b8     libcpmt:thread0.obj
 0002:0000d7d0       ??_R1A@?0A@EA@_Generic_error_category@std@@8 00000001400347d0     libcpmt:thread0.obj
 0002:0000d7f8       ??_R4type_info@@6B@        00000001400347f8     LIBCMT:std_type_info_static.obj
 0002:0000d820       ??_R3type_info@@8          0000000140034820     LIBCMT:std_type_info_static.obj
 0002:0000d838       ??_R2type_info@@8          0000000140034838     LIBCMT:std_type_info_static.obj
 0002:0000d848       ??_R1A@?0A@EA@type_info@@8 0000000140034848     LIBCMT:std_type_info_static.obj
 0002:0000d870       ??_R4bad_exception@std@@6B@ 0000000140034870     libvcruntime:frame.obj
 0002:0000d898       ??_R3bad_exception@std@@8  0000000140034898     libvcruntime:frame.obj
 0002:0000d8b0       ??_R2bad_exception@std@@8  00000001400348b0     libvcruntime:frame.obj
 0002:0000d8c8       ??_R1A@?0A@EA@bad_exception@std@@8 00000001400348c8     libvcruntime:frame.obj
 0002:0000d8f0       ??_R4exception@std@@6B@    00000001400348f0     Shell.obj
 0002:0000d918       ??_R2bad_array_new_length@std@@8 0000000140034918     Shell.obj
 0002:0000d938       ??_R2bad_alloc@std@@8      0000000140034938     Shell.obj
 0002:0000d950       ??_R2AdQueryTool@ith@@8    0000000140034950     Shell.obj
 0002:0000d968       ??_R3AdQueryTool@ith@@8    0000000140034968     Shell.obj
 0002:0000d980       ??_R1A@?0A@EA@exception@std@@8 0000000140034980     Shell.obj
 0002:0000d9a8       ??_R1A@?0A@EA@bad_alloc@std@@8 00000001400349a8     Shell.obj
 0002:0000d9d0       ??_R2exception@std@@8      00000001400349d0     Shell.obj
 0002:0000d9e0       ??_R2ITool@ith@@8          00000001400349e0     Shell.obj
 0002:0000d9f0       ??_R3exception@std@@8      00000001400349f0     Shell.obj
 0002:0000da08       ??_R1A@?0A@EA@ITool@ith@@8 0000000140034a08     Shell.obj
 0002:0000da30       ??_R4bad_alloc@std@@6B@    0000000140034a30     Shell.obj
 0002:0000da58       ??_R3bad_array_new_length@std@@8 0000000140034a58     Shell.obj
 0002:0000da70       ??_R3bad_alloc@std@@8      0000000140034a70     Shell.obj
 0002:0000da88       ??_R4bad_array_new_length@std@@6B@ 0000000140034a88     Shell.obj
 0002:0000dab0       ??_R1A@?0A@EA@AdQueryTool@ith@@8 0000000140034ab0     Shell.obj
 0002:0000dad8       ??_R4AdQueryTool@ith@@6B@  0000000140034ad8     Shell.obj
 0002:0000db00       ??_R1A@?0A@EA@bad_array_new_length@std@@8 0000000140034b00     Shell.obj
 0002:0000db28       ??_R3ITool@ith@@8          0000000140034b28     Shell.obj
 0002:0000db58       ??_R3?$_Func_base@XPEAX@std@@8 0000000140034b58     AdQuery.obj
 0002:0000db70       ??_R1A@?0A@EA@?$_Func_base@XPEAX@std@@8 0000000140034b70     AdQuery.obj
 0002:0000dbf0       ??_R2?$_Func_base@XPEAX@std@@8 0000000140034bf0     AdQuery.obj
 0002:0000dc90       ??_R2AdQueryView@ith@@8    0000000140034c90     AdQueryTool.obj
 0002:0000dca8       ??_R1A@?0A@EA@AdQueryView@ith@@8 0000000140034ca8     AdQueryTool.obj
 0002:0000dcd0       ??_R1A@?0A@EA@ToolView@ith@@8 0000000140034cd0     AdQueryTool.obj
 0002:0000dcf8       ??_R4AdQueryView@ith@@6B@  0000000140034cf8     AdQueryTool.obj
 0002:0000dd20       ??_R3AdQueryView@ith@@8    0000000140034d20     AdQueryTool.obj
 0002:0000dd38       ??_R2ToolView@ith@@8       0000000140034d38     AdQueryTool.obj
 0002:0000dd48       ??_R3ToolView@ith@@8       0000000140034d48     AdQueryTool.obj
 0002:0000dd5c       __volatile_metadata        0000000140034d5c     <linker-defined>
 0002:0000e1b8       __rtc_iaa                  00000001400351b8     LIBCMT:initsect.obj
 0002:0000e1c0       __rtc_izz                  00000001400351c0     LIBCMT:initsect.obj
 0002:0000e1c8       __rtc_taa                  00000001400351c8     LIBCMT:initsect.obj
 0002:0000e1d0       __rtc_tzz                  00000001400351d0     LIBCMT:initsect.obj
 0002:000106d0       _CT??_R0?AVruntime_error@std@@@8??0runtime_error@std@@QEAA@AEBV01@@Z24 00000001400376d0     libcpmt:xthrow.obj
 0002:000106f8       _TI2?AVbad_alloc@std@@     00000001400376f8     libcpmt:xthrow.obj
 0002:00010718       _CTA2?AVbad_alloc@std@@    0000000140037718     libcpmt:xthrow.obj
 0002:00010730       _CT??_R0?AVlogic_error@std@@@8??0logic_error@std@@QEAA@AEBV01@@Z24 0000000140037730     libcpmt:xthrow.obj
 0002:00010758       _TI3?AVlength_error@std@@  0000000140037758     libcpmt:xthrow.obj
 0002:00010778       _CTA3?AVlength_error@std@@ 0000000140037778     libcpmt:xthrow.obj
 0002:00010798       _CT??_R0?AVlength_error@std@@@8??0length_error@std@@QEAA@AEBV01@@Z24 0000000140037798     libcpmt:xthrow.obj
 0002:000107c0       _TI3?AVout_of_range@std@@  00000001400377c0     libcpmt:xthrow.obj
 0002:000107e0       _CTA3?AVout_of_range@std@@ 00000001400377e0     libcpmt:xthrow.obj
 0002:00010800       _CT??_R0?AVout_of_range@std@@@8??0out_of_range@std@@QEAA@AEBV01@@Z24 0000000140037800     libcpmt:xthrow.obj
 0002:00010828       _TI2?AVbad_function_call@std@@ 0000000140037828     libcpmt:xthrow.obj
 0002:00010848       _CTA2?AVbad_function_call@std@@ 0000000140037848     libcpmt:xthrow.obj
 0002:00010860       _CT??_R0?AVbad_function_call@std@@@8??0bad_function_call@std@@QEAA@AEBV01@@Z24 0000000140037860     libcpmt:xthrow.obj
 0002:00010888       _TI4?AVsystem_error@std@@  0000000140037888     libcpmt:thread0.obj
 0002:000108a8       _CTA4?AVsystem_error@std@@ 00000001400378a8     libcpmt:thread0.obj
 0002:000108d0       _CT??_R0?AVsystem_error@std@@@8??0system_error@std@@QEAA@AEBV01@@Z40 00000001400378d0     libcpmt:thread0.obj
 0002:000108f8       _CT??_R0?AV_System_error@std@@@8??0_System_error@std@@QEAA@AEBV01@@Z40 00000001400378f8     libcpmt:thread0.obj
 0002:00010920       _TI2?AVbad_exception@std@@ 0000000140037920     libvcruntime:frame.obj
 0002:00010940       _CTA2?AVbad_exception@std@@ 0000000140037940     libvcruntime:frame.obj
 0002:00010958       _CT??_R0?AVbad_exception@std@@@8??0bad_exception@std@@QEAA@AEBV01@@Z24 0000000140037958     libvcruntime:frame.obj
 0002:00010980       _CTA3?AVbad_array_new_length@std@@ 0000000140037980     Shell.obj
 0002:000109a0       _CT??_R0?AVbad_array_new_length@std@@@8??0bad_array_new_length@std@@QEAA@AEBV01@@Z24 00000001400379a0     Shell.obj
 0002:000109c8       _CT??_R0?AVbad_alloc@std@@@8??0bad_alloc@std@@QEAA@AEBV01@@Z24 00000001400379c8     Shell.obj
 0002:000109f0       _CT??_R0?AVexception@std@@@8??0exception@std@@QEAA@AEBV01@@Z24 00000001400379f0     Shell.obj
 0002:00010a18       _TI3?AVbad_array_new_length@std@@ 0000000140037a18     Shell.obj
 0002:00010a34       __IMPORT_DESCRIPTOR_ACTIVEDS 0000000140037a34     activeds:ACTIVEDS.dll
 0002:00010a48       __IMPORT_DESCRIPTOR_COMCTL32 0000000140037a48     comctl32:COMCTL32.dll
 0002:00010a5c       __IMPORT_DESCRIPTOR_ole32  0000000140037a5c     ole32:ole32.dll
 0002:00010a70       __IMPORT_DESCRIPTOR_OLEAUT32 0000000140037a70     oleaut32:OLEAUT32.dll
 0002:00010a84       __IMPORT_DESCRIPTOR_USER32 0000000140037a84     user32:USER32.dll
 0002:00010a98       __IMPORT_DESCRIPTOR_GDI32  0000000140037a98     gdi32:GDI32.dll
 0002:00010aac       __IMPORT_DESCRIPTOR_KERNEL32 0000000140037aac     kernel32:KERNEL32.dll
 0002:00010ac0       __NULL_IMPORT_DESCRIPTOR   0000000140037ac0     activeds:ACTIVEDS.dll
 0003:00000000       ?_Static@?1???$_Immortalize_memcpy_image@V_Generic_error_category@std@@@std@@YAAEBV_Generic_error_category@1@XZ@4V21@B 0000000140039000     libcpmt:thread0.obj
 0003:00000060       __isa_available            0000000140039060     LIBCMT:cpu_disp.obj
 0003:00000064       __isa_enabled              0000000140039064     LIBCMT:cpu_disp.obj
 0003:00000068       __memset_fast_string_threshold 0000000140039068     LIBCMT:cpu_disp.obj
 0003:00000070       __memset_nt_threshold      0000000140039070     LIBCMT:cpu_disp.obj
 0003:00000078       __isa_inverted             0000000140039078     LIBCMT:cpu_disp.obj
 0003:00000080       __security_cookie          0000000140039080     LIBCMT:gs_cookie.obj
 0003:000000c0       __security_cookie_complement 00000001400390c0     LIBCMT:gs_cookie.obj
 0003:000000c8       _fltused                   00000001400390c8     LIBCMT:fltused.obj
 0003:000000cc       __scrt_native_dllmain_reason 00000001400390cc     LIBCMT:utility.obj
 0003:000000d0       __scrt_default_matherr     00000001400390d0     LIBCMT:matherr.obj
 0003:000000f0       __abort_behavior           00000001400390f0     libucrt:abort.obj
 0003:00000100       _iob                       0000000140039100     libucrt:_file.obj
 0003:00000220       __acrt_initial_locale_data 0000000140039220     libucrt:nlsdata.obj
 0003:00000378       __acrt_initial_locale_pointers 0000000140039378     libucrt:nlsdata.obj
 0003:00000388       __acrt_wide_c_locale_string 0000000140039388     libucrt:nlsdata.obj
 0003:00000390       __acrt_initial_multibyte_data 0000000140039390     libucrt:mbctype.obj
 0003:000008d0       __acrt_lconv_c             00000001400398d0     libucrt:localeconv.obj
 0003:00000968       __acrt_lconv_static_decimal 0000000140039968     libucrt:localeconv.obj
 0003:0000096c       __acrt_lconv_static_W_decimal 000000014003996c     libucrt:localeconv.obj
 0003:00000970       __globallocalestatus       0000000140039970     libucrt:glstatus.obj
 0003:00000980       _lookuptrailbytes          0000000140039980     libucrt:read.obj
 0003:00000a80       _guard_check_icall_$fo_default$ 0000000140039a80     libucrt:checkcfg.obj
 0003:00000ac0       ??_R0?AVruntime_error@std@@@8 0000000140039ac0     libcpmt:xthrow.obj
 0003:00000ae8       ??_R0?AVlogic_error@std@@@8 0000000140039ae8     libcpmt:xthrow.obj
 0003:00000b10       ??_R0?AVlength_error@std@@@8 0000000140039b10     libcpmt:xthrow.obj
 0003:00000b38       ??_R0?AVout_of_range@std@@@8 0000000140039b38     libcpmt:xthrow.obj
 0003:00000b60       ??_R0?AVbad_function_call@std@@@8 0000000140039b60     libcpmt:xthrow.obj
 0003:00000b90       ??_R0?AVsystem_error@std@@@8 0000000140039b90     libcpmt:thread0.obj
 0003:00000bb8       ??_R0?AV_System_error@std@@@8 0000000140039bb8     libcpmt:thread0.obj
 0003:00000be0       ??_R0?AVbad_exception@std@@@8 0000000140039be0     libvcruntime:frame.obj
 0003:00000c08       ??_R0?AVbad_alloc@std@@@8  0000000140039c08     Shell.obj
 0003:00000c30       ??_R0?AVexception@std@@@8  0000000140039c30     Shell.obj
 0003:00000c58       ??_R0?AVbad_array_new_length@std@@@8 0000000140039c58     Shell.obj
 0003:00000e20       ??_R0?AVerror_category@std@@@8 0000000140039e20     libcpmt:thread0.obj
 0003:00000e50       ??_R0?AV_Generic_error_category@std@@@8 0000000140039e50     libcpmt:thread0.obj
 0003:00000e88       ??_R0?AVtype_info@@@8      0000000140039e88     LIBCMT:std_type_info_static.obj
 0003:00000ea8       ??_R0?AVITool@ith@@@8      0000000140039ea8     Shell.obj
 0003:00000ec8       ??_R0?AVAdQueryTool@ith@@@8 0000000140039ec8     Shell.obj
 0003:00000ff8       ??_R0?AV?$_Func_base@XPEAX@std@@@8 0000000140039ff8     AdQuery.obj
 0003:000010f0       ??_R0?AVAdQueryView@ith@@@8 000000014003a0f0     AdQueryTool.obj
 0003:00001118       ??_R0?AVToolView@ith@@@8   000000014003a118     AdQueryTool.obj
 0003:00001470       __favor                    000000014003a470     LIBCMT:cpu_disp.obj
 0003:00001474       __avx10_version            000000014003a474     LIBCMT:cpu_disp.obj
 0003:00001478       __scrt_current_native_startup_state 000000014003a478     LIBCMT:utility.obj
 0003:00001480       __scrt_native_startup_lock 000000014003a480     LIBCMT:utility.obj
 0003:000014c0       ?__type_info_root_node@@3U__type_info_node@@A 000000014003a4c0     LIBCMT:tncleanup.obj
 0003:000014d0       ?_OptionsStorage@?1??__local_stdio_scanf_options@@9@4_KA 000000014003a4d0     LIBCMT:default_local_stdio_options.obj
 0003:000014d8       __scrt_debugger_hook_flag  000000014003a4d8     LIBCMT:utility_desktop.obj
 0003:000014e0       ?__WinRTOutOfMemoryExceptionCallback@@3P6APEAXXZEA 000000014003a4e0     libvcruntime:ehhelpers.obj
 0003:00001570       __pPurecall                000000014003a570     libvcruntime:purevirt_data.obj
 0003:000015a8       _nstream                   000000014003a5a8     libucrt:_file.obj
 0003:000015b0       __piob                     000000014003a5b0     libucrt:_file.obj
 0003:000017e0       _environ_table             000000014003a7e0     libucrt:environment_initialization.obj
 0003:000017e8       _wenviron_table            000000014003a7e8     libucrt:environment_initialization.obj
 0003:000017f0       __dcrt_initial_wide_environment 000000014003a7f0     libucrt:environment_initialization.obj
 0003:000017f8       __dcrt_initial_narrow_environment 000000014003a7f8     libucrt:environment_initialization.obj
 0003:00001814       __acrt_locale_changed_data 000000014003a814     libucrt:wsetlocale.obj
 0003:0000181c       _commode                   000000014003a81c     libucrt:ncommode.obj
 0003:00001820       __acrt_atexit_table        000000014003a820     libucrt:onexit.obj
 0003:00001838       __acrt_at_quick_exit_table 000000014003a838     libucrt:onexit.obj
 0003:00001870       __acrt_stdout_buffer       000000014003a870     libucrt:_sftbuf.obj
 0003:00001878       __acrt_stderr_buffer       000000014003a878     libucrt:_sftbuf.obj
 0003:00001880       ?__acrt_use_tls2_apis@@3_NA 000000014003a880     libucrt:per_thread_data.obj
 0003:00001888       __acrt_current_locale_data 000000014003a888     libucrt:nlsdata.obj
 0003:00001890       __pioinfo                  000000014003a890     libucrt:ioinit.obj
 0003:00001c90       _nhandle                   000000014003ac90     libucrt:ioinit.obj
 0003:00001fe0       _mbctype                   000000014003afe0     libucrt:mbctype.obj
 0003:00001fe8       _mbcasemap                 000000014003afe8     libucrt:mbctype.obj
 0003:00001ff0       __acrt_current_multibyte_data 000000014003aff0     libucrt:mbctype.obj
 0003:00002000       _wpgmptr                   000000014003b000     libucrt:argv_data.obj
 0003:00002008       __argc                     000000014003b008     libucrt:argv_data.obj
 0003:00002010       __argv                     000000014003b010     libucrt:argv_data.obj
 0003:00002018       __wargv                    000000014003b018     libucrt:argv_data.obj
 0003:00002020       _acmdln                    000000014003b020     libucrt:argv_data.obj
 0003:00002028       _wcmdln                    000000014003b028     libucrt:argv_data.obj
 0003:00002030       _fmode                     000000014003b030     libucrt:txtmode.obj
 0003:00002034       __acrt_lconv_static_null   000000014003b034     libucrt:localeconv.obj
 0003:00002038       __acrt_lconv_static_W_null 000000014003b038     libucrt:localeconv.obj
 0003:00002040       __acrt_heap                000000014003b040     libucrt:heap_handle.obj
 0003:00002048       __use_fma3_lib             000000014003b048     libucrt:fma3_available.obj
 0003:0000204c       __fma3_is_available        000000014003b04c     libucrt:fma3_available.obj
 0003:00002050       _Avx2WmemEnabled           000000014003b050     * CIL library *:* CIL module *
 0003:00002050       _Avx2WmemEnabledWeakValue  000000014003b050     main.obj
 0003:00002058       ?_OptionsStorage@?1??__local_stdio_printf_options@@9@4_KA 000000014003b058     main.obj
 0003:00002070       __scrt_ucrt_dll_is_in_use  000000014003b070     <common>
 0003:00002078       __dyn_tls_dtor_callback    000000014003b078     <common>
 0003:00002080       __dyn_tls_init_callback    000000014003b080     <common>

 entry point at        0001:0000f270

 Static symbols

 0001:00000060       ?TopLevelFilter@@YAJPEAU_EXCEPTION_POINTERS@@@Z 0000000140001060 f   main.obj
 0001:00002dcc       ?ValOr@?A0x1f6e8d05@ith@@YA?AV?$basic_string@_WU?$char_traits@_W@std@@V?$allocator@_W@2@@std@@AEBV?$optional@V?$basic_string@_WU?$char_traits@_W@std@@V?$allocator@_W@2@@std@@@4@@Z 0000000140003dcc f   AdQuery.obj
 0001:00002e20       ?HrMessage@?A0x1f6e8d05@ith@@YA?AV?$basic_string@_WU?$char_traits@_W@std@@V?$allocator@_W@2@@std@@J@Z 0000000140003e20 f   AdQuery.obj
 0001:00003038       ?ColStr@?A0x1f6e8d05@ith@@YA?AV?$optional@V?$basic_string@_WU?$char_traits@_W@std@@V?$allocator@_W@2@@std@@@std@@PEAUIDirectorySearch@@PEAXPEB_W@Z 0000000140004038 f   AdQuery.obj
 0001:000031a8       ?ColInt@?A0x1f6e8d05@ith@@YA?AV?$optional@I@std@@PEAUIDirectorySearch@@PEAXPEB_W@Z 00000001400041a8 f   AdQuery.obj
 0001:00003258       ?ColMultiStr@?A0x1f6e8d05@ith@@YA?AV?$vector@V?$basic_string@_WU?$char_traits@_W@std@@V?$allocator@_W@2@@std@@V?$allocator@V?$basic_string@_WU?$char_traits@_W@std@@V?$allocator@_W@2@@std@@@2@@std@@PEAUIDirectorySearch@@PEAXPEB_W@Z 0000000140004258 f   AdQuery.obj
 0001:00003328       ?ForEachRow@?A0x1f6e8d05@ith@@YAXPEAUIDirectorySearch@@AEBV?$basic_string@_WU?$char_traits@_W@std@@V?$allocator@_W@2@@std@@AEBV?$vector@PEB_WV?$allocator@PEB_W@std@@@5@AEBV?$function@$$A6AXPEAX@Z@5@@Z 0000000140004328 f   AdQuery.obj
 0001:00003674       ?DetectType@?A0x1f6e8d05@ith@@YA?AW4ObjectType@2@AEBV?$vector@V?$basic_string@_WU?$char_traits@_W@std@@V?$allocator@_W@2@@std@@V?$allocator@V?$basic_string@_WU?$char_traits@_W@std@@V?$allocator@_W@2@@std@@@2@@std@@@Z 0000000140004674 f   AdQuery.obj
 0001:00003734       ?CollectNames@?A0x1f6e8d05@ith@@YA?AV?$vector@UNamedEntry@ith@@V?$allocator@UNamedEntry@ith@@@std@@@std@@PEAUIDirectorySearch@@AEBV?$basic_string@_WU?$char_traits@_W@std@@V?$allocator@_W@2@@4@@Z 0000000140004734 f   AdQuery.obj
 0001:00003884       ?GroupScope@?A0x1f6e8d05@ith@@YA?AV?$basic_string@_WU?$char_traits@_W@std@@V?$allocator@_W@2@@std@@I@Z 0000000140004884 f   AdQuery.obj
 0001:000068b4       ??$?0AEAV<lambda_1>@?1??RunAdQuery@ith@@YA?AV?$unique_ptr@UAdResult@ith@@U?$default_delete@UAdResult@ith@@@std@@@std@@AEBUAdQueryRequest@2@@Z@$0A@@?$function@$$A6AXPEAX@Z@std@@QEAA@AEAV<lambda_1>@?1??RunAdQuery@ith@@YA?AV?$unique_ptr@UAdResult@ith@@U?$default_delete@UAdResult@ith@@@std@@@1@AEBUAdQueryRequest@4@@Z@@Z 00000001400078b4 f   AdQuery.obj
 0001:00007388       ??$_Sort_unchecked@PEAUNamedEntry@ith@@V<lambda_2>@?BM@??RunAdQuery@2@YA?AV?$unique_ptr@UAdResult@ith@@U?$default_delete@UAdResult@ith@@@std@@@std@@AEBUAdQueryRequest@2@@Z@@std@@YAXPEAUNamedEntry@ith@@0_JV<lambda_2>@?BM@??RunAdQuery@2@YA?AV?$unique_ptr@UAdResult@ith@@U?$default_delete@UAdResult@ith@@@std@@@0@AEBUAdQueryRequest@2@@Z@@Z 0000000140008388 f   AdQuery.obj
 0001:00007388       ??$_Sort_unchecked@PEAUNamedEntry@ith@@V<lambda_3>@?CI@??RunAdQuery@2@YA?AV?$unique_ptr@UAdResult@ith@@U?$default_delete@UAdResult@ith@@@std@@@std@@AEBUAdQueryRequest@2@@Z@@std@@YAXPEAUNamedEntry@ith@@0_JV<lambda_3>@?CI@??RunAdQuery@2@YA?AV?$unique_ptr@UAdResult@ith@@U?$default_delete@UAdResult@ith@@@std@@@0@AEBUAdQueryRequest@2@@Z@@Z 0000000140008388 f   AdQuery.obj
 0001:0000821c       ?_Delete_this@?$_Func_impl_no_alloc@V<lambda_1>@?1??RunAdQuery@ith@@YA?AV?$unique_ptr@UAdResult@ith@@U?$default_delete@UAdResult@ith@@@std@@@std@@AEBUAdQueryRequest@3@@Z@XPEAX@std@@EEAAX_N@Z 000000014000921c f   AdQuery.obj
 0001:00008234       ?_Get@?$_Func_impl_no_alloc@V<lambda_1>@?1??CollectNames@?A0x1f6e8d05@ith@@YA?AV?$vector@UNamedEntry@ith@@V?$allocator@UNamedEntry@ith@@@std@@@std@@PEAUIDirectorySearch@@AEBV?$basic_string@_WU?$char_traits@_W@std@@V?$allocator@_W@2@@6@@Z@XPEAX@std@@EEBAPEBXXZ 0000000140009234 f   AdQuery.obj
 0001:00008234       ?_Get@?$_Func_impl_no_alloc@V<lambda_1>@?1??RunAdQuery@ith@@YA?AV?$unique_ptr@UAdResult@ith@@U?$default_delete@UAdResult@ith@@@std@@@std@@AEBUAdQueryRequest@3@@Z@XPEAX@std@@EEBAPEBXXZ 0000000140009234 f   AdQuery.obj
 0001:0000823c       ?_Target_type@?$_Func_impl_no_alloc@V<lambda_1>@?1??RunAdQuery@ith@@YA?AV?$unique_ptr@UAdResult@ith@@U?$default_delete@UAdResult@ith@@@std@@@std@@AEBUAdQueryRequest@3@@Z@XPEAX@std@@EEBAAEBVtype_info@@XZ 000000014000923c f   AdQuery.obj
 0001:00008244       ?_Do_call@?$_Func_impl_no_alloc@V<lambda_1>@?1??RunAdQuery@ith@@YA?AV?$unique_ptr@UAdResult@ith@@U?$default_delete@UAdResult@ith@@@std@@@std@@AEBUAdQueryRequest@3@@Z@XPEAX@std@@EEAAX$$QEAPEAX@Z 0000000140009244 f   AdQuery.obj
 0001:00008b00       ?_Move@?$_Func_impl_no_alloc@V<lambda_1>@?1??RunAdQuery@ith@@YA?AV?$unique_ptr@UAdResult@ith@@U?$default_delete@UAdResult@ith@@@std@@@std@@AEBUAdQueryRequest@3@@Z@XPEAX@std@@EEAAPEAV?$_Func_base@XPEAX@2@PEAX@Z 0000000140009b00 f   AdQuery.obj
 0001:00008b04       ?_Copy@?$_Func_impl_no_alloc@V<lambda_1>@?1??RunAdQuery@ith@@YA?AV?$unique_ptr@UAdResult@ith@@U?$default_delete@UAdResult@ith@@@std@@@std@@AEBUAdQueryRequest@3@@Z@XPEAX@std@@EEBAPEAV?$_Func_base@XPEAX@2@PEAX@Z 0000000140009b04 f   AdQuery.obj
 0001:00008b7c       ?_Delete_this@?$_Func_impl_no_alloc@V<lambda_1>@?1??CollectNames@?A0x1f6e8d05@ith@@YA?AV?$vector@UNamedEntry@ith@@V?$allocator@UNamedEntry@ith@@@std@@@std@@PEAUIDirectorySearch@@AEBV?$basic_string@_WU?$char_traits@_W@std@@V?$allocator@_W@2@@6@@Z@XPEAX@std@@EEAAX_N@Z 0000000140009b7c f   AdQuery.obj
 0001:00008b94       ?_Target_type@?$_Func_impl_no_alloc@V<lambda_1>@?1??CollectNames@?A0x1f6e8d05@ith@@YA?AV?$vector@UNamedEntry@ith@@V?$allocator@UNamedEntry@ith@@@std@@@std@@PEAUIDirectorySearch@@AEBV?$basic_string@_WU?$char_traits@_W@std@@V?$allocator@_W@2@@6@@Z@XPEAX@std@@EEBAAEBVtype_info@@XZ 0000000140009b94 f   AdQuery.obj
 0001:00008b9c       ?_Do_call@?$_Func_impl_no_alloc@V<lambda_1>@?1??CollectNames@?A0x1f6e8d05@ith@@YA?AV?$vector@UNamedEntry@ith@@V?$allocator@UNamedEntry@ith@@@std@@@std@@PEAUIDirectorySearch@@AEBV?$basic_string@_WU?$char_traits@_W@std@@V?$allocator@_W@2@@6@@Z@XPEAX@std@@EEAAX$$QEAPEAX@Z 0000000140009b9c f   AdQuery.obj
 0001:00008e48       ?_Copy@?$_Func_impl_no_alloc@V<lambda_1>@?1??CollectNames@?A0x1f6e8d05@ith@@YA?AV?$vector@UNamedEntry@ith@@V?$allocator@UNamedEntry@ith@@@std@@@std@@PEAUIDirectorySearch@@AEBV?$basic_string@_WU?$char_traits@_W@std@@V?$allocator@_W@2@@6@@Z@XPEAX@std@@EEBAPEAV?$_Func_base@XPEAX@2@PEAX@Z 0000000140009e48 f   AdQuery.obj
 0001:00008e48       ?_Move@?$_Func_impl_no_alloc@V<lambda_1>@?1??CollectNames@?A0x1f6e8d05@ith@@YA?AV?$vector@UNamedEntry@ith@@V?$allocator@UNamedEntry@ith@@@std@@@std@@PEAUIDirectorySearch@@AEBV?$basic_string@_WU?$char_traits@_W@std@@V?$allocator@_W@2@@6@@Z@XPEAX@std@@EEAAPEAV?$_Func_base@XPEAX@2@PEAX@Z 0000000140009e48 f   AdQuery.obj
 0001:00008f44       ??$_Pop_heap_hole_by_index@PEAUNamedEntry@ith@@U12@V<lambda_2>@?BM@??RunAdQuery@2@YA?AV?$unique_ptr@UAdResult@ith@@U?$default_delete@UAdResult@ith@@@std@@@std@@AEBUAdQueryRequest@2@@Z@@std@@YAXPEAUNamedEntry@ith@@_J1$$QEAU12@V<lambda_2>@?BM@??RunAdQuery@2@YA?AV?$unique_ptr@UAdResult@ith@@U?$default_delete@UAdResult@ith@@@std@@@0@AEBUAdQueryRequest@2@@Z@@Z 0000000140009f44 f   AdQuery.obj
 0001:00008f44       ??$_Pop_heap_hole_by_index@PEAUNamedEntry@ith@@U12@V<lambda_3>@?CI@??RunAdQuery@2@YA?AV?$unique_ptr@UAdResult@ith@@U?$default_delete@UAdResult@ith@@@std@@@std@@AEBUAdQueryRequest@2@@Z@@std@@YAXPEAUNamedEntry@ith@@_J1$$QEAU12@V<lambda_3>@?CI@??RunAdQuery@2@YA?AV?$unique_ptr@UAdResult@ith@@U?$default_delete@UAdResult@ith@@@std@@@0@AEBUAdQueryRequest@2@@Z@@Z 0000000140009f44 f   AdQuery.obj
 0001:000092fc       ??$_Med3_unchecked@PEAUNamedEntry@ith@@V<lambda_2>@?BM@??RunAdQuery@2@YA?AV?$unique_ptr@UAdResult@ith@@U?$default_delete@UAdResult@ith@@@std@@@std@@AEBUAdQueryRequest@2@@Z@@std@@YAXPEAUNamedEntry@ith@@00V<lambda_2>@?BM@??RunAdQuery@2@YA?AV?$unique_ptr@UAdResult@ith@@U?$default_delete@UAdResult@ith@@@std@@@0@AEBUAdQueryRequest@2@@Z@@Z 000000014000a2fc f   AdQuery.obj
 0001:000092fc       ??$_Med3_unchecked@PEAUNamedEntry@ith@@V<lambda_3>@?CI@??RunAdQuery@2@YA?AV?$unique_ptr@UAdResult@ith@@U?$default_delete@UAdResult@ith@@@std@@@std@@AEBUAdQueryRequest@2@@Z@@std@@YAXPEAUNamedEntry@ith@@00V<lambda_3>@?CI@??RunAdQuery@2@YA?AV?$unique_ptr@UAdResult@ith@@U?$default_delete@UAdResult@ith@@@std@@@0@AEBUAdQueryRequest@2@@Z@@Z 000000014000a2fc f   AdQuery.obj
 0001:00009638       ?WorkerFn@?A0xd1b81b73@ith@@YAXPEAUHWND__@@IUAdQueryRequest@2@@Z 000000014000a638 f   AdQueryTool.obj
 0001:000097e4       ?EditSubProc@?A0xd1b81b73@ith@@YA_JPEAUHWND__@@I_K_J11@Z 000000014000a7e4 f   AdQueryTool.obj
 0001:0000986c       ?ListSubProc@?A0xd1b81b73@ith@@YA_JPEAUHWND__@@I_K_J11@Z 000000014000a86c f   AdQueryTool.obj
 0001:000098d8       ?RootWndProc@ith@@YA_JPEAUHWND__@@I_K_J@Z 000000014000a8d8 f   AdQueryTool.obj
 0001:0000a3d0       ?ResultsWndProc@ith@@YA_JPEAUHWND__@@I_K_J@Z 000000014000b3d0 f   AdQueryTool.obj
 0001:0000ab44       ?MakeLabel@ith@@YAPEAUHWND__@@PEAU2@HPEB_WPEAUHFONT__@@@Z 000000014000bb44 f   AdQueryTool.obj
 0001:0000abb8       ?MakeListView@ith@@YAPEAUHWND__@@PEAU2@HPEAUHFONT__@@@Z 000000014000bbb8 f   AdQueryTool.obj
 0001:0000b034       ??R<lambda_1>@?1??LayoutResults@AdQueryView@ith@@AEAAXXZ@QEBA@PEAUHWND__@@0_K1_N@Z 000000014000c034 f   AdQueryTool.obj
 0001:0000b814       ??R<lambda_1>@?1??BeginSearch@AdQueryView@ith@@AEAAXXZ@QEBA@AEAV?$basic_string@_WU?$char_traits@_W@std@@V?$allocator@_W@2@@std@@@Z 000000014000c814 f   AdQueryTool.obj
 0001:0000bc48       ?GetLvText@ith@@YA?AV?$basic_string@_WU?$char_traits@_W@std@@V?$allocator@_W@2@@std@@PEAUHWND__@@HH@Z 000000014000cc48 f   AdQueryTool.obj
 0001:0000c7c4       ??1?$vector@USec@?1??LayoutResults@AdQueryView@ith@@AEAAXXZ@V?$allocator@USec@?1??LayoutResults@AdQueryView@ith@@AEAAXXZ@@std@@@std@@QEAA@XZ 000000014000d7c4 f   AdQueryTool.obj
 0001:0000cde0       ?_Xlength@?$vector@USec@?1??LayoutResults@AdQueryView@ith@@AEAAXXZ@V?$allocator@USec@?1??LayoutResults@AdQueryView@ith@@AEAAXXZ@@std@@@std@@CAXXZ 000000014000dde0 f   AdQueryTool.obj
 0001:0000d0c0       ??$_Can_fit_256_bits_sse@G@_Bitmap_impl@_Find_meow_of@?A0x8417fefe@@YA_NPEBG_K@Z 000000014000e0c0 f   libcpmt:vector_algorithms.obj
 0001:0000d120       ??$_Dispatch_pos@G$00@_Last_of@_Find_meow_of@?A0x8417fefe@@YA_KQEBX_K01@Z 000000014000e120 f   libcpmt:vector_algorithms.obj
 0001:0000d320       ??$_Dispatch_pos_sse_1_2@G$00@_First_of@_Find_meow_of@?A0x8417fefe@@YA_KQEBX_K01@Z 000000014000e320 f   libcpmt:vector_algorithms.obj
 0001:0000d4f0       ??$_Impl@G$00@_Last_of@_Find_meow_of@?A0x8417fefe@@YA_KQEBX_K01@Z 000000014000e4f0 f   libcpmt:vector_algorithms.obj
 0001:0000d770       ??$_Impl_first_avx@G$00@_Bitmap_impl@_Find_meow_of@?A0x8417fefe@@YA_KQEBX_K01@Z 000000014000e770 f   libcpmt:vector_algorithms.obj
 0001:0000d9e0       ??$_Impl_last_avx@G$00@_Bitmap_impl@_Find_meow_of@?A0x8417fefe@@YA_KQEBX_K0_K@Z 000000014000e9e0 f   libcpmt:vector_algorithms.obj
 0001:0000dc50       ??$_Impl_pcmpestri@G$00@_First_of@_Find_meow_of@?A0x8417fefe@@YAPEBXPEBX_KQEBX1@Z 000000014000ec50 f   libcpmt:vector_algorithms.obj
 0001:0000de90       ??$_Mismatch_impl@G@_Mismatching@?A0x8417fefe@@YA_KQEBX0_K@Z 000000014000ee90 f   libcpmt:vector_algorithms.obj
 0001:0000ef20       $$000000                   000000014000ff20     LIBCMT:amdsecgs.obj
 0001:0000eff0       ?_HandleError@_GsFailureOnError@?A0x71023ff6@@SAXXZ 000000014000fff0 f   LIBCMT:gshandler.obj
 0001:0000f000       ?pre_c_initialization@@YAHXZ 0000000140010000 f   LIBCMT:exe_wwinmain.obj
 0001:0000f0c0       ?post_pgo_initialization@@YAHXZ 00000001400100c0 f   LIBCMT:exe_wwinmain.obj
 0001:0000f0d0       ?pre_cpp_initialization@@YAXXZ 00000001400100d0 f   LIBCMT:exe_wwinmain.obj
 0001:0000f0f0       ?__scrt_common_main_seh@@YAHXZ 00000001400100f0 f   LIBCMT:exe_wwinmain.obj
 0001:0000f440       $LN95                      0000000140010440     LIBCMT:gshandler.obj
 0001:0000f454       $LN94                      0000000140010454     LIBCMT:gshandler.obj
 0001:0000fb30       initialize_environment     0000000140010b30 f   libucrt:initialization.obj
 0001:0000fb30       initialize_global_state_isolation 0000000140010b30 f   libucrt:initialization.obj
 0001:0000fb30       report_memory_leaks        0000000140010b30 f   libucrt:initialization.obj
 0001:0000fb30       uninitialize_c             0000000140010b30 f   libucrt:initialization.obj
 0001:0000fb30       uninitialize_global_state_isolation 0000000140010b30 f   libucrt:initialization.obj
 0001:00011790       ??$BuildCatchObjectHelperInternal@V__FrameHandler3@@@@YAHPEAUEHExceptionRecord@@PEAXPEBU_s_HandlerType@@PEBU_s_CatchableType@@@Z 0000000140012790 f   libvcruntime:frame.obj
 0001:00011970       ??$BuildCatchObjectHelperInternal@V__FrameHandler4@@@@YAHPEAUEHExceptionRecord@@PEAXPEAUHandlerType4@FH4@@PEBU_s_CatchableType@@@Z 0000000140012970 f   libvcruntime:frame.obj
 0001:00011b60       ??$BuildCatchObjectInternal@V__FrameHandler3@@@@YAXPEAUEHExceptionRecord@@PEAXPEBU_s_HandlerType@@PEBU_s_CatchableType@@@Z 0000000140012b60 f   libvcruntime:frame.obj
 0001:00011c20       ??$BuildCatchObjectInternal@V__FrameHandler4@@@@YAXPEAUEHExceptionRecord@@PEAXPEAUHandlerType4@FH4@@PEBU_s_CatchableType@@@Z 0000000140012c20 f   libvcruntime:frame.obj
 0001:00011ce0       ??$FindHandler@V__FrameHandler3@@@@YAXPEAUEHExceptionRecord@@PEA_KPEAU_CONTEXT@@PEAU_xDISPATCHER_CONTEXT@@PEBU_s_FuncInfo@@EH1@Z 0000000140012ce0 f   libvcruntime:frame.obj
 0001:00012290       ??$FindHandler@V__FrameHandler4@@@@YAXPEAUEHExceptionRecord@@PEA_KPEAU_CONTEXT@@PEAU_xDISPATCHER_CONTEXT@@PEAUFuncInfo4@FH4@@EH1@Z 0000000140013290 f   libvcruntime:frame.obj
 0001:00012840       ??$FindHandlerForForeignException@V__FrameHandler3@@@@YAXPEAUEHExceptionRecord@@PEA_KPEAU_CONTEXT@@PEAU_xDISPATCHER_CONTEXT@@PEBU_s_FuncInfo@@HH1@Z 0000000140013840 f   libvcruntime:frame.obj
 0001:00012aa0       ??$FindHandlerForForeignException@V__FrameHandler4@@@@YAXPEAUEHExceptionRecord@@PEA_KPEAU_CONTEXT@@PEAU_xDISPATCHER_CONTEXT@@PEAUFuncInfo4@FH4@@HH1@Z 0000000140013aa0 f   libvcruntime:frame.obj
 0001:00013cd0       ?ExFilterRethrow@@YAHPEAU_EXCEPTION_POINTERS@@PEAUEHExceptionRecord@@PEAH@Z 0000000140014cd0 f   libvcruntime:frame.obj
 0001:00013d60       ?ExFilterRethrowFH4@@YAHPEAU_EXCEPTION_POINTERS@@PEAUEHExceptionRecord@@HPEAH@Z 0000000140014d60 f   libvcruntime:frame.obj
 0001:000143d0       ?IsInExceptionSpec@@YAEPEAUEHExceptionRecord@@PEBU_s_ESTypeList@@@Z 00000001400153d0 f   libvcruntime:frame.obj
 0001:000144e0       ?Is_bad_exception_allowed@@YAEPEBU_s_ESTypeList@@@Z 00000001400154e0 f   libvcruntime:frame.obj
 0001:00014930       $$000000                   0000000140015930     libvcruntime:notify.obj
 0001:00014950       $$000000                   0000000140015950     libvcruntime:notify.obj
 0001:00014960       $$000000                   0000000140015960     libvcruntime:notify.obj
 0001:00014ad0       $$000000                   0000000140015ad0     libvcruntime:handlers.obj
 0001:00014b10       $$000000                   0000000140015b10     libvcruntime:handlers.obj
 0001:00014b40       $$000000                   0000000140015b40     libvcruntime:handlers.obj
 0001:00014b70       $$000000                   0000000140015b70     libvcruntime:handlers.obj
 0001:00017400       ceilf_soft                 0000000140018400 f   libucrt:ceilf.obj
 0001:000177d8       ??$thread_start@P6AIPEAX@Z$00@@YAKQEAX@Z 00000001400187d8 f   libucrt:thread.obj
 0001:00017840       ?common_end_thread@@YAXI@Z 0000000140018840 f   libucrt:thread.obj
 0001:000178a4       ?create_thread_parameter@@YAPEAU__acrt_thread_parameter@@QEAX0@Z 00000001400188a4 f   libucrt:thread.obj
 0001:00017f34       ??$parse_command_line@_W@@YAXPEA_WPEAPEA_W0PEA_K2@Z 0000000140018f34 f   libucrt:argv_parsing.obj
 0001:000182b4       ??$common_initialize_environment_nolock@_W@@YAHXZ 00000001400192b4 f   libucrt:environment_initialization.obj
 0001:00018324       ??$create_environment@_W@@YAQEAPEA_WQEA_W@Z 0000000140019324 f   libucrt:environment_initialization.obj
 0001:00018444       ??$free_environment@D@@YAXQEAPEAD@Z 0000000140019444 f   libucrt:environment_initialization.obj
 0001:00018444       ??$free_environment@_W@@YAXQEAPEA_W@Z 0000000140019444 f   libucrt:environment_initialization.obj
 0001:00018488       ??$uninitialize_environment_internal@D@@YAXAEAPEAPEAD@Z 0000000140019488 f   libucrt:environment_initialization.obj
 0001:000184a4       ??$uninitialize_environment_internal@_W@@YAXAEAPEAPEA_W@Z 00000001400194a4 f   libucrt:environment_initialization.obj
 0001:000185d4       ??$?RV<lambda_d80eeec6fff315bfe5c115232f3240e3>@@AEAV<lambda_6e4b09c48022b2350581041d5f6b0c4c>@@V<lambda_2358e3775559c9db80273638284d5e45>@@@?$__crt_seh_guarded_call@X@@QEAAX$$QEAV<lambda_d80eeec6fff315bfe5c115232f3240e3>@@AEAV<lambda_6e4b09c48022b2350581041d5f6b0c4c>@@$$QEAV<lambda_2358e3775559c9db80273638284d5e45>@@@Z 00000001400195d4 f   libucrt:exit.obj
 0001:0001860c       ??R<lambda_6e4b09c48022b2350581041d5f6b0c4c>@@QEBA@XZ 000000014001960c f   libucrt:exit.obj
 0001:000186cc       ?common_exit@@YAXHW4_crt_exit_cleanup_mode@@W4_crt_exit_return_mode@@@Z 00000001400196cc f   libucrt:exit.obj
 0001:000187b0       ?exit_or_terminate_process@@YAXI_N@Z 00000001400197b0 f   libucrt:exit.obj
 0001:000187e0       ?try_cor_exit_process@@YAXI@Z 00000001400197e0 f   libucrt:exit.obj
 0001:00018900       ??$?RV<lambda_410d79af7f07d98d83a3f525b3859a53>@@AEAV<lambda_3e16ef9562a7dcce91392c22ab16ea36>@@V<lambda_38119f0e861e05405d8a144b9b982f0a>@@@?$__crt_seh_guarded_call@X@@QEAAX$$QEAV<lambda_410d79af7f07d98d83a3f525b3859a53>@@AEAV<lambda_3e16ef9562a7dcce91392c22ab16ea36>@@$$QEAV<lambda_38119f0e861e05405d8a144b9b982f0a>@@@Z 0000000140019900 f   libucrt:wsetlocale.obj
 0001:00018a64       ??$?RV<lambda_638799b9deba96c50f710eeac98168cd>@@AEAV<lambda_22ebabd17bc4fa466a2aca6d8deb888d>@@V<lambda_a6f7d7db0129f75315ebf26d50c089f1>@@@?$__crt_seh_guarded_call@H@@QEAAH$$QEAV<lambda_638799b9deba96c50f710eeac98168cd>@@AEAV<lambda_22ebabd17bc4fa466a2aca6d8deb888d>@@$$QEAV<lambda_a6f7d7db0129f75315ebf26d50c089f1>@@@Z 0000000140019a64 f   libucrt:onexit.obj
 0001:00018aa0       ??$?RV<lambda_7777bce6b2f8c936911f934f8298dc43>@@AEAV<lambda_f03950bc5685219e0bcd2087efbe011e>@@V<lambda_3883c3dff614d5e0c5f61bb1ac94921c>@@@?$__crt_seh_guarded_call@H@@QEAAH$$QEAV<lambda_7777bce6b2f8c936911f934f8298dc43>@@AEAV<lambda_f03950bc5685219e0bcd2087efbe011e>@@$$QEAV<lambda_3883c3dff614d5e0c5f61bb1ac94921c>@@@Z 0000000140019aa0 f   libucrt:onexit.obj
 0001:00018adc       ??R<lambda_22ebabd17bc4fa466a2aca6d8deb888d>@@QEBA@XZ 0000000140019adc f   libucrt:onexit.obj
 0001:00018c8c       ??R<lambda_f03950bc5685219e0bcd2087efbe011e>@@QEBA@XZ 0000000140019c8c f   libucrt:onexit.obj
 0001:00018e68       initialize_global_variables 0000000140019e68 f   libucrt:initialization.obj
 0001:00018e7c       initialize_c               0000000140019e7c f   libucrt:initialization.obj
 0001:00018ea0       uninitialize_environment   0000000140019ea0 f   libucrt:initialization.obj
 0001:00018eb0       initialize_pointers        0000000140019eb0 f   libucrt:initialization.obj
 0001:00018ef0       uninitialize_vcruntime     0000000140019ef0 f   libucrt:initialization.obj
 0001:00018ef8       uninitialize_allocated_memory 0000000140019ef8 f   libucrt:initialization.obj
 0001:00018f38       uninitialize_allocated_io_buffers 0000000140019f38 f   libucrt:initialization.obj
 0001:00019600       ?select_heap@@YAPEAXQEAX@Z 000000014001a600 f   libucrt:free_base.obj
 0001:00019748       ?fp_format_a@@YAHQEBNPEAD_KQEAD2H_NIW4__acrt_rounding_mode@@AEAV__crt_cached_ptd_host@@@Z 000000014001a748 f   libucrt:cvt.obj
 0001:00019adc       ?fp_format_e@@YAHQEBNQEAD_K12H_NIW4__acrt_rounding_mode@@AEAV__crt_cached_ptd_host@@@Z 000000014001aadc f   libucrt:cvt.obj
 0001:00019be0       ?fp_format_e_internal@@YAHQEAD_KH_NIQEAU_strflt@@2AEAV__crt_cached_ptd_host@@@Z 000000014001abe0 f   libucrt:cvt.obj
 0001:00019dc4       ?fp_format_f@@YAHQEBNQEAD_K12HW4__acrt_rounding_mode@@AEAV__crt_cached_ptd_host@@@Z 000000014001adc4 f   libucrt:cvt.obj
 0001:00019e9c       ?fp_format_f_internal@@YAHQEAD_KHQEAU_strflt@@_NAEAV__crt_cached_ptd_host@@@Z 000000014001ae9c f   libucrt:cvt.obj
 0001:00019fec       ?fp_format_g@@YAHQEBNQEAD_K12H_NIW4__acrt_rounding_mode@@AEAV__crt_cached_ptd_host@@@Z 000000014001afec f   libucrt:cvt.obj
 0001:0001a140       ?should_round_up@@YA_NQEBN_KFW4__acrt_rounding_mode@@@Z 000000014001b140 f   libucrt:cvt.obj
 0001:0001aaf0       ??$?RV<lambda_0ae27a3a962d80f24befdcbee591983d>@@AEAV<lambda_8d0ee55de4b1038c4002e0adecdf1839>@@V<lambda_dc504788e8f1664fe9b84e20bfb512f2>@@@?$__crt_seh_guarded_call@X@@QEAAX$$QEAV<lambda_0ae27a3a962d80f24befdcbee591983d>@@AEAV<lambda_8d0ee55de4b1038c4002e0adecdf1839>@@$$QEAV<lambda_dc504788e8f1664fe9b84e20bfb512f2>@@@Z 000000014001baf0 f   libucrt:per_thread_data.obj
 0001:0001ab30       ??$?RV<lambda_2d41944a1d46af3157314b8a01080d33>@@AEAV<lambda_8f455de75cd7d7f24b4096f044d8b9e6>@@V<lambda_aa500f224e6afead328df44964fe2772>@@@?$__crt_seh_guarded_call@X@@QEAAX$$QEAV<lambda_2d41944a1d46af3157314b8a01080d33>@@AEAV<lambda_8f455de75cd7d7f24b4096f044d8b9e6>@@$$QEAV<lambda_aa500f224e6afead328df44964fe2772>@@@Z 000000014001bb30 f   libucrt:per_thread_data.obj
 0001:0001ab70       ??$?RV<lambda_aa87e3671a710a21b5dc78c0bdf72e11>@@AEAV<lambda_92619d2358a28f41a33ba319515a20b9>@@V<lambda_6992ecaafeb10aed2b74cb1fae11a551>@@@?$__crt_seh_guarded_call@X@@QEAAX$$QEAV<lambda_aa87e3671a710a21b5dc78c0bdf72e11>@@AEAV<lambda_92619d2358a28f41a33ba319515a20b9>@@$$QEAV<lambda_6992ecaafeb10aed2b74cb1fae11a551>@@@Z 000000014001bb70 f   libucrt:per_thread_data.obj
 0001:0001abb8       ??$?RV<lambda_f2e299630e499de9f9a165e60fcd3db5>@@AEAV<lambda_2ae9d31cdba2644fcbeaf08da7c24588>@@V<lambda_40d01ff24d0e7b3814fdbdcee8eab3c7>@@@?$__crt_seh_guarded_call@X@@QEAAX$$QEAV<lambda_f2e299630e499de9f9a165e60fcd3db5>@@AEAV<lambda_2ae9d31cdba2644fcbeaf08da7c24588>@@$$QEAV<lambda_40d01ff24d0e7b3814fdbdcee8eab3c7>@@@Z 000000014001bbb8 f   libucrt:per_thread_data.obj
 0001:0001ac18       ?construct_ptd_array@@YAXQEAU__acrt_ptd@@@Z 000000014001bc18 f   libucrt:per_thread_data.obj
 0001:0001ace8       ?destroy_fls@@YAXPEAX@Z    000000014001bce8 f   libucrt:per_thread_data.obj
 0001:0001ad08       ?destroy_ptd_array@@YAXQEAU__acrt_ptd@@@Z 000000014001bd08 f   libucrt:per_thread_data.obj
 0001:0001aeb8       ?replace_current_thread_locale_nolock@@YAXQEAU__acrt_ptd@@QEAU__crt_locale_data@@@Z 000000014001beb8 f   libucrt:per_thread_data.obj
 0001:0001b0d4       ?initialize_inherited_file_handles_nolock@@YAXXZ 000000014001c0d4 f   libucrt:ioinit.obj
 0001:0001b1d4       ?initialize_stdio_handles_nolock@@YAXXZ 000000014001c1d4 f   libucrt:ioinit.obj
 0001:0001b360       _exception_enabled         000000014001c360 f   libucrt:libm_error.obj
 0001:0001b5e0       $$000000                   000000014001c5e0     libucrt:floorceil_sse41.obj
 0001:0001b5f0       $$000000                   000000014001c5f0     libucrt:floorceil_sse41.obj
 0001:0001b678       ?try_get_function_slow@@YAPEAXW4function_id@?A0x391cf84c@@QEBDQEBW4module_id@2@2@Z 000000014001c678 f   libucrt:winapi_thunks.obj
 0001:0001bc30       ??$?RV<lambda_450d765d439847d4c735a33c368b5fc0>@@AEAV<lambda_44731a7d0e6d81c3e6aa82d741081786>@@V<lambda_601a2a7da3b7a96e9554ac7215c4b07c>@@@?$__crt_seh_guarded_call@P6AXH@Z@@QEAAP6AXH@Z$$QEAV<lambda_450d765d439847d4c735a33c368b5fc0>@@AEAV<lambda_44731a7d0e6d81c3e6aa82d741081786>@@$$QEAV<lambda_601a2a7da3b7a96e9554ac7215c4b07c>@@@Z 000000014001cc30 f   libucrt:signal.obj
 0001:0001bfd8       ??$?RV<lambda_842d9ff0dc9ef11c61343bbaebe7f885>@@AEAV<lambda_c5860995281e5c4ce005b3de8f5874ee>@@V<lambda_d90129c13df834fdcbf8d2b88dafcf2d>@@@?$__crt_seh_guarded_call@X@@QEAAX$$QEAV<lambda_842d9ff0dc9ef11c61343bbaebe7f885>@@AEAV<lambda_c5860995281e5c4ce005b3de8f5874ee>@@$$QEAV<lambda_d90129c13df834fdcbf8d2b88dafcf2d>@@@Z 000000014001cfd8 f   libucrt:fflush.obj
 0001:0001c074       ??$?RV<lambda_886d6c58226a84441f68b9f2b8217b83>@@AEAV<lambda_ab61a845afdef5b7c387490eaf3616ee>@@V<lambda_f7f22ab5edc0698d5f6905b0d3f44752>@@@?$__crt_seh_guarded_call@X@@QEAAX$$QEAV<lambda_886d6c58226a84441f68b9f2b8217b83>@@AEAV<lambda_ab61a845afdef5b7c387490eaf3616ee>@@$$QEAV<lambda_f7f22ab5edc0698d5f6905b0d3f44752>@@@Z 000000014001d074 f   libucrt:fflush.obj
 0001:0001c158       ?common_flush_all@@YAH_N@Z 000000014001d158 f   libucrt:fflush.obj
 0001:0001c564       ?<lambda_invoker_cdecl>@<lambda_861af8918f661c876f88da8747958ced>@@CAHPEBX0@Z 000000014001d564 f   libucrt:argv_wildcards.obj
 0001:0001c578       ??$common_expand_argv_wildcards@_W@@YAHQEAPEA_WQEAPEAPEA_W@Z 000000014001d578 f   libucrt:argv_wildcards.obj
 0001:0001c978       ??$copy_and_add_argument_to_buffer@_W@@YAHQEB_W0_KAEAV?$argument_list@_W@?A0x5f5c8891@@@Z 000000014001d978 f   libucrt:argv_wildcards.obj
 0001:0001cba4       ??$?RV<lambda_efdfa57d1f175319df784efa44bb7b81>@@AEAV<lambda_5f0a4c1567f8adc6734073e5d1e1b35c>@@V<lambda_2e8a7d3640ea6ccb4c2413664c2db6fd>@@@?$__crt_seh_guarded_call@X@@QEAAX$$QEAV<lambda_efdfa57d1f175319df784efa44bb7b81>@@AEAV<lambda_5f0a4c1567f8adc6734073e5d1e1b35c>@@$$QEAV<lambda_2e8a7d3640ea6ccb4c2413664c2db6fd>@@@Z 000000014001dba4 f   libucrt:mbctype.obj
 0001:0001cd74       ?getSystemCP@@YAHH@Z       000000014001dd74 f   libucrt:mbctype.obj
 0001:0001cdf4       ?setSBCS@@YAXPEAU__crt_multibyte_data@@@Z 000000014001ddf4 f   libucrt:mbctype.obj
 0001:0001ce8c       ?setSBUpLow@@YAXPEAU__crt_multibyte_data@@@Z 000000014001de8c f   libucrt:mbctype.obj
 0001:0001d084       ?setmbcp_internal@@YAHH_NQEAU__acrt_ptd@@QEAPEAU__crt_multibyte_data@@@Z 000000014001e084 f   libucrt:mbctype.obj
 0001:0001d2f4       ?update_thread_multibyte_data_internal@@YAPEAU__crt_multibyte_data@@QEAU__acrt_ptd@@QEAPEAU1@@Z 000000014001e2f4 f   libucrt:mbctype.obj
 0001:0001de0c       ?free_crt_array_internal@@YAXQEAPEBX_K@Z 000000014001ee0c f   libucrt:inittime.obj
 0001:0001e764       ?should_round_up@@YA_NQEBD0HW4__acrt_has_trailing_digits@@W4__acrt_rounding_mode@@@Z 000000014001f764 f   libucrt:_fptostr.obj
 0001:0002005c       memcpy_s                   000000014002105c f   libucrt:cfout.obj
 0001:0002068c       ?_fclose_internal@@YAHQEAU_iobuf@@AEAV__crt_cached_ptd_host@@@Z 000000014002168c f   libucrt:fclose.obj
 0001:00020708       ?_fclose_nolock_internal@@YAHQEAU_iobuf@@AEAV__crt_cached_ptd_host@@@Z 0000000140021708 f   libucrt:fclose.obj
 0001:00020848       ??$?RV<lambda_a37b2b86f63e897a80ea819b0eb08c01>@@AEAV<lambda_38ce7e780aa69e748d6df282ebc68efe>@@V<lambda_99fb1378e971ab6e7edea83e3a7a83a2>@@@?$__crt_seh_guarded_call@H@@QEAAH$$QEAV<lambda_a37b2b86f63e897a80ea819b0eb08c01>@@AEAV<lambda_38ce7e780aa69e748d6df282ebc68efe>@@$$QEAV<lambda_99fb1378e971ab6e7edea83e3a7a83a2>@@@Z 0000000140021848 f   libucrt:commit.obj
 0001:00020968       ?write_double_translated_ansi_nolock@@YA?AUwrite_result@?A0x17268360@@HQEBDIAEAV__crt_cached_ptd_host@@@Z 0000000140021968 f   libucrt:write.obj
 0001:00020dfc       ?write_text_ansi_nolock@@YA?AUwrite_result@?A0x17268360@@HQEBDI@Z 0000000140021dfc f   libucrt:write.obj
 0001:00020f04       ?write_text_utf16le_nolock@@YA?AUwrite_result@?A0x17268360@@HQEBDI@Z 0000000140021f04 f   libucrt:write.obj
 0001:00021020       ?write_text_utf8_nolock@@YA?AUwrite_result@?A0x17268360@@HQEBDI@Z 0000000140022020 f   libucrt:write.obj
 0001:000215e4       ??$common_lseek_nolock@_J@@YA_JH_JHAEAV__crt_cached_ptd_host@@@Z 00000001400225e4 f   libucrt:lseek.obj
 0001:00021a38       ?__acrt_LCMapStringA_stat@@YAHPEAU__crt_locale_pointers@@PEB_WKPEBDHPEADHHH@Z 0000000140022a38 f   libucrt:lcmapstringa.obj
 0001:00021e04       ?initialize_multibyte@@YAHXZ 0000000140022e04 f   libucrt:multibyte_initializer.obj
 0001:000220e0       ceil_soft                  00000001400230e0 f   libucrt:ceil.obj
 0001:00022190       $$000000                   0000000140023190     libucrt:log10.obj
 0001:000221a7       Llog10_sse2                00000001400231a7     libucrt:log10.obj
 0001:0002220f       Llog10_sse2_continue_common 000000014002320f     libucrt:log10.obj
 0001:00022320       Llog10_sse2_near_one       0000000140023320     libucrt:log10.obj
 0001:000223e7       Llog10_sse2_denormal_adjust 00000001400233e7     libucrt:log10.obj
 0001:00022420       Llog10_sse2_x_is_zero_or_neg 0000000140023420     libucrt:log10.obj
 0001:00022440       Llog10_sse2_x_is_neg       0000000140023440     libucrt:log10.obj
 0001:00022460       Llog10_sse2_x_is_inf_or_nan 0000000140023460     libucrt:log10.obj
 0001:00022480       Llog10_sse2_finish         0000000140023480     libucrt:log10.obj
 0001:00022490       Llog10_fma3                0000000140023490     libucrt:log10.obj
 0001:000224eb       Llog10_fma3_continue_common 00000001400234eb     libucrt:log10.obj
 0001:000225d0       Llog10_fma3_near_one       00000001400235d0     libucrt:log10.obj
 0001:00022679       Llog10_fma3_denormal_adjust 0000000140023679     libucrt:log10.obj
 0001:000226b0       Llog10_fma3_x_is_zero_or_neg 00000001400236b0     libucrt:log10.obj
 0001:000226e0       Llog10_fma3_x_is_neg       00000001400236e0     libucrt:log10.obj
 0001:00022700       Llog10_fma3_x_is_inf_or_nan 0000000140023700     libucrt:log10.obj
 0001:00022730       Llog10_fma3_finish         0000000140023730     libucrt:log10.obj
 0001:00022a34       ??$?RV<lambda_ad8af0d99a0adf03d037d7dffe354bb5>@@AEAV<lambda_c9ba49e555ba839a7b07aa3fbecb7617>@@V<lambda_2f1ebd5d68526518146ae959c9e734c8>@@@?$__crt_seh_guarded_call@H@@QEAAH$$QEAV<lambda_ad8af0d99a0adf03d037d7dffe354bb5>@@AEAV<lambda_c9ba49e555ba839a7b07aa3fbecb7617>@@$$QEAV<lambda_2f1ebd5d68526518146ae959c9e734c8>@@@Z 0000000140023a34 f   libucrt:close.obj
 0001:00022d60       common_control87           0000000140023d60 f   libucrt:ieee.obj
 0001:000230e0       _log_special_common        00000001400240e0 f   libucrt:log_special.obj
 0001:00023470       $$000000                   0000000140024470     LIBCMT:chkstk.obj
 0001:000236f0       $$000000                   00000001400246f0     LIBCMT:guard_dispatch.obj
 0001:00023710       $$000000                   0000000140024710     LIBCMT:guard_xfg_dispatch.obj
 0001:00023740       $$000000                   0000000140024740     libucrt:dispatchcfg.obj
 0001:00023770       $$000000                   0000000140024770     libvcruntime:memcpy.obj
 0001:00023780       $$000000                   0000000140024780     libvcruntime:memcpy.obj
 0001:000237ae       MoveSmall0                 00000001400247ae     libvcruntime:memcpy.obj
 0001:000237b0       MoveSmall15                00000001400247b0     libvcruntime:memcpy.obj
 0001:000237d0       MoveSmall11                00000001400247d0     libvcruntime:memcpy.obj
 0001:000237e8       MoveSmall2                 00000001400247e8     libvcruntime:memcpy.obj
 0001:000237f0       MoveSmall7                 00000001400247f0     libvcruntime:memcpy.obj
 0001:00023808       MoveSmall14                0000000140024808     libvcruntime:memcpy.obj
 0001:0002381f       MoveSmall3                 000000014002481f     libvcruntime:memcpy.obj
 0001:00023830       MoveSmall13                0000000140024830     libvcruntime:memcpy.obj
 0001:00023846       MoveSmall10                0000000140024846     libvcruntime:memcpy.obj
 0001:00023855       MoveSmall9                 0000000140024855     libvcruntime:memcpy.obj
 0001:00023863       MoveSmall12                0000000140024863     libvcruntime:memcpy.obj
 0001:00023870       MoveSmall6                 0000000140024870     libvcruntime:memcpy.obj
 0001:0002387f       MoveSmall5                 000000014002487f     libvcruntime:memcpy.obj
 0001:0002388d       MoveSmall8                 000000014002488d     libvcruntime:memcpy.obj
 0001:00023894       MoveSmall1                 0000000140024894     libvcruntime:memcpy.obj
 0001:0002389a       MoveSmall4                 000000014002489a     libvcruntime:memcpy.obj
 0001:000238a0       MoveAbove15                00000001400248a0     libvcruntime:memcpy.obj
 0001:000238bd       MoveAbove32                00000001400248bd     libvcruntime:memcpy.obj
 0001:0002390d       MoveWithYMM                000000014002490d     libvcruntime:memcpy.obj
 0001:00023960       YmmLoop                    0000000140024960     libvcruntime:memcpy.obj
 0001:000239e8       MovUpTo256WithYMM          00000001400249e8     libvcruntime:memcpy.obj
 0001:00023a05       Mov8YmmBlocks              0000000140024a05     libvcruntime:memcpy.obj
 0001:00023a19       Mov7YmmBlocks              0000000140024a19     libvcruntime:memcpy.obj
 0001:00023a2d       Mov6YmmBlocks              0000000140024a2d     libvcruntime:memcpy.obj
 0001:00023a41       Mov5YmmBlocks              0000000140024a41     libvcruntime:memcpy.obj
 0001:00023a55       Mov4YmmBlocks              0000000140024a55     libvcruntime:memcpy.obj
 0001:00023a63       Mov3YmmBlocks              0000000140024a63     libvcruntime:memcpy.obj
 0001:00023a71       Mov2YmmBlocks              0000000140024a71     libvcruntime:memcpy.obj
 0001:00023a7f       Mov1YmmBlocks              0000000140024a7f     libvcruntime:memcpy.obj
 0001:00023a86       Mov0YmmBlocks              0000000140024a86     libvcruntime:memcpy.obj
 0001:00023a90       YmmLoopNT                  0000000140024a90     libvcruntime:memcpy.obj
 0001:00023b35       Mov8YmmBlocksNT            0000000140024b35     libvcruntime:memcpy.obj
 0001:00023b49       Mov7YmmBlocksNT            0000000140024b49     libvcruntime:memcpy.obj
 0001:00023b5d       Mov6YmmBlocksNT            0000000140024b5d     libvcruntime:memcpy.obj
 0001:00023b71       Mov5YmmBlocksNT            0000000140024b71     libvcruntime:memcpy.obj
 0001:00023b85       Mov4YmmBlocksNT            0000000140024b85     libvcruntime:memcpy.obj
 0001:00023b93       Mov3YmmBlocksNT            0000000140024b93     libvcruntime:memcpy.obj
 0001:00023ba1       Mov2YmmBlocksNT            0000000140024ba1     libvcruntime:memcpy.obj
 0001:00023baf       Mov1YmmBlocksNT            0000000140024baf     libvcruntime:memcpy.obj
 0001:00023bb6       Mov0YmmBlocksNT            0000000140024bb6     libvcruntime:memcpy.obj
 0001:00023bd0       NoAVX                      0000000140024bd0     libvcruntime:memcpy.obj
 0001:00023be6       MoveWithXMM                0000000140024be6     libvcruntime:memcpy.obj
 0001:00023c20       XmmLoop                    0000000140024c20     libvcruntime:memcpy.obj
 0001:00023c8c       MovUpTo128WithXMM          0000000140024c8c     libvcruntime:memcpy.obj
 0001:00023ca9       Mov8XmmBlocks              0000000140024ca9     libvcruntime:memcpy.obj
 0001:00023cb7       Mov7XmmBlocks              0000000140024cb7     libvcruntime:memcpy.obj
 0001:00023cc5       Mov6XmmBlocks              0000000140024cc5     libvcruntime:memcpy.obj
 0001:00023cd3       Mov5XmmBlocks              0000000140024cd3     libvcruntime:memcpy.obj
 0001:00023ce1       Mov4XmmBlocks              0000000140024ce1     libvcruntime:memcpy.obj
 0001:00023cef       Mov3XmmBlocks              0000000140024cef     libvcruntime:memcpy.obj
 0001:00023cfd       Mov2XmmBlocks              0000000140024cfd     libvcruntime:memcpy.obj
 0001:00023d0b       Mov1XmmBlocks              0000000140024d0b     libvcruntime:memcpy.obj
 0001:00023d12       Mov0XmmBlocks              0000000140024d12     libvcruntime:memcpy.obj
 0001:00023d20       CopyDown                   0000000140024d20     libvcruntime:memcpy.obj
 0001:00023d3b       XmmMovAlign                0000000140024d3b     libvcruntime:memcpy.obj
 0001:00023d53       XmmMovLargeTest            0000000140024d53     libvcruntime:memcpy.obj
 0001:00023d70       XmmMovLargeOuter           0000000140024d70     libvcruntime:memcpy.obj
 0001:00023d77       XmmMovLargeInner           0000000140024d77     libvcruntime:memcpy.obj
 0001:00023dcd       XmmMovSmallTest            0000000140024dcd     libvcruntime:memcpy.obj
 0001:00023de0       XmmMovSmallLoop            0000000140024de0     libvcruntime:memcpy.obj
 0001:00023df0       XmmMovTrailing             0000000140024df0     libvcruntime:memcpy.obj
 0001:00023df9       XmmMovReturn               0000000140024df9     libvcruntime:memcpy.obj
 0001:00023e40       $$000000                   0000000140024e40     libvcruntime:memset.obj
 0001:00023e50       $$000000                   0000000140024e50     libvcruntime:memset.obj
 0001:00023e91       SetSmall15                 0000000140024e91     libvcruntime:memset.obj
 0001:00023e95       SetSmall7                  0000000140024e95     libvcruntime:memset.obj
 0001:00023e99       SetSmall3                  0000000140024e99     libvcruntime:memset.obj
 0001:00023e9e       SetSmall1                  0000000140024e9e     libvcruntime:memset.obj
 0001:00023ea2       SetSmall0                  0000000140024ea2     libvcruntime:memset.obj
 0001:00023ea3       SetSmall14                 0000000140024ea3     libvcruntime:memset.obj
 0001:00023ea7       SetSmall6                  0000000140024ea7     libvcruntime:memset.obj
 0001:00023eab       SetSmall2                  0000000140024eab     libvcruntime:memset.obj
 0001:00023eb0       MoveSmall0                 0000000140024eb0     libvcruntime:memset.obj
 0001:00023ec0       SetSmall13                 0000000140024ec0     libvcruntime:memset.obj
 0001:00023ec4       SetSmall5                  0000000140024ec4     libvcruntime:memset.obj
 0001:00023ed0       SetSmall12                 0000000140024ed0     libvcruntime:memset.obj
 0001:00023ed4       SetSmall4                  0000000140024ed4     libvcruntime:memset.obj
 0001:00023ed9       SetSmall11                 0000000140024ed9     libvcruntime:memset.obj
 0001:00023ee7       SetSmall9                  0000000140024ee7     libvcruntime:memset.obj
 0001:00023ef0       SetSmall10                 0000000140024ef0     libvcruntime:memset.obj
 0001:00023efa       SetSmall8                  0000000140024efa     libvcruntime:memset.obj
 0001:00023f00       SetAbove15                 0000000140024f00     libvcruntime:memset.obj
 0001:00023f16       SetAbove32                 0000000140024f16     libvcruntime:memset.obj
 0001:00023f42       SetWithYMM                 0000000140024f42     libvcruntime:memset.obj
 0001:00023f80       YmmLoop                    0000000140024f80     libvcruntime:memset.obj
 0001:00023fca       SetUpTo256WithYMM          0000000140024fca     libvcruntime:memset.obj
 0001:00023fe7       Set8YmmBlocks              0000000140024fe7     libvcruntime:memset.obj
 0001:00023ff1       Set7YmmBlocks              0000000140024ff1     libvcruntime:memset.obj
 0001:00023ffb       Set6YmmBlocks              0000000140024ffb     libvcruntime:memset.obj
 0001:00024005       Set5YmmBlocks              0000000140025005     libvcruntime:memset.obj
 0001:0002400f       Set4YmmBlocks              000000014002500f     libvcruntime:memset.obj
 0001:00024016       Set3YmmBlocks              0000000140025016     libvcruntime:memset.obj
 0001:0002401d       Set2YmmBlocks              000000014002501d     libvcruntime:memset.obj
 0001:00024024       Set1YmmBlocks              0000000140025024     libvcruntime:memset.obj
 0001:0002402b       Set0YmmBlocks              000000014002502b     libvcruntime:memset.obj
 0001:00024033       SetWithYMMNT               0000000140025033     libvcruntime:memset.obj
 0001:00024040       YmmLoopNT                  0000000140025040     libvcruntime:memset.obj
 0001:000240a7       Set8YmmBlocksNT            00000001400250a7     libvcruntime:memset.obj
 0001:000240b1       Set7YmmBlocksNT            00000001400250b1     libvcruntime:memset.obj
 0001:000240bb       Set6YmmBlocksNT            00000001400250bb     libvcruntime:memset.obj
 0001:000240c5       Set5YmmBlocksNT            00000001400250c5     libvcruntime:memset.obj
 0001:000240cf       Set4YmmBlocksNT            00000001400250cf     libvcruntime:memset.obj
 0001:000240d6       Set3YmmBlocksNT            00000001400250d6     libvcruntime:memset.obj
 0001:000240dd       Set2YmmBlocksNT            00000001400250dd     libvcruntime:memset.obj
 0001:000240e4       Set1YmmBlocksNT            00000001400250e4     libvcruntime:memset.obj
 0001:000240eb       Set0YmmBlocksNT            00000001400250eb     libvcruntime:memset.obj
 0001:00024100       NoAVX                      0000000140025100     libvcruntime:memset.obj
 0001:00024116       SetWithXMM                 0000000140025116     libvcruntime:memset.obj
 0001:00024140       XmmLoop                    0000000140025140     libvcruntime:memset.obj
 0001:0002417e       SetUpTo128WithXMM          000000014002517e     libvcruntime:memset.obj
 0001:0002419b       Set8XmmBlocks              000000014002519b     libvcruntime:memset.obj
 0001:000241a2       Set7XmmBlocks              00000001400251a2     libvcruntime:memset.obj
 0001:000241a9       Set6XmmBlocks              00000001400251a9     libvcruntime:memset.obj
 0001:000241b0       Set5XmmBlocks              00000001400251b0     libvcruntime:memset.obj
 0001:000241b7       Set4XmmBlocks              00000001400251b7     libvcruntime:memset.obj
 0001:000241be       Set3XmmBlocks              00000001400251be     libvcruntime:memset.obj
 0001:000241c5       Set2XmmBlocks              00000001400251c5     libvcruntime:memset.obj
 0001:000241cc       Set1XmmBlocks              00000001400251cc     libvcruntime:memset.obj
 0001:000241d3       Set0XmmBlocks              00000001400251d3     libvcruntime:memset.obj
 0001:000241e0       $$000000                   00000001400251e0     libucrt:strncmp.obj
 0001:00024270       wWinMain$dtor$1            0000000140025270 f   main.obj
 0001:00024280       wWinMain$dtor$2            0000000140025280 f   main.obj
 0001:00024290       wWinMain$dtor$5            0000000140025290 f   main.obj
 0001:000242a0       wWinMain$dtor$6            00000001400252a0 f   main.obj
 0001:000242b0       wWinMain$dtor$7            00000001400252b0 f   main.obj
 0001:000242dc       wWinMain$dtor$8            00000001400252dc f   main.obj
 0001:000242e8       wWinMain$dtor$9            00000001400252e8 f   main.obj
 0001:000242f4       wWinMain$catch$13          00000001400252f4 f   main.obj
 0001:00024301       __catch$wWinMain$0         0000000140025301 f   main.obj
 0001:00024338       ?dtor$0@?0??SelectTool@Shell@ith@@AEAAXPEAVITool@2@@Z@4HA 0000000140025338 f   Shell.obj
 0001:00024344       ?dtor$1@?0??SelectTool@Shell@ith@@AEAAXPEAVITool@2@@Z@4HA 0000000140025344 f   Shell.obj
 0001:00024350       ?dtor$2@?0??SelectTool@Shell@ith@@AEAAXPEAVITool@2@@Z@4HA 0000000140025350 f   Shell.obj
 0001:0002435c       ?dtor$0@?0??WndProc@Shell@ith@@CA_JPEAUHWND__@@I_K_J@Z@4HA 000000014002535c f   Shell.obj
 0001:00024368       ?dtor$1@?0??WndProc@Shell@ith@@CA_JPEAUHWND__@@I_K_J@Z@4HA 0000000140025368 f   Shell.obj
 0001:00024374       ?dtor$5@?0??WndProc@Shell@ith@@CA_JPEAUHWND__@@I_K_J@Z@4HA 0000000140025374 f   Shell.obj
 0001:00024374       ?dtor$6@?0??WndProc@Shell@ith@@CA_JPEAUHWND__@@I_K_J@Z@4HA 0000000140025374 f   Shell.obj
 0001:00024380       ?catch$13@?0??WndProc@Shell@ith@@CA_JPEAUHWND__@@I_K_J@Z@4HA 0000000140025380 f   Shell.obj
 0001:0002438d       __catch$?WndProc@Shell@ith@@CA_JPEAUHWND__@@I_K_J@Z$0 000000014002538d f   Shell.obj
 0001:000243c3       ?dtor$0@?0??BytesToLdapFilter@ith@@YA?AV?$basic_string@_WU?$char_traits@_W@std@@V?$allocator@_W@2@@std@@AEBV?$vector@EV?$allocator@E@std@@@3@@Z@4HA 00000001400253c3 f   AdQuery.obj
 0001:000243c3       ?dtor$0@?0??LdapEscape@ith@@YA?AV?$basic_string@_WU?$char_traits@_W@std@@V?$allocator@_W@2@@std@@AEBV23@@Z@4HA 00000001400253c3 f   AdQuery.obj
 0001:000243e9       ?dtor$0@?0??HrMessage@?A0x1f6e8d05@ith@@YA?AV?$basic_string@_WU?$char_traits@_W@std@@V?$allocator@_W@2@@std@@J@Z@4HA 00000001400253e9 f   AdQuery.obj
 0001:000243f5       ?dtor$1@?0??ColStr@?A0x1f6e8d05@ith@@YA?AV?$optional@V?$basic_string@_WU?$char_traits@_W@std@@V?$allocator@_W@2@@std@@@std@@PEAUIDirectorySearch@@PEAXPEB_W@Z@4HA 00000001400253f5 f   AdQuery.obj
 0001:00024401       ?dtor$0@?0??ColMultiStr@?A0x1f6e8d05@ith@@YA?AV?$vector@V?$basic_string@_WU?$char_traits@_W@std@@V?$allocator@_W@2@@std@@V?$allocator@V?$basic_string@_WU?$char_traits@_W@std@@V?$allocator@_W@2@@std@@@2@@std@@PEAUIDirectorySearch@@PEAXPEB_W@Z@4HA 0000000140025401 f   AdQuery.obj
 0001:0002442d       ?dtor$0@?0??ForEachRow@?A0x1f6e8d05@ith@@YAXPEAUIDirectorySearch@@AEBV?$basic_string@_WU?$char_traits@_W@std@@V?$allocator@_W@2@@std@@AEBV?$vector@PEB_WV?$allocator@PEB_W@std@@@5@AEBV?$function@$$A6AXPEAX@Z@5@@Z@4HA 000000014002542d f   AdQuery.obj
 0001:00024439       ?dtor$0@?0??CollectNames@?A0x1f6e8d05@ith@@YA?AV?$vector@UNamedEntry@ith@@V?$allocator@UNamedEntry@ith@@@std@@@std@@PEAUIDirectorySearch@@AEBV?$basic_string@_WU?$char_traits@_W@std@@V?$allocator@_W@2@@4@@Z@4HA 0000000140025439 f   AdQuery.obj
 0001:0002445f       ?dtor$1@?0??CollectNames@?A0x1f6e8d05@ith@@YA?AV?$vector@UNamedEntry@ith@@V?$allocator@UNamedEntry@ith@@@std@@@std@@PEAUIDirectorySearch@@AEBV?$basic_string@_WU?$char_traits@_W@std@@V?$allocator@_W@2@@4@@Z@4HA 000000014002545f f   AdQuery.obj
 0001:0002446b       ?dtor$2@?0??CollectNames@?A0x1f6e8d05@ith@@YA?AV?$vector@UNamedEntry@ith@@V?$allocator@UNamedEntry@ith@@@std@@@std@@PEAUIDirectorySearch@@AEBV?$basic_string@_WU?$char_traits@_W@std@@V?$allocator@_W@2@@4@@Z@4HA 000000014002546b f   AdQuery.obj
 0001:00024477       ?dtor$0@?0??RunAdQuery@ith@@YA?AV?$unique_ptr@UAdResult@ith@@U?$default_delete@UAdResult@ith@@@std@@@std@@AEBUAdQueryRequest@1@@Z@4HA 0000000140025477 f   AdQuery.obj
 0001:000244a0       ?dtor$1@?0??RunAdQuery@ith@@YA?AV?$unique_ptr@UAdResult@ith@@U?$default_delete@UAdResult@ith@@@std@@@std@@AEBUAdQueryRequest@1@@Z@4HA 00000001400254a0 f   AdQuery.obj
 0001:000244ac       ?dtor$2@?0??RunAdQuery@ith@@YA?AV?$unique_ptr@UAdResult@ith@@U?$default_delete@UAdResult@ith@@@std@@@std@@AEBUAdQueryRequest@1@@Z@4HA 00000001400254ac f   AdQuery.obj
 0001:000244b8       ?dtor$101@?0??RunAdQuery@ith@@YA?AV?$unique_ptr@UAdResult@ith@@U?$default_delete@UAdResult@ith@@@std@@@std@@AEBUAdQueryRequest@1@@Z@4HA 00000001400254b8 f   AdQuery.obj
 0001:000244b8       ?dtor$120@?0??RunAdQuery@ith@@YA?AV?$unique_ptr@UAdResult@ith@@U?$default_delete@UAdResult@ith@@@std@@@std@@AEBUAdQueryRequest@1@@Z@4HA 00000001400254b8 f   AdQuery.obj
 0001:000244b8       ?dtor$146@?0??RunAdQuery@ith@@YA?AV?$unique_ptr@UAdResult@ith@@U?$default_delete@UAdResult@ith@@@std@@@std@@AEBUAdQueryRequest@1@@Z@4HA 00000001400254b8 f   AdQuery.obj
 0001:000244b8       ?dtor$21@?0??RunAdQuery@ith@@YA?AV?$unique_ptr@UAdResult@ith@@U?$default_delete@UAdResult@ith@@@std@@@std@@AEBUAdQueryRequest@1@@Z@4HA 00000001400254b8 f   AdQuery.obj
 0001:000244b8       ?dtor$28@?0??RunAdQuery@ith@@YA?AV?$unique_ptr@UAdResult@ith@@U?$default_delete@UAdResult@ith@@@std@@@std@@AEBUAdQueryRequest@1@@Z@4HA 00000001400254b8 f   AdQuery.obj
 0001:000244b8       ?dtor$3@?0??RunAdQuery@ith@@YA?AV?$unique_ptr@UAdResult@ith@@U?$default_delete@UAdResult@ith@@@std@@@std@@AEBUAdQueryRequest@1@@Z@4HA 00000001400254b8 f   AdQuery.obj
 0001:000244b8       ?dtor$48@?0??RunAdQuery@ith@@YA?AV?$unique_ptr@UAdResult@ith@@U?$default_delete@UAdResult@ith@@@std@@@std@@AEBUAdQueryRequest@1@@Z@4HA 00000001400254b8 f   AdQuery.obj
 0001:000244c4       ?dtor$106@?0??RunAdQuery@ith@@YA?AV?$unique_ptr@UAdResult@ith@@U?$default_delete@UAdResult@ith@@@std@@@std@@AEBUAdQueryRequest@1@@Z@4HA 00000001400254c4 f   AdQuery.obj
 0001:000244c4       ?dtor$110@?0??RunAdQuery@ith@@YA?AV?$unique_ptr@UAdResult@ith@@U?$default_delete@UAdResult@ith@@@std@@@std@@AEBUAdQueryRequest@1@@Z@4HA 00000001400254c4 f   AdQuery.obj
 0001:000244c4       ?dtor$126@?0??RunAdQuery@ith@@YA?AV?$unique_ptr@UAdResult@ith@@U?$default_delete@UAdResult@ith@@@std@@@std@@AEBUAdQueryRequest@1@@Z@4HA 00000001400254c4 f   AdQuery.obj
 0001:000244c4       ?dtor$13@?0??RunAdQuery@ith@@YA?AV?$unique_ptr@UAdResult@ith@@U?$default_delete@UAdResult@ith@@@std@@@std@@AEBUAdQueryRequest@1@@Z@4HA 00000001400254c4 f   AdQuery.obj
 0001:000244c4       ?dtor$22@?0??RunAdQuery@ith@@YA?AV?$unique_ptr@UAdResult@ith@@U?$default_delete@UAdResult@ith@@@std@@@std@@AEBUAdQueryRequest@1@@Z@4HA 00000001400254c4 f   AdQuery.obj
 0001:000244c4       ?dtor$29@?0??RunAdQuery@ith@@YA?AV?$unique_ptr@UAdResult@ith@@U?$default_delete@UAdResult@ith@@@std@@@std@@AEBUAdQueryRequest@1@@Z@4HA 00000001400254c4 f   AdQuery.obj
 0001:000244c4       ?dtor$46@?0??RunAdQuery@ith@@YA?AV?$unique_ptr@UAdResult@ith@@U?$default_delete@UAdResult@ith@@@std@@@std@@AEBUAdQueryRequest@1@@Z@4HA 00000001400254c4 f   AdQuery.obj
 0001:000244c4       ?dtor$4@?0??RunAdQuery@ith@@YA?AV?$unique_ptr@UAdResult@ith@@U?$default_delete@UAdResult@ith@@@std@@@std@@AEBUAdQueryRequest@1@@Z@4HA 00000001400254c4 f   AdQuery.obj
 0001:000244c4       ?dtor$53@?0??RunAdQuery@ith@@YA?AV?$unique_ptr@UAdResult@ith@@U?$default_delete@UAdResult@ith@@@std@@@std@@AEBUAdQueryRequest@1@@Z@4HA 00000001400254c4 f   AdQuery.obj
 0001:000244c4       ?dtor$57@?0??RunAdQuery@ith@@YA?AV?$unique_ptr@UAdResult@ith@@U?$default_delete@UAdResult@ith@@@std@@@std@@AEBUAdQueryRequest@1@@Z@4HA 00000001400254c4 f   AdQuery.obj
 0001:000244c4       ?dtor$61@?0??RunAdQuery@ith@@YA?AV?$unique_ptr@UAdResult@ith@@U?$default_delete@UAdResult@ith@@@std@@@std@@AEBUAdQueryRequest@1@@Z@4HA 00000001400254c4 f   AdQuery.obj
 0001:000244c4       ?dtor$65@?0??RunAdQuery@ith@@YA?AV?$unique_ptr@UAdResult@ith@@U?$default_delete@UAdResult@ith@@@std@@@std@@AEBUAdQueryRequest@1@@Z@4HA 00000001400254c4 f   AdQuery.obj
 0001:000244c4       ?dtor$69@?0??RunAdQuery@ith@@YA?AV?$unique_ptr@UAdResult@ith@@U?$default_delete@UAdResult@ith@@@std@@@std@@AEBUAdQueryRequest@1@@Z@4HA 00000001400254c4 f   AdQuery.obj
 0001:000244c4       ?dtor$73@?0??RunAdQuery@ith@@YA?AV?$unique_ptr@UAdResult@ith@@U?$default_delete@UAdResult@ith@@@std@@@std@@AEBUAdQueryRequest@1@@Z@4HA 00000001400254c4 f   AdQuery.obj
 0001:000244c4       ?dtor$83@?0??RunAdQuery@ith@@YA?AV?$unique_ptr@UAdResult@ith@@U?$default_delete@UAdResult@ith@@@std@@@std@@AEBUAdQueryRequest@1@@Z@4HA 00000001400254c4 f   AdQuery.obj
 0001:000244c4       ?dtor$87@?0??RunAdQuery@ith@@YA?AV?$unique_ptr@UAdResult@ith@@U?$default_delete@UAdResult@ith@@@std@@@std@@AEBUAdQueryRequest@1@@Z@4HA 00000001400254c4 f   AdQuery.obj
 0001:000244c4       ?dtor$91@?0??RunAdQuery@ith@@YA?AV?$unique_ptr@UAdResult@ith@@U?$default_delete@UAdResult@ith@@@std@@@std@@AEBUAdQueryRequest@1@@Z@4HA 00000001400254c4 f   AdQuery.obj
 0001:000244d0       ?dtor$6@?0??RunAdQuery@ith@@YA?AV?$unique_ptr@UAdResult@ith@@U?$default_delete@UAdResult@ith@@@std@@@std@@AEBUAdQueryRequest@1@@Z@4HA 00000001400254d0 f   AdQuery.obj
 0001:000244dc       ?dtor$122@?0??RunAdQuery@ith@@YA?AV?$unique_ptr@UAdResult@ith@@U?$default_delete@UAdResult@ith@@@std@@@std@@AEBUAdQueryRequest@1@@Z@4HA 00000001400254dc f   AdQuery.obj
 0001:000244dc       ?dtor$134@?0??RunAdQuery@ith@@YA?AV?$unique_ptr@UAdResult@ith@@U?$default_delete@UAdResult@ith@@@std@@@std@@AEBUAdQueryRequest@1@@Z@4HA 00000001400254dc f   AdQuery.obj
 0001:000244dc       ?dtor$18@?0??RunAdQuery@ith@@YA?AV?$unique_ptr@UAdResult@ith@@U?$default_delete@UAdResult@ith@@@std@@@std@@AEBUAdQueryRequest@1@@Z@4HA 00000001400254dc f   AdQuery.obj
 0001:000244dc       ?dtor$20@?0??RunAdQuery@ith@@YA?AV?$unique_ptr@UAdResult@ith@@U?$default_delete@UAdResult@ith@@@std@@@std@@AEBUAdQueryRequest@1@@Z@4HA 00000001400254dc f   AdQuery.obj
 0001:000244dc       ?dtor$27@?0??RunAdQuery@ith@@YA?AV?$unique_ptr@UAdResult@ith@@U?$default_delete@UAdResult@ith@@@std@@@std@@AEBUAdQueryRequest@1@@Z@4HA 00000001400254dc f   AdQuery.obj
 0001:000244dc       ?dtor$7@?0??RunAdQuery@ith@@YA?AV?$unique_ptr@UAdResult@ith@@U?$default_delete@UAdResult@ith@@@std@@@std@@AEBUAdQueryRequest@1@@Z@4HA 00000001400254dc f   AdQuery.obj
 0001:000244e8       ?dtor$9@?0??RunAdQuery@ith@@YA?AV?$unique_ptr@UAdResult@ith@@U?$default_delete@UAdResult@ith@@@std@@@std@@AEBUAdQueryRequest@1@@Z@4HA 00000001400254e8 f   AdQuery.obj
 0001:000244f4       ?dtor$10@?0??RunAdQuery@ith@@YA?AV?$unique_ptr@UAdResult@ith@@U?$default_delete@UAdResult@ith@@@std@@@std@@AEBUAdQueryRequest@1@@Z@4HA 00000001400254f4 f   AdQuery.obj
 0001:00024500       ?dtor$11@?0??RunAdQuery@ith@@YA?AV?$unique_ptr@UAdResult@ith@@U?$default_delete@UAdResult@ith@@@std@@@std@@AEBUAdQueryRequest@1@@Z@4HA 0000000140025500 f   AdQuery.obj
 0001:0002450c       ?dtor$114@?0??RunAdQuery@ith@@YA?AV?$unique_ptr@UAdResult@ith@@U?$default_delete@UAdResult@ith@@@std@@@std@@AEBUAdQueryRequest@1@@Z@4HA 000000014002550c f   AdQuery.obj
 0001:0002450c       ?dtor$117@?0??RunAdQuery@ith@@YA?AV?$unique_ptr@UAdResult@ith@@U?$default_delete@UAdResult@ith@@@std@@@std@@AEBUAdQueryRequest@1@@Z@4HA 000000014002550c f   AdQuery.obj
 0001:0002450c       ?dtor$121@?0??RunAdQuery@ith@@YA?AV?$unique_ptr@UAdResult@ith@@U?$default_delete@UAdResult@ith@@@std@@@std@@AEBUAdQueryRequest@1@@Z@4HA 000000014002550c f   AdQuery.obj
 0001:0002450c       ?dtor$12@?0??RunAdQuery@ith@@YA?AV?$unique_ptr@UAdResult@ith@@U?$default_delete@UAdResult@ith@@@std@@@std@@AEBUAdQueryRequest@1@@Z@4HA 000000014002550c f   AdQuery.obj
 0001:0002450c       ?dtor$130@?0??RunAdQuery@ith@@YA?AV?$unique_ptr@UAdResult@ith@@U?$default_delete@UAdResult@ith@@@std@@@std@@AEBUAdQueryRequest@1@@Z@4HA 000000014002550c f   AdQuery.obj
 0001:0002450c       ?dtor$30@?0??RunAdQuery@ith@@YA?AV?$unique_ptr@UAdResult@ith@@U?$default_delete@UAdResult@ith@@@std@@@std@@AEBUAdQueryRequest@1@@Z@4HA 000000014002550c f   AdQuery.obj
 0001:0002450c       ?dtor$77@?0??RunAdQuery@ith@@YA?AV?$unique_ptr@UAdResult@ith@@U?$default_delete@UAdResult@ith@@@std@@@std@@AEBUAdQueryRequest@1@@Z@4HA 000000014002550c f   AdQuery.obj
 0001:0002450c       ?dtor$80@?0??RunAdQuery@ith@@YA?AV?$unique_ptr@UAdResult@ith@@U?$default_delete@UAdResult@ith@@@std@@@std@@AEBUAdQueryRequest@1@@Z@4HA 000000014002550c f   AdQuery.obj
 0001:0002450c       ?dtor$95@?0??RunAdQuery@ith@@YA?AV?$unique_ptr@UAdResult@ith@@U?$default_delete@UAdResult@ith@@@std@@@std@@AEBUAdQueryRequest@1@@Z@4HA 000000014002550c f   AdQuery.obj
 0001:0002450c       ?dtor$98@?0??RunAdQuery@ith@@YA?AV?$unique_ptr@UAdResult@ith@@U?$default_delete@UAdResult@ith@@@std@@@std@@AEBUAdQueryRequest@1@@Z@4HA 000000014002550c f   AdQuery.obj
 0001:00024518       ?dtor$127@?0??RunAdQuery@ith@@YA?AV?$unique_ptr@UAdResult@ith@@U?$default_delete@UAdResult@ith@@@std@@@std@@AEBUAdQueryRequest@1@@Z@4HA 0000000140025518 f   AdQuery.obj
 0001:00024518       ?dtor$129@?0??RunAdQuery@ith@@YA?AV?$unique_ptr@UAdResult@ith@@U?$default_delete@UAdResult@ith@@@std@@@std@@AEBUAdQueryRequest@1@@Z@4HA 0000000140025518 f   AdQuery.obj
 0001:00024518       ?dtor$14@?0??RunAdQuery@ith@@YA?AV?$unique_ptr@UAdResult@ith@@U?$default_delete@UAdResult@ith@@@std@@@std@@AEBUAdQueryRequest@1@@Z@4HA 0000000140025518 f   AdQuery.obj
 0001:00024524       ?dtor$132@?0??RunAdQuery@ith@@YA?AV?$unique_ptr@UAdResult@ith@@U?$default_delete@UAdResult@ith@@@std@@@std@@AEBUAdQueryRequest@1@@Z@4HA 0000000140025524 f   AdQuery.obj
 0001:00024524       ?dtor$15@?0??RunAdQuery@ith@@YA?AV?$unique_ptr@UAdResult@ith@@U?$default_delete@UAdResult@ith@@@std@@@std@@AEBUAdQueryRequest@1@@Z@4HA 0000000140025524 f   AdQuery.obj
 0001:00024524       ?dtor$25@?0??RunAdQuery@ith@@YA?AV?$unique_ptr@UAdResult@ith@@U?$default_delete@UAdResult@ith@@@std@@@std@@AEBUAdQueryRequest@1@@Z@4HA 0000000140025524 f   AdQuery.obj
 0001:00024530       ?dtor$131@?0??RunAdQuery@ith@@YA?AV?$unique_ptr@UAdResult@ith@@U?$default_delete@UAdResult@ith@@@std@@@std@@AEBUAdQueryRequest@1@@Z@4HA 0000000140025530 f   AdQuery.obj
 0001:00024530       ?dtor$153@?0??RunAdQuery@ith@@YA?AV?$unique_ptr@UAdResult@ith@@U?$default_delete@UAdResult@ith@@@std@@@std@@AEBUAdQueryRequest@1@@Z@4HA 0000000140025530 f   AdQuery.obj
 0001:00024530       ?dtor$163@?0??RunAdQuery@ith@@YA?AV?$unique_ptr@UAdResult@ith@@U?$default_delete@UAdResult@ith@@@std@@@std@@AEBUAdQueryRequest@1@@Z@4HA 0000000140025530 f   AdQuery.obj
 0001:00024530       ?dtor$16@?0??RunAdQuery@ith@@YA?AV?$unique_ptr@UAdResult@ith@@U?$default_delete@UAdResult@ith@@@std@@@std@@AEBUAdQueryRequest@1@@Z@4HA 0000000140025530 f   AdQuery.obj
 0001:00024530       ?dtor$24@?0??RunAdQuery@ith@@YA?AV?$unique_ptr@UAdResult@ith@@U?$default_delete@UAdResult@ith@@@std@@@std@@AEBUAdQueryRequest@1@@Z@4HA 0000000140025530 f   AdQuery.obj
 0001:0002453c       ?dtor$125@?0??RunAdQuery@ith@@YA?AV?$unique_ptr@UAdResult@ith@@U?$default_delete@UAdResult@ith@@@std@@@std@@AEBUAdQueryRequest@1@@Z@4HA 000000014002553c f   AdQuery.obj
 0001:0002453c       ?dtor$133@?0??RunAdQuery@ith@@YA?AV?$unique_ptr@UAdResult@ith@@U?$default_delete@UAdResult@ith@@@std@@@std@@AEBUAdQueryRequest@1@@Z@4HA 000000014002553c f   AdQuery.obj
 0001:0002453c       ?dtor$17@?0??RunAdQuery@ith@@YA?AV?$unique_ptr@UAdResult@ith@@U?$default_delete@UAdResult@ith@@@std@@@std@@AEBUAdQueryRequest@1@@Z@4HA 000000014002553c f   AdQuery.obj
 0001:0002453c       ?dtor$26@?0??RunAdQuery@ith@@YA?AV?$unique_ptr@UAdResult@ith@@U?$default_delete@UAdResult@ith@@@std@@@std@@AEBUAdQueryRequest@1@@Z@4HA 000000014002553c f   AdQuery.obj
 0001:00024548       ?dtor$31@?0??RunAdQuery@ith@@YA?AV?$unique_ptr@UAdResult@ith@@U?$default_delete@UAdResult@ith@@@std@@@std@@AEBUAdQueryRequest@1@@Z@4HA 0000000140025548 f   AdQuery.obj
 0001:00024554       ?dtor$32@?0??RunAdQuery@ith@@YA?AV?$unique_ptr@UAdResult@ith@@U?$default_delete@UAdResult@ith@@@std@@@std@@AEBUAdQueryRequest@1@@Z@4HA 0000000140025554 f   AdQuery.obj
 0001:00024560       ?dtor$33@?0??RunAdQuery@ith@@YA?AV?$unique_ptr@UAdResult@ith@@U?$default_delete@UAdResult@ith@@@std@@@std@@AEBUAdQueryRequest@1@@Z@4HA 0000000140025560 f   AdQuery.obj
 0001:0002456c       ?dtor$34@?0??RunAdQuery@ith@@YA?AV?$unique_ptr@UAdResult@ith@@U?$default_delete@UAdResult@ith@@@std@@@std@@AEBUAdQueryRequest@1@@Z@4HA 000000014002556c f   AdQuery.obj
 0001:00024578       ?dtor$35@?0??RunAdQuery@ith@@YA?AV?$unique_ptr@UAdResult@ith@@U?$default_delete@UAdResult@ith@@@std@@@std@@AEBUAdQueryRequest@1@@Z@4HA 0000000140025578 f   AdQuery.obj
 0001:00024584       ?dtor$36@?0??RunAdQuery@ith@@YA?AV?$unique_ptr@UAdResult@ith@@U?$default_delete@UAdResult@ith@@@std@@@std@@AEBUAdQueryRequest@1@@Z@4HA 0000000140025584 f   AdQuery.obj
 0001:00024590       ?dtor$37@?0??RunAdQuery@ith@@YA?AV?$unique_ptr@UAdResult@ith@@U?$default_delete@UAdResult@ith@@@std@@@std@@AEBUAdQueryRequest@1@@Z@4HA 0000000140025590 f   AdQuery.obj
 0001:0002459c       ?dtor$38@?0??RunAdQuery@ith@@YA?AV?$unique_ptr@UAdResult@ith@@U?$default_delete@UAdResult@ith@@@std@@@std@@AEBUAdQueryRequest@1@@Z@4HA 000000014002559c f   AdQuery.obj
 0001:000245a8       ?dtor$39@?0??RunAdQuery@ith@@YA?AV?$unique_ptr@UAdResult@ith@@U?$default_delete@UAdResult@ith@@@std@@@std@@AEBUAdQueryRequest@1@@Z@4HA 00000001400255a8 f   AdQuery.obj
 0001:000245b4       ?dtor$40@?0??RunAdQuery@ith@@YA?AV?$unique_ptr@UAdResult@ith@@U?$default_delete@UAdResult@ith@@@std@@@std@@AEBUAdQueryRequest@1@@Z@4HA 00000001400255b4 f   AdQuery.obj
 0001:000245c0       ?dtor$41@?0??RunAdQuery@ith@@YA?AV?$unique_ptr@UAdResult@ith@@U?$default_delete@UAdResult@ith@@@std@@@std@@AEBUAdQueryRequest@1@@Z@4HA 00000001400255c0 f   AdQuery.obj
 0001:000245cc       ?dtor$42@?0??RunAdQuery@ith@@YA?AV?$unique_ptr@UAdResult@ith@@U?$default_delete@UAdResult@ith@@@std@@@std@@AEBUAdQueryRequest@1@@Z@4HA 00000001400255cc f   AdQuery.obj
 0001:000245d8       ?dtor$43@?0??RunAdQuery@ith@@YA?AV?$unique_ptr@UAdResult@ith@@U?$default_delete@UAdResult@ith@@@std@@@std@@AEBUAdQueryRequest@1@@Z@4HA 00000001400255d8 f   AdQuery.obj
 0001:000245e4       ?dtor$44@?0??RunAdQuery@ith@@YA?AV?$unique_ptr@UAdResult@ith@@U?$default_delete@UAdResult@ith@@@std@@@std@@AEBUAdQueryRequest@1@@Z@4HA 00000001400255e4 f   AdQuery.obj
 0001:000245f0       ?dtor$45@?0??RunAdQuery@ith@@YA?AV?$unique_ptr@UAdResult@ith@@U?$default_delete@UAdResult@ith@@@std@@@std@@AEBUAdQueryRequest@1@@Z@4HA 00000001400255f0 f   AdQuery.obj
 0001:000245fc       ?dtor$49@?0??RunAdQuery@ith@@YA?AV?$unique_ptr@UAdResult@ith@@U?$default_delete@UAdResult@ith@@@std@@@std@@AEBUAdQueryRequest@1@@Z@4HA 00000001400255fc f   AdQuery.obj
 0001:00024625       ?dtor$50@?0??RunAdQuery@ith@@YA?AV?$unique_ptr@UAdResult@ith@@U?$default_delete@UAdResult@ith@@@std@@@std@@AEBUAdQueryRequest@1@@Z@4HA 0000000140025625 f   AdQuery.obj
 0001:0002464e       ?dtor$105@?0??RunAdQuery@ith@@YA?AV?$unique_ptr@UAdResult@ith@@U?$default_delete@UAdResult@ith@@@std@@@std@@AEBUAdQueryRequest@1@@Z@4HA 000000014002564e f   AdQuery.obj
 0001:0002464e       ?dtor$52@?0??RunAdQuery@ith@@YA?AV?$unique_ptr@UAdResult@ith@@U?$default_delete@UAdResult@ith@@@std@@@std@@AEBUAdQueryRequest@1@@Z@4HA 000000014002564e f   AdQuery.obj
 0001:0002465a       ?dtor$107@?0??RunAdQuery@ith@@YA?AV?$unique_ptr@UAdResult@ith@@U?$default_delete@UAdResult@ith@@@std@@@std@@AEBUAdQueryRequest@1@@Z@4HA 000000014002565a f   AdQuery.obj
 0001:0002465a       ?dtor$10@?0??_Do_call@?$_Func_impl_no_alloc@V<lambda_1>@?1??RunAdQuery@ith@@YA?AV?$unique_ptr@UAdResult@ith@@U?$default_delete@UAdResult@ith@@@std@@@std@@AEBUAdQueryRequest@3@@Z@XPEAX@std@@EEAAX$$QEAPEAX@Z@4HA 000000014002565a f   AdQuery.obj
 0001:0002465a       ?dtor$111@?0??RunAdQuery@ith@@YA?AV?$unique_ptr@UAdResult@ith@@U?$default_delete@UAdResult@ith@@@std@@@std@@AEBUAdQueryRequest@1@@Z@4HA 000000014002565a f   AdQuery.obj
 0001:0002465a       ?dtor$54@?0??RunAdQuery@ith@@YA?AV?$unique_ptr@UAdResult@ith@@U?$default_delete@UAdResult@ith@@@std@@@std@@AEBUAdQueryRequest@1@@Z@4HA 000000014002565a f   AdQuery.obj
 0001:0002465a       ?dtor$58@?0??RunAdQuery@ith@@YA?AV?$unique_ptr@UAdResult@ith@@U?$default_delete@UAdResult@ith@@@std@@@std@@AEBUAdQueryRequest@1@@Z@4HA 000000014002565a f   AdQuery.obj
 0001:0002465a       ?dtor$62@?0??RunAdQuery@ith@@YA?AV?$unique_ptr@UAdResult@ith@@U?$default_delete@UAdResult@ith@@@std@@@std@@AEBUAdQueryRequest@1@@Z@4HA 000000014002565a f   AdQuery.obj
 0001:0002465a       ?dtor$66@?0??RunAdQuery@ith@@YA?AV?$unique_ptr@UAdResult@ith@@U?$default_delete@UAdResult@ith@@@std@@@std@@AEBUAdQueryRequest@1@@Z@4HA 000000014002565a f   AdQuery.obj
 0001:0002465a       ?dtor$70@?0??RunAdQuery@ith@@YA?AV?$unique_ptr@UAdResult@ith@@U?$default_delete@UAdResult@ith@@@std@@@std@@AEBUAdQueryRequest@1@@Z@4HA 000000014002565a f   AdQuery.obj
 0001:0002465a       ?dtor$74@?0??RunAdQuery@ith@@YA?AV?$unique_ptr@UAdResult@ith@@U?$default_delete@UAdResult@ith@@@std@@@std@@AEBUAdQueryRequest@1@@Z@4HA 000000014002565a f   AdQuery.obj
 0001:0002465a       ?dtor$84@?0??RunAdQuery@ith@@YA?AV?$unique_ptr@UAdResult@ith@@U?$default_delete@UAdResult@ith@@@std@@@std@@AEBUAdQueryRequest@1@@Z@4HA 000000014002565a f   AdQuery.obj
 0001:0002465a       ?dtor$88@?0??RunAdQuery@ith@@YA?AV?$unique_ptr@UAdResult@ith@@U?$default_delete@UAdResult@ith@@@std@@@std@@AEBUAdQueryRequest@1@@Z@4HA 000000014002565a f   AdQuery.obj
 0001:0002465a       ?dtor$92@?0??RunAdQuery@ith@@YA?AV?$unique_ptr@UAdResult@ith@@U?$default_delete@UAdResult@ith@@@std@@@std@@AEBUAdQueryRequest@1@@Z@4HA 000000014002565a f   AdQuery.obj
 0001:00024666       ?dtor$109@?0??RunAdQuery@ith@@YA?AV?$unique_ptr@UAdResult@ith@@U?$default_delete@UAdResult@ith@@@std@@@std@@AEBUAdQueryRequest@1@@Z@4HA 0000000140025666 f   AdQuery.obj
 0001:00024666       ?dtor$113@?0??RunAdQuery@ith@@YA?AV?$unique_ptr@UAdResult@ith@@U?$default_delete@UAdResult@ith@@@std@@@std@@AEBUAdQueryRequest@1@@Z@4HA 0000000140025666 f   AdQuery.obj
 0001:00024666       ?dtor$56@?0??RunAdQuery@ith@@YA?AV?$unique_ptr@UAdResult@ith@@U?$default_delete@UAdResult@ith@@@std@@@std@@AEBUAdQueryRequest@1@@Z@4HA 0000000140025666 f   AdQuery.obj
 0001:00024666       ?dtor$60@?0??RunAdQuery@ith@@YA?AV?$unique_ptr@UAdResult@ith@@U?$default_delete@UAdResult@ith@@@std@@@std@@AEBUAdQueryRequest@1@@Z@4HA 0000000140025666 f   AdQuery.obj
 0001:00024666       ?dtor$64@?0??RunAdQuery@ith@@YA?AV?$unique_ptr@UAdResult@ith@@U?$default_delete@UAdResult@ith@@@std@@@std@@AEBUAdQueryRequest@1@@Z@4HA 0000000140025666 f   AdQuery.obj
 0001:00024666       ?dtor$68@?0??RunAdQuery@ith@@YA?AV?$unique_ptr@UAdResult@ith@@U?$default_delete@UAdResult@ith@@@std@@@std@@AEBUAdQueryRequest@1@@Z@4HA 0000000140025666 f   AdQuery.obj
 0001:00024666       ?dtor$72@?0??RunAdQuery@ith@@YA?AV?$unique_ptr@UAdResult@ith@@U?$default_delete@UAdResult@ith@@@std@@@std@@AEBUAdQueryRequest@1@@Z@4HA 0000000140025666 f   AdQuery.obj
 0001:00024666       ?dtor$76@?0??RunAdQuery@ith@@YA?AV?$unique_ptr@UAdResult@ith@@U?$default_delete@UAdResult@ith@@@std@@@std@@AEBUAdQueryRequest@1@@Z@4HA 0000000140025666 f   AdQuery.obj
 0001:00024666       ?dtor$86@?0??RunAdQuery@ith@@YA?AV?$unique_ptr@UAdResult@ith@@U?$default_delete@UAdResult@ith@@@std@@@std@@AEBUAdQueryRequest@1@@Z@4HA 0000000140025666 f   AdQuery.obj
 0001:00024666       ?dtor$90@?0??RunAdQuery@ith@@YA?AV?$unique_ptr@UAdResult@ith@@U?$default_delete@UAdResult@ith@@@std@@@std@@AEBUAdQueryRequest@1@@Z@4HA 0000000140025666 f   AdQuery.obj
 0001:00024666       ?dtor$94@?0??RunAdQuery@ith@@YA?AV?$unique_ptr@UAdResult@ith@@U?$default_delete@UAdResult@ith@@@std@@@std@@AEBUAdQueryRequest@1@@Z@4HA 0000000140025666 f   AdQuery.obj
 0001:00024672       ?dtor$100@?0??RunAdQuery@ith@@YA?AV?$unique_ptr@UAdResult@ith@@U?$default_delete@UAdResult@ith@@@std@@@std@@AEBUAdQueryRequest@1@@Z@4HA 0000000140025672 f   AdQuery.obj
 0001:00024672       ?dtor$116@?0??RunAdQuery@ith@@YA?AV?$unique_ptr@UAdResult@ith@@U?$default_delete@UAdResult@ith@@@std@@@std@@AEBUAdQueryRequest@1@@Z@4HA 0000000140025672 f   AdQuery.obj
 0001:00024672       ?dtor$119@?0??RunAdQuery@ith@@YA?AV?$unique_ptr@UAdResult@ith@@U?$default_delete@UAdResult@ith@@@std@@@std@@AEBUAdQueryRequest@1@@Z@4HA 0000000140025672 f   AdQuery.obj
 0001:00024672       ?dtor$79@?0??RunAdQuery@ith@@YA?AV?$unique_ptr@UAdResult@ith@@U?$default_delete@UAdResult@ith@@@std@@@std@@AEBUAdQueryRequest@1@@Z@4HA 0000000140025672 f   AdQuery.obj
 0001:00024672       ?dtor$82@?0??RunAdQuery@ith@@YA?AV?$unique_ptr@UAdResult@ith@@U?$default_delete@UAdResult@ith@@@std@@@std@@AEBUAdQueryRequest@1@@Z@4HA 0000000140025672 f   AdQuery.obj
 0001:00024672       ?dtor$97@?0??RunAdQuery@ith@@YA?AV?$unique_ptr@UAdResult@ith@@U?$default_delete@UAdResult@ith@@@std@@@std@@AEBUAdQueryRequest@1@@Z@4HA 0000000140025672 f   AdQuery.obj
 0001:0002467e       ?dtor$102@?0??RunAdQuery@ith@@YA?AV?$unique_ptr@UAdResult@ith@@U?$default_delete@UAdResult@ith@@@std@@@std@@AEBUAdQueryRequest@1@@Z@4HA 000000014002567e f   AdQuery.obj
 0001:000246a7       ?dtor$103@?0??RunAdQuery@ith@@YA?AV?$unique_ptr@UAdResult@ith@@U?$default_delete@UAdResult@ith@@@std@@@std@@AEBUAdQueryRequest@1@@Z@4HA 00000001400256a7 f   AdQuery.obj
 0001:000246d0       ?dtor$124@?0??RunAdQuery@ith@@YA?AV?$unique_ptr@UAdResult@ith@@U?$default_delete@UAdResult@ith@@@std@@@std@@AEBUAdQueryRequest@1@@Z@4HA 00000001400256d0 f   AdQuery.obj
 0001:000246dc       ?dtor$128@?0??RunAdQuery@ith@@YA?AV?$unique_ptr@UAdResult@ith@@U?$default_delete@UAdResult@ith@@@std@@@std@@AEBUAdQueryRequest@1@@Z@4HA 00000001400256dc f   AdQuery.obj
 0001:000246e8       ?dtor$152@?0??RunAdQuery@ith@@YA?AV?$unique_ptr@UAdResult@ith@@U?$default_delete@UAdResult@ith@@@std@@@std@@AEBUAdQueryRequest@1@@Z@4HA 00000001400256e8 f   AdQuery.obj
 0001:000246f4       ?dtor$154@?0??RunAdQuery@ith@@YA?AV?$unique_ptr@UAdResult@ith@@U?$default_delete@UAdResult@ith@@@std@@@std@@AEBUAdQueryRequest@1@@Z@4HA 00000001400256f4 f   AdQuery.obj
 0001:00024700       ?dtor$155@?0??RunAdQuery@ith@@YA?AV?$unique_ptr@UAdResult@ith@@U?$default_delete@UAdResult@ith@@@std@@@std@@AEBUAdQueryRequest@1@@Z@4HA 0000000140025700 f   AdQuery.obj
 0001:0002470c       ?dtor$2@?0???$emplace_back@AEBQEA_W@?$vector@V?$basic_string@_WU?$char_traits@_W@std@@V?$allocator@_W@2@@std@@V?$allocator@V?$basic_string@_WU?$char_traits@_W@std@@V?$allocator@_W@2@@std@@@2@@std@@QEAAAEAV?$basic_string@_WU?$char_traits@_W@std@@V?$allocator@_W@2@@1@AEBQEA_W@Z@4HA 000000014002570c f   AdQuery.obj
 0001:00024718       ?dtor$0@?0???$?0AEAV<lambda_1>@?1??RunAdQuery@ith@@YA?AV?$unique_ptr@UAdResult@ith@@U?$default_delete@UAdResult@ith@@@std@@@std@@AEBUAdQueryRequest@2@@Z@$0A@@?$function@$$A6AXPEAX@Z@std@@QEAA@AEAV<lambda_1>@?1??RunAdQuery@ith@@YA?AV?$unique_ptr@UAdResult@ith@@U?$default_delete@UAdResult@ith@@@std@@@1@AEBUAdQueryRequest@4@@Z@@Z@4HA 0000000140025718 f   AdQuery.obj
 0001:00024724       ?dtor$0@?0??_Do_call@?$_Func_impl_no_alloc@V<lambda_1>@?1??RunAdQuery@ith@@YA?AV?$unique_ptr@UAdResult@ith@@U?$default_delete@UAdResult@ith@@@std@@@std@@AEBUAdQueryRequest@3@@Z@XPEAX@std@@EEAAX$$QEAPEAX@Z@4HA 0000000140025724 f   AdQuery.obj
 0001:00024730       ?dtor$2@?0??_Do_call@?$_Func_impl_no_alloc@V<lambda_1>@?1??RunAdQuery@ith@@YA?AV?$unique_ptr@UAdResult@ith@@U?$default_delete@UAdResult@ith@@@std@@@std@@AEBUAdQueryRequest@3@@Z@XPEAX@std@@EEAAX$$QEAPEAX@Z@4HA 0000000140025730 f   AdQuery.obj
 0001:0002473c       ?dtor$3@?0??_Do_call@?$_Func_impl_no_alloc@V<lambda_1>@?1??RunAdQuery@ith@@YA?AV?$unique_ptr@UAdResult@ith@@U?$default_delete@UAdResult@ith@@@std@@@std@@AEBUAdQueryRequest@3@@Z@XPEAX@std@@EEAAX$$QEAPEAX@Z@4HA 000000014002573c f   AdQuery.obj
 0001:00024748       ?dtor$4@?0??_Do_call@?$_Func_impl_no_alloc@V<lambda_1>@?1??RunAdQuery@ith@@YA?AV?$unique_ptr@UAdResult@ith@@U?$default_delete@UAdResult@ith@@@std@@@std@@AEBUAdQueryRequest@3@@Z@XPEAX@std@@EEAAX$$QEAPEAX@Z@4HA 0000000140025748 f   AdQuery.obj
 0001:00024754       ?dtor$5@?0??_Do_call@?$_Func_impl_no_alloc@V<lambda_1>@?1??RunAdQuery@ith@@YA?AV?$unique_ptr@UAdResult@ith@@U?$default_delete@UAdResult@ith@@@std@@@std@@AEBUAdQueryRequest@3@@Z@XPEAX@std@@EEAAX$$QEAPEAX@Z@4HA 0000000140025754 f   AdQuery.obj
 0001:00024760       ?dtor$6@?0??_Do_call@?$_Func_impl_no_alloc@V<lambda_1>@?1??RunAdQuery@ith@@YA?AV?$unique_ptr@UAdResult@ith@@U?$default_delete@UAdResult@ith@@@std@@@std@@AEBUAdQueryRequest@3@@Z@XPEAX@std@@EEAAX$$QEAPEAX@Z@4HA 0000000140025760 f   AdQuery.obj
 0001:0002476c       ?dtor$7@?0??_Do_call@?$_Func_impl_no_alloc@V<lambda_1>@?1??RunAdQuery@ith@@YA?AV?$unique_ptr@UAdResult@ith@@U?$default_delete@UAdResult@ith@@@std@@@std@@AEBUAdQueryRequest@3@@Z@XPEAX@std@@EEAAX$$QEAPEAX@Z@4HA 000000014002576c f   AdQuery.obj
 0001:00024778       ?dtor$8@?0??_Do_call@?$_Func_impl_no_alloc@V<lambda_1>@?1??RunAdQuery@ith@@YA?AV?$unique_ptr@UAdResult@ith@@U?$default_delete@UAdResult@ith@@@std@@@std@@AEBUAdQueryRequest@3@@Z@XPEAX@std@@EEAAX$$QEAPEAX@Z@4HA 0000000140025778 f   AdQuery.obj
 0001:00024784       ?dtor$9@?0??_Do_call@?$_Func_impl_no_alloc@V<lambda_1>@?1??RunAdQuery@ith@@YA?AV?$unique_ptr@UAdResult@ith@@U?$default_delete@UAdResult@ith@@@std@@@std@@AEBUAdQueryRequest@3@@Z@XPEAX@std@@EEAAX$$QEAPEAX@Z@4HA 0000000140025784 f   AdQuery.obj
 0001:00024790       ?dtor$18@?0??_Do_call@?$_Func_impl_no_alloc@V<lambda_1>@?1??RunAdQuery@ith@@YA?AV?$unique_ptr@UAdResult@ith@@U?$default_delete@UAdResult@ith@@@std@@@std@@AEBUAdQueryRequest@3@@Z@XPEAX@std@@EEAAX$$QEAPEAX@Z@4HA 0000000140025790 f   AdQuery.obj
 0001:0002479c       ?dtor$0@?0??_Do_call@?$_Func_impl_no_alloc@V<lambda_1>@?1??CollectNames@?A0x1f6e8d05@ith@@YA?AV?$vector@UNamedEntry@ith@@V?$allocator@UNamedEntry@ith@@@std@@@std@@PEAUIDirectorySearch@@AEBV?$basic_string@_WU?$char_traits@_W@std@@V?$allocator@_W@2@@6@@Z@XPEAX@std@@EEAAX$$QEAPEAX@Z@4HA 000000014002579c f   AdQuery.obj
 0001:000247a8       ?dtor$10@?0??_Do_call@?$_Func_impl_no_alloc@V<lambda_1>@?1??CollectNames@?A0x1f6e8d05@ith@@YA?AV?$vector@UNamedEntry@ith@@V?$allocator@UNamedEntry@ith@@@std@@@std@@PEAUIDirectorySearch@@AEBV?$basic_string@_WU?$char_traits@_W@std@@V?$allocator@_W@2@@6@@Z@XPEAX@std@@EEAAX$$QEAPEAX@Z@4HA 00000001400257a8 f   AdQuery.obj
 0001:000247a8       ?dtor$11@?0??_Do_call@?$_Func_impl_no_alloc@V<lambda_1>@?1??CollectNames@?A0x1f6e8d05@ith@@YA?AV?$vector@UNamedEntry@ith@@V?$allocator@UNamedEntry@ith@@@std@@@std@@PEAUIDirectorySearch@@AEBV?$basic_string@_WU?$char_traits@_W@std@@V?$allocator@_W@2@@6@@Z@XPEAX@std@@EEAAX$$QEAPEAX@Z@4HA 00000001400257a8 f   AdQuery.obj
 0001:000247a8       ?dtor$7@?0??_Do_call@?$_Func_impl_no_alloc@V<lambda_1>@?1??CollectNames@?A0x1f6e8d05@ith@@YA?AV?$vector@UNamedEntry@ith@@V?$allocator@UNamedEntry@ith@@@std@@@std@@PEAUIDirectorySearch@@AEBV?$basic_string@_WU?$char_traits@_W@std@@V?$allocator@_W@2@@6@@Z@XPEAX@std@@EEAAX$$QEAPEAX@Z@4HA 00000001400257a8 f   AdQuery.obj
 0001:000247a8       ?dtor$9@?0??_Do_call@?$_Func_impl_no_alloc@V<lambda_1>@?1??CollectNames@?A0x1f6e8d05@ith@@YA?AV?$vector@UNamedEntry@ith@@V?$allocator@UNamedEntry@ith@@@std@@@std@@PEAUIDirectorySearch@@AEBV?$basic_string@_WU?$char_traits@_W@std@@V?$allocator@_W@2@@6@@Z@XPEAX@std@@EEAAX$$QEAPEAX@Z@4HA 00000001400257a8 f   AdQuery.obj
 0001:000247b4       ?dtor$0@?0??WorkerFn@?A0xd1b81b73@ith@@YAXPEAUHWND__@@IUAdQueryRequest@2@@Z@4HA 00000001400257b4 f   AdQueryTool.obj
 0001:000247c0       ?dtor$1@?0??WorkerFn@?A0xd1b81b73@ith@@YAXPEAUHWND__@@IUAdQueryRequest@2@@Z@4HA 00000001400257c0 f   AdQueryTool.obj
 0001:000247cc       ?dtor$2@?0??WorkerFn@?A0xd1b81b73@ith@@YAXPEAUHWND__@@IUAdQueryRequest@2@@Z@4HA 00000001400257cc f   AdQueryTool.obj
 0001:000247d8       ?catch$30@?0??WorkerFn@?A0xd1b81b73@ith@@YAXPEAUHWND__@@IUAdQueryRequest@2@@Z@4HA 00000001400257d8 f   AdQueryTool.obj
 0001:000247e7       __catch$?WorkerFn@?A0xd1b81b73@ith@@YAXPEAUHWND__@@IUAdQueryRequest@2@@Z$0 00000001400257e7 f   AdQueryTool.obj
 0001:00024905       ?dtor$0@?0??RootWndProc@ith@@YA_JPEAUHWND__@@I_K_J@Z@4HA 0000000140025905 f   AdQueryTool.obj
 0001:00024911       ?dtor$2@?0??RootWndProc@ith@@YA_JPEAUHWND__@@I_K_J@Z@4HA 0000000140025911 f   AdQueryTool.obj
 0001:0002491d       ?dtor$12@?0??RootWndProc@ith@@YA_JPEAUHWND__@@I_K_J@Z@4HA 000000014002591d f   AdQueryTool.obj
 0001:0002491d       ?dtor$8@?0??RootWndProc@ith@@YA_JPEAUHWND__@@I_K_J@Z@4HA 000000014002591d f   AdQueryTool.obj
 0001:00024929       ?dtor$13@?0??RootWndProc@ith@@YA_JPEAUHWND__@@I_K_J@Z@4HA 0000000140025929 f   AdQueryTool.obj
 0001:00024929       ?dtor$9@?0??RootWndProc@ith@@YA_JPEAUHWND__@@I_K_J@Z@4HA 0000000140025929 f   AdQueryTool.obj
 0001:00024935       ?catch$18@?0??RootWndProc@ith@@YA_JPEAUHWND__@@I_K_J@Z@4HA 0000000140025935 f   AdQueryTool.obj
 0001:00024942       __catch$?RootWndProc@ith@@YA_JPEAUHWND__@@I_K_J@Z$0 0000000140025942 f   AdQueryTool.obj
 0001:0002496f       ?dtor$1@?0??ResultsWndProc@ith@@YA_JPEAUHWND__@@I_K_J@Z@4HA 000000014002596f f   AdQueryTool.obj
 0001:0002497b       ?dtor$2@?0??ResultsWndProc@ith@@YA_JPEAUHWND__@@I_K_J@Z@4HA 000000014002597b f   AdQueryTool.obj
 0001:00024987       ?dtor$3@?0??ResultsWndProc@ith@@YA_JPEAUHWND__@@I_K_J@Z@4HA 0000000140025987 f   AdQueryTool.obj
 0001:00024993       ?catch$5@?0??ResultsWndProc@ith@@YA_JPEAUHWND__@@I_K_J@Z@4HA 0000000140025993 f   AdQueryTool.obj
 0001:000249a0       __catch$?ResultsWndProc@ith@@YA_JPEAUHWND__@@I_K_J@Z$0 00000001400259a0 f   AdQueryTool.obj
 0001:000249ca       ?dtor$0@?0??LayoutResults@AdQueryView@ith@@AEAAXXZ@4HA 00000001400259ca f   AdQueryTool.obj
 0001:000249d6       ?dtor$0@?0??BeginSearch@AdQueryView@ith@@AEAAXXZ@4HA 00000001400259d6 f   AdQueryTool.obj
 0001:000249e2       ?dtor$1@?0??BeginSearch@AdQueryView@ith@@AEAAXXZ@4HA 00000001400259e2 f   AdQueryTool.obj
 0001:000249ee       ?dtor$2@?0??BeginSearch@AdQueryView@ith@@AEAAXXZ@4HA 00000001400259ee f   AdQueryTool.obj
 0001:000249fa       ?dtor$13@?0??BeginSearch@AdQueryView@ith@@AEAAXXZ@4HA 00000001400259fa f   AdQueryTool.obj
 0001:00024a06       ?dtor$14@?0??BeginSearch@AdQueryView@ith@@AEAAXXZ@4HA 0000000140025a06 f   AdQueryTool.obj
 0001:00024a23       ?dtor$22@?0??BeginSearch@AdQueryView@ith@@AEAAXXZ@4HA 0000000140025a23 f   AdQueryTool.obj
 0001:00024a33       ?dtor$0@?0??CopySelected@AdQueryView@ith@@AEAAXPEAUHWND__@@H@Z@4HA 0000000140025a33 f   AdQueryTool.obj
 0001:00024a3f       ?dtor$1@?0??CopySelected@AdQueryView@ith@@AEAAXPEAUHWND__@@H@Z@4HA 0000000140025a3f f   AdQueryTool.obj
 0001:00024a3f       ?dtor$5@?0??CopySelected@AdQueryView@ith@@AEAAXPEAUHWND__@@H@Z@4HA 0000000140025a3f f   AdQueryTool.obj
 0001:00024a4b       ?dtor$2@?0??CopySelected@AdQueryView@ith@@AEAAXPEAUHWND__@@H@Z@4HA 0000000140025a4b f   AdQueryTool.obj
 0001:00024a57       ?dtor$3@?0??CopySelected@AdQueryView@ith@@AEAAXPEAUHWND__@@H@Z@4HA 0000000140025a57 f   AdQueryTool.obj
 0001:00024a63       ?dtor$4@?0??CopySelected@AdQueryView@ith@@AEAAXPEAUHWND__@@H@Z@4HA 0000000140025a63 f   AdQueryTool.obj
 0001:00024a6f       ?dtor$1@?0???4?$vector@UNamedEntry@ith@@V?$allocator@UNamedEntry@ith@@@std@@@std@@QEAAAEAV01@AEBV01@@Z@4HA 0000000140025a6f f   AdQueryTool.obj
 0001:00024a6f       ?dtor$4@?0???4?$vector@UNamedEntry@ith@@V?$allocator@UNamedEntry@ith@@@std@@@std@@QEAAAEAV01@AEBV01@@Z@4HA 0000000140025a6f f   AdQueryTool.obj
 0001:00024a80       ?dtor$3@?0???0_System_error@std@@IEAA@Verror_code@1@AEBV?$basic_string@DU?$char_traits@D@std@@V?$allocator@D@2@@1@@Z@4HA 0000000140025a80 f   libcpmt:thread0.obj
 0001:00024a90       ?dtor$4@?0???0_System_error@std@@IEAA@Verror_code@1@AEBV?$basic_string@DU?$char_traits@D@std@@V?$allocator@D@2@@1@@Z@4HA 0000000140025a90 f   libcpmt:thread0.obj
 0001:00024aa0       ?dtor$0@?0???0system_error@std@@QEAA@HAEBVerror_category@1@PEBD@Z@4HA 0000000140025aa0 f   libcpmt:thread0.obj
 0001:00024ab0       ?filt$0@?0??__scrt_common_main_seh@@YAHXZ@4HA 0000000140025ab0 f   LIBCMT:exe_wwinmain.obj
 0001:00024ad0       __scrt_is_nonwritable_in_current_image$filt$0 0000000140025ad0 f   LIBCMT:utility.obj
 0001:00024af0       ?filt$0@?0???$_CallSETranslator@V__FrameHandler3@@@@YAHPEAUEHExceptionRecord@@PEA_KPEAU_CONTEXT@@PEAU_xDISPATCHER_CONTEXT@@PEBU_s_FuncInfo@@K1H@Z@4HA 0000000140025af0 f   libvcruntime:risctrnsctrl.obj
 0001:00024ba0       ?filt$0@?0???$_CallSETranslator@V__FrameHandler4@@@@YAHPEAUEHExceptionRecord@@PEA_KPEAU_CONTEXT@@PEAU_xDISPATCHER_CONTEXT@@PEAUFuncInfo4@FH4@@K1H@Z@4HA 0000000140025ba0 f   libvcruntime:risctrnsctrl.obj
 0001:00024c60       __DestructExceptionObject$filt$0 0000000140025c60 f   libvcruntime:ehhelpers.obj
 0001:00024d00       ?fin$0@?0???$__InternalCxxFrameHandlerWrapper@V__FrameHandler4@@@@YA?AW4_EXCEPTION_DISPOSITION@@PEAUEHExceptionRecord@@PEA_KPEAU_CONTEXT@@PEAU_xDISPATCHER_CONTEXT@@PEAUFuncInfo4@FH4@@H1E@Z@4HA 0000000140025d00 f   libvcruntime:frame.obj
 0001:00024d20       ?filt$0@?0??CxxCallCatchBlock@__FrameHandler3@@SAPEAXPEAU_EXCEPTION_RECORD@@@Z@4HA 0000000140025d20 f   libvcruntime:frame.obj
 0001:00024d41       ?fin$1@?0??CxxCallCatchBlock@__FrameHandler3@@SAPEAXPEAU_EXCEPTION_RECORD@@@Z@4HA 0000000140025d41 f   libvcruntime:frame.obj
 0001:00024dd0       ?filt$0@?0??CxxCallCatchBlock@__FrameHandler4@@SAPEAXPEAU_EXCEPTION_RECORD@@@Z@4HA 0000000140025dd0 f   libvcruntime:frame.obj
 0001:00024df5       ?fin$1@?0??CxxCallCatchBlock@__FrameHandler4@@SAPEAXPEAU_EXCEPTION_RECORD@@@Z@4HA 0000000140025df5 f   libvcruntime:frame.obj
 0001:00024e90       ?filt$0@?0??FrameUnwindToState@__FrameHandler3@@SAXPEA_KPEAU_xDISPATCHER_CONTEXT@@PEBU_s_FuncInfo@@H@Z@4HA 0000000140025e90 f   libvcruntime:frame.obj
 0001:00024ea6       ?fin$1@?0??FrameUnwindToState@__FrameHandler3@@SAXPEA_KPEAU_xDISPATCHER_CONTEXT@@PEBU_s_FuncInfo@@H@Z@4HA 0000000140025ea6 f   libvcruntime:frame.obj
 0001:00024ed0       ?filt$0@?0??FrameUnwindToState@__FrameHandler4@@SAXPEA_KPEAU_xDISPATCHER_CONTEXT@@PEAUFuncInfo4@FH4@@H@Z@4HA 0000000140025ed0 f   libvcruntime:frame.obj
 0001:00024ee6       ?fin$1@?0??FrameUnwindToState@__FrameHandler4@@SAXPEA_KPEAU_xDISPATCHER_CONTEXT@@PEAUFuncInfo4@FH4@@H@Z@4HA 0000000140025ee6 f   libvcruntime:frame.obj
 0001:00024f09       ?filt$0@?0???$thread_start@P6AIPEAX@Z$00@@YAKQEAX@Z@4HA 0000000140025f09 f   libucrt:thread.obj
 0001:00024f30       _query_new_handler$fin$0   0000000140025f30 f   libucrt:new_handler.obj
 0001:00024f46       _set_new_handler$fin$0     0000000140025f46 f   libucrt:new_handler.obj
 0001:00024f5c       ?fin$0@?0???$?RV<lambda_0ae27a3a962d80f24befdcbee591983d>@@AEAV<lambda_8d0ee55de4b1038c4002e0adecdf1839>@@V<lambda_dc504788e8f1664fe9b84e20bfb512f2>@@@?$__crt_seh_guarded_call@X@@QEAAX$$QEAV<lambda_0ae27a3a962d80f24befdcbee591983d>@@AEAV<lambda_8d0ee55de4b1038c4002e0adecdf1839>@@$$QEAV<lambda_dc504788e8f1664fe9b84e20bfb512f2>@@@Z@4HA 0000000140025f5c f   libucrt:per_thread_data.obj
 0001:00024f5c       ?fin$0@?0???$?RV<lambda_2d41944a1d46af3157314b8a01080d33>@@AEAV<lambda_8f455de75cd7d7f24b4096f044d8b9e6>@@V<lambda_aa500f224e6afead328df44964fe2772>@@@?$__crt_seh_guarded_call@X@@QEAAX$$QEAV<lambda_2d41944a1d46af3157314b8a01080d33>@@AEAV<lambda_8f455de75cd7d7f24b4096f044d8b9e6>@@$$QEAV<lambda_aa500f224e6afead328df44964fe2772>@@@Z@4HA 0000000140025f5c f   libucrt:per_thread_data.obj
 0001:00024f5c       ?fin$0@?0???$?RV<lambda_aa87e3671a710a21b5dc78c0bdf72e11>@@AEAV<lambda_92619d2358a28f41a33ba319515a20b9>@@V<lambda_6992ecaafeb10aed2b74cb1fae11a551>@@@?$__crt_seh_guarded_call@X@@QEAAX$$QEAV<lambda_aa87e3671a710a21b5dc78c0bdf72e11>@@AEAV<lambda_92619d2358a28f41a33ba319515a20b9>@@$$QEAV<lambda_6992ecaafeb10aed2b74cb1fae11a551>@@@Z@4HA 0000000140025f5c f   libucrt:per_thread_data.obj
 0001:00024f5c       ?fin$0@?0???$?RV<lambda_f2e299630e499de9f9a165e60fcd3db5>@@AEAV<lambda_2ae9d31cdba2644fcbeaf08da7c24588>@@V<lambda_40d01ff24d0e7b3814fdbdcee8eab3c7>@@@?$__crt_seh_guarded_call@X@@QEAAX$$QEAV<lambda_f2e299630e499de9f9a165e60fcd3db5>@@AEAV<lambda_2ae9d31cdba2644fcbeaf08da7c24588>@@$$QEAV<lambda_40d01ff24d0e7b3814fdbdcee8eab3c7>@@@Z@4HA 0000000140025f5c f   libucrt:per_thread_data.obj
 0001:00024f5c       ?fin$0@?0???$?RV<lambda_450d765d439847d4c735a33c368b5fc0>@@AEAV<lambda_44731a7d0e6d81c3e6aa82d741081786>@@V<lambda_601a2a7da3b7a96e9554ac7215c4b07c>@@@?$__crt_seh_guarded_call@P6AXH@Z@@QEAAP6AXH@Z$$QEAV<lambda_450d765d439847d4c735a33c368b5fc0>@@AEAV<lambda_44731a7d0e6d81c3e6aa82d741081786>@@$$QEAV<lambda_601a2a7da3b7a96e9554ac7215c4b07c>@@@Z@4HA 0000000140025f5c f   libucrt:signal.obj
 0001:00024f5c       ?fin$0@?0???$?RV<lambda_d80eeec6fff315bfe5c115232f3240e3>@@AEAV<lambda_6e4b09c48022b2350581041d5f6b0c4c>@@V<lambda_2358e3775559c9db80273638284d5e45>@@@?$__crt_seh_guarded_call@X@@QEAAX$$QEAV<lambda_d80eeec6fff315bfe5c115232f3240e3>@@AEAV<lambda_6e4b09c48022b2350581041d5f6b0c4c>@@$$QEAV<lambda_2358e3775559c9db80273638284d5e45>@@@Z@4HA 0000000140025f5c f   libucrt:exit.obj
 0001:00024f5c       ?fin$0@?0???$?RV<lambda_638799b9deba96c50f710eeac98168cd>@@AEAV<lambda_22ebabd17bc4fa466a2aca6d8deb888d>@@V<lambda_a6f7d7db0129f75315ebf26d50c089f1>@@@?$__crt_seh_guarded_call@H@@QEAAH$$QEAV<lambda_638799b9deba96c50f710eeac98168cd>@@AEAV<lambda_22ebabd17bc4fa466a2aca6d8deb888d>@@$$QEAV<lambda_a6f7d7db0129f75315ebf26d50c089f1>@@@Z@4HA 0000000140025f5c f   libucrt:onexit.obj
 0001:00024f5c       ?fin$0@?0???$?RV<lambda_7777bce6b2f8c936911f934f8298dc43>@@AEAV<lambda_f03950bc5685219e0bcd2087efbe011e>@@V<lambda_3883c3dff614d5e0c5f61bb1ac94921c>@@@?$__crt_seh_guarded_call@H@@QEAAH$$QEAV<lambda_7777bce6b2f8c936911f934f8298dc43>@@AEAV<lambda_f03950bc5685219e0bcd2087efbe011e>@@$$QEAV<lambda_3883c3dff614d5e0c5f61bb1ac94921c>@@@Z@4HA 0000000140025f5c f   libucrt:onexit.obj
 0001:00024f76       ?filt$0@?0???R<lambda_6e4b09c48022b2350581041d5f6b0c4c>@@QEBA@XZ@4HA 0000000140025f76 f   libucrt:exit.obj
 0001:00024fa3       ?fin$0@?0???$?RV<lambda_410d79af7f07d98d83a3f525b3859a53>@@AEAV<lambda_3e16ef9562a7dcce91392c22ab16ea36>@@V<lambda_38119f0e861e05405d8a144b9b982f0a>@@@?$__crt_seh_guarded_call@X@@QEAAX$$QEAV<lambda_410d79af7f07d98d83a3f525b3859a53>@@AEAV<lambda_3e16ef9562a7dcce91392c22ab16ea36>@@$$QEAV<lambda_38119f0e861e05405d8a144b9b982f0a>@@@Z@4HA 0000000140025fa3 f   libucrt:wsetlocale.obj
 0001:00024fbd       __acrt_initialize_lowio$fin$0 0000000140025fbd f   libucrt:ioinit.obj
 0001:00024fbd       __acrt_lowio_ensure_fh_exists$fin$0 0000000140025fbd f   libucrt:osfinfo.obj
 0001:00024fd6       raise$fin$0                0000000140025fd6 f   libucrt:signal.obj
 0001:00024ff7       _fcloseall$fin$0           0000000140025ff7 f   libucrt:closeall.obj
 0001:00025010       ?fin$0@?0???$?RV<lambda_842d9ff0dc9ef11c61343bbaebe7f885>@@AEAV<lambda_c5860995281e5c4ce005b3de8f5874ee>@@V<lambda_d90129c13df834fdcbf8d2b88dafcf2d>@@@?$__crt_seh_guarded_call@X@@QEAAX$$QEAV<lambda_842d9ff0dc9ef11c61343bbaebe7f885>@@AEAV<lambda_c5860995281e5c4ce005b3de8f5874ee>@@$$QEAV<lambda_d90129c13df834fdcbf8d2b88dafcf2d>@@@Z@4HA 0000000140026010 f   libucrt:fflush.obj
 0001:0002502b       ?fin$0@?0???$?RV<lambda_886d6c58226a84441f68b9f2b8217b83>@@AEAV<lambda_ab61a845afdef5b7c387490eaf3616ee>@@V<lambda_f7f22ab5edc0698d5f6905b0d3f44752>@@@?$__crt_seh_guarded_call@X@@QEAAX$$QEAV<lambda_886d6c58226a84441f68b9f2b8217b83>@@AEAV<lambda_ab61a845afdef5b7c387490eaf3616ee>@@$$QEAV<lambda_f7f22ab5edc0698d5f6905b0d3f44752>@@@Z@4HA 000000014002602b f   libucrt:fflush.obj
 0001:00025048       ?fin$0@?0???$?RV<lambda_efdfa57d1f175319df784efa44bb7b81>@@AEAV<lambda_5f0a4c1567f8adc6734073e5d1e1b35c>@@V<lambda_2e8a7d3640ea6ccb4c2413664c2db6fd>@@@?$__crt_seh_guarded_call@X@@QEAAX$$QEAV<lambda_efdfa57d1f175319df784efa44bb7b81>@@AEAV<lambda_5f0a4c1567f8adc6734073e5d1e1b35c>@@$$QEAV<lambda_2e8a7d3640ea6ccb4c2413664c2db6fd>@@@Z@4HA 0000000140026048 f   libucrt:mbctype.obj
 0001:00025062       ?fin$0@?0??update_thread_multibyte_data_internal@@YAPEAU__crt_multibyte_data@@QEAU__acrt_ptd@@QEAPEAU1@@Z@4HA 0000000140026062 f   libucrt:mbctype.obj
 0001:0002507b       __acrt_update_thread_locale_data$fin$0 000000014002607b f   libucrt:locale_refcounting.obj
 0001:000250a0       _ctrlfp$filt$0             00000001400260a0 f   libucrt:fpctrl.obj
 0001:000250cd       ?fin$0@?0??_fclose_internal@@YAHQEAU_iobuf@@AEAV__crt_cached_ptd_host@@@Z@4HA 00000001400260cd f   libucrt:fclose.obj
 0001:000250e5       ?fin$0@?0???$?RV<lambda_ad8af0d99a0adf03d037d7dffe354bb5>@@AEAV<lambda_c9ba49e555ba839a7b07aa3fbecb7617>@@V<lambda_2f1ebd5d68526518146ae959c9e734c8>@@@?$__crt_seh_guarded_call@H@@QEAAH$$QEAV<lambda_ad8af0d99a0adf03d037d7dffe354bb5>@@AEAV<lambda_c9ba49e555ba839a7b07aa3fbecb7617>@@$$QEAV<lambda_2f1ebd5d68526518146ae959c9e734c8>@@@Z@4HA 00000001400260e5 f   libucrt:close.obj
 0001:000250e5       ?fin$0@?0???$?RV<lambda_a37b2b86f63e897a80ea819b0eb08c01>@@AEAV<lambda_38ce7e780aa69e748d6df282ebc68efe>@@V<lambda_99fb1378e971ab6e7edea83e3a7a83a2>@@@?$__crt_seh_guarded_call@H@@QEAAH$$QEAV<lambda_a37b2b86f63e897a80ea819b0eb08c01>@@AEAV<lambda_38ce7e780aa69e748d6df282ebc68efe>@@$$QEAV<lambda_99fb1378e971ab6e7edea83e3a7a83a2>@@@Z@4HA 00000001400260e5 f   libucrt:commit.obj
 0001:000250ff       _write_internal$fin$0      00000001400260ff f   libucrt:write.obj
 0001:00025120       common_control87$filt$0    0000000140026120 f   libucrt:ieee.obj
 0001:00025150       _IsNonwritableInCurrentImage$filt$0 0000000140026150 f   LIBCMT:pesect.obj
 0002:000004f8       ?pre_cpp_initializer@@3P6AXXZEA 00000001400274f8     LIBCMT:exe_wwinmain.obj
 0002:00000510       ?pre_c_initializer@@3P6AHXZEA 0000000140027510     LIBCMT:exe_wwinmain.obj
 0002:00000518       ?post_pgo_initializer@@3P6AHXZEA 0000000140027518     LIBCMT:exe_wwinmain.obj
 0002:00000670       ?_Tables_1_sse@_Removing@?A0x8417fefe@@3U?$_Tables@$0BAA@$07@12@B 0000000140027670     libcpmt:vector_algorithms.obj
 0002:00000f70       ?_Tables_2_sse@_Removing@?A0x8417fefe@@3U?$_Tables@$0BAA@$0BA@@12@B 0000000140027f70     libcpmt:vector_algorithms.obj
 0002:00002070       ?_Tables_4_sse@_Removing@?A0x8417fefe@@3U?$_Tables@$0BA@$0BA@@12@B 0000000140029070     libcpmt:vector_algorithms.obj
 0002:00002180       ?_Tables_4_avx@_Removing@?A0x8417fefe@@3U?$_Tables@$0BAA@$07@12@B 0000000140029180     libcpmt:vector_algorithms.obj
 0002:00002a80       ?_Tables_8_sse@_Removing@?A0x8417fefe@@3U?$_Tables@$03$0BA@@12@B 0000000140029a80     libcpmt:vector_algorithms.obj
 0002:00002ad0       ?_Tables_8_avx@_Removing@?A0x8417fefe@@3U?$_Tables@$0BA@$07@12@B 0000000140029ad0     libcpmt:vector_algorithms.obj
 0002:00002b60       ?_Tail_masks@?1??_Avx2_tail_mask_32@?A0x8417fefe@@YA?AT__m256i@@_K@Z@4QBIB 0000000140029b60     libcpmt:vector_algorithms.obj
 0002:00002c40       ?msgs@std@@3QBQEBDB        0000000140029c40     libcpmt:thread0.obj
 0002:00002c78       ?codes@std@@3QBW4errc@1@B  0000000140029c78     libcpmt:thread0.obj
 0002:00002de0       ?_Sys_errtab@?A0xdad2e229@@3QBU_Sys_errtab_t@1@B 0000000140029de0     libcpmt:syserror.obj
 0002:000032d0       ?_Win_errtab@?A0xdad2e229@@3QBU_Win_errtab_t@1@B 000000014002a2d0     libcpmt:syserror.obj
 0002:00003b90       ?_Whitespace_bitmap@?A0xfa98056f@@3U_Whitespace_bitmap_t@1@B 000000014002ab90     libcpmt:syserror_import_lib.obj
 0002:00003cc0       ?ExceptionTemplate@?1??UnwindNestedFrames@__FrameHandler4@@SAXPEA_KPEAUEHExceptionRecord@@PEAU_CONTEXT@@0PEAXPEAUFuncInfo4@FH4@@HHPEAUHandlerType4@6@PEAU_xDISPATCHER_CONTEXT@@E@Z@4U_EXCEPTION_RECORD@@B 000000014002acc0     libvcruntime:risctrnsctrl.obj
 0002:00003d60       ?ExceptionTemplate@?1??UnwindNestedFrames@__FrameHandler3@@SAXPEA_KPEAUEHExceptionRecord@@PEAU_CONTEXT@@0PEAXPEBU_s_FuncInfo@@HHPEBU_s_HandlerType@@PEAU_xDISPATCHER_CONTEXT@@E@Z@4U_EXCEPTION_RECORD@@B 000000014002ad60     libvcruntime:risctrnsctrl.obj
 0002:00003e30       ?tokenTable@@3QBUStringLiteral@@B 000000014002ae30     libvcruntime:undname.obj
 0002:00003f40       ?nameTable@@3QBUStringLiteral@@B 000000014002af40     libvcruntime:undname.obj
 0002:00004470       ?rttiTable@@3QBUStringLiteral@@B 000000014002b470     libvcruntime:undname.obj
 0002:000044c0       ?IndirectionName@@3QBUStringLiteral@@B 000000014002b4c0     libvcruntime:undname.obj
 0002:00004520       ?PrefixName@@3QBUStringLiteral@@B 000000014002b520     libvcruntime:undname.obj
 0002:00004d10       $cppxdata$?state_case_type@?$output_processor@_WV?$string_output_adapter@_W@__crt_stdio_output@@V?$standard_base@_WV?$string_output_adapter@_W@__crt_stdio_output@@@2@@__crt_stdio_output@@AEAA_NXZ 000000014002bd10     libucrt:output.obj
 0002:00004d38       $cppxdata$?type_case_s_compute_narrow_string_length@?$output_processor@_WV?$string_output_adapter@_W@__crt_stdio_output@@V?$standard_base@_WV?$string_output_adapter@_W@__crt_stdio_output@@@2@@__crt_stdio_output@@AEAAHH_W@Z 000000014002bd38     libucrt:output.obj
 0002:00004e58       $cppxdata$__dcrt_uninitialize_environments_nolock 000000014002be58     libucrt:environment_initialization.obj
 0002:00004e58       $cppxdata$__acrt_getptd_head 000000014002be58     libucrt:per_thread_data.obj
 0002:00004e58       $cppxdata$__acrt_getptd_noexit 000000014002be58     libucrt:per_thread_data.obj
 0002:00004e58       $cppxdata$__acrt_getptd_noexit_explicit 000000014002be58     libucrt:per_thread_data.obj
 0002:00004e80       $cppxdata$?try_cor_exit_process@@YAXI@Z 000000014002be80     libucrt:exit.obj
 0002:00004ea8       $cppxdata$?common_exit@@YAXHW4_crt_exit_cleanup_mode@@W4_crt_exit_return_mode@@@Z 000000014002bea8     libucrt:exit.obj
 0002:00004ef8       $cppxdata$_execute_onexit_table 000000014002bef8     libucrt:onexit.obj
 0002:00004f20       __acrt_initializers        000000014002bf20     libucrt:initialization.obj
 0002:00005020       ?errtable@@3QBUerrentry@?A0x31fdb9ec@@B 000000014002c020     libucrt:errno.obj
 0002:00005190       ?strings@?1??fp_format_nan_or_infinity@@YAHW4__acrt_fp_class@@_NPEAD_K1@Z@4QAY03QEBDA 000000014002c190     libucrt:cvt.obj
 0002:000058f0       DoubleNegZero              000000014002c8f0     libucrt:floorceil_sse41.obj
 0002:00005900       DoubleLargestNumBelowHalf  000000014002c900     libucrt:floorceil_sse41.obj
 0002:00005910       FloatNegZero               000000014002c910     libucrt:floorceil_sse41.obj
 0002:00005920       FloatLargestNumBelowHalf   000000014002c920     libucrt:floorceil_sse41.obj
 0002:00005930       ?module_names@?A0x391cf84c@@3QBQEB_WB 000000014002c930     libucrt:winapi_thunks.obj
 0002:00005f88       ?candidate_modules@?1??try_get_FlsGetValue2@@YAP6APEAXK@ZXZ@4QBW4module_id@?A0x391cf84c@@B 000000014002cf88     libucrt:winapi_thunks.obj
 0002:00005fa0       ?candidate_modules@?1??try_get_LCMapStringEx@@YAP6AHPEB_WK0HPEA_WHPEAU_nlsversioninfo@@PEAX_J@ZXZ@4QBW4module_id@?A0x391cf84c@@B 000000014002cfa0     libucrt:winapi_thunks.obj
 0002:00005fb8       ?candidate_modules@?1??try_get_LocaleNameToLCID@@YAP6AKPEB_WK@ZXZ@4QBW4module_id@?A0x391cf84c@@B 000000014002cfb8     libucrt:winapi_thunks.obj
 0002:00005fd4       ?candidate_modules@?1??try_get_RoInitialize@@YAP6AJW4RO_INIT_TYPE@@@ZXZ@4QBW4module_id@?A0x391cf84c@@B 000000014002cfd4     libucrt:winapi_thunks.obj
 0002:00005fe8       ?candidate_modules@?1??try_get_RoUninitialize@@YAP6AXXZXZ@4QBW4module_id@?A0x391cf84c@@B 000000014002cfe8     libucrt:winapi_thunks.obj
 0002:00006000       ?candidate_modules@?1??try_get_AppPolicyGetProcessTerminationMethod@@YAP6AJPEAXPEAW4AppPolicyProcessTerminationMethod@@@ZXZ@4QBW4module_id@?A0x391cf84c@@B 000000014002d000     libucrt:winapi_thunks.obj
 0002:00006030       ?candidate_modules@?1??try_get_AppPolicyGetThreadInitializationType@@YAP6AJPEAXPEAW4AppPolicyThreadInitializationType@@@ZXZ@4QBW4module_id@?A0x391cf84c@@B 000000014002d030     libucrt:winapi_thunks.obj
 0002:00006060       ?_mb_locale_names@@3QBQEB_WB 000000014002d060     libucrt:mbctype.obj
 0002:000070d0       ?LcidToLocaleNameTable@?A0x881e4c05@@3QBULcidToLocaleName@1@B 000000014002e0d0     libucrt:lcidtoname_downlevel.obj
 0002:00008b20       ?LocaleNameToIndexTable@?A0x881e4c05@@3QBULocaleNameIndex@1@B 000000014002fb20     libucrt:lcidtoname_downlevel.obj
 0002:0000a3b8       $cppxdata$?write_double_translated_ansi_nolock@@YA?AUwrite_result@?A0x17268360@@HQEBDIAEAV__crt_cached_ptd_host@@@Z 00000001400313b8     libucrt:write.obj
 0002:0000a3f0       __real_ninf                00000001400313f0     libucrt:log10.obj
 0002:0000a400       __real_inf                 0000000140031400     libucrt:log10.obj
 0002:0000a410       __real_neg_qnan            0000000140031410     libucrt:log10.obj
 0002:0000a420       __real_qnanbit             0000000140031420     libucrt:log10.obj
 0002:0000a430       __int_1023                 0000000140031430     libucrt:log10.obj
 0002:0000a440       __mask_001                 0000000140031440     libucrt:log10.obj
 0002:0000a450       __mask_mant                0000000140031450     libucrt:log10.obj
 0002:0000a460       __mask_mant_top8           0000000140031460     libucrt:log10.obj
 0002:0000a470       __mask_mant9               0000000140031470     libucrt:log10.obj
 0002:0000a480       __real_log10_e             0000000140031480     libucrt:log10.obj
 0002:0000a490       __real_log10_e_lead        0000000140031490     libucrt:log10.obj
 0002:0000a4a0       __real_log10_e_tail        00000001400314a0     libucrt:log10.obj
 0002:0000a4b0       __real_log10_2_lead        00000001400314b0     libucrt:log10.obj
 0002:0000a4c0       __real_log10_2_tail        00000001400314c0     libucrt:log10.obj
 0002:0000a4d0       __real_two                 00000001400314d0     libucrt:log10.obj
 0002:0000a4e0       __real_one                 00000001400314e0     libucrt:log10.obj
 0002:0000a4f0       __real_half                00000001400314f0     libucrt:log10.obj
 0002:0000a500       __mask_100                 0000000140031500     libucrt:log10.obj
 0002:0000a510       __real_1_over_512          0000000140031510     libucrt:log10.obj
 0002:0000a520       __real_1_over_2            0000000140031520     libucrt:log10.obj
 0002:0000a530       __real_1_over_3            0000000140031530     libucrt:log10.obj
 0002:0000a540       __real_1_over_4            0000000140031540     libucrt:log10.obj
 0002:0000a550       __real_1_over_5            0000000140031550     libucrt:log10.obj
 0002:0000a560       __real_1_over_6            0000000140031560     libucrt:log10.obj
 0002:0000a570       __real_neg_1023            0000000140031570     libucrt:log10.obj
 0002:0000a580       __mask_2045                0000000140031580     libucrt:log10.obj
 0002:0000a590       __real_threshold           0000000140031590     libucrt:log10.obj
 0002:0000a5a0       __real_near_one_lt         00000001400315a0     libucrt:log10.obj
 0002:0000a5b0       __real_near_one_gt         00000001400315b0     libucrt:log10.obj
 0002:0000a5c0       __real_min_norm            00000001400315c0     libucrt:log10.obj
 0002:0000a5d0       __real_notsign             00000001400315d0     libucrt:log10.obj
 0002:0000a5e0       __real_ca1                 00000001400315e0     libucrt:log10.obj
 0002:0000a5f0       __real_ca2                 00000001400315f0     libucrt:log10.obj
 0002:0000a600       __real_ca3                 0000000140031600     libucrt:log10.obj
 0002:0000a610       __real_ca4                 0000000140031610     libucrt:log10.obj
 0002:0000a620       __mask_lower               0000000140031620     libucrt:log10.obj
 0002:0000a630       __flag_x_zero              0000000140031630     libucrt:log10.obj
 0002:0000a634       __flag_x_neg               0000000140031634     libucrt:log10.obj
 0002:0000a638       __flag_x_nan               0000000140031638     libucrt:log10.obj
 0002:0000c270       ?kShellClass@?A0x788d576c@ith@@3PEB_WEB 0000000140033270     Shell.obj
 0002:0000c278       ?kViewClass@?A0xd1b81b73@ith@@3PEB_WEB 0000000140033278     AdQueryTool.obj
 0002:0000c280       ?kResultsClass@?A0xd1b81b73@ith@@3PEB_WEB 0000000140033280     AdQueryTool.obj
 0002:0000ccc0       ??_7?$_Func_impl_no_alloc@V<lambda_1>@?1??RunAdQuery@ith@@YA?AV?$unique_ptr@UAdResult@ith@@U?$default_delete@UAdResult@ith@@@std@@@std@@AEBUAdQueryRequest@3@@Z@XPEAX@std@@6B@ 0000000140033cc0     AdQuery.obj
 0002:0000ccf8       ??_7?$_Func_impl_no_alloc@V<lambda_1>@?1??CollectNames@?A0x1f6e8d05@ith@@YA?AV?$vector@UNamedEntry@ith@@V?$allocator@UNamedEntry@ith@@@std@@@std@@PEAUIDirectorySearch@@AEBV?$basic_string@_WU?$char_traits@_W@std@@V?$allocator@_W@2@@6@@Z@XPEAX@std@@6B@ 0000000140033cf8     AdQuery.obj
 0002:0000d200       MoveSmall                  0000000140034200     libvcruntime:memcpy.obj
 0002:0000d240       MoveSmallYmm               0000000140034240     libvcruntime:memcpy.obj
 0002:0000d264       MoveSmallYmmNT             0000000140034264     libvcruntime:memcpy.obj
 0002:0000d288       MoveSmallXmm               0000000140034288     libvcruntime:memcpy.obj
 0002:0000d2b0       SetSmall                   00000001400342b0     libvcruntime:memset.obj
 0002:0000d2f0       SetSmallYmm                00000001400342f0     libvcruntime:memset.obj
 0002:0000d314       SetSmallYmmNT              0000000140034314     libvcruntime:memset.obj
 0002:0000d338       SetSmallXmm                0000000140034338     libvcruntime:memset.obj
 0002:0000db40       ??_R3?$_Func_impl_no_alloc@V<lambda_1>@?1??CollectNames@?A0x1f6e8d05@ith@@YA?AV?$vector@UNamedEntry@ith@@V?$allocator@UNamedEntry@ith@@@std@@@std@@PEAUIDirectorySearch@@AEBV?$basic_string@_WU?$char_traits@_W@std@@V?$allocator@_W@2@@6@@Z@XPEAX@std@@8 0000000140034b40     AdQuery.obj
 0002:0000db98       ??_R1A@?0A@EA@?$_Func_impl_no_alloc@V<lambda_1>@?1??RunAdQuery@ith@@YA?AV?$unique_ptr@UAdResult@ith@@U?$default_delete@UAdResult@ith@@@std@@@std@@AEBUAdQueryRequest@3@@Z@XPEAX@std@@8 0000000140034b98     AdQuery.obj
 0002:0000dbc0       ??_R2?$_Func_impl_no_alloc@V<lambda_1>@?1??CollectNames@?A0x1f6e8d05@ith@@YA?AV?$vector@UNamedEntry@ith@@V?$allocator@UNamedEntry@ith@@@std@@@std@@PEAUIDirectorySearch@@AEBV?$basic_string@_WU?$char_traits@_W@std@@V?$allocator@_W@2@@6@@Z@XPEAX@std@@8 0000000140034bc0     AdQuery.obj
 0002:0000dbd8       ??_R2?$_Func_impl_no_alloc@V<lambda_1>@?1??RunAdQuery@ith@@YA?AV?$unique_ptr@UAdResult@ith@@U?$default_delete@UAdResult@ith@@@std@@@std@@AEBUAdQueryRequest@3@@Z@XPEAX@std@@8 0000000140034bd8     AdQuery.obj
 0002:0000dc00       ??_R4?$_Func_impl_no_alloc@V<lambda_1>@?1??RunAdQuery@ith@@YA?AV?$unique_ptr@UAdResult@ith@@U?$default_delete@UAdResult@ith@@@std@@@std@@AEBUAdQueryRequest@3@@Z@XPEAX@std@@6B@ 0000000140034c00     AdQuery.obj
 0002:0000dc28       ??_R3?$_Func_impl_no_alloc@V<lambda_1>@?1??RunAdQuery@ith@@YA?AV?$unique_ptr@UAdResult@ith@@U?$default_delete@UAdResult@ith@@@std@@@std@@AEBUAdQueryRequest@3@@Z@XPEAX@std@@8 0000000140034c28     AdQuery.obj
 0002:0000dc40       ??_R1A@?0A@EA@?$_Func_impl_no_alloc@V<lambda_1>@?1??CollectNames@?A0x1f6e8d05@ith@@YA?AV?$vector@UNamedEntry@ith@@V?$allocator@UNamedEntry@ith@@@std@@@std@@PEAUIDirectorySearch@@AEBV?$basic_string@_WU?$char_traits@_W@std@@V?$allocator@_W@2@@6@@Z@XPEAX@std@@8 0000000140034c40     AdQuery.obj
 0002:0000dc68       ??_R4?$_Func_impl_no_alloc@V<lambda_1>@?1??CollectNames@?A0x1f6e8d05@ith@@YA?AV?$vector@UNamedEntry@ith@@V?$allocator@UNamedEntry@ith@@@std@@@std@@PEAUIDirectorySearch@@AEBV?$basic_string@_WU?$char_traits@_W@std@@V?$allocator@_W@2@@6@@Z@XPEAX@std@@6B@ 0000000140034c68     AdQuery.obj
 0002:0000e1d8       $unwind$swprintf           00000001400351d8     main.obj
 0002:0000e1e8       $unwind$?TopLevelFilter@@YAJPEAU_EXCEPTION_POINTERS@@@Z 00000001400351e8     main.obj
 0002:0000e200       $unwind$wWinMain           0000000140035200     main.obj
 0002:0000e224       $cppxdata$wWinMain         0000000140035224     main.obj
 0002:0000e231       $stateUnwindMap$wWinMain   0000000140035231     main.obj
 0002:0000e25c       $tryMap$wWinMain           000000014003525c     main.obj
 0002:0000e264       $handlerMap$wWinMain       0000000140035264     main.obj
 0002:0000e26d       $ip2state$wWinMain         000000014003526d     main.obj
 0002:0000e280       $unwind$?dtor$0@?0??BytesToLdapFilter@ith@@YA?AV?$basic_string@_WU?$char_traits@_W@std@@V?$allocator@_W@2@@std@@AEBV?$vector@EV?$allocator@E@std@@@3@@Z@4HA 0000000140035280     AdQuery.obj
 0002:0000e280       $unwind$?dtor$0@?0??ColMultiStr@?A0x1f6e8d05@ith@@YA?AV?$vector@V?$basic_string@_WU?$char_traits@_W@std@@V?$allocator@_W@2@@std@@V?$allocator@V?$basic_string@_WU?$char_traits@_W@std@@V?$allocator@_W@2@@std@@@2@@std@@PEAUIDirectorySearch@@PEAXPEB_W@Z@4HA 0000000140035280     AdQuery.obj
 0002:0000e280       $unwind$?dtor$0@?0??CollectNames@?A0x1f6e8d05@ith@@YA?AV?$vector@UNamedEntry@ith@@V?$allocator@UNamedEntry@ith@@@std@@@std@@PEAUIDirectorySearch@@AEBV?$basic_string@_WU?$char_traits@_W@std@@V?$allocator@_W@2@@4@@Z@4HA 0000000140035280     AdQuery.obj
 0002:0000e280       $unwind$?dtor$0@?0??LdapEscape@ith@@YA?AV?$basic_string@_WU?$char_traits@_W@std@@V?$allocator@_W@2@@std@@AEBV23@@Z@4HA 0000000140035280     AdQuery.obj
 0002:0000e280       $unwind$?dtor$0@?0??RunAdQuery@ith@@YA?AV?$unique_ptr@UAdResult@ith@@U?$default_delete@UAdResult@ith@@@std@@@std@@AEBUAdQueryRequest@1@@Z@4HA 0000000140035280     AdQuery.obj
 0002:0000e280       $unwind$?dtor$102@?0??RunAdQuery@ith@@YA?AV?$unique_ptr@UAdResult@ith@@U?$default_delete@UAdResult@ith@@@std@@@std@@AEBUAdQueryRequest@1@@Z@4HA 0000000140035280     AdQuery.obj
 0002:0000e280       $unwind$?dtor$103@?0??RunAdQuery@ith@@YA?AV?$unique_ptr@UAdResult@ith@@U?$default_delete@UAdResult@ith@@@std@@@std@@AEBUAdQueryRequest@1@@Z@4HA 0000000140035280     AdQuery.obj
 0002:0000e280       $unwind$?dtor$49@?0??RunAdQuery@ith@@YA?AV?$unique_ptr@UAdResult@ith@@U?$default_delete@UAdResult@ith@@@std@@@std@@AEBUAdQueryRequest@1@@Z@4HA 0000000140035280     AdQuery.obj
 0002:0000e280       $unwind$?dtor$50@?0??RunAdQuery@ith@@YA?AV?$unique_ptr@UAdResult@ith@@U?$default_delete@UAdResult@ith@@@std@@@std@@AEBUAdQueryRequest@1@@Z@4HA 0000000140035280     AdQuery.obj
 0002:0000e280       $unwind$?dtor$14@?0??BeginSearch@AdQueryView@ith@@AEAAXXZ@4HA 0000000140035280     AdQueryTool.obj
 0002:0000e280       $unwind$wWinMain$dtor$7    0000000140035280     main.obj
 0002:0000e280       $unwind$?fin$0@?0???$?RV<lambda_0ae27a3a962d80f24befdcbee591983d>@@AEAV<lambda_8d0ee55de4b1038c4002e0adecdf1839>@@V<lambda_dc504788e8f1664fe9b84e20bfb512f2>@@@?$__crt_seh_guarded_call@X@@QEAAX$$QEAV<lambda_0ae27a3a962d80f24befdcbee591983d>@@AEAV<lambda_8d0ee55de4b1038c4002e0adecdf1839>@@$$QEAV<lambda_dc504788e8f1664fe9b84e20bfb512f2>@@@Z@4HA 0000000140035280     libucrt:per_thread_data.obj
 0002:0000e280       $unwind$?fin$0@?0???$?RV<lambda_2d41944a1d46af3157314b8a01080d33>@@AEAV<lambda_8f455de75cd7d7f24b4096f044d8b9e6>@@V<lambda_aa500f224e6afead328df44964fe2772>@@@?$__crt_seh_guarded_call@X@@QEAAX$$QEAV<lambda_2d41944a1d46af3157314b8a01080d33>@@AEAV<lambda_8f455de75cd7d7f24b4096f044d8b9e6>@@$$QEAV<lambda_aa500f224e6afead328df44964fe2772>@@@Z@4HA 0000000140035280     libucrt:per_thread_data.obj
 0002:0000e280       $unwind$?fin$0@?0???$?RV<lambda_aa87e3671a710a21b5dc78c0bdf72e11>@@AEAV<lambda_92619d2358a28f41a33ba319515a20b9>@@V<lambda_6992ecaafeb10aed2b74cb1fae11a551>@@@?$__crt_seh_guarded_call@X@@QEAAX$$QEAV<lambda_aa87e3671a710a21b5dc78c0bdf72e11>@@AEAV<lambda_92619d2358a28f41a33ba319515a20b9>@@$$QEAV<lambda_6992ecaafeb10aed2b74cb1fae11a551>@@@Z@4HA 0000000140035280     libucrt:per_thread_data.obj
 0002:0000e280       $unwind$?fin$0@?0???$?RV<lambda_f2e299630e499de9f9a165e60fcd3db5>@@AEAV<lambda_2ae9d31cdba2644fcbeaf08da7c24588>@@V<lambda_40d01ff24d0e7b3814fdbdcee8eab3c7>@@@?$__crt_seh_guarded_call@X@@QEAAX$$QEAV<lambda_f2e299630e499de9f9a165e60fcd3db5>@@AEAV<lambda_2ae9d31cdba2644fcbeaf08da7c24588>@@$$QEAV<lambda_40d01ff24d0e7b3814fdbdcee8eab3c7>@@@Z@4HA 0000000140035280     libucrt:per_thread_data.obj
 0002:0000e280       $unwind$__acrt_update_thread_locale_data$fin$0 0000000140035280     libucrt:locale_refcounting.obj
 0002:0000e280       $unwind$?fin$0@?0???$?RV<lambda_410d79af7f07d98d83a3f525b3859a53>@@AEAV<lambda_3e16ef9562a7dcce91392c22ab16ea36>@@V<lambda_38119f0e861e05405d8a144b9b982f0a>@@@?$__crt_seh_guarded_call@X@@QEAAX$$QEAV<lambda_410d79af7f07d98d83a3f525b3859a53>@@AEAV<lambda_3e16ef9562a7dcce91392c22ab16ea36>@@$$QEAV<lambda_38119f0e861e05405d8a144b9b982f0a>@@@Z@4HA 0000000140035280     libucrt:wsetlocale.obj
 0002:0000e280       $unwind$?fin$0@?0???$?RV<lambda_ad8af0d99a0adf03d037d7dffe354bb5>@@AEAV<lambda_c9ba49e555ba839a7b07aa3fbecb7617>@@V<lambda_2f1ebd5d68526518146ae959c9e734c8>@@@?$__crt_seh_guarded_call@H@@QEAAH$$QEAV<lambda_ad8af0d99a0adf03d037d7dffe354bb5>@@AEAV<lambda_c9ba49e555ba839a7b07aa3fbecb7617>@@$$QEAV<lambda_2f1ebd5d68526518146ae959c9e734c8>@@@Z@4HA 0000000140035280     libucrt:close.obj
 0002:0000e280       $unwind$?fin$0@?0???$?RV<lambda_a37b2b86f63e897a80ea819b0eb08c01>@@AEAV<lambda_38ce7e780aa69e748d6df282ebc68efe>@@V<lambda_99fb1378e971ab6e7edea83e3a7a83a2>@@@?$__crt_seh_guarded_call@H@@QEAAH$$QEAV<lambda_a37b2b86f63e897a80ea819b0eb08c01>@@AEAV<lambda_38ce7e780aa69e748d6df282ebc68efe>@@$$QEAV<lambda_99fb1378e971ab6e7edea83e3a7a83a2>@@@Z@4HA 0000000140035280     libucrt:commit.obj
 0002:0000e280       $unwind$__acrt_initialize_lowio$fin$0 0000000140035280     libucrt:ioinit.obj
 0002:0000e280       $unwind$__acrt_lowio_ensure_fh_exists$fin$0 0000000140035280     libucrt:osfinfo.obj
 0002:0000e280       $unwind$?fin$0@?0???$?RV<lambda_efdfa57d1f175319df784efa44bb7b81>@@AEAV<lambda_5f0a4c1567f8adc6734073e5d1e1b35c>@@V<lambda_2e8a7d3640ea6ccb4c2413664c2db6fd>@@@?$__crt_seh_guarded_call@X@@QEAAX$$QEAV<lambda_efdfa57d1f175319df784efa44bb7b81>@@AEAV<lambda_5f0a4c1567f8adc6734073e5d1e1b35c>@@$$QEAV<lambda_2e8a7d3640ea6ccb4c2413664c2db6fd>@@@Z@4HA 0000000140035280     libucrt:mbctype.obj
 0002:0000e280       $unwind$?fin$0@?0??update_thread_multibyte_data_internal@@YAPEAU__crt_multibyte_data@@QEAU__acrt_ptd@@QEAPEAU1@@Z@4HA 0000000140035280     libucrt:mbctype.obj
 0002:0000e280       $unwind$?fin$0@?0???$?RV<lambda_450d765d439847d4c735a33c368b5fc0>@@AEAV<lambda_44731a7d0e6d81c3e6aa82d741081786>@@V<lambda_601a2a7da3b7a96e9554ac7215c4b07c>@@@?$__crt_seh_guarded_call@P6AXH@Z@@QEAAP6AXH@Z$$QEAV<lambda_450d765d439847d4c735a33c368b5fc0>@@AEAV<lambda_44731a7d0e6d81c3e6aa82d741081786>@@$$QEAV<lambda_601a2a7da3b7a96e9554ac7215c4b07c>@@@Z@4HA 0000000140035280     libucrt:signal.obj
 0002:0000e280       $unwind$raise$fin$0        0000000140035280     libucrt:signal.obj
 0002:0000e280       $unwind$?filt$0@?0???R<lambda_6e4b09c48022b2350581041d5f6b0c4c>@@QEBA@XZ@4HA 0000000140035280     libucrt:exit.obj
 0002:0000e280       $unwind$?fin$0@?0???$?RV<lambda_d80eeec6fff315bfe5c115232f3240e3>@@AEAV<lambda_6e4b09c48022b2350581041d5f6b0c4c>@@V<lambda_2358e3775559c9db80273638284d5e45>@@@?$__crt_seh_guarded_call@X@@QEAAX$$QEAV<lambda_d80eeec6fff315bfe5c115232f3240e3>@@AEAV<lambda_6e4b09c48022b2350581041d5f6b0c4c>@@$$QEAV<lambda_2358e3775559c9db80273638284d5e45>@@@Z@4HA 0000000140035280     libucrt:exit.obj
 0002:0000e280       $unwind$?fin$0@?0???$?RV<lambda_638799b9deba96c50f710eeac98168cd>@@AEAV<lambda_22ebabd17bc4fa466a2aca6d8deb888d>@@V<lambda_a6f7d7db0129f75315ebf26d50c089f1>@@@?$__crt_seh_guarded_call@H@@QEAAH$$QEAV<lambda_638799b9deba96c50f710eeac98168cd>@@AEAV<lambda_22ebabd17bc4fa466a2aca6d8deb888d>@@$$QEAV<lambda_a6f7d7db0129f75315ebf26d50c089f1>@@@Z@4HA 0000000140035280     libucrt:onexit.obj
 0002:0000e280       $unwind$?fin$0@?0???$?RV<lambda_7777bce6b2f8c936911f934f8298dc43>@@AEAV<lambda_f03950bc5685219e0bcd2087efbe011e>@@V<lambda_3883c3dff614d5e0c5f61bb1ac94921c>@@@?$__crt_seh_guarded_call@H@@QEAAH$$QEAV<lambda_7777bce6b2f8c936911f934f8298dc43>@@AEAV<lambda_f03950bc5685219e0bcd2087efbe011e>@@$$QEAV<lambda_3883c3dff614d5e0c5f61bb1ac94921c>@@@Z@4HA 0000000140035280     libucrt:onexit.obj
 0002:0000e280       $unwind$?filt$0@?0???$thread_start@P6AIPEAX@Z$00@@YAKQEAX@Z@4HA 0000000140035280     libucrt:thread.obj
 0002:0000e280       $unwind$_fcloseall$fin$0   0000000140035280     libucrt:closeall.obj
 0002:0000e280       $unwind$?fin$0@?0???$?RV<lambda_842d9ff0dc9ef11c61343bbaebe7f885>@@AEAV<lambda_c5860995281e5c4ce005b3de8f5874ee>@@V<lambda_d90129c13df834fdcbf8d2b88dafcf2d>@@@?$__crt_seh_guarded_call@X@@QEAAX$$QEAV<lambda_842d9ff0dc9ef11c61343bbaebe7f885>@@AEAV<lambda_c5860995281e5c4ce005b3de8f5874ee>@@$$QEAV<lambda_d90129c13df834fdcbf8d2b88dafcf2d>@@@Z@4HA 0000000140035280     libucrt:fflush.obj
 0002:0000e280       $unwind$?fin$0@?0???$?RV<lambda_886d6c58226a84441f68b9f2b8217b83>@@AEAV<lambda_ab61a845afdef5b7c387490eaf3616ee>@@V<lambda_f7f22ab5edc0698d5f6905b0d3f44752>@@@?$__crt_seh_guarded_call@X@@QEAAX$$QEAV<lambda_886d6c58226a84441f68b9f2b8217b83>@@AEAV<lambda_ab61a845afdef5b7c387490eaf3616ee>@@$$QEAV<lambda_f7f22ab5edc0698d5f6905b0d3f44752>@@@Z@4HA 0000000140035280     libucrt:fflush.obj
 0002:0000e280       $unwind$common_control87$filt$0 0000000140035280     libucrt:ieee.obj
 0002:0000e280       $unwind$?filt$0@?0??__scrt_common_main_seh@@YAHXZ@4HA 0000000140035280     LIBCMT:exe_wwinmain.obj
 0002:0000e280       $unwind$_IsNonwritableInCurrentImage$filt$0 0000000140035280     LIBCMT:pesect.obj
 0002:0000e280       $unwind$?filt$0@?0??CxxCallCatchBlock@__FrameHandler3@@SAPEAXPEAU_EXCEPTION_RECORD@@@Z@4HA 0000000140035280     libvcruntime:frame.obj
 0002:0000e280       $unwind$?filt$0@?0??CxxCallCatchBlock@__FrameHandler4@@SAPEAXPEAU_EXCEPTION_RECORD@@@Z@4HA 0000000140035280     libvcruntime:frame.obj
 0002:0000e280       $unwind$?filt$0@?0??FrameUnwindToState@__FrameHandler3@@SAXPEA_KPEAU_xDISPATCHER_CONTEXT@@PEBU_s_FuncInfo@@H@Z@4HA 0000000140035280     libvcruntime:frame.obj
 0002:0000e280       $unwind$?fin$1@?0??FrameUnwindToState@__FrameHandler3@@SAXPEA_KPEAU_xDISPATCHER_CONTEXT@@PEBU_s_FuncInfo@@H@Z@4HA 0000000140035280     libvcruntime:frame.obj
 0002:0000e288       $unwind$?catch$13@?0??WndProc@Shell@ith@@CA_JPEAUHWND__@@I_K_J@Z@4HA 0000000140035288     Shell.obj
 0002:0000e288       $unwind$wWinMain$catch$13  0000000140035288     main.obj
 0002:0000e290       $unwind$??$?0AEAV?$basic_string@_WU?$char_traits@_W@std@@V?$allocator@_W@2@@std@@$0A@@?$optional@V?$basic_string@_WU?$char_traits@_W@std@@V?$allocator@_W@2@@std@@@std@@QEAA@AEAV?$basic_string@_WU?$char_traits@_W@std@@V?$allocator@_W@2@@1@@Z 0000000140035290     AdQuery.obj
 0002:0000e290       $unwind$??1?$_Func_class@XPEAX@std@@QEAA@XZ 0000000140035290     AdQuery.obj
 0002:0000e290       $unwind$??1?$_Tidy_guard@V?$vector@EV?$allocator@E@std@@@std@@@std@@QEAA@XZ 0000000140035290     AdQuery.obj
 0002:0000e290       $unwind$??1?$_Tidy_guard@V?$vector@PEB_WV?$allocator@PEB_W@std@@@std@@@std@@QEAA@XZ 0000000140035290     AdQuery.obj
 0002:0000e290       $unwind$??1?$function@$$A6AXPEAX@Z@std@@QEAA@XZ 0000000140035290     AdQuery.obj
 0002:0000e290       $unwind$??1?$unique_ptr@UAdResult@ith@@U?$default_delete@UAdResult@ith@@@std@@@std@@QEAA@XZ 0000000140035290     AdQuery.obj
 0002:0000e290       $unwind$??1?$vector@EV?$allocator@E@std@@@std@@QEAA@XZ 0000000140035290     AdQuery.obj
 0002:0000e290       $unwind$??1?$vector@PEA_WV?$allocator@PEA_W@std@@@std@@QEAA@XZ 0000000140035290     AdQuery.obj
 0002:0000e290       $unwind$??1?$vector@PEB_WV?$allocator@PEB_W@std@@@std@@QEAA@XZ 0000000140035290     AdQuery.obj
 0002:0000e290       $unwind$??1BstrPtr@ith@@QEAA@XZ 0000000140035290     AdQuery.obj
 0002:0000e290       $unwind$??1InfoPair@ith@@QEAA@XZ 0000000140035290     AdQuery.obj
 0002:0000e290       $unwind$?_Copy@?$_Func_impl_no_alloc@V<lambda_1>@?1??RunAdQuery@ith@@YA?AV?$unique_ptr@UAdResult@ith@@U?$default_delete@UAdResult@ith@@@std@@@std@@AEBUAdQueryRequest@3@@Z@XPEAX@std@@EEBAPEAV?$_Func_base@XPEAX@2@PEAX@Z 0000000140035290     AdQuery.obj
 0002:0000e290       $unwind$??1?$unique_ptr@V?$tuple@P6AXPEAUHWND__@@IUAdQueryRequest@ith@@@ZPEAU1@IU23@@std@@U?$default_delete@V?$tuple@P6AXPEAUHWND__@@IUAdQueryRequest@ith@@@ZPEAU1@IU23@@std@@@2@@std@@QEAA@XZ 0000000140035290     AdQueryTool.obj
 0002:0000e290       $unwind$??1?$vector@USec@?1??LayoutResults@AdQueryView@ith@@AEAAXXZ@V?$allocator@USec@?1??LayoutResults@AdQueryView@ith@@AEAAXXZ@@std@@@std@@QEAA@XZ 0000000140035290     AdQueryTool.obj
 0002:0000e290       $unwind$??1AdQueryRequest@ith@@QEAA@XZ 0000000140035290     AdQueryTool.obj
 0002:0000e290       $unwind$??1AdQueryView@ith@@UEAA@XZ 0000000140035290     AdQueryTool.obj
 0002:0000e290       $unwind$??0bad_alloc@std@@QEAA@AEBV01@@Z 0000000140035290     Shell.obj
 0002:0000e290       $unwind$??0bad_array_new_length@std@@QEAA@AEBV01@@Z 0000000140035290     Shell.obj
 0002:0000e290       $unwind$??0exception@std@@QEAA@AEBV01@@Z 0000000140035290     Shell.obj
 0002:0000e290       $unwind$??1?$_Hash_vec@V?$allocator@V?$_List_unchecked_iterator@V?$_List_val@U?$_List_simple_types@U?$pair@QEAVITool@ith@@V?$unique_ptr@VToolView@ith@@U?$default_delete@VToolView@ith@@@std@@@std@@@std@@@std@@@std@@@std@@@std@@@std@@QEAA@XZ 0000000140035290     Shell.obj
 0002:0000e290       $unwind$??1?$_List_node_emplace_op2@V?$allocator@U?$_List_node@U?$pair@QEAVITool@ith@@V?$unique_ptr@VToolView@ith@@U?$default_delete@VToolView@ith@@@std@@@std@@@std@@PEAX@std@@@std@@@std@@QEAA@XZ 0000000140035290     Shell.obj
 0002:0000e290       $unwind$??1?$basic_string@_WU?$char_traits@_W@std@@V?$allocator@_W@2@@std@@QEAA@XZ 0000000140035290     Shell.obj
 0002:0000e290       $unwind$??1?$unordered_map@PEAVITool@ith@@V?$unique_ptr@VToolView@ith@@U?$default_delete@VToolView@ith@@@std@@@std@@U?$hash@PEAVITool@ith@@@4@U?$equal_to@PEAVITool@ith@@@4@V?$allocator@U?$pair@QEAVITool@ith@@V?$unique_ptr@VToolView@ith@@U?$default_delete@VToolView@ith@@@std@@@std@@@std@@@4@@std@@QEAA@XZ 0000000140035290     Shell.obj
 0002:0000e290       $unwind$??1Shell@ith@@QEAA@XZ 0000000140035290     Shell.obj
 0002:0000e290       $unwind$??_GAdQueryTool@ith@@UEAAPEAXI@Z 0000000140035290     Shell.obj
 0002:0000e290       $unwind$initialize_pointers 0000000140035290     libucrt:initialization.obj
 0002:0000e290       $unwind$uninitialize_allocated_memory 0000000140035290     libucrt:initialization.obj
 0002:0000e290       $unwind$__acrt_initialize_locks 0000000140035290     libucrt:locks.obj
 0002:0000e290       $unwind$__acrt_uninitialize_locks 0000000140035290     libucrt:locks.obj
 0002:0000e290       $unwind$__acrt_get_process_end_policy 0000000140035290     libucrt:win_policies.obj
 0002:0000e290       $unwind$__acrt_AppPolicyGetProcessTerminationMethodInternal 0000000140035290     libucrt:winapi_thunks.obj
 0002:0000e290       $unwind$__acrt_AppPolicyGetThreadInitializationTypeInternal 0000000140035290     libucrt:winapi_thunks.obj
 0002:0000e290       $unwind$__acrt_RoInitialize 0000000140035290     libucrt:winapi_thunks.obj
 0002:0000e290       $unwind$__acrt_uninitialize_winapi_thunks 0000000140035290     libucrt:winapi_thunks.obj
 0002:0000e290       $unwind$__acrt_update_locale_info 0000000140035290     libucrt:locale_update.obj
 0002:0000e290       $unwind$__acrt_update_locale_info_explicit 0000000140035290     libucrt:locale_update.obj
 0002:0000e290       $unwind$__acrt_update_multibyte_info 0000000140035290     libucrt:locale_update.obj
 0002:0000e290       $unwind$__acrt_update_multibyte_info_explicit 0000000140035290     libucrt:locale_update.obj
 0002:0000e290       $unwind$_configthreadlocale 0000000140035290     libucrt:wsetlocale.obj
 0002:0000e290       $unwind$__acrt_errno_map_os_error 0000000140035290     libucrt:errno.obj
 0002:0000e290       $unwind$__acrt_errno_map_os_error_ptd 0000000140035290     libucrt:errno.obj
 0002:0000e290       $unwind$__acrt_allocate_buffer_for_argv 0000000140035290     libucrt:argv_parsing.obj
 0002:0000e290       $unwind$?exit_or_terminate_process@@YAXI_N@Z 0000000140035290     libucrt:exit.obj
 0002:0000e290       $unwind$__acrt_uninitialize_stdio 0000000140035290     libucrt:_file.obj
 0002:0000e290       $unwind$__acrt_stdio_free_buffer_nolock 0000000140035290     libucrt:_freebuf.obj
 0002:0000e290       $unwind$_controlfp_s       0000000140035290     libucrt:contrlfp.obj
 0002:0000e290       $unwind$fegetenv           0000000140035290     libucrt:fegetenv.obj
 0002:0000e290       $unwind$feholdexcept       0000000140035290     libucrt:feholdexcept.obj
 0002:0000e290       $unwind$?pre_c_initialization@@YAHXZ 0000000140035290     LIBCMT:exe_wwinmain.obj
 0002:0000e290       $unwind$??2@YAPEAX_K@Z     0000000140035290     LIBCMT:new_scalar.obj
 0002:0000e290       $unwind$??_Gtype_info@@UEAAPEAXI@Z 0000000140035290     LIBCMT:std_type_info_static.obj
 0002:0000e290       $unwind$__scrt_initialize_onexit_tables 0000000140035290     LIBCMT:utility.obj
 0002:0000e290       $unwind$__scrt_release_startup_lock 0000000140035290     LIBCMT:utility.obj
 0002:0000e290       $unwind$__scrt_uninitialize_crt 0000000140035290     LIBCMT:utility.obj
 0002:0000e290       $unwind$atexit             0000000140035290     LIBCMT:utility.obj
 0002:0000e290       $unwind$??_G_Generic_error_category@std@@UEAAPEAXI@Z 0000000140035290     libcpmt:thread0.obj
 0002:0000e290       $unwind$??0bad_function_call@std@@QEAA@AEBV01@@Z 0000000140035290     libcpmt:xthrow.obj
 0002:0000e290       $unwind$??0length_error@std@@QEAA@AEBV01@@Z 0000000140035290     libcpmt:xthrow.obj
 0002:0000e290       $unwind$??0logic_error@std@@QEAA@AEBV01@@Z 0000000140035290     libcpmt:xthrow.obj
 0002:0000e290       $unwind$??0out_of_range@std@@QEAA@AEBV01@@Z 0000000140035290     libcpmt:xthrow.obj
 0002:0000e290       $unwind$??0runtime_error@std@@QEAA@AEBV01@@Z 0000000140035290     libcpmt:xthrow.obj
 0002:0000e290       $unwind$_IsExceptionObjectToBeDestroyed 0000000140035290     libvcruntime:ehhelpers.obj
 0002:0000e290       $unwind$?GetUnwindTryBlock@__FrameHandler3@@SAHPEA_KPEAU_xDISPATCHER_CONTEXT@@PEBU_s_FuncInfo@@@Z 0000000140035290     libvcruntime:ehstate.obj
 0002:0000e290       $unwind$?StateFromControlPc@__FrameHandler3@@SAHPEBU_s_FuncInfo@@PEAU_xDISPATCHER_CONTEXT@@@Z 0000000140035290     libvcruntime:ehstate.obj
 0002:0000e290       $unwind$?StateFromIp@__FrameHandler3@@SAHPEBU_s_FuncInfo@@PEAU_xDISPATCHER_CONTEXT@@_K@Z 0000000140035290     libvcruntime:ehstate.obj
 0002:0000e290       $unwind$??0bad_exception@std@@QEAA@AEBV01@@Z 0000000140035290     libvcruntime:frame.obj
 0002:0000e290       $unwind$?ExFilterRethrow@@YAHPEAU_EXCEPTION_POINTERS@@PEAUEHExceptionRecord@@PEAH@Z 0000000140035290     libvcruntime:frame.obj
 0002:0000e290       $unwind$__vcrt_uninitialize_locks 0000000140035290     libvcruntime:locks.obj
 0002:0000e290       $unwind$_CreateFrameInfo   0000000140035290     libvcruntime:risctrnsctrl.obj
 0002:0000e290       $unwind$_SetImageBase      0000000140035290     libvcruntime:risctrnsctrl.obj
 0002:0000e290       $unwind$_SetThrowImageBase 0000000140035290     libvcruntime:risctrnsctrl.obj
 0002:0000e290       $unwind$__std_exception_destroy 0000000140035290     libvcruntime:std_exception.obj
 0002:0000e298       $unwind$??1?$_Uninitialized_backout_al@V?$allocator@UInfoPair@ith@@@std@@@std@@QEAA@XZ 0000000140035298     AdQuery.obj
 0002:0000e298       $unwind$??1?$_Uninitialized_backout_al@V?$allocator@UNamedEntry@ith@@@std@@@std@@QEAA@XZ 0000000140035298     AdQuery.obj
 0002:0000e298       $unwind$??4?$basic_string@_WU?$char_traits@_W@std@@V?$allocator@_W@2@@std@@QEAAAEAV01@$$QEAV01@@Z 0000000140035298     AdQuery.obj
 0002:0000e298       $unwind$??_GAdQueryView@ith@@UEAAPEAXI@Z 0000000140035298     AdQueryTool.obj
 0002:0000e298       $unwind$??0?$basic_string@_WU?$char_traits@_W@std@@V?$allocator@_W@2@@std@@QEAA@QEB_W@Z 0000000140035298     Shell.obj
 0002:0000e298       $unwind$??_Gbad_alloc@std@@UEAAPEAXI@Z 0000000140035298     Shell.obj
 0002:0000e298       $unwind$??_Gbad_array_new_length@std@@UEAAPEAXI@Z 0000000140035298     Shell.obj
 0002:0000e298       $unwind$??_Gexception@std@@UEAAPEAXI@Z 0000000140035298     Shell.obj
 0002:0000e298       $unwind$??$common_initialize_environment_nolock@_W@@YAHXZ 0000000140035298     libucrt:environment_initialization.obj
 0002:0000e298       $unwind$?replace_current_thread_locale_nolock@@YAXQEAU__acrt_ptd@@QEAU__crt_locale_data@@@Z 0000000140035298     libucrt:per_thread_data.obj
 0002:0000e298       $unwind$__acrt_execute_uninitializers 0000000140035298     libucrt:shared_initialization.obj
 0002:0000e298       $unwind$__acrt_LocaleNameToLCID 0000000140035298     libucrt:winapi_thunks.obj
 0002:0000e298       $unwind$?free_crt_array_internal@@YAXQEAPEBX_K@Z 0000000140035298     libucrt:inittime.obj
 0002:0000e298       $unwind$_updatetlocinfoEx_nolock 0000000140035298     libucrt:locale_refcounting.obj
 0002:0000e298       $unwind$__acrt_uninitialize_lowio 0000000140035298     libucrt:ioinit.obj
 0002:0000e298       $unwind$?setSBCS@@YAXPEAU__crt_multibyte_data@@@Z 0000000140035298     libucrt:mbctype.obj
 0002:0000e298       $unwind$_initterm_e        0000000140035298     libucrt:initterm.obj
 0002:0000e298       $unwind$?common_end_thread@@YAXI@Z 0000000140035298     libucrt:thread.obj
 0002:0000e298       $unwind$?type_case_Z@?$output_processor@_WV?$string_output_adapter@_W@__crt_stdio_output@@V?$standard_base@_WV?$string_output_adapter@_W@__crt_stdio_output@@@2@@__crt_stdio_output@@AEAA_NXZ 0000000140035298     libucrt:output.obj
 0002:0000e298       $unwind$wcspbrk            0000000140035298     libucrt:wcspbrk.obj
 0002:0000e298       $unwind$_RTC_Initialize    0000000140035298     LIBCMT:initsect.obj
 0002:0000e298       $unwind$_RTC_Terminate     0000000140035298     LIBCMT:initsect.obj
 0002:0000e298       $unwind$__scrt_unhandled_exception_filter 0000000140035298     LIBCMT:utility_desktop.obj
 0002:0000e298       $unwind$??0_System_error@std@@QEAA@AEBV01@@Z 0000000140035298     libcpmt:thread0.obj
 0002:0000e298       $unwind$??0system_error@std@@QEAA@AEBV01@@Z 0000000140035298     libcpmt:thread0.obj
 0002:0000e298       $unwind$??1?$basic_string@DU?$char_traits@D@std@@V?$allocator@D@2@@std@@QEAA@XZ 0000000140035298     libcpmt:thread0.obj
 0002:0000e298       $unwind$??_G_System_error@std@@UEAAPEAXI@Z 0000000140035298     libcpmt:thread0.obj
 0002:0000e298       $unwind$??_Gsystem_error@std@@UEAAPEAXI@Z 0000000140035298     libcpmt:thread0.obj
 0002:0000e298       $unwind$??_Gbad_function_call@std@@UEAAPEAXI@Z 0000000140035298     libcpmt:xthrow.obj
 0002:0000e298       $unwind$??_Glength_error@std@@UEAAPEAXI@Z 0000000140035298     libcpmt:xthrow.obj
 0002:0000e298       $unwind$??_Glogic_error@std@@UEAAPEAXI@Z 0000000140035298     libcpmt:xthrow.obj
 0002:0000e298       $unwind$??_Gout_of_range@std@@UEAAPEAXI@Z 0000000140035298     libcpmt:xthrow.obj
 0002:0000e298       $unwind$??_Gruntime_error@std@@UEAAPEAXI@Z 0000000140035298     libcpmt:xthrow.obj
 0002:0000e298       $unwind$__C_specific_handler_noexcept 0000000140035298     libvcruntime:chandler_noexcept.obj
 0002:0000e298       $unwind$__FrameUnwindFilter 0000000140035298     libvcruntime:ehhelpers.obj
 0002:0000e298       $unwind$?SetUnwindTryBlock@__FrameHandler3@@SAXPEA_KPEAU_xDISPATCHER_CONTEXT@@PEBU_s_FuncInfo@@H@Z 0000000140035298     libvcruntime:ehstate.obj
 0002:0000e298       $unwind$??_Gbad_exception@std@@UEAAPEAXI@Z 0000000140035298     libvcruntime:frame.obj
 0002:0000e298       $unwind$?ExFilterRethrowFH4@@YAHPEAU_EXCEPTION_POINTERS@@PEAUEHExceptionRecord@@HPEAH@Z 0000000140035298     libvcruntime:frame.obj
 0002:0000e298       $unwind$?GetHandlerSearchState@__FrameHandler4@@SAHPEA_KPEAU_xDISPATCHER_CONTEXT@@PEAUFuncInfo4@FH4@@@Z 0000000140035298     libvcruntime:frame.obj
 0002:0000e298       $unwind$__vcrt_initialize_locks 0000000140035298     libvcruntime:locks.obj
 0002:0000e298       $unwind$__vcrt_getptd      0000000140035298     libvcruntime:per_thread_data.obj
 0002:0000e298       $unwind$_FindAndUnlinkFrame 0000000140035298     libvcruntime:risctrnsctrl.obj
 0002:0000e2a4       $unwind$?_Throw_bad_array_new_length@std@@YAXXZ 00000001400352a4     Shell.obj
 0002:0000e2a4       $unwind$_raise_exc         00000001400352a4     libucrt:fpexcept.obj
 0002:0000e2a4       $unwind$?__scrt_throw_std_bad_alloc@@YAXXZ 00000001400352a4     LIBCMT:throw_bad_alloc.obj
 0002:0000e2a4       $unwind$?__scrt_throw_std_bad_array_new_length@@YAXXZ 00000001400352a4     LIBCMT:throw_bad_alloc.obj
 0002:0000e2a4       $unwind$?_Xbad_function_call@std@@YAXXZ 00000001400352a4     libcpmt:xthrow.obj
 0002:0000e2a4       $unwind$?_Xlength_error@std@@YAXPEBD@Z 00000001400352a4     libcpmt:xthrow.obj
 0002:0000e2a4       $unwind$?_Xout_of_range@std@@YAXPEBD@Z 00000001400352a4     libcpmt:xthrow.obj
 0002:0000e2b0       $unwind$??1?$optional@V?$basic_string@_WU?$char_traits@_W@std@@V?$allocator@_W@2@@std@@@std@@QEAA@XZ 00000001400352b0     AdQuery.obj
 0002:0000e2b0       $unwind$??1?$optional@V?$vector@EV?$allocator@E@std@@@std@@@std@@QEAA@XZ 00000001400352b0     AdQuery.obj
 0002:0000e2b0       $unwind$?_Delete_this@?$_Func_impl_no_alloc@V<lambda_1>@?1??CollectNames@?A0x1f6e8d05@ith@@YA?AV?$vector@UNamedEntry@ith@@V?$allocator@UNamedEntry@ith@@@std@@@std@@PEAUIDirectorySearch@@AEBV?$basic_string@_WU?$char_traits@_W@std@@V?$allocator@_W@2@@6@@Z@XPEAX@std@@EEAAX_N@Z 00000001400352b0     AdQuery.obj
 0002:0000e2b0       $unwind$?_Delete_this@?$_Func_impl_no_alloc@V<lambda_1>@?1??RunAdQuery@ith@@YA?AV?$unique_ptr@UAdResult@ith@@U?$default_delete@UAdResult@ith@@@std@@@std@@AEBUAdQueryRequest@3@@Z@XPEAX@std@@EEAAX_N@Z 00000001400352b0     AdQuery.obj
 0002:0000e2b0       $unwind$?_Xlength@?$vector@EV?$allocator@E@std@@@std@@CAXXZ 00000001400352b0     AdQuery.obj
 0002:0000e2b0       $unwind$?_Xlength@?$vector@PEA_WV?$allocator@PEA_W@std@@@std@@CAXXZ 00000001400352b0     AdQuery.obj
 0002:0000e2b0       $unwind$?_Xlength@?$vector@PEB_WV?$allocator@PEB_W@std@@@std@@CAXXZ 00000001400352b0     AdQuery.obj
 0002:0000e2b0       $unwind$?_Xlength@?$vector@UInfoPair@ith@@V?$allocator@UInfoPair@ith@@@std@@@std@@CAXXZ 00000001400352b0     AdQuery.obj
 0002:0000e2b0       $unwind$?_Xlength@?$vector@UNamedEntry@ith@@V?$allocator@UNamedEntry@ith@@@std@@@std@@CAXXZ 00000001400352b0     AdQuery.obj
 0002:0000e2b0       $unwind$?_Xlength@?$vector@V?$basic_string@_WU?$char_traits@_W@std@@V?$allocator@_W@2@@std@@V?$allocator@V?$basic_string@_WU?$char_traits@_W@std@@V?$allocator@_W@2@@std@@@2@@std@@CAXXZ 00000001400352b0     AdQuery.obj
 0002:0000e2b0       $unwind$?_Xran@?$_String_val@U?$_Simple_types@_W@std@@@std@@SAXXZ 00000001400352b0     AdQuery.obj
 0002:0000e2b0       $unwind$??1ComApartment@ith@@QEAA@XZ 00000001400352b0     AdQueryTool.obj
 0002:0000e2b0       $unwind$??1thread@std@@QEAA@XZ 00000001400352b0     AdQueryTool.obj
 0002:0000e2b0       $unwind$?_Xlength@?$vector@USec@?1??LayoutResults@AdQueryView@ith@@AEAAXXZ@V?$allocator@USec@?1??LayoutResults@AdQueryView@ith@@AEAAXXZ@@std@@@std@@CAXXZ 00000001400352b0     AdQueryTool.obj
 0002:0000e2b0       $unwind$??$_Allocate_manually_vector_aligned@U_Default_allocate_traits@std@@@std@@YAPEAX_K@Z 00000001400352b0     Shell.obj
 0002:0000e2b0       $unwind$??1?$_Alloc_construct_ptr@V?$allocator@U?$_List_node@U?$pair@QEAVITool@ith@@V?$unique_ptr@VToolView@ith@@U?$default_delete@VToolView@ith@@@std@@@std@@@std@@PEAX@std@@@std@@@std@@QEAA@XZ 00000001400352b0     Shell.obj
 0002:0000e2b0       $unwind$??1?$_Alloc_construct_ptr@V?$allocator@U?$_Tree_node@U?$pair@$$CBV?$basic_string@_WU?$char_traits@_W@std@@V?$allocator@_W@2@@std@@PEAU_TREEITEM@@@std@@PEAX@std@@@std@@@std@@QEAA@XZ 00000001400352b0     Shell.obj
 0002:0000e2b0       $unwind$??1?$_Tree_temp_node_alloc@V?$allocator@U?$_Tree_node@U?$pair@$$CBV?$basic_string@_WU?$char_traits@_W@std@@V?$allocator@_W@2@@std@@PEAU_TREEITEM@@@std@@PEAX@std@@@std@@@std@@QEAA@XZ 00000001400352b0     Shell.obj
 0002:0000e2b0       $unwind$??1?$unique_ptr@VAdQueryTool@ith@@U?$default_delete@VAdQueryTool@ith@@@std@@@std@@QEAA@XZ 00000001400352b0     Shell.obj
 0002:0000e2b0       $unwind$??1?$unique_ptr@VITool@ith@@U?$default_delete@VITool@ith@@@std@@@std@@QEAA@XZ 00000001400352b0     Shell.obj
 0002:0000e2b0       $unwind$??1?$unique_ptr@VToolView@ith@@U?$default_delete@VToolView@ith@@@std@@@std@@QEAA@XZ 00000001400352b0     Shell.obj
 0002:0000e2b0       $unwind$?_Throw_tree_length_error@std@@YAXXZ 00000001400352b0     Shell.obj
 0002:0000e2b0       $unwind$?_Xlen_string@std@@YAXXZ 00000001400352b0     Shell.obj
 0002:0000e2b0       $unwind$?_Xlength@?$vector@V?$unique_ptr@VITool@ith@@U?$default_delete@VITool@ith@@@std@@@std@@V?$allocator@V?$unique_ptr@VITool@ith@@U?$default_delete@VITool@ith@@@std@@@std@@@2@@std@@CAXXZ 00000001400352b0     Shell.obj
 0002:0000e2b0       $unwind$__dcrt_terminate_console_output 00000001400352b0     libucrt:initcon.obj
 0002:0000e2b0       $unwind$??$uninitialize_environment_internal@D@@YAXAEAPEAPEAD@Z 00000001400352b0     libucrt:environment_initialization.obj
 0002:0000e2b0       $unwind$??$uninitialize_environment_internal@_W@@YAXAEAPEAPEA_W@Z 00000001400352b0     libucrt:environment_initialization.obj
 0002:0000e2b0       $unwind$?initialize_multibyte@@YAHXZ 00000001400352b0     libucrt:multibyte_initializer.obj
 0002:0000e2b0       $unwind$__acrt_uninitialize 00000001400352b0     libucrt:initialization.obj
 0002:0000e2b0       $unwind$initialize_c       00000001400352b0     libucrt:initialization.obj
 0002:0000e2b0       $unwind$uninitialize_allocated_io_buffers 00000001400352b0     libucrt:initialization.obj
 0002:0000e2b0       $unwind$uninitialize_environment 00000001400352b0     libucrt:initialization.obj
 0002:0000e2b0       $unwind$__acrt_getptd      00000001400352b0     libucrt:per_thread_data.obj
 0002:0000e2b0       $unwind$__acrt_initialize_ptd 00000001400352b0     libucrt:per_thread_data.obj
 0002:0000e2b0       $unwind$__acrt_uninitialize_ptd 00000001400352b0     libucrt:per_thread_data.obj
 0002:0000e2b0       $unwind$__acrt_get_begin_thread_init_policy 00000001400352b0     libucrt:win_policies.obj
 0002:0000e2b0       $unwind$__acrt_RoUninitialize 00000001400352b0     libucrt:winapi_thunks.obj
 0002:0000e2b0       $unwind$__acrt_initialize_winapi_thunks 00000001400352b0     libucrt:winapi_thunks.obj
 0002:0000e2b0       $unwind$__acrt_tls2_supported 00000001400352b0     libucrt:winapi_thunks.obj
 0002:0000e2b0       $unwind$__acrt_release_locale_ref 00000001400352b0     libucrt:locale_refcounting.obj
 0002:0000e2b0       $unwind$_isatty            00000001400352b0     libucrt:isatty.obj
 0002:0000e2b0       $unwind$_get_osfhandle     00000001400352b0     libucrt:osfinfo.obj
 0002:0000e2b0       $unwind$_set_fmode         00000001400352b0     libucrt:setmode.obj
 0002:0000e2b0       $unwind$__acrt_initialize_multibyte 00000001400352b0     libucrt:mbctype.obj
 0002:0000e2b0       $unwind$__acrt_update_thread_multibyte_data 00000001400352b0     libucrt:mbctype.obj
 0002:0000e2b0       $unwind$__doserrno         00000001400352b0     libucrt:errno.obj
 0002:0000e2b0       $unwind$_errno             00000001400352b0     libucrt:errno.obj
 0002:0000e2b0       $unwind$_invoke_watson     00000001400352b0     libucrt:invalid_parameter.obj
 0002:0000e2b0       $unwind$abort              00000001400352b0     libucrt:abort.obj
 0002:0000e2b0       $unwind$__acrt_initialize_command_line 00000001400352b0     libucrt:argv_data.obj
 0002:0000e2b0       $unwind$_register_thread_local_exe_atexit_callback 00000001400352b0     libucrt:exit.obj
 0002:0000e2b0       $unwind$_endthreadex       00000001400352b0     libucrt:thread.obj
 0002:0000e2b0       $unwind$_fileno            00000001400352b0     libucrt:fileno.obj
 0002:0000e2b0       $unwind$strcpy_s           00000001400352b0     libucrt:strcpy_s.obj
 0002:0000e2b0       $unwind$wcscpy_s           00000001400352b0     libucrt:wcscpy_s.obj
 0002:0000e2b0       $unwind$_clearfp           00000001400352b0     libucrt:ieee.obj
 0002:0000e2b0       $unwind$fegetround         00000001400352b0     libucrt:fegetround.obj
 0002:0000e2b0       $unwind$_set_errno_from_matherr 00000001400352b0     libucrt:fpexcept.obj
 0002:0000e2b0       $unwind$__scrt_initialize_default_local_stdio_options 00000001400352b0     LIBCMT:default_local_stdio_options.obj
 0002:0000e2b0       $unwind$?post_pgo_initialization@@YAHXZ 00000001400352b0     LIBCMT:exe_wwinmain.obj
 0002:0000e2b0       $unwind$?pre_cpp_initialization@@YAXXZ 00000001400352b0     LIBCMT:exe_wwinmain.obj
 0002:0000e2b0       $unwind$wWinMainCRTStartup 00000001400352b0     LIBCMT:exe_wwinmain.obj
 0002:0000e2b0       $unwind$__GSHandlerCheck   00000001400352b0     LIBCMT:gshandler.obj
 0002:0000e2b0       $unwind$__scrt_acquire_startup_lock 00000001400352b0     LIBCMT:utility.obj
 0002:0000e2b0       $unwind$__scrt_initialize_crt 00000001400352b0     LIBCMT:utility.obj
 0002:0000e2b0       $unwind$__scrt_is_managed_app 00000001400352b0     LIBCMT:utility_desktop.obj
 0002:0000e2b0       $unwind$_Cnd_broadcast     00000001400352b0     libcpmt:cond.obj
 0002:0000e2b0       $unwind$_Thrd_detach       00000001400352b0     libcpmt:cthread.obj
 0002:0000e2b0       $unwind$_Mtx_unlock        00000001400352b0     libcpmt:mutex.obj
 0002:0000e2b0       $unwind$__current_exception 00000001400352b0     libvcruntime:ehhelpers.obj
 0002:0000e2b0       $unwind$__current_exception_context 00000001400352b0     libvcruntime:ehhelpers.obj
 0002:0000e2b0       $unwind$__std_terminate    00000001400352b0     libvcruntime:ehhelpers.obj
 0002:0000e2b0       $unwind$?GetCurrentState@__FrameHandler3@@SAHPEA_KPEAU_xDISPATCHER_CONTEXT@@PEBU_s_FuncInfo@@@Z 00000001400352b0     libvcruntime:ehstate.obj
 0002:0000e2b0       $xdatasym$_CallSettingFrame 00000001400352b0     libvcruntime:handlers.obj
 0002:0000e2b0       $xdatasym$_CallSettingFrameEncoded 00000001400352b0     libvcruntime:handlers.obj
 0002:0000e2b0       $xdatasym$_CallSettingFrame_LookupContinuationIndex 00000001400352b0     libvcruntime:handlers.obj
 0002:0000e2b0       $xdatasym$_CallSettingFrame_NotifyContinuationAddr 00000001400352b0     libvcruntime:handlers.obj
 0002:0000e2b0       $unwind$__vcrt_initialize  00000001400352b0     libvcruntime:initialization.obj
 0002:0000e2b0       $unwind$__vcrt_uninitialize 00000001400352b0     libvcruntime:initialization.obj
 0002:0000e2b0       $unwind$__vcrt_initialize_ptd 00000001400352b0     libvcruntime:per_thread_data.obj
 0002:0000e2b0       $unwind$__vcrt_uninitialize_ptd 00000001400352b0     libvcruntime:per_thread_data.obj
 0002:0000e2b0       $unwind$?FrameUnwindToEmptyState@__FrameHandler4@@SAXPEA_KPEAU_xDISPATCHER_CONTEXT@@PEAUFuncInfo4@FH4@@@Z 00000001400352b0     libvcruntime:risctrnsctrl.obj
 0002:0000e2b0       $unwind$_GetImageBase      00000001400352b0     libvcruntime:risctrnsctrl.obj
 0002:0000e2b0       $unwind$_GetThrowImageBase 00000001400352b0     libvcruntime:risctrnsctrl.obj
 0002:0000e2b8       $unwind$?GroupScope@?A0x1f6e8d05@ith@@YA?AV?$basic_string@_WU?$char_traits@_W@std@@V?$allocator@_W@2@@std@@I@Z 00000001400352b8     AdQuery.obj
 0002:0000e2b8       $unwind$?ValOr@?A0x1f6e8d05@ith@@YA?AV?$basic_string@_WU?$char_traits@_W@std@@V?$allocator@_W@2@@std@@AEBV?$optional@V?$basic_string@_WU?$char_traits@_W@std@@V?$allocator@_W@2@@std@@@4@@Z 00000001400352b8     AdQuery.obj
 0002:0000e2b8       $unwind$?Category@AdQueryTool@ith@@UEBA?AV?$basic_string@_WU?$char_traits@_W@std@@V?$allocator@_W@2@@std@@XZ 00000001400352b8     Shell.obj
 0002:0000e2b8       $unwind$?Name@AdQueryTool@ith@@UEBA?AV?$basic_string@_WU?$char_traits@_W@std@@V?$allocator@_W@2@@std@@XZ 00000001400352b8     Shell.obj
 0002:0000e2b8       $unwind$__security_init_cookie 00000001400352b8     LIBCMT:gs_support.obj
 0002:0000e2b8       $unwind$?equivalent@error_category@std@@UEBA_NHAEBVerror_condition@2@@Z 00000001400352b8     libcpmt:thread0.obj
 0002:0000e2b8       $unwind$?message@_Generic_error_category@std@@UEBA?AV?$basic_string@DU?$char_traits@D@std@@V?$allocator@D@2@@2@H@Z 00000001400352b8     libcpmt:thread0.obj
 0002:0000e2b8       $unwind$??0length_error@std@@QEAA@PEBD@Z 00000001400352b8     libcpmt:xthrow.obj
 0002:0000e2b8       $unwind$??0out_of_range@std@@QEAA@PEBD@Z 00000001400352b8     libcpmt:xthrow.obj
 0002:0000e2c0       $unwind$?RecreateFont@Shell@ith@@AEAAXXZ 00000001400352c0     Shell.obj
 0002:0000e2d4       $unwind$?SelectTool@Shell@ith@@AEAAXPEAVITool@2@@Z 00000001400352d4     Shell.obj
 0002:0000e2f4       $cppxdata$?SelectTool@Shell@ith@@AEAAXPEAVITool@2@@Z 00000001400352f4     Shell.obj
 0002:0000e2fd       $stateUnwindMap$?SelectTool@Shell@ith@@AEAAXPEAVITool@2@@Z 00000001400352fd     Shell.obj
 0002:0000e311       $ip2state$?SelectTool@Shell@ith@@AEAAXPEAVITool@2@@Z 0000000140035311     Shell.obj
 0002:0000e324       $unwind$?Layout@Shell@ith@@AEAAXXZ 0000000140035324     Shell.obj
 0002:0000e33c       $unwind$?WndProc@Shell@ith@@CA_JPEAUHWND__@@I_K_J@Z 000000014003533c     Shell.obj
 0002:0000e364       $cppxdata$?WndProc@Shell@ith@@CA_JPEAUHWND__@@I_K_J@Z 0000000140035364     Shell.obj
 0002:0000e371       $stateUnwindMap$?WndProc@Shell@ith@@CA_JPEAUHWND__@@I_K_J@Z 0000000140035371     Shell.obj
 0002:0000e38f       $tryMap$?WndProc@Shell@ith@@CA_JPEAUHWND__@@I_K_J@Z 000000014003538f     Shell.obj
 0002:0000e397       $handlerMap$?WndProc@Shell@ith@@CA_JPEAUHWND__@@I_K_J@Z 0000000140035397     Shell.obj
 0002:0000e3a0       $ip2state$?WndProc@Shell@ith@@CA_JPEAUHWND__@@I_K_J@Z 00000001400353a0     Shell.obj
 0002:0000e3b8       $unwind$??$construct@UInfoPair@ith@@U12@@?$_Default_allocator_traits@V?$allocator@UInfoPair@ith@@@std@@@std@@SAXAEAV?$allocator@UInfoPair@ith@@@1@QEAUInfoPair@ith@@$$QEAU34@@Z 00000001400353b8     AdQuery.obj
 0002:0000e3b8       $unwind$??1?$vector@UInfoPair@ith@@V?$allocator@UInfoPair@ith@@@std@@@std@@QEAA@XZ 00000001400353b8     AdQuery.obj
 0002:0000e3b8       $unwind$??1_Reallocation_guard2@?$vector@UInfoPair@ith@@V?$allocator@UInfoPair@ith@@@std@@@std@@QEAA@XZ 00000001400353b8     AdQuery.obj
 0002:0000e3b8       $unwind$??1_Reallocation_guard2@?$vector@UNamedEntry@ith@@V?$allocator@UNamedEntry@ith@@@std@@@std@@QEAA@XZ 00000001400353b8     AdQuery.obj
 0002:0000e3b8       $unwind$??1_Reallocation_guard2@?$vector@V?$basic_string@_WU?$char_traits@_W@std@@V?$allocator@_W@2@@std@@V?$allocator@V?$basic_string@_WU?$char_traits@_W@std@@V?$allocator@_W@2@@std@@@2@@std@@QEAA@XZ 00000001400353b8     AdQuery.obj
 0002:0000e3b8       $unwind$?_Tidy@?$vector@UNamedEntry@ith@@V?$allocator@UNamedEntry@ith@@@std@@@std@@AEAAXXZ 00000001400353b8     AdQuery.obj
 0002:0000e3b8       $unwind$?_Tidy@?$vector@V?$basic_string@_WU?$char_traits@_W@std@@V?$allocator@_W@2@@std@@V?$allocator@V?$basic_string@_WU?$char_traits@_W@std@@V?$allocator@_W@2@@std@@@2@@std@@AEAAXXZ 00000001400353b8     AdQuery.obj
 0002:0000e3b8       $unwind$?CopyTextToClipboard@AdQueryView@ith@@AEAAXAEBV?$basic_string@_WU?$char_traits@_W@std@@V?$allocator@_W@2@@std@@@Z 00000001400353b8     AdQueryTool.obj
 0002:0000e3b8       $unwind$??1?$_Tree@V?$_Tmap_traits@V?$basic_string@_WU?$char_traits@_W@std@@V?$allocator@_W@2@@std@@PEAU_TREEITEM@@U?$less@V?$basic_string@_WU?$char_traits@_W@std@@V?$allocator@_W@2@@std@@@2@V?$allocator@U?$pair@$$CBV?$basic_string@_WU?$char_traits@_W@std@@V?$allocator@_W@2@@std@@PEAU_TREEITEM@@@std@@@2@$0A@@std@@@std@@QEAA@XZ 00000001400353b8     Shell.obj
 0002:0000e3b8       $unwind$??1?$list@U?$pair@QEAVITool@ith@@V?$unique_ptr@VToolView@ith@@U?$default_delete@VToolView@ith@@@std@@@std@@@std@@V?$allocator@U?$pair@QEAVITool@ith@@V?$unique_ptr@VToolView@ith@@U?$default_delete@VToolView@ith@@@std@@@std@@@std@@@2@@std@@QEAA@XZ 00000001400353b8     Shell.obj
 0002:0000e3b8       $unwind$??1_Reallocation_guard2@?$vector@V?$unique_ptr@VITool@ith@@U?$default_delete@VITool@ith@@@std@@@std@@V?$allocator@V?$unique_ptr@VITool@ith@@U?$default_delete@VITool@ith@@@std@@@std@@@2@@std@@QEAA@XZ 00000001400353b8     Shell.obj
 0002:0000e3b8       $unwind$?_Tidy@?$vector@V?$unique_ptr@VITool@ith@@U?$default_delete@VITool@ith@@@std@@@std@@V?$allocator@V?$unique_ptr@VITool@ith@@U?$default_delete@VITool@ith@@@std@@@std@@@2@@std@@AEAAXXZ 00000001400353b8     Shell.obj
 0002:0000e3b8       $unwind$memcpy_s           00000001400353b8     libucrt:cfout.obj
 0002:0000e3b8       $unwind$?internal_get_ptd_head_slow@@YAPEAU__acrt_ptd@@XZ 00000001400353b8     libucrt:per_thread_data.obj
 0002:0000e3b8       $unwind$__acrt_execute_initializers 00000001400353b8     libucrt:shared_initialization.obj
 0002:0000e3b8       $unwind$_close_nolock_internal 00000001400353b8     libucrt:close.obj
 0002:0000e3b8       $unwind$?value@?$dual_state_global@P6AXPEB_W00I_K@Z@__crt_state_management@@QEAAAEAP6AXPEB_W00I_K@ZAEAV__crt_cached_ptd_host@@@Z 00000001400353b8     libucrt:invalid_parameter.obj
 0002:0000e3b8       $unwind$??0_LocaleUpdate@@QEAA@QEAU__crt_locale_pointers@@@Z 00000001400353b8     libucrt:argv_wildcards.obj
 0002:0000e3b8       $unwind$?create_thread_parameter@@YAPEAU__acrt_thread_parameter@@QEAX0@Z 00000001400353b8     libucrt:thread.obj
 0002:0000e3b8       $unwind$?type_case_s@?$output_processor@_WV?$string_output_adapter@_W@__crt_stdio_output@@V?$standard_base@_WV?$string_output_adapter@_W@__crt_stdio_output@@@2@@__crt_stdio_output@@AEAA_NXZ 00000001400353b8     libucrt:output.obj
 0002:0000e3b8       $unwind$?update_locale_slow@__crt_cached_ptd_host@@AEAAXXZ 00000001400353b8     libucrt:output.obj
 0002:0000e3b8       $unwind$?ExecutionInCatch@__FrameHandler3@@SA_NPEAU_xDISPATCHER_CONTEXT@@PEBU_s_FuncInfo@@@Z 00000001400353b8     libvcruntime:risctrnsctrl.obj
 0002:0000e3c8       $unwind$??$_Find_lower_bound@V?$basic_string@_WU?$char_traits@_W@std@@V?$allocator@_W@2@@std@@@?$_Tree@V?$_Tmap_traits@V?$basic_string@_WU?$char_traits@_W@std@@V?$allocator@_W@2@@std@@PEAU_TREEITEM@@U?$less@V?$basic_string@_WU?$char_traits@_W@std@@V?$allocator@_W@2@@std@@@2@V?$allocator@U?$pair@$$CBV?$basic_string@_WU?$char_traits@_W@std@@V?$allocator@_W@2@@std@@PEAU_TREEITEM@@@std@@@2@$0A@@std@@@std@@IEBA?AU?$_Tree_find_result@PEAU?$_Tree_node@U?$pair@$$CBV?$basic_string@_WU?$char_traits@_W@std@@V?$allocator@_W@2@@std@@PEAU_TREEITEM@@@std@@PEAX@std@@@1@AEBV?$basic_string@_WU?$char_traits@_W@std@@V?$allocator@_W@2@@1@@Z 00000001400353c8     Shell.obj
 0002:0000e3c8       $unwind$?clear@?$_Hash@V?$_Umap_traits@PEAVITool@ith@@V?$unique_ptr@VToolView@ith@@U?$default_delete@VToolView@ith@@@std@@@std@@V?$_Uhash_compare@PEAVITool@ith@@U?$hash@PEAVITool@ith@@@std@@U?$equal_to@PEAVITool@ith@@@4@@4@V?$allocator@U?$pair@QEAVITool@ith@@V?$unique_ptr@VToolView@ith@@U?$default_delete@VToolView@ith@@@std@@@std@@@std@@@4@$0A@@std@@@std@@QEAAXXZ 00000001400353c8     Shell.obj
 0002:0000e3e0       $unwind$?reserve@?$basic_string@_WU?$char_traits@_W@std@@V?$allocator@_W@2@@std@@QEAAX_K@Z 00000001400353e0     AdQuery.obj
 0002:0000e3e0       $unwind$??$_Construct@$00PEB_W@?$basic_string@_WU?$char_traits@_W@std@@V?$allocator@_W@2@@std@@AEAAXQEB_W_K@Z 00000001400353e0     Shell.obj
 0002:0000e3e0       $unwind$?_Assign_grow@?$_Hash_vec@V?$allocator@V?$_List_unchecked_iterator@V?$_List_val@U?$_List_simple_types@U?$pair@QEAVITool@ith@@V?$unique_ptr@VToolView@ith@@U?$default_delete@VToolView@ith@@@std@@@std@@@std@@@std@@@std@@@std@@@std@@@std@@QEAAX_KV?$_List_unchecked_iterator@V?$_List_val@U?$_List_simple_types@U?$pair@QEAVITool@ith@@V?$unique_ptr@VToolView@ith@@U?$default_delete@VToolView@ith@@@std@@@std@@@std@@@std@@@std@@@2@@Z 00000001400353e0     Shell.obj
 0002:0000e3f4       $unwind$?EditSubProc@?A0xd1b81b73@ith@@YA_JPEAUHWND__@@I_K_J11@Z 00000001400353f4     AdQueryTool.obj
 0002:0000e3f4       $unwind$?ListSubProc@?A0xd1b81b73@ith@@YA_JPEAUHWND__@@I_K_J11@Z 00000001400353f4     AdQueryTool.obj
 0002:0000e3f4       $unwind$??$_Erase_tree@V?$allocator@U?$_Tree_node@U?$pair@$$CBV?$basic_string@_WU?$char_traits@_W@std@@V?$allocator@_W@2@@std@@PEAU_TREEITEM@@@std@@PEAX@std@@@std@@@?$_Tree_val@U?$_Tree_simple_types@U?$pair@$$CBV?$basic_string@_WU?$char_traits@_W@std@@V?$allocator@_W@2@@std@@PEAU_TREEITEM@@@std@@@std@@@std@@QEAAXAEAV?$allocator@U?$_Tree_node@U?$pair@$$CBV?$basic_string@_WU?$char_traits@_W@std@@V?$allocator@_W@2@@std@@PEAU_TREEITEM@@@std@@PEAX@std@@@1@PEAU?$_Tree_node@U?$pair@$$CBV?$basic_string@_WU?$char_traits@_W@std@@V?$allocator@_W@2@@std@@PEAU_TREEITEM@@@std@@PEAX@1@@Z 00000001400353f4     Shell.obj
 0002:0000e3f4       $unwind$??$_Construct@$00PEBD@?$basic_string@DU?$char_traits@D@std@@V?$allocator@D@2@@std@@AEAAXQEBD_K@Z 00000001400353f4     libcpmt:thread0.obj
 0002:0000e3f4       $unwind$?Is_bad_exception_allowed@@YAEPEBU_s_ESTypeList@@@Z 00000001400353f4     libvcruntime:frame.obj
 0002:0000e404       $unwind$??0?$vector@EV?$allocator@E@std@@@std@@QEAA@AEBV01@@Z 0000000140035404     AdQuery.obj
 0002:0000e404       $unwind$??0?$basic_string@_WU?$char_traits@_W@std@@V?$allocator@_W@2@@std@@QEAA@AEBV01@@Z 0000000140035404     Shell.obj
 0002:0000e404       $unwind$??0?$basic_string@DU?$char_traits@D@std@@V?$allocator@D@2@@std@@QEAA@AEBV01@@Z 0000000140035404     libcpmt:thread0.obj
 0002:0000e414       $unwind$?LdapEscape@ith@@YA?AV?$basic_string@_WU?$char_traits@_W@std@@V?$allocator@_W@2@@std@@AEBV23@@Z 0000000140035414     AdQuery.obj
 0002:0000e434       $cppxdata$?BytesToLdapFilter@ith@@YA?AV?$basic_string@_WU?$char_traits@_W@std@@V?$allocator@_W@2@@std@@AEBV?$vector@EV?$allocator@E@std@@@3@@Z 0000000140035434     AdQuery.obj
 0002:0000e434       $cppxdata$?LdapEscape@ith@@YA?AV?$basic_string@_WU?$char_traits@_W@std@@V?$allocator@_W@2@@std@@AEBV23@@Z 0000000140035434     AdQuery.obj
 0002:0000e43d       $stateUnwindMap$?BytesToLdapFilter@ith@@YA?AV?$basic_string@_WU?$char_traits@_W@std@@V?$allocator@_W@2@@std@@AEBV?$vector@EV?$allocator@E@std@@@3@@Z 000000014003543d     AdQuery.obj
 0002:0000e43d       $stateUnwindMap$?LdapEscape@ith@@YA?AV?$basic_string@_WU?$char_traits@_W@std@@V?$allocator@_W@2@@std@@AEBV23@@Z 000000014003543d     AdQuery.obj
 0002:0000e443       $ip2state$?BytesToLdapFilter@ith@@YA?AV?$basic_string@_WU?$char_traits@_W@std@@V?$allocator@_W@2@@std@@AEBV?$vector@EV?$allocator@E@std@@@3@@Z 0000000140035443     AdQuery.obj
 0002:0000e443       $ip2state$?LdapEscape@ith@@YA?AV?$basic_string@_WU?$char_traits@_W@std@@V?$allocator@_W@2@@std@@AEBV23@@Z 0000000140035443     AdQuery.obj
 0002:0000e448       $unwind$?BytesToLdapFilter@ith@@YA?AV?$basic_string@_WU?$char_traits@_W@std@@V?$allocator@_W@2@@std@@AEBV?$vector@EV?$allocator@E@std@@@3@@Z 0000000140035448     AdQuery.obj
 0002:0000e468       $unwind$?FileTime64ToString@ith@@YA?AV?$basic_string@_WU?$char_traits@_W@std@@V?$allocator@_W@2@@std@@_J@Z 0000000140035468     AdQuery.obj
 0002:0000e480       $unwind$?HrMessage@?A0x1f6e8d05@ith@@YA?AV?$basic_string@_WU?$char_traits@_W@std@@V?$allocator@_W@2@@std@@J@Z 0000000140035480     AdQuery.obj
 0002:0000e4a0       $cppxdata$?HrMessage@?A0x1f6e8d05@ith@@YA?AV?$basic_string@_WU?$char_traits@_W@std@@V?$allocator@_W@2@@std@@J@Z 00000001400354a0     AdQuery.obj
 0002:0000e4a9       $stateUnwindMap$?HrMessage@?A0x1f6e8d05@ith@@YA?AV?$basic_string@_WU?$char_traits@_W@std@@V?$allocator@_W@2@@std@@J@Z 00000001400354a9     AdQuery.obj
 0002:0000e4b0       $ip2state$?HrMessage@?A0x1f6e8d05@ith@@YA?AV?$basic_string@_WU?$char_traits@_W@std@@V?$allocator@_W@2@@std@@J@Z 00000001400354b0     AdQuery.obj
 0002:0000e4bc       $unwind$?ColStr@?A0x1f6e8d05@ith@@YA?AV?$optional@V?$basic_string@_WU?$char_traits@_W@std@@V?$allocator@_W@2@@std@@@std@@PEAUIDirectorySearch@@PEAXPEB_W@Z 00000001400354bc     AdQuery.obj
 0002:0000e4d4       $cppxdata$?ColStr@?A0x1f6e8d05@ith@@YA?AV?$optional@V?$basic_string@_WU?$char_traits@_W@std@@V?$allocator@_W@2@@std@@@std@@PEAUIDirectorySearch@@PEAXPEB_W@Z 00000001400354d4     AdQuery.obj
 0002:0000e4dd       $stateUnwindMap$?ColStr@?A0x1f6e8d05@ith@@YA?AV?$optional@V?$basic_string@_WU?$char_traits@_W@std@@V?$allocator@_W@2@@std@@@std@@PEAUIDirectorySearch@@PEAXPEB_W@Z 00000001400354dd     AdQuery.obj
 0002:0000e4e4       $ip2state$?ColStr@?A0x1f6e8d05@ith@@YA?AV?$optional@V?$basic_string@_WU?$char_traits@_W@std@@V?$allocator@_W@2@@std@@@std@@PEAUIDirectorySearch@@PEAXPEB_W@Z 00000001400354e4     AdQuery.obj
 0002:0000e4ec       $unwind$?ColInt@?A0x1f6e8d05@ith@@YA?AV?$optional@I@std@@PEAUIDirectorySearch@@PEAXPEB_W@Z 00000001400354ec     AdQuery.obj
 0002:0000e4ec       $unwind$??$__InternalCxxFrameHandler@V__FrameHandler3@@@@YA?AW4_EXCEPTION_DISPOSITION@@PEAUEHExceptionRecord@@PEA_KPEAU_CONTEXT@@PEAU_xDISPATCHER_CONTEXT@@PEBU_s_FuncInfo@@H1E@Z 00000001400354ec     libvcruntime:frame.obj
 0002:0000e500       $unwind$?ColMultiStr@?A0x1f6e8d05@ith@@YA?AV?$vector@V?$basic_string@_WU?$char_traits@_W@std@@V?$allocator@_W@2@@std@@V?$allocator@V?$basic_string@_WU?$char_traits@_W@std@@V?$allocator@_W@2@@std@@@2@@std@@PEAUIDirectorySearch@@PEAXPEB_W@Z 0000000140035500     AdQuery.obj
 0002:0000e518       $cppxdata$?ColMultiStr@?A0x1f6e8d05@ith@@YA?AV?$vector@V?$basic_string@_WU?$char_traits@_W@std@@V?$allocator@_W@2@@std@@V?$allocator@V?$basic_string@_WU?$char_traits@_W@std@@V?$allocator@_W@2@@std@@@2@@std@@PEAUIDirectorySearch@@PEAXPEB_W@Z 0000000140035518     AdQuery.obj
 0002:0000e521       $stateUnwindMap$?ColMultiStr@?A0x1f6e8d05@ith@@YA?AV?$vector@V?$basic_string@_WU?$char_traits@_W@std@@V?$allocator@_W@2@@std@@V?$allocator@V?$basic_string@_WU?$char_traits@_W@std@@V?$allocator@_W@2@@std@@@2@@std@@PEAUIDirectorySearch@@PEAXPEB_W@Z 0000000140035521     AdQuery.obj
 0002:0000e527       $ip2state$?ColMultiStr@?A0x1f6e8d05@ith@@YA?AV?$vector@V?$basic_string@_WU?$char_traits@_W@std@@V?$allocator@_W@2@@std@@V?$allocator@V?$basic_string@_WU?$char_traits@_W@std@@V?$allocator@_W@2@@std@@@2@@std@@PEAUIDirectorySearch@@PEAXPEB_W@Z 0000000140035527     AdQuery.obj
 0002:0000e52c       $unwind$?ForEachRow@?A0x1f6e8d05@ith@@YAXPEAUIDirectorySearch@@AEBV?$basic_string@_WU?$char_traits@_W@std@@V?$allocator@_W@2@@std@@AEBV?$vector@PEB_WV?$allocator@PEB_W@std@@@5@AEBV?$function@$$A6AXPEAX@Z@5@@Z 000000014003552c     AdQuery.obj
 0002:0000e54c       $cppxdata$?ForEachRow@?A0x1f6e8d05@ith@@YAXPEAUIDirectorySearch@@AEBV?$basic_string@_WU?$char_traits@_W@std@@V?$allocator@_W@2@@std@@AEBV?$vector@PEB_WV?$allocator@PEB_W@std@@@5@AEBV?$function@$$A6AXPEAX@Z@5@@Z 000000014003554c     AdQuery.obj
 0002:0000e555       $stateUnwindMap$?ForEachRow@?A0x1f6e8d05@ith@@YAXPEAUIDirectorySearch@@AEBV?$basic_string@_WU?$char_traits@_W@std@@V?$allocator@_W@2@@std@@AEBV?$vector@PEB_WV?$allocator@PEB_W@std@@@5@AEBV?$function@$$A6AXPEAX@Z@5@@Z 0000000140035555     AdQuery.obj
 0002:0000e55c       $ip2state$?ForEachRow@?A0x1f6e8d05@ith@@YAXPEAUIDirectorySearch@@AEBV?$basic_string@_WU?$char_traits@_W@std@@V?$allocator@_W@2@@std@@AEBV?$vector@PEB_WV?$allocator@PEB_W@std@@@5@AEBV?$function@$$A6AXPEAX@Z@5@@Z 000000014003555c     AdQuery.obj
 0002:0000e564       $unwind$??$?H_WU?$char_traits@_W@std@@V?$allocator@_W@1@@std@@YA?AV?$basic_string@_WU?$char_traits@_W@std@@V?$allocator@_W@2@@0@$$QEAV10@QEB_W@Z 0000000140035564     AdQuery.obj
 0002:0000e564       $unwind$?DetectType@?A0x1f6e8d05@ith@@YA?AW4ObjectType@2@AEBV?$vector@V?$basic_string@_WU?$char_traits@_W@std@@V?$allocator@_W@2@@std@@V?$allocator@V?$basic_string@_WU?$char_traits@_W@std@@V?$allocator@_W@2@@std@@@2@@std@@@Z 0000000140035564     AdQuery.obj
 0002:0000e564       $unwind$?getStateFromIterators@UWMap4@FH4@@SAHAEBViterator@12@H0H0@Z 0000000140035564     libvcruntime:frame.obj
 0002:0000e574       $unwind$?CollectNames@?A0x1f6e8d05@ith@@YA?AV?$vector@UNamedEntry@ith@@V?$allocator@UNamedEntry@ith@@@std@@@std@@PEAUIDirectorySearch@@AEBV?$basic_string@_WU?$char_traits@_W@std@@V?$allocator@_W@2@@4@@Z 0000000140035574     AdQuery.obj
 0002:0000e590       $cppxdata$?CollectNames@?A0x1f6e8d05@ith@@YA?AV?$vector@UNamedEntry@ith@@V?$allocator@UNamedEntry@ith@@@std@@@std@@PEAUIDirectorySearch@@AEBV?$basic_string@_WU?$char_traits@_W@std@@V?$allocator@_W@2@@4@@Z 0000000140035590     AdQuery.obj
 0002:0000e599       $stateUnwindMap$?CollectNames@?A0x1f6e8d05@ith@@YA?AV?$vector@UNamedEntry@ith@@V?$allocator@UNamedEntry@ith@@@std@@@std@@PEAUIDirectorySearch@@AEBV?$basic_string@_WU?$char_traits@_W@std@@V?$allocator@_W@2@@4@@Z 0000000140035599     AdQuery.obj
 0002:0000e5ac       $ip2state$?CollectNames@?A0x1f6e8d05@ith@@YA?AV?$vector@UNamedEntry@ith@@V?$allocator@UNamedEntry@ith@@@std@@@std@@PEAUIDirectorySearch@@AEBV?$basic_string@_WU?$char_traits@_W@std@@V?$allocator@_W@2@@4@@Z 00000001400355ac     AdQuery.obj
 0002:0000e5b4       $unwind$?RunAdQuery@ith@@YA?AV?$unique_ptr@UAdResult@ith@@U?$default_delete@UAdResult@ith@@@std@@@std@@AEBUAdQueryRequest@1@@Z 00000001400355b4     AdQuery.obj
 0002:0000e5dc       $cppxdata$?RunAdQuery@ith@@YA?AV?$unique_ptr@UAdResult@ith@@U?$default_delete@UAdResult@ith@@@std@@@std@@AEBUAdQueryRequest@1@@Z 00000001400355dc     AdQuery.obj
 0002:0000e5e5       $stateUnwindMap$?RunAdQuery@ith@@YA?AV?$unique_ptr@UAdResult@ith@@U?$default_delete@UAdResult@ith@@@std@@@std@@AEBUAdQueryRequest@1@@Z 00000001400355e5     AdQuery.obj
 0002:0000e852       $ip2state$?RunAdQuery@ith@@YA?AV?$unique_ptr@UAdResult@ith@@U?$default_delete@UAdResult@ith@@@std@@@std@@AEBUAdQueryRequest@1@@Z 0000000140035852     AdQuery.obj
 0002:0000e98c       $unwind$??$emplace_back@AEBQEA_W@?$vector@V?$basic_string@_WU?$char_traits@_W@std@@V?$allocator@_W@2@@std@@V?$allocator@V?$basic_string@_WU?$char_traits@_W@std@@V?$allocator@_W@2@@std@@@2@@std@@QEAAAEAV?$basic_string@_WU?$char_traits@_W@std@@V?$allocator@_W@2@@1@AEBQEA_W@Z 000000014003598c     AdQuery.obj
 0002:0000e9ac       $cppxdata$??$emplace_back@AEBQEA_W@?$vector@V?$basic_string@_WU?$char_traits@_W@std@@V?$allocator@_W@2@@std@@V?$allocator@V?$basic_string@_WU?$char_traits@_W@std@@V?$allocator@_W@2@@std@@@2@@std@@QEAAAEAV?$basic_string@_WU?$char_traits@_W@std@@V?$allocator@_W@2@@1@AEBQEA_W@Z 00000001400359ac     AdQuery.obj
 0002:0000e9b5       $stateUnwindMap$??$emplace_back@AEBQEA_W@?$vector@V?$basic_string@_WU?$char_traits@_W@std@@V?$allocator@_W@2@@std@@V?$allocator@V?$basic_string@_WU?$char_traits@_W@std@@V?$allocator@_W@2@@std@@@2@@std@@QEAAAEAV?$basic_string@_WU?$char_traits@_W@std@@V?$allocator@_W@2@@1@AEBQEA_W@Z 00000001400359b5     AdQuery.obj
 0002:0000e9bc       $ip2state$??$emplace_back@AEBQEA_W@?$vector@V?$basic_string@_WU?$char_traits@_W@std@@V?$allocator@_W@2@@std@@V?$allocator@V?$basic_string@_WU?$char_traits@_W@std@@V?$allocator@_W@2@@std@@@2@@std@@QEAAAEAV?$basic_string@_WU?$char_traits@_W@std@@V?$allocator@_W@2@@1@AEBQEA_W@Z 00000001400359bc     AdQuery.obj
 0002:0000e9c8       $unwind$??$?H_WU?$char_traits@_W@std@@V?$allocator@_W@1@@std@@YA?AV?$basic_string@_WU?$char_traits@_W@std@@V?$allocator@_W@2@@0@QEB_WAEBV10@@Z 00000001400359c8     AdQuery.obj
 0002:0000e9c8       $unwind$__acrt_fp_format   00000001400359c8     libucrt:cvt.obj
 0002:0000e9d8       $unwind$??$?H_WU?$char_traits@_W@std@@V?$allocator@_W@1@@std@@YA?AV?$basic_string@_WU?$char_traits@_W@std@@V?$allocator@_W@2@@0@QEB_W$$QEAV10@@Z 00000001400359d8     AdQuery.obj
 0002:0000e9f0       $unwind$??$?H_WU?$char_traits@_W@std@@V?$allocator@_W@1@@std@@YA?AV?$basic_string@_WU?$char_traits@_W@std@@V?$allocator@_W@2@@0@$$QEAV10@AEBV10@@Z 00000001400359f0     AdQuery.obj
 0002:0000e9f0       $unwind$?type_case_n@?$output_processor@_WV?$string_output_adapter@_W@__crt_stdio_output@@V?$standard_base@_WV?$string_output_adapter@_W@__crt_stdio_output@@@2@@__crt_stdio_output@@AEAA_NXZ 00000001400359f0     libucrt:output.obj
 0002:0000e9fc       $unwind$??$?0AEAV<lambda_1>@?1??RunAdQuery@ith@@YA?AV?$unique_ptr@UAdResult@ith@@U?$default_delete@UAdResult@ith@@@std@@@std@@AEBUAdQueryRequest@2@@Z@$0A@@?$function@$$A6AXPEAX@Z@std@@QEAA@AEAV<lambda_1>@?1??RunAdQuery@ith@@YA?AV?$unique_ptr@UAdResult@ith@@U?$default_delete@UAdResult@ith@@@std@@@1@AEBUAdQueryRequest@4@@Z@@Z 00000001400359fc     AdQuery.obj
 0002:0000ea10       $cppxdata$??$?0AEAV<lambda_1>@?1??RunAdQuery@ith@@YA?AV?$unique_ptr@UAdResult@ith@@U?$default_delete@UAdResult@ith@@@std@@@std@@AEBUAdQueryRequest@2@@Z@$0A@@?$function@$$A6AXPEAX@Z@std@@QEAA@AEAV<lambda_1>@?1??RunAdQuery@ith@@YA?AV?$unique_ptr@UAdResult@ith@@U?$default_delete@UAdResult@ith@@@std@@@1@AEBUAdQueryRequest@4@@Z@@Z 0000000140035a10     AdQuery.obj
 0002:0000ea19       $stateUnwindMap$??$?0AEAV<lambda_1>@?1??RunAdQuery@ith@@YA?AV?$unique_ptr@UAdResult@ith@@U?$default_delete@UAdResult@ith@@@std@@@std@@AEBUAdQueryRequest@2@@Z@$0A@@?$function@$$A6AXPEAX@Z@std@@QEAA@AEAV<lambda_1>@?1??RunAdQuery@ith@@YA?AV?$unique_ptr@UAdResult@ith@@U?$default_delete@UAdResult@ith@@@std@@@1@AEBUAdQueryRequest@4@@Z@@Z 0000000140035a19     AdQuery.obj
 0002:0000ea20       $ip2state$??$?0AEAV<lambda_1>@?1??RunAdQuery@ith@@YA?AV?$unique_ptr@UAdResult@ith@@U?$default_delete@UAdResult@ith@@@std@@@std@@AEBUAdQueryRequest@2@@Z@$0A@@?$function@$$A6AXPEAX@Z@std@@QEAA@AEAV<lambda_1>@?1??RunAdQuery@ith@@YA?AV?$unique_ptr@UAdResult@ith@@U?$default_delete@UAdResult@ith@@@std@@@1@AEBUAdQueryRequest@4@@Z@@Z 0000000140035a20     AdQuery.obj
 0002:0000ea24       $unwind$??0?$vector@PEB_WV?$allocator@PEB_W@std@@@std@@QEAA@V?$initializer_list@PEB_W@1@AEBV?$allocator@PEB_W@1@@Z 0000000140035a24     AdQuery.obj
 0002:0000ea38       $unwind$??1?$ComPtr@UIADs@@@WRL@Microsoft@@QEAA@XZ 0000000140035a38     AdQuery.obj
 0002:0000ea38       $unwind$??1?$ComPtr@UIDirectorySearch@@@WRL@Microsoft@@QEAA@XZ 0000000140035a38     AdQuery.obj
 0002:0000ea48       $cppxdata$??1?$ComPtr@UIADs@@@WRL@Microsoft@@QEAA@XZ 0000000140035a48     AdQuery.obj
 0002:0000ea48       $cppxdata$??1?$ComPtr@UIDirectorySearch@@@WRL@Microsoft@@QEAA@XZ 0000000140035a48     AdQuery.obj
 0002:0000ea51       $stateUnwindMap$??1?$ComPtr@UIADs@@@WRL@Microsoft@@QEAA@XZ 0000000140035a51     AdQuery.obj
 0002:0000ea51       $stateUnwindMap$??1?$ComPtr@UIDirectorySearch@@@WRL@Microsoft@@QEAA@XZ 0000000140035a51     AdQuery.obj
 0002:0000ea57       $ip2state$??1?$ComPtr@UIADs@@@WRL@Microsoft@@QEAA@XZ 0000000140035a57     AdQuery.obj
 0002:0000ea57       $ip2state$??1?$ComPtr@UIDirectorySearch@@@WRL@Microsoft@@QEAA@XZ 0000000140035a57     AdQuery.obj
 0002:0000ea5c       $unwind$?push_back@?$vector@UInfoPair@ith@@V?$allocator@UInfoPair@ith@@@std@@@std@@QEAAX$$QEAUInfoPair@ith@@@Z 0000000140035a5c     AdQuery.obj
 0002:0000ea5c       $unwind$?push_back@?$vector@UNamedEntry@ith@@V?$allocator@UNamedEntry@ith@@@std@@@std@@QEAAX$$QEAUNamedEntry@ith@@@Z 0000000140035a5c     AdQuery.obj
 0002:0000ea74       $unwind$??$_Sort_unchecked@PEAUNamedEntry@ith@@V<lambda_2>@?BM@??RunAdQuery@2@YA?AV?$unique_ptr@UAdResult@ith@@U?$default_delete@UAdResult@ith@@@std@@@std@@AEBUAdQueryRequest@2@@Z@@std@@YAXPEAUNamedEntry@ith@@0_JV<lambda_2>@?BM@??RunAdQuery@2@YA?AV?$unique_ptr@UAdResult@ith@@U?$default_delete@UAdResult@ith@@@std@@@0@AEBUAdQueryRequest@2@@Z@@Z 0000000140035a74     AdQuery.obj
 0002:0000ea74       $unwind$??$_Sort_unchecked@PEAUNamedEntry@ith@@V<lambda_3>@?CI@??RunAdQuery@2@YA?AV?$unique_ptr@UAdResult@ith@@U?$default_delete@UAdResult@ith@@@std@@@std@@AEBUAdQueryRequest@2@@Z@@std@@YAXPEAUNamedEntry@ith@@0_JV<lambda_3>@?CI@??RunAdQuery@2@YA?AV?$unique_ptr@UAdResult@ith@@U?$default_delete@UAdResult@ith@@@std@@@0@AEBUAdQueryRequest@2@@Z@@Z 0000000140035a74     AdQuery.obj
 0002:0000ea94       $unwind$??$_Assign@_W@?$basic_string@_WU?$char_traits@_W@std@@V?$allocator@_W@2@@std@@AEAAAEAV01@QEB_W_K@Z 0000000140035a94     AdQuery.obj
 0002:0000ea94       $unwind$??0?$basic_string@_WU?$char_traits@_W@std@@V?$allocator@_W@2@@std@@QEAA@U_String_constructor_concat_tag@1@AEBV01@QEB_W_K23@Z 0000000140035a94     AdQuery.obj
 0002:0000eaa8       $unwind$??$_Append@_W@?$basic_string@_WU?$char_traits@_W@std@@V?$allocator@_W@2@@std@@AEAAAEAV01@QEB_W_K@Z 0000000140035aa8     AdQuery.obj
 0002:0000eac0       $unwind$?_Do_call@?$_Func_impl_no_alloc@V<lambda_1>@?1??RunAdQuery@ith@@YA?AV?$unique_ptr@UAdResult@ith@@U?$default_delete@UAdResult@ith@@@std@@@std@@AEBUAdQueryRequest@3@@Z@XPEAX@std@@EEAAX$$QEAPEAX@Z 0000000140035ac0     AdQuery.obj
 0002:0000eae4       $cppxdata$?_Do_call@?$_Func_impl_no_alloc@V<lambda_1>@?1??RunAdQuery@ith@@YA?AV?$unique_ptr@UAdResult@ith@@U?$default_delete@UAdResult@ith@@@std@@@std@@AEBUAdQueryRequest@3@@Z@XPEAX@std@@EEAAX$$QEAPEAX@Z 0000000140035ae4     AdQuery.obj
 0002:0000eaed       $stateUnwindMap$?_Do_call@?$_Func_impl_no_alloc@V<lambda_1>@?1??RunAdQuery@ith@@YA?AV?$unique_ptr@UAdResult@ith@@U?$default_delete@UAdResult@ith@@@std@@@std@@AEBUAdQueryRequest@3@@Z@XPEAX@std@@EEAAX$$QEAPEAX@Z 0000000140035aed     AdQuery.obj
 0002:0000eb3f       $ip2state$?_Do_call@?$_Func_impl_no_alloc@V<lambda_1>@?1??RunAdQuery@ith@@YA?AV?$unique_ptr@UAdResult@ith@@U?$default_delete@UAdResult@ith@@@std@@@std@@AEBUAdQueryRequest@3@@Z@XPEAX@std@@EEAAX$$QEAPEAX@Z 0000000140035b3f     AdQuery.obj
 0002:0000eb78       $unwind$?_Do_call@?$_Func_impl_no_alloc@V<lambda_1>@?1??CollectNames@?A0x1f6e8d05@ith@@YA?AV?$vector@UNamedEntry@ith@@V?$allocator@UNamedEntry@ith@@@std@@@std@@PEAUIDirectorySearch@@AEBV?$basic_string@_WU?$char_traits@_W@std@@V?$allocator@_W@2@@6@@Z@XPEAX@std@@EEAAX$$QEAPEAX@Z 0000000140035b78     AdQuery.obj
 0002:0000eb9c       $cppxdata$?_Do_call@?$_Func_impl_no_alloc@V<lambda_1>@?1??CollectNames@?A0x1f6e8d05@ith@@YA?AV?$vector@UNamedEntry@ith@@V?$allocator@UNamedEntry@ith@@@std@@@std@@PEAUIDirectorySearch@@AEBV?$basic_string@_WU?$char_traits@_W@std@@V?$allocator@_W@2@@6@@Z@XPEAX@std@@EEAAX$$QEAPEAX@Z 0000000140035b9c     AdQuery.obj
 0002:0000eba5       $stateUnwindMap$?_Do_call@?$_Func_impl_no_alloc@V<lambda_1>@?1??CollectNames@?A0x1f6e8d05@ith@@YA?AV?$vector@UNamedEntry@ith@@V?$allocator@UNamedEntry@ith@@@std@@@std@@PEAUIDirectorySearch@@AEBV?$basic_string@_WU?$char_traits@_W@std@@V?$allocator@_W@2@@6@@Z@XPEAX@std@@EEAAX$$QEAPEAX@Z 0000000140035ba5     AdQuery.obj
 0002:0000ebb2       $ip2state$?_Do_call@?$_Func_impl_no_alloc@V<lambda_1>@?1??CollectNames@?A0x1f6e8d05@ith@@YA?AV?$vector@UNamedEntry@ith@@V?$allocator@UNamedEntry@ith@@@std@@@std@@PEAUIDirectorySearch@@AEBV?$basic_string@_WU?$char_traits@_W@std@@V?$allocator@_W@2@@6@@Z@XPEAX@std@@EEAAX$$QEAPEAX@Z 0000000140035bb2     AdQuery.obj
 0002:0000ebcc       $unwind$??$_Pop_heap_hole_by_index@PEAUNamedEntry@ith@@U12@V<lambda_2>@?BM@??RunAdQuery@2@YA?AV?$unique_ptr@UAdResult@ith@@U?$default_delete@UAdResult@ith@@@std@@@std@@AEBUAdQueryRequest@2@@Z@@std@@YAXPEAUNamedEntry@ith@@_J1$$QEAU12@V<lambda_2>@?BM@??RunAdQuery@2@YA?AV?$unique_ptr@UAdResult@ith@@U?$default_delete@UAdResult@ith@@@std@@@0@AEBUAdQueryRequest@2@@Z@@Z 0000000140035bcc     AdQuery.obj
 0002:0000ebcc       $unwind$??$_Pop_heap_hole_by_index@PEAUNamedEntry@ith@@U12@V<lambda_3>@?CI@??RunAdQuery@2@YA?AV?$unique_ptr@UAdResult@ith@@U?$default_delete@UAdResult@ith@@@std@@@std@@AEBUAdQueryRequest@2@@Z@@std@@YAXPEAUNamedEntry@ith@@_J1$$QEAU12@V<lambda_3>@?CI@??RunAdQuery@2@YA?AV?$unique_ptr@UAdResult@ith@@U?$default_delete@UAdResult@ith@@@std@@@0@AEBUAdQueryRequest@2@@Z@@Z 0000000140035bcc     AdQuery.obj
 0002:0000ebcc       $unwind$??$?H_WU?$char_traits@_W@std@@V?$allocator@_W@1@@std@@YA?AV?$basic_string@_WU?$char_traits@_W@std@@V?$allocator@_W@2@@0@$$QEAV10@0@Z 0000000140035bcc     AdQueryTool.obj
 0002:0000ebe4       $unwind$??$_Med3_unchecked@PEAUNamedEntry@ith@@V<lambda_2>@?BM@??RunAdQuery@2@YA?AV?$unique_ptr@UAdResult@ith@@U?$default_delete@UAdResult@ith@@@std@@@std@@AEBUAdQueryRequest@2@@Z@@std@@YAXPEAUNamedEntry@ith@@00V<lambda_2>@?BM@??RunAdQuery@2@YA?AV?$unique_ptr@UAdResult@ith@@U?$default_delete@UAdResult@ith@@@std@@@0@AEBUAdQueryRequest@2@@Z@@Z 0000000140035be4     AdQuery.obj
 0002:0000ebe4       $unwind$??$_Med3_unchecked@PEAUNamedEntry@ith@@V<lambda_3>@?CI@??RunAdQuery@2@YA?AV?$unique_ptr@UAdResult@ith@@U?$default_delete@UAdResult@ith@@@std@@@std@@AEBUAdQueryRequest@2@@Z@@std@@YAXPEAUNamedEntry@ith@@00V<lambda_3>@?CI@??RunAdQuery@2@YA?AV?$unique_ptr@UAdResult@ith@@U?$default_delete@UAdResult@ith@@@std@@@0@AEBUAdQueryRequest@2@@Z@@Z 0000000140035be4     AdQuery.obj
 0002:0000ebf4       $unwind$??$swap@UNamedEntry@ith@@$0A@@std@@YAXAEAUNamedEntry@ith@@0@Z 0000000140035bf4     AdQuery.obj
 0002:0000ec10       $unwind$?WorkerFn@?A0xd1b81b73@ith@@YAXPEAUHWND__@@IUAdQueryRequest@2@@Z 0000000140035c10     AdQueryTool.obj
 0002:0000ec30       $cppxdata$?WorkerFn@?A0xd1b81b73@ith@@YAXPEAUHWND__@@IUAdQueryRequest@2@@Z 0000000140035c30     AdQueryTool.obj
 0002:0000ec3d       $stateUnwindMap$?WorkerFn@?A0xd1b81b73@ith@@YAXPEAUHWND__@@IUAdQueryRequest@2@@Z 0000000140035c3d     AdQueryTool.obj
 0002:0000ec52       $tryMap$?WorkerFn@?A0xd1b81b73@ith@@YAXPEAUHWND__@@IUAdQueryRequest@2@@Z 0000000140035c52     AdQueryTool.obj
 0002:0000ec5a       $handlerMap$?WorkerFn@?A0xd1b81b73@ith@@YAXPEAUHWND__@@IUAdQueryRequest@2@@Z 0000000140035c5a     AdQueryTool.obj
 0002:0000ec63       $ip2state$?WorkerFn@?A0xd1b81b73@ith@@YAXPEAUHWND__@@IUAdQueryRequest@2@@Z 0000000140035c63     AdQueryTool.obj
 0002:0000ec6c       $unwind$?catch$30@?0??WorkerFn@?A0xd1b81b73@ith@@YAXPEAUHWND__@@IUAdQueryRequest@2@@Z@4HA 0000000140035c6c     AdQueryTool.obj
 0002:0000ec78       $unwind$?RootWndProc@ith@@YA_JPEAUHWND__@@I_K_J@Z 0000000140035c78     AdQueryTool.obj
 0002:0000ec9c       $cppxdata$?RootWndProc@ith@@YA_JPEAUHWND__@@I_K_J@Z 0000000140035c9c     AdQueryTool.obj
 0002:0000eca9       $stateUnwindMap$?RootWndProc@ith@@YA_JPEAUHWND__@@I_K_J@Z 0000000140035ca9     AdQueryTool.obj
 0002:0000ecc5       $tryMap$?RootWndProc@ith@@YA_JPEAUHWND__@@I_K_J@Z 0000000140035cc5     AdQueryTool.obj
 0002:0000eccd       $handlerMap$?RootWndProc@ith@@YA_JPEAUHWND__@@I_K_J@Z 0000000140035ccd     AdQueryTool.obj
 0002:0000ecd6       $ip2state$?RootWndProc@ith@@YA_JPEAUHWND__@@I_K_J@Z 0000000140035cd6     AdQueryTool.obj
 0002:0000ecf8       $unwind$?catch$18@?0??RootWndProc@ith@@YA_JPEAUHWND__@@I_K_J@Z@4HA 0000000140035cf8     AdQueryTool.obj
 0002:0000ed00       $unwind$?ResultsWndProc@ith@@YA_JPEAUHWND__@@I_K_J@Z 0000000140035d00     AdQueryTool.obj
 0002:0000ed24       $cppxdata$?ResultsWndProc@ith@@YA_JPEAUHWND__@@I_K_J@Z 0000000140035d24     AdQueryTool.obj
 0002:0000ed31       $stateUnwindMap$?ResultsWndProc@ith@@YA_JPEAUHWND__@@I_K_J@Z 0000000140035d31     AdQueryTool.obj
 0002:0000ed49       $tryMap$?ResultsWndProc@ith@@YA_JPEAUHWND__@@I_K_J@Z 0000000140035d49     AdQueryTool.obj
 0002:0000ed51       $handlerMap$?ResultsWndProc@ith@@YA_JPEAUHWND__@@I_K_J@Z 0000000140035d51     AdQueryTool.obj
 0002:0000ed5a       $ip2state$?ResultsWndProc@ith@@YA_JPEAUHWND__@@I_K_J@Z 0000000140035d5a     AdQueryTool.obj
 0002:0000ed6c       $unwind$?catch$5@?0??ResultsWndProc@ith@@YA_JPEAUHWND__@@I_K_J@Z@4HA 0000000140035d6c     AdQueryTool.obj
 0002:0000ed74       $unwind$?MakeLabel@ith@@YAPEAUHWND__@@PEAU2@HPEB_WPEAUHFONT__@@@Z 0000000140035d74     AdQueryTool.obj
 0002:0000ed74       $unwind$?MakeListView@ith@@YAPEAUHWND__@@PEAU2@HPEAUHFONT__@@@Z 0000000140035d74     AdQueryTool.obj
 0002:0000ed80       $unwind$?LayoutResults@AdQueryView@ith@@AEAAXXZ 0000000140035d80     AdQueryTool.obj
 0002:0000eda4       $cppxdata$?LayoutResults@AdQueryView@ith@@AEAAXXZ 0000000140035da4     AdQueryTool.obj
 0002:0000edad       $stateUnwindMap$?LayoutResults@AdQueryView@ith@@AEAAXXZ 0000000140035dad     AdQueryTool.obj
 0002:0000edb4       $ip2state$?LayoutResults@AdQueryView@ith@@AEAAXXZ 0000000140035db4     AdQueryTool.obj
 0002:0000edbc       $unwind$??R<lambda_1>@?1??LayoutResults@AdQueryView@ith@@AEAAXXZ@QEBA@PEAUHWND__@@0_K1_N@Z 0000000140035dbc     AdQueryTool.obj
 0002:0000eddc       $unwind$?BeginSearch@AdQueryView@ith@@AEAAXXZ 0000000140035ddc     AdQueryTool.obj
 0002:0000ee00       $cppxdata$?BeginSearch@AdQueryView@ith@@AEAAXXZ 0000000140035e00     AdQueryTool.obj
 0002:0000ee09       $stateUnwindMap$?BeginSearch@AdQueryView@ith@@AEAAXXZ 0000000140035e09     AdQueryTool.obj
 0002:0000ee2d       $ip2state$?BeginSearch@AdQueryView@ith@@AEAAXXZ 0000000140035e2d     AdQueryTool.obj
 0002:0000ee48       $unwind$??R<lambda_1>@?1??BeginSearch@AdQueryView@ith@@AEAAXXZ@QEBA@AEAV?$basic_string@_WU?$char_traits@_W@std@@V?$allocator@_W@2@@std@@@Z 0000000140035e48     AdQueryTool.obj
 0002:0000ee6c       $unwind$?FillNamedList@AdQueryView@ith@@AEAAXPEAUHWND__@@AEBV?$vector@UNamedEntry@ith@@V?$allocator@UNamedEntry@ith@@@std@@@std@@@Z 0000000140035e6c     AdQueryTool.obj
 0002:0000ee7c       $unwind$?GetLvText@ith@@YA?AV?$basic_string@_WU?$char_traits@_W@std@@V?$allocator@_W@2@@std@@PEAUHWND__@@HH@Z 0000000140035e7c     AdQueryTool.obj
 0002:0000ee90       $unwind$?CopySelected@AdQueryView@ith@@AEAAXPEAUHWND__@@H@Z 0000000140035e90     AdQueryTool.obj
 0002:0000eeb4       $cppxdata$?CopySelected@AdQueryView@ith@@AEAAXPEAUHWND__@@H@Z 0000000140035eb4     AdQueryTool.obj
 0002:0000eebd       $stateUnwindMap$?CopySelected@AdQueryView@ith@@AEAAXPEAUHWND__@@H@Z 0000000140035ebd     AdQueryTool.obj
 0002:0000eede       $ip2state$?CopySelected@AdQueryView@ith@@AEAAXPEAUHWND__@@H@Z 0000000140035ede     AdQueryTool.obj
 0002:0000eef4       $unwind$?SetBounds@AdQueryView@ith@@UEAAXAEBUtagRECT@@@Z 0000000140035ef4     AdQueryTool.obj
 0002:0000eef4       $unwind$_invalid_parameter_noinfo 0000000140035ef4     libucrt:invalid_parameter.obj
 0002:0000eef4       $unwind$?state_case_size@?$output_processor@_WV?$string_output_adapter@_W@__crt_stdio_output@@V?$standard_base@_WV?$string_output_adapter@_W@__crt_stdio_output@@@2@@__crt_stdio_output@@AEAA_NXZ 0000000140035ef4     libucrt:output.obj
 0002:0000eef4       $unwind$_log10_special     0000000140035ef4     libucrt:log_special.obj
 0002:0000eefc       $unwind$?CreateView@AdQueryTool@ith@@UEAA?AV?$unique_ptr@VToolView@ith@@U?$default_delete@VToolView@ith@@@std@@@std@@PEAUHWND__@@PEAUHFONT__@@@Z 0000000140035efc     AdQueryTool.obj
 0002:0000ef20       $unwind$??4?$vector@UNamedEntry@ith@@V?$allocator@UNamedEntry@ith@@@std@@@std@@QEAAAEAV01@AEBV01@@Z 0000000140035f20     AdQueryTool.obj
 0002:0000ef3c       $cppxdata$??4?$vector@UNamedEntry@ith@@V?$allocator@UNamedEntry@ith@@@std@@@std@@QEAAAEAV01@AEBV01@@Z 0000000140035f3c     AdQueryTool.obj
 0002:0000ef45       $stateUnwindMap$??4?$vector@UNamedEntry@ith@@V?$allocator@UNamedEntry@ith@@@std@@@std@@QEAAAEAV01@AEBV01@@Z 0000000140035f45     AdQueryTool.obj
 0002:0000ef4c       $ip2state$??4?$vector@UNamedEntry@ith@@V?$allocator@UNamedEntry@ith@@@std@@@std@@QEAAAEAV01@AEBV01@@Z 0000000140035f4c     AdQueryTool.obj
 0002:0000ef5c       $unwind$??$_Invoke@V?$tuple@P6AXPEAUHWND__@@IUAdQueryRequest@ith@@@ZPEAU1@IU23@@std@@$0A@$00$01$02@thread@std@@CAIPEAX@Z 0000000140035f5c     AdQueryTool.obj
 0002:0000ef74       $cppxdata$??$_Invoke@V?$tuple@P6AXPEAUHWND__@@IUAdQueryRequest@ith@@@ZPEAU1@IU23@@std@@$0A@$00$01$02@thread@std@@CAIPEAX@Z 0000000140035f74     AdQueryTool.obj
 0002:0000ef79       $ip2state$??$_Invoke@V?$tuple@P6AXPEAUHWND__@@IUAdQueryRequest@ith@@@ZPEAU1@IU23@@std@@$0A@$00$01$02@thread@std@@CAIPEAX@Z 0000000140035f79     AdQueryTool.obj
 0002:0000ef80       $unwind$?find@?$_WChar_traits@_W@std@@SAPEB_WPEB_W_KAEB_W@Z 0000000140035f80     AdQueryTool.obj
 0002:0000ef88       $unwind$__std_find_first_not_of_trivial_pos_2 0000000140035f88     libcpmt:vector_algorithms.obj
 0002:0000efa0       $chain$0$__std_find_first_not_of_trivial_pos_2 0000000140035fa0     libcpmt:vector_algorithms.obj
 0002:0000efb4       $chain$1$__std_find_first_not_of_trivial_pos_2 0000000140035fb4     libcpmt:vector_algorithms.obj
 0002:0000efc4       $chain$2$__std_find_first_not_of_trivial_pos_2 0000000140035fc4     libcpmt:vector_algorithms.obj
 0002:0000efd8       $unwind$??$_Dispatch_pos@G$00@_Last_of@_Find_meow_of@?A0x8417fefe@@YA_KQEBX_K01@Z 0000000140035fd8     libcpmt:vector_algorithms.obj
 0002:0000effc       $unwind$??$_Dispatch_pos_sse_1_2@G$00@_First_of@_Find_meow_of@?A0x8417fefe@@YA_KQEBX_K01@Z 0000000140035ffc     libcpmt:vector_algorithms.obj
 0002:0000f024       $unwind$??$_Impl_first_avx@G$00@_Bitmap_impl@_Find_meow_of@?A0x8417fefe@@YA_KQEBX_K01@Z 0000000140036024     libcpmt:vector_algorithms.obj
 0002:0000f024       $unwind$??$_Impl_last_avx@G$00@_Bitmap_impl@_Find_meow_of@?A0x8417fefe@@YA_KQEBX_K0_K@Z 0000000140036024     libcpmt:vector_algorithms.obj
 0002:0000f050       $unwind$??$_Impl@G$00@_Last_of@_Find_meow_of@?A0x8417fefe@@YA_KQEBX_K01@Z 0000000140036050     libcpmt:vector_algorithms.obj
 0002:0000f074       $unwind$??$_Impl_pcmpestri@G$00@_First_of@_Find_meow_of@?A0x8417fefe@@YAPEBXPEBX_KQEBX1@Z 0000000140036074     libcpmt:vector_algorithms.obj
 0002:0000f094       $chain$1$??$_Impl_pcmpestri@G$00@_First_of@_Find_meow_of@?A0x8417fefe@@YAPEBXPEBX_KQEBX1@Z 0000000140036094     libcpmt:vector_algorithms.obj
 0002:0000f0ac       $chain$2$??$_Impl_pcmpestri@G$00@_First_of@_Find_meow_of@?A0x8417fefe@@YAPEBXPEBX_KQEBX1@Z 00000001400360ac     libcpmt:vector_algorithms.obj
 0002:0000f0bc       $chain$3$??$_Impl_pcmpestri@G$00@_First_of@_Find_meow_of@?A0x8417fefe@@YAPEBXPEBX_KQEBX1@Z 00000001400360bc     libcpmt:vector_algorithms.obj
 0002:0000f0d4       $unwind$?_Throw_Cpp_error@std@@YAXH@Z 00000001400360d4     libcpmt:thread0.obj
 0002:0000f0e0       $unwind$??0_System_error@std@@IEAA@Verror_code@1@AEBV?$basic_string@DU?$char_traits@D@std@@V?$allocator@D@2@@1@@Z 00000001400360e0     libcpmt:thread0.obj
 0002:0000f104       $cppxdata$??0_System_error@std@@IEAA@Verror_code@1@AEBV?$basic_string@DU?$char_traits@D@std@@V?$allocator@D@2@@1@@Z 0000000140036104     libcpmt:thread0.obj
 0002:0000f10d       $stateUnwindMap$??0_System_error@std@@IEAA@Verror_code@1@AEBV?$basic_string@DU?$char_traits@D@std@@V?$allocator@D@2@@1@@Z 000000014003610d     libcpmt:thread0.obj
 0002:0000f11a       $ip2state$??0_System_error@std@@IEAA@Verror_code@1@AEBV?$basic_string@DU?$char_traits@D@std@@V?$allocator@D@2@@1@@Z 000000014003611a     libcpmt:thread0.obj
 0002:0000f128       $unwind$??0system_error@std@@QEAA@HAEBVerror_category@1@PEBD@Z 0000000140036128     libcpmt:thread0.obj
 0002:0000f144       $cppxdata$??0system_error@std@@QEAA@HAEBVerror_category@1@PEBD@Z 0000000140036144     libcpmt:thread0.obj
 0002:0000f14d       $stateUnwindMap$??0system_error@std@@QEAA@HAEBVerror_category@1@PEBD@Z 000000014003614d     libcpmt:thread0.obj
 0002:0000f154       $ip2state$??0system_error@std@@QEAA@HAEBVerror_category@1@PEBD@Z 0000000140036154     libcpmt:thread0.obj
 0002:0000f15c       $unwind$??$_Append@D@?$basic_string@DU?$char_traits@D@std@@V?$allocator@D@2@@std@@AEAAAEAV01@QEBD_K@Z 000000014003615c     libcpmt:thread0.obj
 0002:0000f16c       $chain$0$??$_Append@D@?$basic_string@DU?$char_traits@D@std@@V?$allocator@D@2@@std@@AEAAAEAV01@QEBD_K@Z 000000014003616c     libcpmt:thread0.obj
 0002:0000f180       $chain$1$??$_Append@D@?$basic_string@DU?$char_traits@D@std@@V?$allocator@D@2@@std@@AEAAAEAV01@QEBD_K@Z 0000000140036180     libcpmt:thread0.obj
 0002:0000f190       $chain$0$??$_Construct@$00PEBD@?$basic_string@DU?$char_traits@D@std@@V?$allocator@D@2@@std@@AEAAXQEBD_K@Z 0000000140036190     libcpmt:thread0.obj
 0002:0000f1a4       $chain$1$??$_Construct@$00PEBD@?$basic_string@DU?$char_traits@D@std@@V?$allocator@D@2@@std@@AEAAXQEBD_K@Z 00000001400361a4     libcpmt:thread0.obj
 0002:0000f1b4       $chain$2$??$_Construct@$00PEBD@?$basic_string@DU?$char_traits@D@std@@V?$allocator@D@2@@std@@AEAAXQEBD_K@Z 00000001400361b4     libcpmt:thread0.obj
 0002:0000f1c8       $unwind$??$_Reallocate_grow_by@V<lambda_1>@?1???$_Append@D@?$basic_string@DU?$char_traits@D@std@@V?$allocator@D@2@@std@@AEAAAEAV23@QEBD_K@Z@PEBD_K@?$basic_string@DU?$char_traits@D@std@@V?$allocator@D@2@@std@@AEAAAEAV01@_KV<lambda_1>@?1???$_Append@D@01@AEAAAEAV01@QEBD0@Z@PEBD_K@Z 00000001400361c8     libcpmt:thread0.obj
 0002:0000f1d8       $chain$3$??$_Reallocate_grow_by@V<lambda_1>@?1???$_Append@D@?$basic_string@DU?$char_traits@D@std@@V?$allocator@D@2@@std@@AEAAAEAV23@QEBD_K@Z@PEBD_K@?$basic_string@DU?$char_traits@D@std@@V?$allocator@D@2@@std@@AEAAAEAV01@_KV<lambda_1>@?1???$_Append@D@01@AEAAAEAV01@QEBD0@Z@PEBD_K@Z 00000001400361d8     libcpmt:thread0.obj
 0002:0000f1f8       $chain$4$??$_Reallocate_grow_by@V<lambda_1>@?1???$_Append@D@?$basic_string@DU?$char_traits@D@std@@V?$allocator@D@2@@std@@AEAAAEAV23@QEBD_K@Z@PEBD_K@?$basic_string@DU?$char_traits@D@std@@V?$allocator@D@2@@std@@AEAAAEAV01@_KV<lambda_1>@?1???$_Append@D@01@AEAAAEAV01@QEBD0@Z@PEBD_K@Z 00000001400361f8     libcpmt:thread0.obj
 0002:0000f208       $chain$5$??$_Reallocate_grow_by@V<lambda_1>@?1???$_Append@D@?$basic_string@DU?$char_traits@D@std@@V?$allocator@D@2@@std@@AEAAAEAV23@QEBD_K@Z@PEBD_K@?$basic_string@DU?$char_traits@D@std@@V?$allocator@D@2@@std@@AEAAAEAV01@_KV<lambda_1>@?1???$_Append@D@01@AEAAAEAV01@QEBD0@Z@PEBD_K@Z 0000000140036208     libcpmt:thread0.obj
 0002:0000f228       $unwind$_Cnd_do_broadcast_at_thread_exit 0000000140036228     libcpmt:xnotify.obj
 0002:0000f240       $cppxdata$_Cnd_do_broadcast_at_thread_exit 0000000140036240     libcpmt:xnotify.obj
 0002:0000f245       $ip2state$_Cnd_do_broadcast_at_thread_exit 0000000140036245     libcpmt:xnotify.obj
 0002:0000f24c       $unwind$fesetenv           000000014003624c     libucrt:fesetenv.obj
 0002:0000f24c       $unwind$_Mtx_lock          000000014003624c     libcpmt:mutex.obj
 0002:0000f258       $xdatasym                  0000000140036258     LIBCMT:amdsecgs.obj
 0002:0000f25c       $unwind$?__scrt_common_main_seh@@YAHXZ 000000014003625c     LIBCMT:exe_wwinmain.obj
 0002:0000f290       $unwind$__GSHandlerCheckCommon 0000000140036290     LIBCMT:gshandler.obj
 0002:0000f2a4       $unwind$__isa_available_init 00000001400362a4     LIBCMT:cpu_disp.obj
 0002:0000f2b0       $chain$1$__isa_available_init 00000001400362b0     LIBCMT:cpu_disp.obj
 0002:0000f2c8       $chain$2$__isa_available_init 00000001400362c8     LIBCMT:cpu_disp.obj
 0002:0000f2dc       $unwind$__GSHandlerCheck_EH 00000001400362dc     LIBCMT:gshandlereh.obj
 0002:0000f2dc       $unwind$__GSHandlerCheck_EH4 00000001400362dc     LIBCMT:gshandlereh4.obj
 0002:0000f2dc       $unwind$__GSHandlerCheck_SEH 00000001400362dc     LIBCMT:gshandlerseh.obj
 0002:0000f2ec       $unwind$__scrt_is_nonwritable_in_current_image 00000001400362ec     LIBCMT:utility.obj
 0002:0000f30c       $unwind$_ctrlfp$filt$0     000000014003630c     libucrt:fpctrl.obj
 0002:0000f30c       $unwind$__scrt_is_nonwritable_in_current_image$filt$0 000000014003630c     LIBCMT:utility.obj
 0002:0000f314       $unwind$__scrt_get_show_window_mode 0000000140036314     LIBCMT:utility_desktop.obj
 0002:0000f320       $xdatasym                  0000000140036320     LIBCMT:guard_dispatch.obj
 0002:0000f328       $xdatasym                  0000000140036328     LIBCMT:guard_xfg_dispatch.obj
 0002:0000f32c       $unwind$?DecompFuncInfo@FH4@@YA_JPEAEAEAUFuncInfo4@1@_KH_N@Z 000000014003632c     libvcruntime:risctrnsctrl.obj
 0002:0000f338       $unwind$?setBuffer@TryBlockMap4@FH4@@QEAAXViterator@12@@Z 0000000140036338     libvcruntime:risctrnsctrl.obj
 0002:0000f344       $unwind$?FrameUnwindToEmptyState@__FrameHandler3@@SAXPEA_KPEAU_xDISPATCHER_CONTEXT@@PEBU_s_FuncInfo@@@Z 0000000140036344     libvcruntime:risctrnsctrl.obj
 0002:0000f358       $unwind$?GetEstablisherFrame@__FrameHandler3@@SAPEA_KPEA_KPEAU_xDISPATCHER_CONTEXT@@PEBU_s_FuncInfo@@0@Z 0000000140036358     libvcruntime:risctrnsctrl.obj
 0002:0000f36c       $chain$0$?GetEstablisherFrame@__FrameHandler3@@SAPEA_KPEA_KPEAU_xDISPATCHER_CONTEXT@@PEBU_s_FuncInfo@@0@Z 000000014003636c     libvcruntime:risctrnsctrl.obj
 0002:0000f380       $chain$1$?GetEstablisherFrame@__FrameHandler3@@SAPEA_KPEA_KPEAU_xDISPATCHER_CONTEXT@@PEBU_s_FuncInfo@@0@Z 0000000140036380     libvcruntime:risctrnsctrl.obj
 0002:0000f390       $unwind$?UnwindNestedFrames@__FrameHandler3@@SAXPEA_KPEAUEHExceptionRecord@@PEAU_CONTEXT@@0PEAXPEBU_s_FuncInfo@@HHPEBU_s_HandlerType@@PEAU_xDISPATCHER_CONTEXT@@E@Z 0000000140036390     libvcruntime:risctrnsctrl.obj
 0002:0000f3a0       $unwind$?GetRangeOfTrysToCheck@__FrameHandler3@@SA?AU?$pair@Viterator@TryBlockMap@__FrameHandler3@@V123@@std@@AEAVTryBlockMap@1@HPEAU_xDISPATCHER_CONTEXT@@PEBU_s_FuncInfo@@H@Z 00000001400363a0     libvcruntime:risctrnsctrl.obj
 0002:0000f3b4       $chain$0$?GetRangeOfTrysToCheck@__FrameHandler3@@SA?AU?$pair@Viterator@TryBlockMap@__FrameHandler3@@V123@@std@@AEAVTryBlockMap@1@HPEAU_xDISPATCHER_CONTEXT@@PEBU_s_FuncInfo@@H@Z 00000001400363b4     libvcruntime:risctrnsctrl.obj
 0002:0000f3c8       $chain$2$?GetRangeOfTrysToCheck@__FrameHandler3@@SA?AU?$pair@Viterator@TryBlockMap@__FrameHandler3@@V123@@std@@AEAVTryBlockMap@1@HPEAU_xDISPATCHER_CONTEXT@@PEBU_s_FuncInfo@@H@Z 00000001400363c8     libvcruntime:risctrnsctrl.obj
 0002:0000f3dc       $chain$3$?GetRangeOfTrysToCheck@__FrameHandler3@@SA?AU?$pair@Viterator@TryBlockMap@__FrameHandler3@@V123@@std@@AEAVTryBlockMap@1@HPEAU_xDISPATCHER_CONTEXT@@PEBU_s_FuncInfo@@H@Z 00000001400363dc     libvcruntime:risctrnsctrl.obj
 0002:0000f3ec       $unwind$?UnwindNestedFrames@__FrameHandler4@@SAXPEA_KPEAUEHExceptionRecord@@PEAU_CONTEXT@@0PEAXPEAUFuncInfo4@FH4@@HHPEAUHandlerType4@5@PEAU_xDISPATCHER_CONTEXT@@E@Z 00000001400363ec     libvcruntime:risctrnsctrl.obj
 0002:0000f3fc       $unwind$?GetRangeOfTrysToCheck@__FrameHandler4@@SA?AU?$pair@Viterator@TryBlockMap4@FH4@@V123@@std@@AEAVTryBlockMap4@FH4@@HPEAU_xDISPATCHER_CONTEXT@@PEAUFuncInfo4@5@H@Z 00000001400363fc     libvcruntime:risctrnsctrl.obj
 0002:0000f414       $chain$0$?GetRangeOfTrysToCheck@__FrameHandler4@@SA?AU?$pair@Viterator@TryBlockMap4@FH4@@V123@@std@@AEAVTryBlockMap4@FH4@@HPEAU_xDISPATCHER_CONTEXT@@PEAUFuncInfo4@5@H@Z 0000000140036414     libvcruntime:risctrnsctrl.obj
 0002:0000f428       $chain$1$?GetRangeOfTrysToCheck@__FrameHandler4@@SA?AU?$pair@Viterator@TryBlockMap4@FH4@@V123@@std@@AEAVTryBlockMap4@FH4@@HPEAU_xDISPATCHER_CONTEXT@@PEAUFuncInfo4@5@H@Z 0000000140036428     libvcruntime:risctrnsctrl.obj
 0002:0000f438       $unwind$__CxxFrameHandler3 0000000140036438     libvcruntime:risctrnsctrl.obj
 0002:0000f448       $unwind$__CxxFrameHandler4 0000000140036448     libvcruntime:risctrnsctrl.obj
 0002:0000f45c       $unwind$??$_CallSETranslator@V__FrameHandler4@@@@YAHPEAUEHExceptionRecord@@PEA_KPEAU_CONTEXT@@PEAU_xDISPATCHER_CONTEXT@@PEAUFuncInfo4@FH4@@K1H@Z 000000014003645c     libvcruntime:risctrnsctrl.obj
 0002:0000f480       $unwind$?filt$0@?0???$_CallSETranslator@V__FrameHandler3@@@@YAHPEAUEHExceptionRecord@@PEA_KPEAU_CONTEXT@@PEAU_xDISPATCHER_CONTEXT@@PEBU_s_FuncInfo@@K1H@Z@4HA 0000000140036480     libvcruntime:risctrnsctrl.obj
 0002:0000f480       $unwind$?filt$0@?0???$_CallSETranslator@V__FrameHandler4@@@@YAHPEAUEHExceptionRecord@@PEA_KPEAU_CONTEXT@@PEAU_xDISPATCHER_CONTEXT@@PEAUFuncInfo4@FH4@@K1H@Z@4HA 0000000140036480     libvcruntime:risctrnsctrl.obj
 0002:0000f48c       $unwind$??$_CallSETranslator@V__FrameHandler3@@@@YAHPEAUEHExceptionRecord@@PEA_KPEAU_CONTEXT@@PEAU_xDISPATCHER_CONTEXT@@PEBU_s_FuncInfo@@K1H@Z 000000014003648c     libvcruntime:risctrnsctrl.obj
 0002:0000f4b0       $unwind$__std_exception_copy 00000001400364b0     libvcruntime:std_exception.obj
 0002:0000f4bc       $chain$1$__std_exception_copy 00000001400364bc     libvcruntime:std_exception.obj
 0002:0000f4d4       $chain$2$__std_exception_copy 00000001400364d4     libvcruntime:std_exception.obj
 0002:0000f4e8       $xdatasym$memcpy_repmovs   00000001400364e8     libvcruntime:memcpy.obj
 0002:0000f4f8       $xdatasym$_guard_dispatch_icall 00000001400364f8     libucrt:dispatchcfg.obj
 0002:0000f4f8       $xdatasym$memcpy           00000001400364f8     libvcruntime:memcpy.obj
 0002:0000f4f8       $xdatasym$memset           00000001400364f8     libvcruntime:memset.obj
 0002:0000f4f8       $xdatasym$_NLG_Notify      00000001400364f8     libvcruntime:notify.obj
 0002:0000f4f8       $xdatasym$__NLG_Dispatch2  00000001400364f8     libvcruntime:notify.obj
 0002:0000f4f8       $xdatasym$__NLG_Return2    00000001400364f8     libvcruntime:notify.obj
 0002:0000f4fc       $unwind$__DestructExceptionObject 00000001400364fc     libvcruntime:ehhelpers.obj
 0002:0000f51c       $unwind$__DestructExceptionObject$filt$0 000000014003651c     libvcruntime:ehhelpers.obj
 0002:0000f51c       $unwind$?fin$1@?0??CxxCallCatchBlock@__FrameHandler3@@SAPEAXPEAU_EXCEPTION_RECORD@@@Z@4HA 000000014003651c     libvcruntime:frame.obj
 0002:0000f51c       $unwind$?fin$1@?0??CxxCallCatchBlock@__FrameHandler4@@SAPEAXPEAU_EXCEPTION_RECORD@@@Z@4HA 000000014003651c     libvcruntime:frame.obj
 0002:0000f528       $unwind$_CxxThrowException 0000000140036528     libvcruntime:throw.obj
 0002:0000f538       $xdatasym$memset_repstos   0000000140036538     libvcruntime:memset.obj
 0002:0000f544       $unwind$__C_specific_handler 0000000140036544     libvcruntime:riscchandler.obj
 0002:0000f55c       $chain$0$?GetCurrentState@__FrameHandler3@@SAHPEA_KPEAU_xDISPATCHER_CONTEXT@@PEBU_s_FuncInfo@@@Z 000000014003655c     libvcruntime:ehstate.obj
 0002:0000f570       $chain$1$?GetCurrentState@__FrameHandler3@@SAHPEA_KPEAU_xDISPATCHER_CONTEXT@@PEBU_s_FuncInfo@@@Z 0000000140036570     libvcruntime:ehstate.obj
 0002:0000f580       $chain$2$?GetCurrentState@__FrameHandler3@@SAHPEA_KPEAU_xDISPATCHER_CONTEXT@@PEBU_s_FuncInfo@@@Z 0000000140036580     libvcruntime:ehstate.obj
 0002:0000f580       $chain$4$?GetCurrentState@__FrameHandler3@@SAHPEA_KPEAU_xDISPATCHER_CONTEXT@@PEBU_s_FuncInfo@@@Z 0000000140036580     libvcruntime:ehstate.obj
 0002:0000f594       $unwind$?StateFromControlPc@__FrameHandler4@@SAHPEAUFuncInfo4@FH4@@PEAU_xDISPATCHER_CONTEXT@@@Z 0000000140036594     libvcruntime:ehstate.obj
 0002:0000f5a8       $chain$3$?StateFromControlPc@__FrameHandler4@@SAHPEAUFuncInfo4@FH4@@PEAU_xDISPATCHER_CONTEXT@@@Z 00000001400365a8     libvcruntime:ehstate.obj
 0002:0000f5bc       $chain$4$?StateFromControlPc@__FrameHandler4@@SAHPEAUFuncInfo4@FH4@@PEAU_xDISPATCHER_CONTEXT@@@Z 00000001400365bc     libvcruntime:ehstate.obj
 0002:0000f5cc       $unwind$?StateFromIp@__FrameHandler4@@SAHPEAUFuncInfo4@FH4@@PEAU_xDISPATCHER_CONTEXT@@_K@Z 00000001400365cc     libvcruntime:ehstate.obj
 0002:0000f5dc       $unwind$?setBuffer@HandlerMap4@FH4@@QEAAXI@Z 00000001400365dc     libvcruntime:frame.obj
 0002:0000f5ec       $chain$0$?setBuffer@HandlerMap4@FH4@@QEAAXI@Z 00000001400365ec     libvcruntime:frame.obj
 0002:0000f600       $chain$1$?setBuffer@HandlerMap4@FH4@@QEAAXI@Z 0000000140036600     libvcruntime:frame.obj
 0002:0000f610       $unwind$?FrameUnwindToState@__FrameHandler3@@SAXPEA_KPEAU_xDISPATCHER_CONTEXT@@PEBU_s_FuncInfo@@H@Z 0000000140036610     libvcruntime:frame.obj
 0002:0000f65c       $unwind$?CxxCallCatchBlock@__FrameHandler3@@SAPEAXPEAU_EXCEPTION_RECORD@@@Z 000000014003665c     libvcruntime:frame.obj
 0002:0000f69c       $unwind$?FrameUnwindToState@__FrameHandler4@@SAXPEA_KPEAU_xDISPATCHER_CONTEXT@@PEAUFuncInfo4@FH4@@H@Z 000000014003669c     libvcruntime:frame.obj
 0002:0000f6e0       $unwind$_write_internal$fin$0 00000001400366e0     libucrt:write.obj
 0002:0000f6e0       $unwind$?fin$0@?0??_fclose_internal@@YAHQEAU_iobuf@@AEAV__crt_cached_ptd_host@@@Z@4HA 00000001400366e0     libucrt:fclose.obj
 0002:0000f6e0       $unwind$?filt$0@?0??FrameUnwindToState@__FrameHandler4@@SAXPEA_KPEAU_xDISPATCHER_CONTEXT@@PEAUFuncInfo4@FH4@@H@Z@4HA 00000001400366e0     libvcruntime:frame.obj
 0002:0000f6e0       $unwind$?fin$1@?0??FrameUnwindToState@__FrameHandler4@@SAXPEA_KPEAU_xDISPATCHER_CONTEXT@@PEAUFuncInfo4@FH4@@H@Z@4HA 00000001400366e0     libvcruntime:frame.obj
 0002:0000f6e8       $unwind$?CxxCallCatchBlock@__FrameHandler4@@SAPEAXPEAU_EXCEPTION_RECORD@@@Z 00000001400366e8     libvcruntime:frame.obj
 0002:0000f748       $unwind$?IsInExceptionSpec@@YAEPEAUEHExceptionRecord@@PEBU_s_ESTypeList@@@Z 0000000140036748     libvcruntime:frame.obj
 0002:0000f754       $chain$1$?IsInExceptionSpec@@YAEPEAUEHExceptionRecord@@PEBU_s_ESTypeList@@@Z 0000000140036754     libvcruntime:frame.obj
 0002:0000f76c       $chain$5$?IsInExceptionSpec@@YAEPEAUEHExceptionRecord@@PEBU_s_ESTypeList@@@Z 000000014003676c     libvcruntime:frame.obj
 0002:0000f78c       $chain$6$?IsInExceptionSpec@@YAEPEAUEHExceptionRecord@@PEBU_s_ESTypeList@@@Z 000000014003678c     libvcruntime:frame.obj
 0002:0000f79c       $chain$7$?IsInExceptionSpec@@YAEPEAUEHExceptionRecord@@PEBU_s_ESTypeList@@@Z 000000014003679c     libvcruntime:frame.obj
 0002:0000f7ac       $unwind$??$__InternalCxxFrameHandlerWrapper@V__FrameHandler4@@@@YA?AW4_EXCEPTION_DISPOSITION@@PEAUEHExceptionRecord@@PEA_KPEAU_CONTEXT@@PEAU_xDISPATCHER_CONTEXT@@PEAUFuncInfo4@FH4@@H1E@Z 00000001400367ac     libvcruntime:frame.obj
 0002:0000f7cc       $unwind$?fin$0@?0???$__InternalCxxFrameHandlerWrapper@V__FrameHandler4@@@@YA?AW4_EXCEPTION_DISPOSITION@@PEAUEHExceptionRecord@@PEA_KPEAU_CONTEXT@@PEAU_xDISPATCHER_CONTEXT@@PEAUFuncInfo4@FH4@@H1E@Z@4HA 00000001400367cc     libvcruntime:frame.obj
 0002:0000f7d4       $unwind$??$TypeMatchHelper@V__FrameHandler3@@@@YAHPEBU_s_HandlerType@@PEBU_s_CatchableType@@PEBU_s_ThrowInfo@@@Z 00000001400367d4     libvcruntime:frame.obj
 0002:0000f7d4       $unwind$??$TypeMatchHelper@V__FrameHandler4@@@@YAHPEAUHandlerType4@FH4@@PEBU_s_CatchableType@@PEBU_s_ThrowInfo@@@Z 00000001400367d4     libvcruntime:frame.obj
 0002:0000f7e4       $chain$0$??$TypeMatchHelper@V__FrameHandler3@@@@YAHPEBU_s_HandlerType@@PEBU_s_CatchableType@@PEBU_s_ThrowInfo@@@Z 00000001400367e4     libvcruntime:frame.obj
 0002:0000f7f8       $chain$2$??$TypeMatchHelper@V__FrameHandler3@@@@YAHPEBU_s_HandlerType@@PEBU_s_CatchableType@@PEBU_s_ThrowInfo@@@Z 00000001400367f8     libvcruntime:frame.obj
 0002:0000f80c       $chain$3$??$TypeMatchHelper@V__FrameHandler3@@@@YAHPEBU_s_HandlerType@@PEBU_s_CatchableType@@PEBU_s_ThrowInfo@@@Z 000000014003680c     libvcruntime:frame.obj
 0002:0000f81c       $chain$0$??$TypeMatchHelper@V__FrameHandler4@@@@YAHPEAUHandlerType4@FH4@@PEBU_s_CatchableType@@PEBU_s_ThrowInfo@@@Z 000000014003681c     libvcruntime:frame.obj
 0002:0000f830       $chain$2$??$TypeMatchHelper@V__FrameHandler4@@@@YAHPEAUHandlerType4@FH4@@PEBU_s_CatchableType@@PEBU_s_ThrowInfo@@@Z 0000000140036830     libvcruntime:frame.obj
 0002:0000f844       $chain$3$??$TypeMatchHelper@V__FrameHandler4@@@@YAHPEAUHandlerType4@FH4@@PEBU_s_CatchableType@@PEBU_s_ThrowInfo@@@Z 0000000140036844     libvcruntime:frame.obj
 0002:0000f854       $unwind$??$BuildCatchObjectHelperInternal@V__FrameHandler3@@@@YAHPEAUEHExceptionRecord@@PEAXPEBU_s_HandlerType@@PEBU_s_CatchableType@@@Z 0000000140036854     libvcruntime:frame.obj
 0002:0000f88c       $unwind$??$BuildCatchObjectHelperInternal@V__FrameHandler4@@@@YAHPEAUEHExceptionRecord@@PEAXPEAUHandlerType4@FH4@@PEBU_s_CatchableType@@@Z 000000014003688c     libvcruntime:frame.obj
 0002:0000f8c4       $unwind$??$BuildCatchObjectInternal@V__FrameHandler3@@@@YAXPEAUEHExceptionRecord@@PEAXPEBU_s_HandlerType@@PEBU_s_CatchableType@@@Z 00000001400368c4     libvcruntime:frame.obj
 0002:0000f8ec       $unwind$??$BuildCatchObjectInternal@V__FrameHandler4@@@@YAXPEAUEHExceptionRecord@@PEAXPEAUHandlerType4@FH4@@PEBU_s_CatchableType@@@Z 00000001400368ec     libvcruntime:frame.obj
 0002:0000f914       $unwind$??$__InternalCxxFrameHandler@V__FrameHandler4@@@@YA?AW4_EXCEPTION_DISPOSITION@@PEAUEHExceptionRecord@@PEA_KPEAU_CONTEXT@@PEAU_xDISPATCHER_CONTEXT@@PEAUFuncInfo4@FH4@@H1E@Z 0000000140036914     libvcruntime:frame.obj
 0002:0000f928       $unwind$??$FindHandler@V__FrameHandler3@@@@YAXPEAUEHExceptionRecord@@PEA_KPEAU_CONTEXT@@PEAU_xDISPATCHER_CONTEXT@@PEBU_s_FuncInfo@@EH1@Z 0000000140036928     libvcruntime:frame.obj
 0002:0000f94c       $unwind$??$FindHandler@V__FrameHandler4@@@@YAXPEAUEHExceptionRecord@@PEA_KPEAU_CONTEXT@@PEAU_xDISPATCHER_CONTEXT@@PEAUFuncInfo4@FH4@@EH1@Z 000000014003694c     libvcruntime:frame.obj
 0002:0000f96c       $unwind$??$FindHandlerForForeignException@V__FrameHandler3@@@@YAXPEAUEHExceptionRecord@@PEA_KPEAU_CONTEXT@@PEAU_xDISPATCHER_CONTEXT@@PEBU_s_FuncInfo@@HH1@Z 000000014003696c     libvcruntime:frame.obj
 0002:0000f97c       $chain$3$??$FindHandlerForForeignException@V__FrameHandler3@@@@YAXPEAUEHExceptionRecord@@PEA_KPEAU_CONTEXT@@PEAU_xDISPATCHER_CONTEXT@@PEBU_s_FuncInfo@@HH1@Z 000000014003697c     libvcruntime:frame.obj
 0002:0000f99c       $chain$4$??$FindHandlerForForeignException@V__FrameHandler3@@@@YAXPEAUEHExceptionRecord@@PEA_KPEAU_CONTEXT@@PEAU_xDISPATCHER_CONTEXT@@PEBU_s_FuncInfo@@HH1@Z 000000014003699c     libvcruntime:frame.obj
 0002:0000f9ac       $chain$5$??$FindHandlerForForeignException@V__FrameHandler3@@@@YAXPEAUEHExceptionRecord@@PEA_KPEAU_CONTEXT@@PEAU_xDISPATCHER_CONTEXT@@PEBU_s_FuncInfo@@HH1@Z 00000001400369ac     libvcruntime:frame.obj
 0002:0000f9cc       $unwind$??$FindHandlerForForeignException@V__FrameHandler4@@@@YAXPEAUEHExceptionRecord@@PEA_KPEAU_CONTEXT@@PEAU_xDISPATCHER_CONTEXT@@PEAUFuncInfo4@FH4@@HH1@Z 00000001400369cc     libvcruntime:frame.obj
 0002:0000f9e8       $chain$2$??$FindHandlerForForeignException@V__FrameHandler4@@@@YAXPEAUEHExceptionRecord@@PEA_KPEAU_CONTEXT@@PEAU_xDISPATCHER_CONTEXT@@PEAUFuncInfo4@FH4@@HH1@Z 00000001400369e8     libvcruntime:frame.obj
 0002:0000fa04       $chain$3$??$FindHandlerForForeignException@V__FrameHandler4@@@@YAXPEAUEHExceptionRecord@@PEA_KPEAU_CONTEXT@@PEAU_xDISPATCHER_CONTEXT@@PEAUFuncInfo4@FH4@@HH1@Z 0000000140036a04     libvcruntime:frame.obj
 0002:0000fa14       $chain$4$??$FindHandlerForForeignException@V__FrameHandler4@@@@YAXPEAUEHExceptionRecord@@PEA_KPEAU_CONTEXT@@PEAU_xDISPATCHER_CONTEXT@@PEAUFuncInfo4@FH4@@HH1@Z 0000000140036a14     libvcruntime:frame.obj
 0002:0000fa30       $chain$0$__vcrt_uninitialize_locks 0000000140036a30     libvcruntime:locks.obj
 0002:0000fa44       $chain$1$__vcrt_uninitialize_locks 0000000140036a44     libvcruntime:locks.obj
 0002:0000fa58       $unwind$__stdio_common_vswprintf 0000000140036a58     libucrt:output.obj
 0002:0000fa78       $unwind$?get_raw_ptd@__crt_cached_ptd_host@@QEAAPEAU__acrt_ptd@@XZ 0000000140036a78     libucrt:output.obj
 0002:0000fa80       $chain$0$?get_raw_ptd@__crt_cached_ptd_host@@QEAAPEAU__acrt_ptd@@XZ 0000000140036a80     libucrt:output.obj
 0002:0000fa94       $chain$1$?get_raw_ptd@__crt_cached_ptd_host@@QEAAPEAU__acrt_ptd@@XZ 0000000140036a94     libucrt:output.obj
 0002:0000faa4       $unwind$?write_string@?$string_output_adapter@_W@__crt_stdio_output@@QEBAXQEB_WHQEAHAEAV__crt_cached_ptd_host@@@Z 0000000140036aa4     libucrt:output.obj
 0002:0000fabc       $unwind$_mbtowc_internal   0000000140036abc     libucrt:mbtowc.obj
 0002:0000fabc       $unwind$??$type_case_integer@$07@?$output_processor@_WV?$string_output_adapter@_W@__crt_stdio_output@@V?$standard_base@_WV?$string_output_adapter@_W@__crt_stdio_output@@@2@@__crt_stdio_output@@AEAA_N_N@Z 0000000140036abc     libucrt:output.obj
 0002:0000fabc       $unwind$??$type_case_integer@$09@?$output_processor@_WV?$string_output_adapter@_W@__crt_stdio_output@@V?$standard_base@_WV?$string_output_adapter@_W@__crt_stdio_output@@@2@@__crt_stdio_output@@AEAA_N_N@Z 0000000140036abc     libucrt:output.obj
 0002:0000fabc       $unwind$??$type_case_integer@$0BA@@?$output_processor@_WV?$string_output_adapter@_W@__crt_stdio_output@@V?$standard_base@_WV?$string_output_adapter@_W@__crt_stdio_output@@@2@@__crt_stdio_output@@AEAA_N_N@Z 0000000140036abc     libucrt:output.obj
 0002:0000fabc       $unwind$?process@?$output_processor@_WV?$string_output_adapter@_W@__crt_stdio_output@@V?$standard_base@_WV?$string_output_adapter@_W@__crt_stdio_output@@@2@@__crt_stdio_output@@QEAAHXZ 0000000140036abc     libucrt:output.obj
 0002:0000fad4       $unwind$?parse_int_from_format_string@?$output_processor@_WV?$string_output_adapter@_W@__crt_stdio_output@@V?$standard_base@_WV?$string_output_adapter@_W@__crt_stdio_output@@@2@@__crt_stdio_output@@AEAA_NQEAH@Z 0000000140036ad4     libucrt:output.obj
 0002:0000fae8       $unwind$?state_case_type@?$output_processor@_WV?$string_output_adapter@_W@__crt_stdio_output@@V?$standard_base@_WV?$string_output_adapter@_W@__crt_stdio_output@@@2@@__crt_stdio_output@@AEAA_NXZ 0000000140036ae8     libucrt:output.obj
 0002:0000fb10       $stateUnwindMap$__dcrt_uninitialize_environments_nolock 0000000140036b10     libucrt:environment_initialization.obj
 0002:0000fb10       $stateUnwindMap$__acrt_getptd_head 0000000140036b10     libucrt:per_thread_data.obj
 0002:0000fb10       $stateUnwindMap$__acrt_getptd_noexit 0000000140036b10     libucrt:per_thread_data.obj
 0002:0000fb10       $stateUnwindMap$__acrt_getptd_noexit_explicit 0000000140036b10     libucrt:per_thread_data.obj
 0002:0000fb10       $stateUnwindMap$?common_exit@@YAXHW4_crt_exit_cleanup_mode@@W4_crt_exit_return_mode@@@Z 0000000140036b10     libucrt:exit.obj
 0002:0000fb10       $stateUnwindMap$_execute_onexit_table 0000000140036b10     libucrt:onexit.obj
 0002:0000fb10       $stateUnwindMap$?state_case_type@?$output_processor@_WV?$string_output_adapter@_W@__crt_stdio_output@@V?$standard_base@_WV?$string_output_adapter@_W@__crt_stdio_output@@@2@@__crt_stdio_output@@AEAA_NXZ 0000000140036b10     libucrt:output.obj
 0002:0000fb18       $ip2state$?state_case_type@?$output_processor@_WV?$string_output_adapter@_W@__crt_stdio_output@@V?$standard_base@_WV?$string_output_adapter@_W@__crt_stdio_output@@@2@@__crt_stdio_output@@AEAA_NXZ 0000000140036b18     libucrt:output.obj
 0002:0000fb28       $unwind$?get_raw_ptd_noexit@__crt_cached_ptd_host@@QEAAPEAU__acrt_ptd@@XZ 0000000140036b28     libucrt:invalid_parameter.obj
 0002:0000fb28       $unwind$?type_case_c_tchar@?$output_processor@_WV?$string_output_adapter@_W@__crt_stdio_output@@V?$standard_base@_WV?$string_output_adapter@_W@__crt_stdio_output@@@2@@__crt_stdio_output@@AEAA_N_W@Z 0000000140036b28     libucrt:output.obj
 0002:0000fb38       $unwind$?type_case_s_compute_narrow_string_length@?$output_processor@_WV?$string_output_adapter@_W@__crt_stdio_output@@V?$standard_base@_WV?$string_output_adapter@_W@__crt_stdio_output@@@2@@__crt_stdio_output@@AEAAHH_W@Z 0000000140036b38     libucrt:output.obj
 0002:0000fb50       $ip2state$?type_case_s_compute_narrow_string_length@?$output_processor@_WV?$string_output_adapter@_W@__crt_stdio_output@@V?$standard_base@_WV?$string_output_adapter@_W@__crt_stdio_output@@@2@@__crt_stdio_output@@AEAAHH_W@Z 0000000140036b50     libucrt:output.obj
 0002:0000fb58       $unwind$?type_case_a@?$output_processor@_WV?$string_output_adapter@_W@__crt_stdio_output@@V?$standard_base@_WV?$string_output_adapter@_W@__crt_stdio_output@@@2@@__crt_stdio_output@@AEAA_NXZ 0000000140036b58     libucrt:output.obj
 0002:0000fb6c       $unwind$__dcrt_get_wide_environment_from_os 0000000140036b6c     libucrt:get_environment_from_os.obj
 0002:0000fb6c       $unwind$?should_round_up@@YA_NQEBD0HW4__acrt_has_trailing_digits@@W4__acrt_rounding_mode@@@Z 0000000140036b6c     libucrt:_fptostr.obj
 0002:0000fb6c       $unwind$__acrt_free_locale 0000000140036b6c     libucrt:locale_refcounting.obj
 0002:0000fb6c       $unwind$__acrt_lowio_create_handle_array 0000000140036b6c     libucrt:osfinfo.obj
 0002:0000fb6c       $unwind$_seh_filter_exe    0000000140036b6c     libucrt:exception_filter.obj
 0002:0000fb6c       $unwind$__acrt_stdio_flush_nolock 0000000140036b6c     libucrt:fflush.obj
 0002:0000fb6c       $unwind$??$ensure_buffer_is_big_enough@D@formatting_buffer@__crt_stdio_output@@QEAA_N_KAEAV__crt_cached_ptd_host@@@Z 0000000140036b6c     libucrt:output.obj
 0002:0000fb6c       $unwind$??$ensure_buffer_is_big_enough@_W@formatting_buffer@__crt_stdio_output@@QEAA_N_KAEAV__crt_cached_ptd_host@@@Z 0000000140036b6c     libucrt:output.obj
 0002:0000fb80       $unwind$??$parse_integer@KV?$c_string_character_source@_W@__crt_strtox@@$0A@@__crt_strtox@@YAKAEAV__crt_cached_ptd_host@@V?$c_string_character_source@_W@0@H_N@Z 0000000140036b80     libucrt:output.obj
 0002:0000fb9c       $unwind$??$type_case_integer_parse_into_buffer@I$09@?$output_processor@_WV?$string_output_adapter@_W@__crt_stdio_output@@V?$standard_base@_WV?$string_output_adapter@_W@__crt_stdio_output@@@2@@__crt_stdio_output@@AEAAXI_N@Z 0000000140036b9c     libucrt:output.obj
 0002:0000fb9c       $unwind$??$type_case_integer_parse_into_buffer@_K$09@?$output_processor@_WV?$string_output_adapter@_W@__crt_stdio_output@@V?$standard_base@_WV?$string_output_adapter@_W@__crt_stdio_output@@@2@@__crt_stdio_output@@AEAAX_K_N@Z 0000000140036b9c     libucrt:output.obj
 0002:0000fba4       $unwind$_beginthreadex     0000000140036ba4     libucrt:thread.obj
 0002:0000fbb8       $unwind$??$thread_start@P6AIPEAX@Z$00@@YAKQEAX@Z 0000000140036bb8     libucrt:thread.obj
 0002:0000fbd8       $unwind$terminate          0000000140036bd8     libucrt:terminate.obj
 0002:0000fbf8       $unwind$?initialize_stdio_handles_nolock@@YAXXZ 0000000140036bf8     libucrt:ioinit.obj
 0002:0000fbf8       $unwind$__acrt_initialize_stdio 0000000140036bf8     libucrt:_file.obj
 0002:0000fc10       $unwind$_callnewh          0000000140036c10     libucrt:new_handler.obj
 0002:0000fc1c       $unwind$_query_new_handler 0000000140036c1c     libucrt:new_handler.obj
 0002:0000fc3c       $unwind$_query_new_handler$fin$0 0000000140036c3c     libucrt:new_handler.obj
 0002:0000fc44       $unwind$_set_new_handler   0000000140036c44     libucrt:new_handler.obj
 0002:0000fc68       $unwind$_set_new_handler$fin$0 0000000140036c68     libucrt:new_handler.obj
 0002:0000fc70       $unwind$_configure_wide_argv 0000000140036c70     libucrt:argv_parsing.obj
 0002:0000fc84       $unwind$??$parse_command_line@_W@@YAXPEA_WPEAPEA_W0PEA_K2@Z 0000000140036c84     libucrt:argv_parsing.obj
 0002:0000fc9c       $unwind$__dcrt_uninitialize_environments_nolock 0000000140036c9c     libucrt:environment_initialization.obj
 0002:0000fc9c       $unwind$__acrt_getptd_head 0000000140036c9c     libucrt:per_thread_data.obj
 0002:0000fcac       $unwind$??$free_environment@D@@YAXQEAPEAD@Z 0000000140036cac     libucrt:environment_initialization.obj
 0002:0000fcac       $unwind$??$free_environment@_W@@YAXQEAPEA_W@Z 0000000140036cac     libucrt:environment_initialization.obj
 0002:0000fcac       $unwind$_initterm          0000000140036cac     libucrt:initterm.obj
 0002:0000fcb8       $unwind$??$create_environment@_W@@YAQEAPEA_WQEA_W@Z 0000000140036cb8     libucrt:environment_initialization.obj
 0002:0000fcd0       $unwind$?try_cor_exit_process@@YAXI@Z 0000000140036cd0     libucrt:exit.obj
 0002:0000fce0       $ip2state$?try_cor_exit_process@@YAXI@Z 0000000140036ce0     libucrt:exit.obj
 0002:0000fce8       $unwind$?common_exit@@YAXHW4_crt_exit_cleanup_mode@@W4_crt_exit_return_mode@@@Z 0000000140036ce8     libucrt:exit.obj
 0002:0000fd00       $ip2state$?common_exit@@YAXHW4_crt_exit_cleanup_mode@@W4_crt_exit_return_mode@@@Z 0000000140036d00     libucrt:exit.obj
 0002:0000fd08       $unwind$??R<lambda_6e4b09c48022b2350581041d5f6b0c4c>@@QEBA@XZ 0000000140036d08     libucrt:exit.obj
 0002:0000fd28       $unwind$??$?RV<lambda_d80eeec6fff315bfe5c115232f3240e3>@@AEAV<lambda_6e4b09c48022b2350581041d5f6b0c4c>@@V<lambda_2358e3775559c9db80273638284d5e45>@@@?$__crt_seh_guarded_call@X@@QEAAX$$QEAV<lambda_d80eeec6fff315bfe5c115232f3240e3>@@AEAV<lambda_6e4b09c48022b2350581041d5f6b0c4c>@@$$QEAV<lambda_2358e3775559c9db80273638284d5e45>@@@Z 0000000140036d28     libucrt:exit.obj
 0002:0000fd4c       $unwind$__acrt_uninitialize_locale 0000000140036d4c     libucrt:wsetlocale.obj
 0002:0000fd4c       $unwind$__acrt_get_sigabrt_handler 0000000140036d4c     libucrt:signal.obj
 0002:0000fd54       $unwind$??$?RV<lambda_410d79af7f07d98d83a3f525b3859a53>@@AEAV<lambda_3e16ef9562a7dcce91392c22ab16ea36>@@V<lambda_38119f0e861e05405d8a144b9b982f0a>@@@?$__crt_seh_guarded_call@X@@QEAAX$$QEAV<lambda_410d79af7f07d98d83a3f525b3859a53>@@AEAV<lambda_3e16ef9562a7dcce91392c22ab16ea36>@@$$QEAV<lambda_38119f0e861e05405d8a144b9b982f0a>@@@Z 0000000140036d54     libucrt:wsetlocale.obj
 0002:0000fd7c       $unwind$_set_new_mode      0000000140036d7c     libucrt:new_mode.obj
 0002:0000fd84       $unwind$_register_onexit_function 0000000140036d84     libucrt:onexit.obj
 0002:0000fd8c       $unwind$_execute_onexit_table 0000000140036d8c     libucrt:onexit.obj
 0002:0000fda0       $ip2state$_execute_onexit_table 0000000140036da0     libucrt:onexit.obj
 0002:0000fda8       $unwind$?fp_format_f_internal@@YAHQEAD_KHQEAU_strflt@@_NAEAV__crt_cached_ptd_host@@@Z 0000000140036da8     libucrt:cvt.obj
 0002:0000fda8       $unwind$__acrt_DownlevelLocaleNameToLCID 0000000140036da8     libucrt:lcidtoname_downlevel.obj
 0002:0000fda8       $unwind$??R<lambda_22ebabd17bc4fa466a2aca6d8deb888d>@@QEBA@XZ 0000000140036da8     libucrt:onexit.obj
 0002:0000fda8       $unwind$??R<lambda_f03950bc5685219e0bcd2087efbe011e>@@QEBA@XZ 0000000140036da8     libucrt:onexit.obj
 0002:0000fdc0       $unwind$??$?RV<lambda_638799b9deba96c50f710eeac98168cd>@@AEAV<lambda_22ebabd17bc4fa466a2aca6d8deb888d>@@V<lambda_a6f7d7db0129f75315ebf26d50c089f1>@@@?$__crt_seh_guarded_call@H@@QEAAH$$QEAV<lambda_638799b9deba96c50f710eeac98168cd>@@AEAV<lambda_22ebabd17bc4fa466a2aca6d8deb888d>@@$$QEAV<lambda_a6f7d7db0129f75315ebf26d50c089f1>@@@Z 0000000140036dc0     libucrt:onexit.obj
 0002:0000fde4       $unwind$??$?RV<lambda_7777bce6b2f8c936911f934f8298dc43>@@AEAV<lambda_f03950bc5685219e0bcd2087efbe011e>@@V<lambda_3883c3dff614d5e0c5f61bb1ac94921c>@@@?$__crt_seh_guarded_call@H@@QEAAH$$QEAV<lambda_7777bce6b2f8c936911f934f8298dc43>@@AEAV<lambda_f03950bc5685219e0bcd2087efbe011e>@@$$QEAV<lambda_3883c3dff614d5e0c5f61bb1ac94921c>@@@Z 0000000140036de4     libucrt:onexit.obj
 0002:0000fe08       $xdatasym                  0000000140036e08     libucrt:strncmp.obj
 0002:0000fe0c       $unwind$__acrt_call_reportfault 0000000140036e0c     libucrt:invalid_parameter.obj
 0002:0000fe2c       $unwind$__acrt_fp_strflt_to_string 0000000140036e2c     libucrt:_fptostr.obj
 0002:0000fe2c       $unwind$??$common_lseek_nolock@_J@@YA_JH_JHAEAV__crt_cached_ptd_host@@@Z 0000000140036e2c     libucrt:lseek.obj
 0002:0000fe2c       $unwind$_invalid_parameter_internal 0000000140036e2c     libucrt:invalid_parameter.obj
 0002:0000fe40       $unwind$_invalid_parameter 0000000140036e40     libucrt:invalid_parameter.obj
 0002:0000fe4c       $unwind$__acrt_errno_from_os_error 0000000140036e4c     libucrt:errno.obj
 0002:0000fe5c       $unwind$_free_base         0000000140036e5c     libucrt:free_base.obj
 0002:0000fe64       $unwind$_malloc_base       0000000140036e64     libucrt:malloc_base.obj
 0002:0000fe6c       $unwind$?fp_format_e_internal@@YAHQEAD_KH_NIQEAU_strflt@@2AEAV__crt_cached_ptd_host@@@Z 0000000140036e6c     libucrt:cvt.obj
 0002:0000fe88       $unwind$?fp_format_e@@YAHQEBNQEAD_K12H_NIW4__acrt_rounding_mode@@AEAV__crt_cached_ptd_host@@@Z 0000000140036e88     libucrt:cvt.obj
 0002:0000fea0       $unwind$?should_round_up@@YA_NQEBN_KFW4__acrt_rounding_mode@@@Z 0000000140036ea0     libucrt:cvt.obj
 0002:0000febc       $unwind$?fp_format_a@@YAHQEBNPEAD_KQEAD2H_NIW4__acrt_rounding_mode@@AEAV__crt_cached_ptd_host@@@Z 0000000140036ebc     libucrt:cvt.obj
 0002:0000fed8       $unwind$?fp_format_f@@YAHQEBNQEAD_K12HW4__acrt_rounding_mode@@AEAV__crt_cached_ptd_host@@@Z 0000000140036ed8     libucrt:cvt.obj
 0002:0000fed8       $unwind$__acrt_LCMapStringEx 0000000140036ed8     libucrt:winapi_thunks.obj
 0002:0000feec       $unwind$?fp_format_g@@YAHQEBNQEAD_K12H_NIW4__acrt_rounding_mode@@AEAV__crt_cached_ptd_host@@@Z 0000000140036eec     libucrt:cvt.obj
 0002:0000ff04       $unwind$?__mbrtoc32_utf8@__crt_mbstring@@YA_KPEA_UPEBD_KPEAU_Mbstatet@@AEAV__crt_cached_ptd_host@@@Z 0000000140036f04     libucrt:mbrtoc32.obj
 0002:0000ff20       $unwind$__dcrt_lowio_ensure_console_output_initialized 0000000140036f20     libucrt:initcon.obj
 0002:0000ff20       $unwind$?__mbrtowc_utf8@__crt_mbstring@@YA_KPEA_WPEBD_KPEAU_Mbstatet@@AEAV__crt_cached_ptd_host@@@Z 0000000140036f20     libucrt:mbrtowc.obj
 0002:0000ff20       $unwind$?getSystemCP@@YAHH@Z 0000000140036f20     libucrt:mbctype.obj
 0002:0000ff28       $unwind$?__mbsrtowcs_utf8@__crt_mbstring@@YA_KPEA_WPEAPEBD_KPEAU_Mbstatet@@AEAV__crt_cached_ptd_host@@@Z 0000000140036f28     libucrt:mbrtowc.obj
 0002:0000ff44       $unwind$__acrt_getptd_noexit 0000000140036f44     libucrt:per_thread_data.obj
 0002:0000ff44       $unwind$__acrt_getptd_noexit_explicit 0000000140036f44     libucrt:per_thread_data.obj
 0002:0000ff58       $unwind$?destroy_fls@@YAXPEAX@Z 0000000140036f58     libucrt:per_thread_data.obj
 0002:0000ff58       $unwind$__acrt_locale_free_numeric 0000000140036f58     libucrt:initnum.obj
 0002:0000ff58       $unwind$__acrt_locale_free_lc_time_if_unreferenced 0000000140036f58     libucrt:locale_refcounting.obj
 0002:0000ff60       $unwind$?construct_ptd_array@@YAXQEAU__acrt_ptd@@@Z 0000000140036f60     libucrt:per_thread_data.obj
 0002:0000ff68       $unwind$?destroy_ptd_array@@YAXQEAU__acrt_ptd@@@Z 0000000140036f68     libucrt:per_thread_data.obj
 0002:0000ff70       $unwind$??$?RV<lambda_0ae27a3a962d80f24befdcbee591983d>@@AEAV<lambda_8d0ee55de4b1038c4002e0adecdf1839>@@V<lambda_dc504788e8f1664fe9b84e20bfb512f2>@@@?$__crt_seh_guarded_call@X@@QEAAX$$QEAV<lambda_0ae27a3a962d80f24befdcbee591983d>@@AEAV<lambda_8d0ee55de4b1038c4002e0adecdf1839>@@$$QEAV<lambda_dc504788e8f1664fe9b84e20bfb512f2>@@@Z 0000000140036f70     libucrt:per_thread_data.obj
 0002:0000ff94       $unwind$??$?RV<lambda_aa87e3671a710a21b5dc78c0bdf72e11>@@AEAV<lambda_92619d2358a28f41a33ba319515a20b9>@@V<lambda_6992ecaafeb10aed2b74cb1fae11a551>@@@?$__crt_seh_guarded_call@X@@QEAAX$$QEAV<lambda_aa87e3671a710a21b5dc78c0bdf72e11>@@AEAV<lambda_92619d2358a28f41a33ba319515a20b9>@@$$QEAV<lambda_6992ecaafeb10aed2b74cb1fae11a551>@@@Z 0000000140036f94     libucrt:per_thread_data.obj
 0002:0000ffb8       $unwind$??$?RV<lambda_f2e299630e499de9f9a165e60fcd3db5>@@AEAV<lambda_2ae9d31cdba2644fcbeaf08da7c24588>@@V<lambda_40d01ff24d0e7b3814fdbdcee8eab3c7>@@@?$__crt_seh_guarded_call@X@@QEAAX$$QEAV<lambda_f2e299630e499de9f9a165e60fcd3db5>@@AEAV<lambda_2ae9d31cdba2644fcbeaf08da7c24588>@@$$QEAV<lambda_40d01ff24d0e7b3814fdbdcee8eab3c7>@@@Z 0000000140036fb8     libucrt:per_thread_data.obj
 0002:0000ffdc       $unwind$??$?RV<lambda_2d41944a1d46af3157314b8a01080d33>@@AEAV<lambda_8f455de75cd7d7f24b4096f044d8b9e6>@@V<lambda_aa500f224e6afead328df44964fe2772>@@@?$__crt_seh_guarded_call@X@@QEAAX$$QEAV<lambda_2d41944a1d46af3157314b8a01080d33>@@AEAV<lambda_8f455de75cd7d7f24b4096f044d8b9e6>@@$$QEAV<lambda_aa500f224e6afead328df44964fe2772>@@@Z 0000000140036fdc     libucrt:per_thread_data.obj
 0002:00010000       $unwind$__acrt_initialize_lowio 0000000140037000     libucrt:ioinit.obj
 0002:00010020       $unwind$?initialize_inherited_file_handles_nolock@@YAXXZ 0000000140037020     libucrt:ioinit.obj
 0002:0001003c       $unwind$_exception_enabled 000000014003703c     libucrt:libm_error.obj
 0002:00010050       $chain$0$_exception_enabled 0000000140037050     libucrt:libm_error.obj
 0002:00010064       $chain$1$_exception_enabled 0000000140037064     libucrt:libm_error.obj
 0002:00010074       $unwind$_handle_error      0000000140037074     libucrt:libm_error.obj
 0002:00010090       $unwind$_calloc_base       0000000140037090     libucrt:calloc_base.obj
 0002:00010098       $unwind$?try_get_function_slow@@YAPEAXW4function_id@?A0x391cf84c@@QEBDQEBW4module_id@2@2@Z 0000000140037098     libucrt:winapi_thunks.obj
 0002:000100b8       $unwind$raise              00000001400370b8     libucrt:signal.obj
 0002:000100f8       $unwind$??$?RV<lambda_450d765d439847d4c735a33c368b5fc0>@@AEAV<lambda_44731a7d0e6d81c3e6aa82d741081786>@@V<lambda_601a2a7da3b7a96e9554ac7215c4b07c>@@@?$__crt_seh_guarded_call@P6AXH@Z@@QEAAP6AXH@Z$$QEAV<lambda_450d765d439847d4c735a33c368b5fc0>@@AEAV<lambda_44731a7d0e6d81c3e6aa82d741081786>@@$$QEAV<lambda_601a2a7da3b7a96e9554ac7215c4b07c>@@@Z 00000001400370f8     libucrt:signal.obj
 0002:0001011c       $unwind$_fcloseall         000000014003711c     libucrt:closeall.obj
 0002:00010140       $unwind$fclose             0000000140037140     libucrt:fclose.obj
 0002:00010140       $unwind$_fflush_nolock     0000000140037140     libucrt:fflush.obj
 0002:00010150       $unwind$?common_flush_all@@YAH_N@Z 0000000140037150     libucrt:fflush.obj
 0002:00010158       $unwind$??$?RV<lambda_842d9ff0dc9ef11c61343bbaebe7f885>@@AEAV<lambda_c5860995281e5c4ce005b3de8f5874ee>@@V<lambda_d90129c13df834fdcbf8d2b88dafcf2d>@@@?$__crt_seh_guarded_call@X@@QEAAX$$QEAV<lambda_842d9ff0dc9ef11c61343bbaebe7f885>@@AEAV<lambda_c5860995281e5c4ce005b3de8f5874ee>@@$$QEAV<lambda_d90129c13df834fdcbf8d2b88dafcf2d>@@@Z 0000000140037158     libucrt:fflush.obj
 0002:0001017c       $unwind$??$?RV<lambda_886d6c58226a84441f68b9f2b8217b83>@@AEAV<lambda_ab61a845afdef5b7c387490eaf3616ee>@@V<lambda_f7f22ab5edc0698d5f6905b0d3f44752>@@@?$__crt_seh_guarded_call@X@@QEAAX$$QEAV<lambda_886d6c58226a84441f68b9f2b8217b83>@@AEAV<lambda_ab61a845afdef5b7c387490eaf3616ee>@@$$QEAV<lambda_f7f22ab5edc0698d5f6905b0d3f44752>@@@Z 000000014003717c     libucrt:fflush.obj
 0002:000101a4       $unwind$wcsncpy_s          00000001400371a4     libucrt:wcsncpy_s.obj
 0002:000101b0       $chain$0$wcsncpy_s         00000001400371b0     libucrt:wcsncpy_s.obj
 0002:000101c4       $chain$2$wcsncpy_s         00000001400371c4     libucrt:wcsncpy_s.obj
 0002:000101c4       $chain$4$wcsncpy_s         00000001400371c4     libucrt:wcsncpy_s.obj
 0002:000101d8       $unwind$??$common_expand_argv_wildcards@_W@@YAHQEAPEA_WQEAPEAPEA_W@Z 00000001400371d8     libucrt:argv_wildcards.obj
 0002:000101fc       $unwind$??$copy_and_add_argument_to_buffer@_W@@YAHQEB_W0_KAEAV?$argument_list@_W@?A0x5f5c8891@@@Z 00000001400371fc     libucrt:argv_wildcards.obj
 0002:00010218       $unwind$_setmbcp_nolock    0000000140037218     libucrt:mbctype.obj
 0002:00010238       $unwind$?update_thread_multibyte_data_internal@@YAPEAU__crt_multibyte_data@@QEAU__acrt_ptd@@QEAPEAU1@@Z 0000000140037238     libucrt:mbctype.obj
 0002:00010260       $unwind$?setmbcp_internal@@YAHH_NQEAU__acrt_ptd@@QEAPEAU__crt_multibyte_data@@@Z 0000000140037260     libucrt:mbctype.obj
 0002:00010278       $unwind$?setSBUpLow@@YAXPEAU__crt_multibyte_data@@@Z 0000000140037278     libucrt:mbctype.obj
 0002:00010294       $unwind$??$?RV<lambda_efdfa57d1f175319df784efa44bb7b81>@@AEAV<lambda_5f0a4c1567f8adc6734073e5d1e1b35c>@@V<lambda_2e8a7d3640ea6ccb4c2413664c2db6fd>@@@?$__crt_seh_guarded_call@X@@QEAAX$$QEAV<lambda_efdfa57d1f175319df784efa44bb7b81>@@AEAV<lambda_5f0a4c1567f8adc6734073e5d1e1b35c>@@$$QEAV<lambda_2e8a7d3640ea6ccb4c2413664c2db6fd>@@@Z 0000000140037294     libucrt:mbctype.obj
 0002:000102b8       $unwind$__acrt_WideCharToMultiByte 00000001400372b8     libucrt:widechartomultibyte.obj
 0002:000102c4       $unwind$_free_osfhnd       00000001400372c4     libucrt:osfinfo.obj
 0002:000102d8       $unwind$__acrt_lowio_destroy_handle_array 00000001400372d8     libucrt:osfinfo.obj
 0002:000102e8       $unwind$__acrt_lowio_ensure_fh_exists 00000001400372e8     libucrt:osfinfo.obj
 0002:00010314       $unwind$__acrt_locale_free_monetary 0000000140037314     libucrt:initmon.obj
 0002:0001031c       $unwind$__acrt_locale_free_time 000000014003731c     libucrt:inittime.obj
 0002:0001032c       $unwind$__acrt_GetStringTypeA 000000014003732c     libucrt:getstringtypea.obj
 0002:00010354       $unwind$__acrt_update_thread_locale_data 0000000140037354     libucrt:locale_refcounting.obj
 0002:00010378       $unwind$_recalloc_base     0000000140037378     libucrt:recalloc.obj
 0002:0001038c       $unwind$__acrt_initialize_heap 000000014003738c     libucrt:heap_handle.obj
 0002:00010394       $unwind$__acrt_fltout      0000000140037394     libucrt:cfout.obj
 0002:000103b8       $unwind$?divide@__crt_strtox@@YA_KAEAUbig_integer@1@AEBU21@@Z 00000001400373b8     libucrt:cfout.obj
 0002:000103d0       $chain$0$?divide@__crt_strtox@@YA_KAEAUbig_integer@1@AEBU21@@Z 00000001400373d0     libucrt:cfout.obj
 0002:000103e4       $chain$1$?divide@__crt_strtox@@YA_KAEAUbig_integer@1@AEBU21@@Z 00000001400373e4     libucrt:cfout.obj
 0002:000103f4       $unwind$_ctrlfp            00000001400373f4     libucrt:fpctrl.obj
 0002:00010414       $unwind$_raise_exc_ex      0000000140037414     libucrt:fpexcept.obj
 0002:00010428       $unwind$?_fclose_nolock_internal@@YAHQEAU_iobuf@@AEAV__crt_cached_ptd_host@@@Z 0000000140037428     libucrt:fclose.obj
 0002:00010438       $unwind$?_fclose_internal@@YAHQEAU_iobuf@@AEAV__crt_cached_ptd_host@@@Z 0000000140037438     libucrt:fclose.obj
 0002:0001045c       $unwind$_commit            000000014003745c     libucrt:commit.obj
 0002:00010464       $unwind$??$?RV<lambda_a37b2b86f63e897a80ea819b0eb08c01>@@AEAV<lambda_38ce7e780aa69e748d6df282ebc68efe>@@V<lambda_99fb1378e971ab6e7edea83e3a7a83a2>@@@?$__crt_seh_guarded_call@H@@QEAAH$$QEAV<lambda_a37b2b86f63e897a80ea819b0eb08c01>@@AEAV<lambda_38ce7e780aa69e748d6df282ebc68efe>@@$$QEAV<lambda_99fb1378e971ab6e7edea83e3a7a83a2>@@@Z 0000000140037464     libucrt:commit.obj
 0002:00010488       $unwind$_write_nolock      0000000140037488     libucrt:write.obj
 0002:000104a0       $unwind$_write_internal    00000001400374a0     libucrt:write.obj
 0002:000104cc       $unwind$?write_double_translated_ansi_nolock@@YA?AUwrite_result@?A0x17268360@@HQEBDIAEAV__crt_cached_ptd_host@@@Z 00000001400374cc     libucrt:write.obj
 0002:000104f8       $ip2state$?write_double_translated_ansi_nolock@@YA?AUwrite_result@?A0x17268360@@HQEBDIAEAV__crt_cached_ptd_host@@@Z 00000001400374f8     libucrt:write.obj
 0002:00010500       $unwind$?write_text_ansi_nolock@@YA?AUwrite_result@?A0x17268360@@HQEBDI@Z 0000000140037500     libucrt:write.obj
 0002:00010500       $unwind$?write_text_utf16le_nolock@@YA?AUwrite_result@?A0x17268360@@HQEBDI@Z 0000000140037500     libucrt:write.obj
 0002:00010520       $unwind$?write_text_utf8_nolock@@YA?AUwrite_result@?A0x17268360@@HQEBDI@Z 0000000140037520     libucrt:write.obj
 0002:00010544       $unwind$qsort              0000000140037544     libucrt:qsort.obj
 0002:0001055c       $chain$3$qsort             000000014003755c     libucrt:qsort.obj
 0002:0001057c       $chain$4$qsort             000000014003757c     libucrt:qsort.obj
 0002:0001058c       $unwind$__acrt_LCMapStringA 000000014003758c     libucrt:lcmapstringa.obj
 0002:0001059c       $unwind$?__acrt_LCMapStringA_stat@@YAHPEAU__crt_locale_pointers@@PEB_WKPEBDHPEADHHH@Z 000000014003759c     libucrt:lcmapstringa.obj
 0002:000105c4       $unwind$_msize_base        00000001400375c4     libucrt:msize.obj
 0002:000105cc       $unwind$_realloc_base      00000001400375cc     libucrt:realloc_base.obj
 0002:000105d8       $xdatasym$log10            00000001400375d8     libucrt:log10.obj
 0002:000105e4       $unwind$__acrt_fenv_set_control 00000001400375e4     libucrt:_fenvutils.obj
 0002:000105f0       $chain$0$__acrt_fenv_set_control 00000001400375f0     libucrt:_fenvutils.obj
 0002:00010604       $chain$1$__acrt_fenv_set_control 0000000140037604     libucrt:_fenvutils.obj
 0002:00010614       $unwind$_close_internal    0000000140037614     libucrt:close.obj
 0002:0001061c       $unwind$??$?RV<lambda_ad8af0d99a0adf03d037d7dffe354bb5>@@AEAV<lambda_c9ba49e555ba839a7b07aa3fbecb7617>@@V<lambda_2f1ebd5d68526518146ae959c9e734c8>@@@?$__crt_seh_guarded_call@H@@QEAAH$$QEAV<lambda_ad8af0d99a0adf03d037d7dffe354bb5>@@AEAV<lambda_c9ba49e555ba839a7b07aa3fbecb7617>@@$$QEAV<lambda_2f1ebd5d68526518146ae959c9e734c8>@@@Z 000000014003761c     libucrt:close.obj
 0002:00010640       $unwind$_putwch_nolock     0000000140037640     libucrt:putwch.obj
 0002:00010648       $unwind$_guard_check_icall 0000000140037648     libucrt:checkcfg.obj
 0002:00010654       $unwind$common_control87   0000000140037654     libucrt:ieee.obj
 0002:00010678       $unwind$__acrt_initialize_fma3 0000000140037678     libucrt:fma3_available.obj
 0002:00010680       $unwind$_log_special_common 0000000140037680     libucrt:log_special.obj
 0002:0001068c       $unwind$__dcrt_write_console 000000014003768c     libucrt:initcon.obj
 0002:000106a0       $unwind$_IsNonwritableInCurrentImage 00000001400376a0     LIBCMT:pesect.obj
 0002:000106c8       $xdatasym                  00000001400376c8     LIBCMT:chkstk.obj
 0002:00010f90       .idata$6                   0000000140037f90     activeds:ACTIVEDS.dll
 0002:00010fb6       .idata$6                   0000000140037fb6     comctl32:COMCTL32.dll
 0002:00010fe8       .idata$6                   0000000140037fe8     ole32:ole32.dll
 0002:00010ff2       .idata$6                   0000000140037ff2     oleaut32:OLEAUT32.dll
 0002:000112f6       .idata$6                   00000001400382f6     user32:USER32.dll
 0002:00011342       .idata$6                   0000000140038342     gdi32:GDI32.dll
 0002:0001154c       .idata$6                   000000014003854c     kernel32:KERNEL32.dll
 0003:00000010       ?_Thread_exit_data_mutex@?A0x7f1b0160@@3Vmutex@std@@A 0000000140039010     libcpmt:xnotify.obj
 0003:000000e0       ?__vcrt_flsindex@@3KA      00000001400390e0     libvcruntime:per_thread_data.obj
 0003:00000210       ?errno_no_memory@@3HA      0000000140039210     libucrt:errno.obj
 0003:00000214       ?doserrno_no_memory@@3KA   0000000140039214     libucrt:errno.obj
 0003:00000218       ?__acrt_flsindex@@3KA      0000000140039218     libucrt:per_thread_data.obj
 0003:000005c0       _mbctypes                  00000001400395c0     libucrt:mbctype.obj
 0003:000006d0       _mbcasemaps                00000001400396d0     libucrt:mbctype.obj
 0003:000007d0       ?__rgctypeflag@@3PADA      00000001400397d0     libucrt:mbctype.obj
 0003:000007e0       ?__rgcode_page_info@@3PAUcode_page_info@@A 00000001400397e0     libucrt:mbctype.obj
 0003:00000974       ?dazSupported@?1??_ctrlfp@@9@9 0000000140039974     libucrt:fpctrl.obj
 0003:00000a80       ?dazSupported@?1??common_control87@@9@9 0000000140039a80     libucrt:ieee.obj
 0003:00000a90       ?__dcrt_lowio_console_output_handle@@3PEAXEA 0000000140039a90     libucrt:initcon.obj
 0003:00000aa0       ?kTypeLabels@?A0xd1b81b73@ith@@3PAPEB_WA 0000000140039aa0     AdQueryTool.obj
 0003:00000c90       ??_R0?AV<lambda_1>@?1??CollectNames@?A0x1f6e8d05@ith@@YA?AV?$vector@UNamedEntry@ith@@V?$allocator@UNamedEntry@ith@@@std@@@std@@PEAUIDirectorySearch@@AEBV?$basic_string@_WU?$char_traits@_W@std@@V?$allocator@_W@2@@5@@Z@@8 0000000140039c90     AdQuery.obj
 0003:00000d80       ??_R0?AV<lambda_1>@?1??RunAdQuery@ith@@YA?AV?$unique_ptr@UAdResult@ith@@U?$default_delete@UAdResult@ith@@@std@@@std@@AEBUAdQueryRequest@2@@Z@@8 0000000140039d80     AdQuery.obj
 0003:00000ef0       ??_R0?AV?$_Func_impl_no_alloc@V<lambda_1>@?1??CollectNames@?A0x1f6e8d05@ith@@YA?AV?$vector@UNamedEntry@ith@@V?$allocator@UNamedEntry@ith@@@std@@@std@@PEAUIDirectorySearch@@AEBV?$basic_string@_WU?$char_traits@_W@std@@V?$allocator@_W@2@@6@@Z@XPEAX@std@@@8 0000000140039ef0     AdQuery.obj
 0003:00001030       ??_R0?AV?$_Func_impl_no_alloc@V<lambda_1>@?1??RunAdQuery@ith@@YA?AV?$unique_ptr@UAdResult@ith@@U?$default_delete@UAdResult@ith@@@std@@@std@@AEBUAdQueryRequest@3@@Z@XPEAX@std@@@8 000000014003a030     AdQuery.obj
 0003:00001140       ?_Thread_exit_data@?A0x7f1b0160@@3U_At_thread_exit_block@1@A 000000014003a140     libcpmt:xnotify.obj
 0003:00001488       ?is_initialized_as_dll@@3_NA 000000014003a488     LIBCMT:utility.obj
 0003:00001489       ?module_local_atexit_table_initialized@@3_NA 000000014003a489     LIBCMT:utility.obj
 0003:00001490       ?module_local_atexit_table@@3U_onexit_table_t@@A 000000014003a490     LIBCMT:utility.obj
 0003:000014a8       ?module_local_at_quick_exit_table@@3U_onexit_table_t@@A 000000014003a4a8     LIBCMT:utility.obj
 0003:000014f0       ?__vcrt_startup_thread_ptd@@3U__vcrt_ptd@@A 000000014003a4f0     libvcruntime:per_thread_data.obj
 0003:00001578       __vcrt_lock_table          000000014003a578     libvcruntime:locks.obj
 0003:000015a0       __vcrt_locks_initialized   000000014003a5a0     libvcruntime:locks.obj
 0003:000015b8       ?__acrt_new_handler@@3V?$dual_state_global@P6AH_K@Z@__crt_state_management@@A 000000014003a5b8     libucrt:new_handler.obj
 0003:000015c0       ?__acrt_app_type@@3W4_crt_app_type@@A 000000014003a5c0     libucrt:report_runtime_error.obj
 0003:000015c8       ?user_matherr@@3V?$dual_state_global@P6AHPEAU_exception@@@Z@__crt_state_management@@A 000000014003a5c8     libucrt:matherr.obj
 0003:000015d0       ?program_name@?1???$common_configure_argv@_W@@YAHW4_crt_argv_mode@@@Z@4PA_WA 000000014003a5d0     libucrt:argv_parsing.obj
 0003:00001800       ?empty_string@?1???$common_wincmdln@_W@@YAPEA_WXZ@4PA_WA 000000014003a800     libucrt:argv_winmain.obj
 0003:00001804       ?c_termination_complete@@3JA 000000014003a804     libucrt:exit.obj
 0003:00001808       ?thread_local_exit_callback_func@@3P6AXPEAXK0@ZEA 000000014003a808     libucrt:exit.obj
 0003:00001810       ?c_exit_complete@?1???R<lambda_6e4b09c48022b2350581041d5f6b0c4c>@@QEBA@XZ@4_NA 000000014003a810     libucrt:exit.obj
 0003:00001818       ?__acrt_global_new_mode@@3V?$dual_state_global@J@__crt_state_management@@A 000000014003a818     libucrt:new_mode.obj
 0003:00001850       ?__acrt_invalid_parameter_handler@@3V?$dual_state_global@P6AXPEB_W00I_K@Z@__crt_state_management@@A 000000014003a850     libucrt:invalid_parameter.obj
 0003:00001858       ?internal_state@?1??_mbtowc_internal@@9@4U_Mbstatet@@A 000000014003a858     libucrt:mbtowc.obj
 0003:00001860       ?internal_pst@?1??__mbrtoc32_utf8@__crt_mbstring@@YA_KPEA_UPEBD_KPEAU_Mbstatet@@AEAV__crt_cached_ptd_host@@@Z@4U3@A 000000014003a860     libucrt:mbrtoc32.obj
 0003:00001868       ?enable_percent_n@@3_KA    000000014003a868     libucrt:printf_count_output.obj
 0003:00001ca0       ?module_handles@@3PAPEAUHINSTANCE__@@A 000000014003aca0     libucrt:winapi_thunks.obj
 0003:00001d58       ?state_cache@?1???$get_cached_win_policy@Ubegin_thread_init_policy_properties@?1??__acrt_get_begin_thread_init_policy@@YA?AW4begin_thread_init_policy@@XZ@@@YA?AW4begin_thread_init_policy@@W4AppPolicyThreadInitializationType@@@Z@4JA 000000014003ad58     libucrt:win_policies.obj
 0003:00001d60       ?ctrlc_action@@3V?$dual_state_global@P6AXH@Z@__crt_state_management@@A 000000014003ad60     libucrt:signal.obj
 0003:00001d68       ?ctrlbreak_action@@3V?$dual_state_global@P6AXH@Z@__crt_state_management@@A 000000014003ad68     libucrt:signal.obj
 0003:00001d70       ?abort_action@@3V?$dual_state_global@P6AXH@Z@__crt_state_management@@A 000000014003ad70     libucrt:signal.obj
 0003:00001d78       ?term_action@@3V?$dual_state_global@P6AXH@Z@__crt_state_management@@A 000000014003ad78     libucrt:signal.obj
 0003:00001d80       ?__acrt_lock_table@@3PAU_RTL_CRITICAL_SECTION@@A 000000014003ad80     libucrt:locks.obj
 0003:00001fd8       ?__acrt_locks_initialized@@3IA 000000014003afd8     libucrt:locks.obj
 0003:00001ff8       ?fSystemSet@@3HA           000000014003aff8     libucrt:mbctype.obj
 0003:00001ffc       ?initialized@?1??__acrt_initialize_multibyte@@9@4_NA 000000014003affc     libucrt:mbctype.obj
 0003:00002060       ?done@?1??EnsureClasses@AdQueryView@ith@@CAXPEAUHINSTANCE__@@@Z@4_NA 000000014003b060     AdQueryTool.obj
 0003:00002068       ?currentTool@?A0x788d576c@ith@@3PEAVITool@2@EA 000000014003b068     Shell.obj
 0005:00000000       ?function_pointers@@3PAPEAXA 000000014003e000     libucrt:winapi_thunks.obj
 0006:00000130       $R000000                   000000014003f130     ITHelper.res
 0006:00000418       $R0002E8                   000000014003f418     ITHelper.res
 0006:00000430       $R000300                   000000014003f430     ITHelper.res
 0006:000007a0       $R000670                   000000014003f7a0     ITHelper.res
