 ITHelper

 Timestamp is 6a34fa89 (Fri Jun 19 11:15:05 2026)

 Preferred load address is 0000000140000000

 Start         Length     Name                   Class
 0001:00000000 000fbf20H .text$mn                CODE
 0001:000fbf20 00001070H .text$mn$00             CODE
 0001:000fcf90 00002000H .text$mn$21             CODE
 0001:000fef90 0000315aH .text$x                 CODE
 0002:00000000 00000110H .CRT$XCA                DATA
 0002:00000110 00000110H .CRT$XCAA               DATA
 0002:00000220 00000110H .CRT$XCZ                DATA
 0002:00000330 00000110H .CRT$XIA                DATA
 0002:00000440 00000110H .CRT$XIAA               DATA
 0002:00000550 00000110H .CRT$XIAC               DATA
 0002:00000660 00000140H .CRT$XIC                DATA
 0002:000007a0 00000110H .CRT$XIZ                DATA
 0002:000008b0 00000110H .CRT$XPA                DATA
 0002:000009c0 00000120H .CRT$XPX                DATA
 0002:00000ae0 00000110H .CRT$XPXA               DATA
 0002:00000bf0 00000110H .CRT$XPZ                DATA
 0002:00000d00 00000110H .CRT$XTA                DATA
 0002:00000e10 00000110H .CRT$XTZ                DATA
 0002:00000f20 00017640H .rdata                  DATA
 0002:00018560 000002a0H .rdata$00               DATA
 0002:00018800 00000200H .rdata$CastGuardVftablesA DATA
 0002:00018a00 000001a0H .rdata$CastGuardVftablesC DATA
 0002:00018ba0 00001224H .rdata$r                DATA
 0002:00019dc4 00000194H .rdata$zzzdbg           DATA
 0002:00019f58 00000110H .rtc$IAA                DATA
 0002:0001a068 00000110H .rtc$IZZ                DATA
 0002:0001a178 00000110H .rtc$TAA                DATA
 0002:0001a288 00000110H .rtc$TZZ                DATA
 0002:0001a398 00010070H .xdata                  DATA
 0002:0002a408 00000666H .xdata$x                DATA
 0002:0002aa6e 00000000H .edata                  DATA
 0003:00000000 00000f30H .data                   DATA
 0003:00000f30 000005c0H .data$r                 DATA
 0003:000014f0 000005c0H .data$rs                DATA
 0003:00001ab0 00001c11H .bss                    DATA
 0004:00000000 00009fccH .pdata                  DATA
 0005:00000000 000008e8H .idata$5                DATA
 0005:000008e8 0000008cH .idata$2                DATA
 0005:00000974 00000014H .idata$3                DATA
 0005:00000988 000008e8H .idata$4                DATA
 0005:00001270 00000ecbH .idata$6                DATA
 0006:00000000 00000175H .00cfg                  DATA
 0007:00000000 00000233H .fptable                DATA
 0008:00000000 00000270H .rsrc$01                DATA
 0008:00000270 000010b6H .rsrc$02                DATA

  Address         Publics by Value              Rva+Base               Lib:Object

 0000:00000000       __AbsoluteZero             0000000000000000     <absolute>
 0000:00000000       ___safe_se_handler_count   0000000000000000     <absolute>
 0000:00000000       ___safe_se_handler_table   0000000000000000     <absolute>
 0000:00000000       __arm64x_extra_rfe_table   0000000000000000     <absolute>
 0000:00000000       __arm64x_extra_rfe_table_size 0000000000000000     <absolute>
 0000:00000000       __arm64x_native_entrypoint 0000000000000000     <absolute>
 0000:00000000       __arm64x_redirection_metadata 0000000000000000     <absolute>
 0000:00000000       __arm64x_redirection_metadata_count 0000000000000000     <absolute>
 0000:00000000       __dynamic_value_reloc_table 0000000000000000     <absolute>
 0000:00000000       __enclave_config           0000000000000000     <absolute>
 0000:00000000       __guard_check_icall_a64n_fptr 0000000000000000     <absolute>
 0000:00000000       __guard_eh_cont_count      0000000000000000     <absolute>
 0000:00000000       __guard_eh_cont_table      0000000000000000     <absolute>
 0000:00000000       __guard_fids_count         0000000000000000     <absolute>
 0000:00000000       __guard_fids_table         0000000000000000     <absolute>
 0000:00000000       __guard_iat_count          0000000000000000     <absolute>
 0000:00000000       __guard_iat_table          0000000000000000     <absolute>
 0000:00000000       __guard_longjmp_count      0000000000000000     <absolute>
 0000:00000000       __guard_longjmp_table      0000000000000000     <absolute>
 0000:00000000       __hybrid_auxiliary_delayload_iat 0000000000000000     <absolute>
 0000:00000000       __hybrid_auxiliary_delayload_iat_copy 0000000000000000     <absolute>
 0000:00000000       __hybrid_auxiliary_iat     0000000000000000     <absolute>
 0000:00000000       __hybrid_auxiliary_iat_copy 0000000000000000     <absolute>
 0000:00000000       __hybrid_code_map          0000000000000000     <absolute>
 0000:00000000       __hybrid_code_map_count    0000000000000000     <absolute>
 0000:00000000       __hybrid_image_info_bitfield 0000000000000000     <absolute>
 0000:00000000       __volatile_metadata        0000000000000000     <absolute>
 0000:00000000       __x64_code_ranges_to_entry_points 0000000000000000     <absolute>
 0000:00000000       __x64_code_ranges_to_entry_points_count 0000000000000000     <absolute>
 0000:00000100       __guard_flags              0000000000000100     <absolute>
 0000:00000000       __ImageBase                0000000140000000     <linker-defined>
 0001:0000a540       __local_stdio_printf_options 000000014000b540 f i main.cpp.obj
 0001:0000a550       _vswprintf_c_l             000000014000b550 f i main.cpp.obj
 0001:0000a5c0       swprintf                   000000014000b5c0 f i main.cpp.obj
 0001:0000a630       wWinMain                   000000014000b630 f   main.cpp.obj
 0001:0000a7a0       ??$?0$$V@?$_Compressed_pair@V?$allocator@U?$_Tree_node@U?$pair@$$CBV?$basic_string@_WU?$char_traits@_W@std@@V?$allocator@_W@2@@std@@PEAU_TREEITEM@@@std@@PEAX@std@@@std@@V?$_Tree_val@U?$_Tree_simple_types@U?$pair@$$CBV?$basic_string@_WU?$char_traits@_W@std@@V?$allocator@_W@2@@std@@PEAU_TREEITEM@@@std@@@std@@@2@$00@std@@QEAA@U_Zero_then_variadic_args_t@1@@Z 000000014000b7a0 f i Shell.cpp.obj
 0001:0000a7b0       ??$?0$$V@?$_Compressed_pair@V?$allocator@V?$unique_ptr@VITool@ith@@U?$default_delete@VITool@ith@@@std@@@std@@@std@@V?$_Vector_val@U?$_Simple_types@V?$unique_ptr@VITool@ith@@U?$default_delete@VITool@ith@@@std@@@std@@@std@@@2@$00@std@@QEAA@U_Zero_then_variadic_args_t@1@@Z 000000014000b7b0 f i Shell.cpp.obj
 0001:0000a7d0       ??$?0$$V@?$_Compressed_pair@V?$allocator@_W@std@@V?$_String_val@U?$_Simple_types@_W@std@@@2@$00@std@@QEAA@U_Zero_then_variadic_args_t@1@@Z 000000014000b7d0 f i Shell.cpp.obj
 0001:0000a7f0       ??$?0AEAPEAVAdQueryTool@ith@@@?$_Compressed_pair@U?$default_delete@VAdQueryTool@ith@@@std@@PEAVAdQueryTool@ith@@$00@std@@QEAA@U_Zero_then_variadic_args_t@1@AEAPEAVAdQueryTool@ith@@@Z 000000014000b7f0 f i Shell.cpp.obj
 0001:0000a800       ??$?0AEAPEAVITool@ith@@V?$unique_ptr@VToolView@ith@@U?$default_delete@VToolView@ith@@@std@@@std@@$0A@@?$pair@QEAVITool@ith@@V?$unique_ptr@VToolView@ith@@U?$default_delete@VToolView@ith@@@std@@@std@@@std@@QEAA@AEAPEAVITool@ith@@$$QEAV?$unique_ptr@VToolView@ith@@U?$default_delete@VToolView@ith@@@std@@@1@@Z 000000014000b800 f i Shell.cpp.obj
 0001:0000a820       ??$?0AEAPEAVITool@ith@@V?$unique_ptr@VToolView@ith@@U?$default_delete@VToolView@ith@@@std@@@std@@@?$_List_node_emplace_op2@V?$allocator@U?$_List_node@U?$pair@QEAVITool@ith@@V?$unique_ptr@VToolView@ith@@U?$default_delete@VToolView@ith@@@std@@@std@@@std@@PEAX@std@@@std@@@std@@QEAA@AEAV?$allocator@U?$_List_node@U?$pair@QEAVITool@ith@@V?$unique_ptr@VToolView@ith@@U?$default_delete@VToolView@ith@@@std@@@std@@@std@@PEAX@std@@@1@AEAPEAVITool@ith@@$$QEAV?$unique_ptr@VToolView@ith@@U?$default_delete@VToolView@ith@@@std@@@1@@Z 000000014000b820 f i Shell.cpp.obj
 0001:0000a8a0       ??$?0AEBQEAU?$_Tree_node@U?$pair@$$CBV?$basic_string@_WU?$char_traits@_W@std@@V?$allocator@_W@2@@std@@PEAU_TREEITEM@@@std@@PEAX@std@@_N$0A@@?$pair@PEAU?$_Tree_node@U?$pair@$$CBV?$basic_string@_WU?$char_traits@_W@std@@V?$allocator@_W@2@@std@@PEAU_TREEITEM@@@std@@PEAX@std@@_N@std@@QEAA@AEBQEAU?$_Tree_node@U?$pair@$$CBV?$basic_string@_WU?$char_traits@_W@std@@V?$allocator@_W@2@@std@@PEAU_TREEITEM@@@std@@PEAX@1@$$QEA_N@Z 000000014000b8a0 f i Shell.cpp.obj
 0001:0000a8c0       ??$?0AEBU?$less@V?$basic_string@_WU?$char_traits@_W@std@@V?$allocator@_W@2@@std@@@std@@U_Zero_then_variadic_args_t@1@@?$_Compressed_pair@U?$less@V?$basic_string@_WU?$char_traits@_W@std@@V?$allocator@_W@2@@std@@@std@@V?$_Compressed_pair@V?$allocator@U?$_Tree_node@U?$pair@$$CBV?$basic_string@_WU?$char_traits@_W@std@@V?$allocator@_W@2@@std@@PEAU_TREEITEM@@@std@@PEAX@std@@@std@@V?$_Tree_val@U?$_Tree_simple_types@U?$pair@$$CBV?$basic_string@_WU?$char_traits@_W@std@@V?$allocator@_W@2@@std@@PEAU_TREEITEM@@@std@@@std@@@2@$00@2@$00@std@@QEAA@U_One_then_variadic_args_t@1@AEBU?$less@V?$basic_string@_WU?$char_traits@_W@std@@V?$allocator@_W@2@@std@@@1@$$QEAU_Zero_then_variadic_args_t@1@@Z 000000014000b8c0 f i Shell.cpp.obj
 0001:0000a8d0       ??$?0AEBUpiecewise_construct_t@std@@V?$tuple@AEBV?$basic_string@_WU?$char_traits@_W@std@@V?$allocator@_W@2@@std@@@1@V?$tuple@$$V@1@@?$_Tree_temp_node@V?$allocator@U?$_Tree_node@U?$pair@$$CBV?$basic_string@_WU?$char_traits@_W@std@@V?$allocator@_W@2@@std@@PEAU_TREEITEM@@@std@@PEAX@std@@@std@@@std@@QEAA@AEAV?$allocator@U?$_Tree_node@U?$pair@$$CBV?$basic_string@_WU?$char_traits@_W@std@@V?$allocator@_W@2@@std@@PEAU_TREEITEM@@@std@@PEAX@std@@@1@PEAU?$_Tree_node@U?$pair@$$CBV?$basic_string@_WU?$char_traits@_W@std@@V?$allocator@_W@2@@std@@PEAU_TREEITEM@@@std@@PEAX@1@AEBUpiecewise_construct_t@1@$$QEAV?$tuple@AEBV?$basic_string@_WU?$char_traits@_W@std@@V?$allocator@_W@2@@std@@@1@$$QEAV?$tuple@$$V@1@@Z 000000014000b8d0 f i Shell.cpp.obj
 0001:0000aaa0       ??$?0AEBV?$allocator@U?$pair@QEAVITool@ith@@V?$unique_ptr@VToolView@ith@@U?$default_delete@VToolView@ith@@@std@@@std@@@std@@@std@@$$V@?$_Compressed_pair@V?$allocator@U?$_List_node@U?$pair@QEAVITool@ith@@V?$unique_ptr@VToolView@ith@@U?$default_delete@VToolView@ith@@@std@@@std@@@std@@PEAX@std@@@std@@V?$_List_val@U?$_List_simple_types@U?$pair@QEAVITool@ith@@V?$unique_ptr@VToolView@ith@@U?$default_delete@VToolView@ith@@@std@@@std@@@std@@@std@@@2@$00@std@@QEAA@U_One_then_variadic_args_t@1@AEBV?$allocator@U?$pair@QEAVITool@ith@@V?$unique_ptr@VToolView@ith@@U?$default_delete@VToolView@ith@@@std@@@std@@@std@@@1@@Z 000000014000baa0 f i Shell.cpp.obj
 0001:0000aab0       ??$?0AEBV?$allocator@U?$pair@QEAVITool@ith@@V?$unique_ptr@VToolView@ith@@U?$default_delete@VToolView@ith@@@std@@@std@@@std@@@std@@$$V@?$_Compressed_pair@V?$allocator@V?$_List_unchecked_iterator@V?$_List_val@U?$_List_simple_types@U?$pair@QEAVITool@ith@@V?$unique_ptr@VToolView@ith@@U?$default_delete@VToolView@ith@@@std@@@std@@@std@@@std@@@std@@@std@@@std@@V?$_Vector_val@U?$_Simple_types@V?$_List_unchecked_iterator@V?$_List_val@U?$_List_simple_types@U?$pair@QEAVITool@ith@@V?$unique_ptr@VToolView@ith@@U?$default_delete@VToolView@ith@@@std@@@std@@@std@@@std@@@std@@@std@@@std@@@2@$00@std@@QEAA@U_One_then_variadic_args_t@1@AEBV?$allocator@U?$pair@QEAVITool@ith@@V?$unique_ptr@VToolView@ith@@U?$default_delete@VToolView@ith@@@std@@@std@@@std@@@1@@Z 000000014000bab0 f i Shell.cpp.obj
 0001:0000aad0       ??$?0AEBV?$allocator@U?$pair@QEAVITool@ith@@V?$unique_ptr@VToolView@ith@@U?$default_delete@VToolView@ith@@@std@@@std@@@std@@@std@@$0A@@?$_Hash_vec@V?$allocator@V?$_List_unchecked_iterator@V?$_List_val@U?$_List_simple_types@U?$pair@QEAVITool@ith@@V?$unique_ptr@VToolView@ith@@U?$default_delete@VToolView@ith@@@std@@@std@@@std@@@std@@@std@@@std@@@std@@@std@@QEAA@AEBV?$allocator@U?$pair@QEAVITool@ith@@V?$unique_ptr@VToolView@ith@@U?$default_delete@VToolView@ith@@@std@@@std@@@std@@@1@@Z 000000014000bad0 f i Shell.cpp.obj
 0001:0000aaf0       ??$?0AEBV?$basic_string@_WU?$char_traits@_W@std@@V?$allocator@_W@2@@std@@$$Z$$V@?$pair@$$CBV?$basic_string@_WU?$char_traits@_W@std@@V?$allocator@_W@2@@std@@PEAU_TREEITEM@@@std@@QEAA@Upiecewise_construct_t@1@V?$tuple@AEBV?$basic_string@_WU?$char_traits@_W@std@@V?$allocator@_W@2@@std@@@1@V?$tuple@$$V@1@@Z 000000014000baf0 f i Shell.cpp.obj
 0001:0000ac40       ??$?0AEBV?$basic_string@_WU?$char_traits@_W@std@@V?$allocator@_W@2@@std@@$0A@@?$tuple@AEBV?$basic_string@_WU?$char_traits@_W@std@@V?$allocator@_W@2@@std@@@std@@QEAA@AEBV?$basic_string@_WU?$char_traits@_W@std@@V?$allocator@_W@2@@1@@Z 000000014000bc40 f i Shell.cpp.obj
 0001:0000ac50       ??$?0AEBV?$basic_string@_WU?$char_traits@_W@std@@V?$allocator@_W@2@@std@@@?$_Tuple_val@AEBV?$basic_string@_WU?$char_traits@_W@std@@V?$allocator@_W@2@@std@@@std@@QEAA@AEBV?$basic_string@_WU?$char_traits@_W@std@@V?$allocator@_W@2@@1@@Z 000000014000bc50 f i Shell.cpp.obj
 0001:0000ac60       ??$?0M@?$_Compressed_pair@U?$equal_to@PEAVITool@ith@@@std@@M$00@std@@QEAA@U_Zero_then_variadic_args_t@1@$$QEAM@Z 000000014000bc60 f i Shell.cpp.obj
 0001:0000ac70       ??$?0PEAU?$_Tree_node@U?$pair@$$CBV?$basic_string@_WU?$char_traits@_W@std@@V?$allocator@_W@2@@std@@PEAU_TREEITEM@@@std@@PEAX@std@@_N$0A@@?$pair@PEAU?$_Tree_node@U?$pair@$$CBV?$basic_string@_WU?$char_traits@_W@std@@V?$allocator@_W@2@@std@@PEAU_TREEITEM@@@std@@PEAX@std@@_N@std@@QEAA@$$QEAPEAU?$_Tree_node@U?$pair@$$CBV?$basic_string@_WU?$char_traits@_W@std@@V?$allocator@_W@2@@std@@PEAU_TREEITEM@@@std@@PEAX@1@$$QEA_N@Z 000000014000bc70 f i Shell.cpp.obj
 0001:0000ac90       ??$?0U?$default_delete@VAdQueryTool@ith@@@std@@$0A@@?$unique_ptr@VAdQueryTool@ith@@U?$default_delete@VAdQueryTool@ith@@@std@@@std@@QEAA@PEAVAdQueryTool@ith@@@Z 000000014000bc90 f i Shell.cpp.obj
 0001:0000aca0       ??$?0U?$default_delete@VAdQueryTool@ith@@@std@@PEAVAdQueryTool@ith@@@?$_Compressed_pair@U?$default_delete@VITool@ith@@@std@@PEAVITool@ith@@$00@std@@QEAA@U_One_then_variadic_args_t@1@$$QEAU?$default_delete@VAdQueryTool@ith@@@1@$$QEAPEAVAdQueryTool@ith@@@Z 000000014000bca0 f i Shell.cpp.obj
 0001:0000acb0       ??$?0U?$default_delete@VITool@ith@@@std@@$0A@@?$unique_ptr@VITool@ith@@U?$default_delete@VITool@ith@@@std@@@std@@QEAA@$$QEAV01@@Z 000000014000bcb0 f i Shell.cpp.obj
 0001:0000acd0       ??$?0U?$default_delete@VITool@ith@@@std@@PEAVITool@ith@@@?$_Compressed_pair@U?$default_delete@VITool@ith@@@std@@PEAVITool@ith@@$00@std@@QEAA@U_One_then_variadic_args_t@1@$$QEAU?$default_delete@VITool@ith@@@1@$$QEAPEAVITool@ith@@@Z 000000014000bcd0 f i Shell.cpp.obj
 0001:0000ace0       ??$?0U?$default_delete@VToolView@ith@@@std@@$0A@@?$unique_ptr@VToolView@ith@@U?$default_delete@VToolView@ith@@@std@@@std@@QEAA@$$QEAV01@@Z 000000014000bce0 f i Shell.cpp.obj
 0001:0000ad00       ??$?0U?$default_delete@VToolView@ith@@@std@@PEAVToolView@ith@@@?$_Compressed_pair@U?$default_delete@VToolView@ith@@@std@@PEAVToolView@ith@@$00@std@@QEAA@U_One_then_variadic_args_t@1@$$QEAU?$default_delete@VToolView@ith@@@1@$$QEAPEAVToolView@ith@@@Z 000000014000bd00 f i Shell.cpp.obj
 0001:0000ad10       ??$?0U?$pair@QEAVITool@ith@@V?$unique_ptr@VToolView@ith@@U?$default_delete@VToolView@ith@@@std@@@std@@@std@@@?$allocator@U?$_List_node@U?$pair@QEAVITool@ith@@V?$unique_ptr@VToolView@ith@@U?$default_delete@VToolView@ith@@@std@@@std@@@std@@PEAX@std@@@std@@QEAA@AEBV?$allocator@U?$pair@QEAVITool@ith@@V?$unique_ptr@VToolView@ith@@U?$default_delete@VToolView@ith@@@std@@@std@@@std@@@1@@Z 000000014000bd10 f i Shell.cpp.obj
 0001:0000ad20       ??$?0U?$pair@QEAVITool@ith@@V?$unique_ptr@VToolView@ith@@U?$default_delete@VToolView@ith@@@std@@@std@@@std@@@?$allocator@V?$_List_unchecked_iterator@V?$_List_val@U?$_List_simple_types@U?$pair@QEAVITool@ith@@V?$unique_ptr@VToolView@ith@@U?$default_delete@VToolView@ith@@@std@@@std@@@std@@@std@@@std@@@std@@@std@@QEAA@AEBV?$allocator@U?$pair@QEAVITool@ith@@V?$unique_ptr@VToolView@ith@@U?$default_delete@VToolView@ith@@@std@@@std@@@std@@@1@@Z 000000014000bd20 f i Shell.cpp.obj
 0001:0000ad30       ??$?0U_Exact_args_t@std@@$0A@@?$tuple@$$V@std@@QEAA@U_Exact_args_t@1@@Z 000000014000bd30 f i Shell.cpp.obj
 0001:0000ad40       ??$?0U_Exact_args_t@std@@AEBV?$basic_string@_WU?$char_traits@_W@std@@V?$allocator@_W@2@@1@$$V$0A@@?$tuple@AEBV?$basic_string@_WU?$char_traits@_W@std@@V?$allocator@_W@2@@std@@@std@@QEAA@U_Exact_args_t@1@AEBV?$basic_string@_WU?$char_traits@_W@std@@V?$allocator@_W@2@@1@@Z 000000014000bd40 f i Shell.cpp.obj
 0001:0000ad50       ??$?0U_Zero_then_variadic_args_t@std@@M@?$_Compressed_pair@U?$hash@PEAVITool@ith@@@std@@V?$_Compressed_pair@U?$equal_to@PEAVITool@ith@@@std@@M$00@2@$00@std@@QEAA@U_Zero_then_variadic_args_t@1@$$QEAU21@$$QEAM@Z 000000014000bd50 f i Shell.cpp.obj
 0001:0000ad60       ??$?0V?$_List_iterator@V?$_List_val@U?$_List_simple_types@U?$pair@QEAVITool@ith@@V?$unique_ptr@VToolView@ith@@U?$default_delete@VToolView@ith@@@std@@@std@@@std@@@std@@@std@@@std@@_N$0A@@?$pair@V?$_List_iterator@V?$_List_val@U?$_List_simple_types@U?$pair@QEAVITool@ith@@V?$unique_ptr@VToolView@ith@@U?$default_delete@VToolView@ith@@@std@@@std@@@std@@@std@@@std@@@std@@_N@std@@QEAA@$$QEAV?$_List_iterator@V?$_List_val@U?$_List_simple_types@U?$pair@QEAVITool@ith@@V?$unique_ptr@VToolView@ith@@U?$default_delete@VToolView@ith@@@std@@@std@@@std@@@std@@@std@@@1@$$QEA_N@Z 000000014000bd60 f i Shell.cpp.obj
 0001:0000ad80       ??$?0V?$allocator@V?$unique_ptr@VITool@ith@@U?$default_delete@VITool@ith@@@std@@@std@@@std@@PEAV?$unique_ptr@VITool@ith@@U?$default_delete@VITool@ith@@@std@@@1@PEAV21@PEAV21@@?$_Compressed_pair@V?$allocator@V?$unique_ptr@VITool@ith@@U?$default_delete@VITool@ith@@@std@@@std@@@std@@V?$_Vector_val@U?$_Simple_types@V?$unique_ptr@VITool@ith@@U?$default_delete@VITool@ith@@@std@@@std@@@std@@@2@$00@std@@QEAA@U_One_then_variadic_args_t@1@$$QEAV?$allocator@V?$unique_ptr@VITool@ith@@U?$default_delete@VITool@ith@@@std@@@std@@@1@$$QEAPEAV?$unique_ptr@VITool@ith@@U?$default_delete@VITool@ith@@@std@@@1@22@Z 000000014000bd80 f i Shell.cpp.obj
 0001:0000adb0       ??$?0V?$allocator@_W@std@@$$V@?$_Compressed_pair@V?$allocator@_W@std@@V?$_String_val@U?$_Simple_types@_W@std@@@2@$00@std@@QEAA@U_One_then_variadic_args_t@1@$$QEAV?$allocator@_W@1@@Z 000000014000bdb0 f i Shell.cpp.obj
 0001:0000add0       ??$?0V?$tuple@AEBV?$basic_string@_WU?$char_traits@_W@std@@V?$allocator@_W@2@@std@@@std@@V?$tuple@$$V@1@$0A@$$Z$S@?$pair@$$CBV?$basic_string@_WU?$char_traits@_W@std@@V?$allocator@_W@2@@std@@PEAU_TREEITEM@@@std@@AEAA@AEAV?$tuple@AEBV?$basic_string@_WU?$char_traits@_W@std@@V?$allocator@_W@2@@std@@@1@AEAV?$tuple@$$V@1@U?$integer_sequence@_K$0A@@1@U?$integer_sequence@_K$S@1@@Z 000000014000bdd0 f i Shell.cpp.obj
 0001:0000af20       ??$?0VAdQueryTool@ith@@$0A@@?$default_delete@VITool@ith@@@std@@QEAA@AEBU?$default_delete@VAdQueryTool@ith@@@1@@Z 000000014000bf20 f i Shell.cpp.obj
 0001:0000af30       ??$?0VAdQueryTool@ith@@U?$default_delete@VAdQueryTool@ith@@@std@@$0A@@?$unique_ptr@VITool@ith@@U?$default_delete@VITool@ith@@@std@@@std@@QEAA@$$QEAV?$unique_ptr@VAdQueryTool@ith@@U?$default_delete@VAdQueryTool@ith@@@std@@@1@@Z 000000014000bf30 f i Shell.cpp.obj
 0001:0000af50       ??$?RPEAVITool@ith@@@?$_Uhash_compare@PEAVITool@ith@@U?$hash@PEAVITool@ith@@@std@@U?$equal_to@PEAVITool@ith@@@4@@std@@QEBA_KAEBQEAVITool@ith@@@Z 000000014000bf50 f i Shell.cpp.obj
 0001:0000af60       ??$?RPEAVITool@ith@@PEAV01@@?$_Uhash_compare@PEAVITool@ith@@U?$hash@PEAVITool@ith@@@std@@U?$equal_to@PEAVITool@ith@@@4@@std@@QEBA_NAEBQEAVITool@ith@@0@Z 000000014000bf60 f i Shell.cpp.obj
 0001:0000af70       ??$?__M_WU?$char_traits@_W@std@@V?$allocator@_W@1@@std@@YA?AUstrong_ordering@0@AEBV?$basic_string@_WU?$char_traits@_W@std@@V?$allocator@_W@2@@0@0@Z 000000014000bf70 f i Shell.cpp.obj
 0001:0000b070       ??$_Adl_verify_range@PEAV?$_List_unchecked_iterator@V?$_List_val@U?$_List_simple_types@U?$pair@QEAVITool@ith@@V?$unique_ptr@VToolView@ith@@U?$default_delete@VToolView@ith@@@std@@@std@@@std@@@std@@@std@@@std@@PEAV12@@std@@YAXAEBQEAV?$_List_unchecked_iterator@V?$_List_val@U?$_List_simple_types@U?$pair@QEAVITool@ith@@V?$unique_ptr@VToolView@ith@@U?$default_delete@VToolView@ith@@@std@@@std@@@std@@@std@@@std@@@0@0@Z 000000014000c070 f i Shell.cpp.obj
 0001:0000b080       ??$_Allocate@$0BA@U_Default_allocate_traits@std@@@std@@YAPEAX_K@Z 000000014000c080 f i Shell.cpp.obj
 0001:0000b0a0       ??$_Allocate_at_least_helper@V?$allocator@V?$unique_ptr@VITool@ith@@U?$default_delete@VITool@ith@@@std@@@std@@@std@@@std@@YAPEAV?$unique_ptr@VITool@ith@@U?$default_delete@VITool@ith@@@std@@@0@AEAV?$allocator@V?$unique_ptr@VITool@ith@@U?$default_delete@VITool@ith@@@std@@@std@@@0@AEA_K@Z 000000014000c0a0 f i Shell.cpp.obj
 0001:0000b100       ??$_Allocate_at_least_helper@V?$allocator@_W@std@@@std@@YAPEA_WAEAV?$allocator@_W@0@AEA_K@Z 000000014000c100 f i Shell.cpp.obj
 0001:0000b160       ??$_Allocate_for_capacity@$0A@@?$basic_string@_WU?$char_traits@_W@std@@V?$allocator@_W@2@@std@@CAPEA_WAEAV?$allocator@_W@1@AEA_K@Z 000000014000c160 f i Shell.cpp.obj
 0001:0000b1e0       ??$_Allocate_manually_vector_aligned@U_Default_allocate_traits@std@@@std@@YAPEAX_K@Z 000000014000c1e0 f i Shell.cpp.obj
 0001:0000b230       ??$_Buyheadnode@V?$allocator@U?$_Tree_node@U?$pair@$$CBV?$basic_string@_WU?$char_traits@_W@std@@V?$allocator@_W@2@@std@@PEAU_TREEITEM@@@std@@PEAX@std@@@std@@@?$_Tree_node@U?$pair@$$CBV?$basic_string@_WU?$char_traits@_W@std@@V?$allocator@_W@2@@std@@PEAU_TREEITEM@@@std@@PEAX@std@@SAPEAU01@AEAV?$allocator@U?$_Tree_node@U?$pair@$$CBV?$basic_string@_WU?$char_traits@_W@std@@V?$allocator@_W@2@@std@@PEAU_TREEITEM@@@std@@PEAX@std@@@1@@Z 000000014000c230 f i Shell.cpp.obj
 0001:0000b260       ??$_Construct@$00PEB_W@?$basic_string@_WU?$char_traits@_W@std@@V?$allocator@_W@2@@std@@AEAAXQEB_W_K@Z 000000014000c260 f i Shell.cpp.obj
 0001:0000b3b0       ??$_Construct@$01PEB_W@?$basic_string@_WU?$char_traits@_W@std@@V?$allocator@_W@2@@std@@AEAAXQEB_W_K@Z 000000014000c3b0 f i Shell.cpp.obj
 0001:0000b4c0       ??$_Construct_in_place@PEAU?$_List_node@U?$pair@QEAVITool@ith@@V?$unique_ptr@VToolView@ith@@U?$default_delete@VToolView@ith@@@std@@@std@@@std@@PEAX@std@@AEAPEAU12@@std@@YAXAEAPEAU?$_List_node@U?$pair@QEAVITool@ith@@V?$unique_ptr@VToolView@ith@@U?$default_delete@VToolView@ith@@@std@@@std@@@std@@PEAX@0@0@Z 000000014000c4c0 f i Shell.cpp.obj
 0001:0000b4d0       ??$_Construct_in_place@PEAU?$_List_node@U?$pair@QEAVITool@ith@@V?$unique_ptr@VToolView@ith@@U?$default_delete@VToolView@ith@@@std@@@std@@@std@@PEAX@std@@AEBQEAU12@@std@@YAXAEAPEAU?$_List_node@U?$pair@QEAVITool@ith@@V?$unique_ptr@VToolView@ith@@U?$default_delete@VToolView@ith@@@std@@@std@@@std@@PEAX@0@AEBQEAU10@@Z 000000014000c4d0 f i Shell.cpp.obj
 0001:0000b4e0       ??$_Construct_in_place@PEAU?$_Tree_node@U?$pair@$$CBV?$basic_string@_WU?$char_traits@_W@std@@V?$allocator@_W@2@@std@@PEAU_TREEITEM@@@std@@PEAX@std@@AEAPEAU12@@std@@YAXAEAPEAU?$_Tree_node@U?$pair@$$CBV?$basic_string@_WU?$char_traits@_W@std@@V?$allocator@_W@2@@std@@PEAU_TREEITEM@@@std@@PEAX@0@0@Z 000000014000c4e0 f i Shell.cpp.obj
 0001:0000b4f0       ??$_Construct_in_place@PEAU?$_Tree_node@U?$pair@$$CBV?$basic_string@_WU?$char_traits@_W@std@@V?$allocator@_W@2@@std@@PEAU_TREEITEM@@@std@@PEAX@std@@AEBQEAU12@@std@@YAXAEAPEAU?$_Tree_node@U?$pair@$$CBV?$basic_string@_WU?$char_traits@_W@std@@V?$allocator@_W@2@@std@@PEAU_TREEITEM@@@std@@PEAX@0@AEBQEAU10@@Z 000000014000c4f0 f i Shell.cpp.obj
 0001:0000b500       ??$_Construct_in_place@PEA_WAEBQEA_W@std@@YAXAEAPEA_WAEBQEA_W@Z 000000014000c500 f i Shell.cpp.obj
 0001:0000b510       ??$_Construct_in_place@V?$_List_unchecked_iterator@V?$_List_val@U?$_List_simple_types@U?$pair@QEAVITool@ith@@V?$unique_ptr@VToolView@ith@@U?$default_delete@VToolView@ith@@@std@@@std@@@std@@@std@@@std@@@std@@AEBV12@@std@@YAXAEAV?$_List_unchecked_iterator@V?$_List_val@U?$_List_simple_types@U?$pair@QEAVITool@ith@@V?$unique_ptr@VToolView@ith@@U?$default_delete@VToolView@ith@@@std@@@std@@@std@@@std@@@std@@@0@AEBV10@@Z 000000014000c510 f i Shell.cpp.obj
 0001:0000b520       ??$_Construct_in_place@V?$unique_ptr@VITool@ith@@U?$default_delete@VITool@ith@@@std@@@std@@V12@@std@@YAXAEAV?$unique_ptr@VITool@ith@@U?$default_delete@VITool@ith@@@std@@@0@$$QEAV10@@Z 000000014000c520 f i Shell.cpp.obj
 0001:0000b540       ??$_Convert_size@_K_K@std@@YA_K_K@Z 000000014000c540 f i Shell.cpp.obj
 0001:0000b550       ??$_Deallocate@$0BA@@std@@YAXPEAX_K@Z 000000014000c550 f i Shell.cpp.obj
 0001:0000b590       ??$_Destroy_in_place@PEAU?$_List_node@U?$pair@QEAVITool@ith@@V?$unique_ptr@VToolView@ith@@U?$default_delete@VToolView@ith@@@std@@@std@@@std@@PEAX@std@@@std@@YAXAEAPEAU?$_List_node@U?$pair@QEAVITool@ith@@V?$unique_ptr@VToolView@ith@@U?$default_delete@VToolView@ith@@@std@@@std@@@std@@PEAX@0@@Z 000000014000c590 f i Shell.cpp.obj
 0001:0000b5a0       ??$_Destroy_in_place@PEAU?$_Tree_node@U?$pair@$$CBV?$basic_string@_WU?$char_traits@_W@std@@V?$allocator@_W@2@@std@@PEAU_TREEITEM@@@std@@PEAX@std@@@std@@YAXAEAPEAU?$_Tree_node@U?$pair@$$CBV?$basic_string@_WU?$char_traits@_W@std@@V?$allocator@_W@2@@std@@PEAU_TREEITEM@@@std@@PEAX@0@@Z 000000014000c5a0 f i Shell.cpp.obj
 0001:0000b5b0       ??$_Destroy_in_place@PEA_W@std@@YAXAEAPEA_W@Z 000000014000c5b0 f i Shell.cpp.obj
 0001:0000b5c0       ??$_Destroy_in_place@V?$_List_unchecked_iterator@V?$_List_val@U?$_List_simple_types@U?$pair@QEAVITool@ith@@V?$unique_ptr@VToolView@ith@@U?$default_delete@VToolView@ith@@@std@@@std@@@std@@@std@@@std@@@std@@@std@@YAXAEAV?$_List_unchecked_iterator@V?$_List_val@U?$_List_simple_types@U?$pair@QEAVITool@ith@@V?$unique_ptr@VToolView@ith@@U?$default_delete@VToolView@ith@@@std@@@std@@@std@@@std@@@std@@@0@@Z 000000014000c5c0 f i Shell.cpp.obj
 0001:0000b5d0       ??$_Destroy_range@PEAV?$_List_unchecked_iterator@V?$_List_val@U?$_List_simple_types@U?$pair@QEAVITool@ith@@V?$unique_ptr@VToolView@ith@@U?$default_delete@VToolView@ith@@@std@@@std@@@std@@@std@@@std@@@std@@PEAV12@@std@@YAXPEAV?$_List_unchecked_iterator@V?$_List_val@U?$_List_simple_types@U?$pair@QEAVITool@ith@@V?$unique_ptr@VToolView@ith@@U?$default_delete@VToolView@ith@@@std@@@std@@@std@@@std@@@std@@@0@QEAV10@@Z 000000014000c5d0 f i Shell.cpp.obj
 0001:0000b5e0       ??$_Destroy_range@V?$allocator@V?$unique_ptr@VITool@ith@@U?$default_delete@VITool@ith@@@std@@@std@@@std@@@std@@YAXPEAV?$unique_ptr@VITool@ith@@U?$default_delete@VITool@ith@@@std@@@0@QEAV10@AEAV?$allocator@V?$unique_ptr@VITool@ith@@U?$default_delete@VITool@ith@@@std@@@std@@@0@@Z 000000014000c5e0 f i Shell.cpp.obj
 0001:0000b630       ??$_Emplace_back@AEBV?$_List_unchecked_iterator@V?$_List_val@U?$_List_simple_types@U?$pair@QEAVITool@ith@@V?$unique_ptr@VToolView@ith@@U?$default_delete@VToolView@ith@@@std@@@std@@@std@@@std@@@std@@@std@@@?$_Uninitialized_backout@PEAV?$_List_unchecked_iterator@V?$_List_val@U?$_List_simple_types@U?$pair@QEAVITool@ith@@V?$unique_ptr@VToolView@ith@@U?$default_delete@VToolView@ith@@@std@@@std@@@std@@@std@@@std@@@std@@@std@@QEAAXAEBV?$_List_unchecked_iterator@V?$_List_val@U?$_List_simple_types@U?$pair@QEAVITool@ith@@V?$unique_ptr@VToolView@ith@@U?$default_delete@VToolView@ith@@@std@@@std@@@std@@@std@@@std@@@1@@Z 000000014000c630 f i Shell.cpp.obj
 0001:0000b650       ??$_Emplace_back@V?$unique_ptr@VITool@ith@@U?$default_delete@VITool@ith@@@std@@@std@@@?$_Uninitialized_backout_al@V?$allocator@V?$unique_ptr@VITool@ith@@U?$default_delete@VITool@ith@@@std@@@std@@@std@@@std@@QEAAX$$QEAV?$unique_ptr@VITool@ith@@U?$default_delete@VITool@ith@@@std@@@1@@Z 000000014000c650 f i Shell.cpp.obj
 0001:0000b670       ??$_Emplace_back_with_unused_capacity@V?$unique_ptr@VITool@ith@@U?$default_delete@VITool@ith@@@std@@@std@@@?$vector@V?$unique_ptr@VITool@ith@@U?$default_delete@VITool@ith@@@std@@@std@@V?$allocator@V?$unique_ptr@VITool@ith@@U?$default_delete@VITool@ith@@@std@@@std@@@2@@std@@AEAAAEAV?$unique_ptr@VITool@ith@@U?$default_delete@VITool@ith@@@std@@@1@$$QEAV21@@Z 000000014000c670 f i Shell.cpp.obj
 0001:0000b6a0       ??$_Emplace_one_at_back@V?$unique_ptr@VITool@ith@@U?$default_delete@VITool@ith@@@std@@@std@@@?$vector@V?$unique_ptr@VITool@ith@@U?$default_delete@VITool@ith@@@std@@@std@@V?$allocator@V?$unique_ptr@VITool@ith@@U?$default_delete@VITool@ith@@@std@@@std@@@2@@std@@AEAAAEAV?$unique_ptr@VITool@ith@@U?$default_delete@VITool@ith@@@std@@@1@$$QEAV21@@Z 000000014000c6a0 f i Shell.cpp.obj
 0001:0000b6e0       ??$_Emplace_reallocate@V?$unique_ptr@VITool@ith@@U?$default_delete@VITool@ith@@@std@@@std@@@?$vector@V?$unique_ptr@VITool@ith@@U?$default_delete@VITool@ith@@@std@@@std@@V?$allocator@V?$unique_ptr@VITool@ith@@U?$default_delete@VITool@ith@@@std@@@std@@@2@@std@@AEAAPEAV?$unique_ptr@VITool@ith@@U?$default_delete@VITool@ith@@@std@@@1@QEAV21@$$QEAV21@@Z 000000014000c6e0 f i Shell.cpp.obj
 0001:0000b970       ??$_Erase_head@V?$allocator@U?$_Tree_node@U?$pair@$$CBV?$basic_string@_WU?$char_traits@_W@std@@V?$allocator@_W@2@@std@@PEAU_TREEITEM@@@std@@PEAX@std@@@std@@@?$_Tree_val@U?$_Tree_simple_types@U?$pair@$$CBV?$basic_string@_WU?$char_traits@_W@std@@V?$allocator@_W@2@@std@@PEAU_TREEITEM@@@std@@@std@@@std@@QEAAXAEAV?$allocator@U?$_Tree_node@U?$pair@$$CBV?$basic_string@_WU?$char_traits@_W@std@@V?$allocator@_W@2@@std@@PEAU_TREEITEM@@@std@@PEAX@std@@@1@@Z 000000014000c970 f i Shell.cpp.obj
 0001:0000b9a0       ??$_Erase_tree@V?$allocator@U?$_Tree_node@U?$pair@$$CBV?$basic_string@_WU?$char_traits@_W@std@@V?$allocator@_W@2@@std@@PEAU_TREEITEM@@@std@@PEAX@std@@@std@@@?$_Tree_val@U?$_Tree_simple_types@U?$pair@$$CBV?$basic_string@_WU?$char_traits@_W@std@@V?$allocator@_W@2@@std@@PEAU_TREEITEM@@@std@@@std@@@std@@QEAAXAEAV?$allocator@U?$_Tree_node@U?$pair@$$CBV?$basic_string@_WU?$char_traits@_W@std@@V?$allocator@_W@2@@std@@PEAU_TREEITEM@@@std@@PEAX@std@@@1@PEAU?$_Tree_node@U?$pair@$$CBV?$basic_string@_WU?$char_traits@_W@std@@V?$allocator@_W@2@@std@@PEAU_TREEITEM@@@std@@PEAX@1@@Z 000000014000c9a0 f i Shell.cpp.obj
 0001:0000ba40       ??$_Find@PEAVITool@ith@@@?$_Hash@V?$_Umap_traits@PEAVITool@ith@@V?$unique_ptr@VToolView@ith@@U?$default_delete@VToolView@ith@@@std@@@std@@V?$_Uhash_compare@PEAVITool@ith@@U?$hash@PEAVITool@ith@@@std@@U?$equal_to@PEAVITool@ith@@@4@@4@V?$allocator@U?$pair@QEAVITool@ith@@V?$unique_ptr@VToolView@ith@@U?$default_delete@VToolView@ith@@@std@@@std@@@std@@@4@$0A@@std@@@std@@AEBAPEAU?$_List_node@U?$pair@QEAVITool@ith@@V?$unique_ptr@VToolView@ith@@U?$default_delete@VToolView@ith@@@std@@@std@@@std@@PEAX@1@AEBQEAVITool@ith@@_K@Z 000000014000ca40 f i Shell.cpp.obj
 0001:0000bab0       ??$_Find@V?$basic_string@_WU?$char_traits@_W@std@@V?$allocator@_W@2@@std@@@?$_Tree@V?$_Tmap_traits@V?$basic_string@_WU?$char_traits@_W@std@@V?$allocator@_W@2@@std@@PEAU_TREEITEM@@U?$less@V?$basic_string@_WU?$char_traits@_W@std@@V?$allocator@_W@2@@std@@@2@V?$allocator@U?$pair@$$CBV?$basic_string@_WU?$char_traits@_W@std@@V?$allocator@_W@2@@std@@PEAU_TREEITEM@@@std@@@2@$0A@@std@@@std@@AEBAPEAU?$_Tree_node@U?$pair@$$CBV?$basic_string@_WU?$char_traits@_W@std@@V?$allocator@_W@2@@std@@PEAU_TREEITEM@@@std@@PEAX@1@AEBV?$basic_string@_WU?$char_traits@_W@std@@V?$allocator@_W@2@@1@@Z 000000014000cab0 f i Shell.cpp.obj
 0001:0000bb20       ??$_Find_last@PEAVITool@ith@@@?$_Hash@V?$_Umap_traits@PEAVITool@ith@@V?$unique_ptr@VToolView@ith@@U?$default_delete@VToolView@ith@@@std@@@std@@V?$_Uhash_compare@PEAVITool@ith@@U?$hash@PEAVITool@ith@@@std@@U?$equal_to@PEAVITool@ith@@@4@@4@V?$allocator@U?$pair@QEAVITool@ith@@V?$unique_ptr@VToolView@ith@@U?$default_delete@VToolView@ith@@@std@@@std@@@std@@@4@$0A@@std@@@std@@IEBA?AU?$_Hash_find_last_result@PEAU?$_List_node@U?$pair@QEAVITool@ith@@V?$unique_ptr@VToolView@ith@@U?$default_delete@VToolView@ith@@@std@@@std@@@std@@PEAX@std@@@1@AEBQEAVITool@ith@@_K@Z 000000014000cb20 f i Shell.cpp.obj
 0001:0000bbb0       ??$_Find_lower_bound@V?$basic_string@_WU?$char_traits@_W@std@@V?$allocator@_W@2@@std@@@?$_Tree@V?$_Tmap_traits@V?$basic_string@_WU?$char_traits@_W@std@@V?$allocator@_W@2@@std@@PEAU_TREEITEM@@U?$less@V?$basic_string@_WU?$char_traits@_W@std@@V?$allocator@_W@2@@std@@@2@V?$allocator@U?$pair@$$CBV?$basic_string@_WU?$char_traits@_W@std@@V?$allocator@_W@2@@std@@PEAU_TREEITEM@@@std@@@2@$0A@@std@@@std@@IEBA?AU?$_Tree_find_result@PEAU?$_Tree_node@U?$pair@$$CBV?$basic_string@_WU?$char_traits@_W@std@@V?$allocator@_W@2@@std@@PEAU_TREEITEM@@@std@@PEAX@std@@@1@AEBV?$basic_string@_WU?$char_traits@_W@std@@V?$allocator@_W@2@@1@@Z 000000014000cbb0 f i Shell.cpp.obj
 0001:0000bce0       ??$_Fnv1a_append_value@PEAVITool@ith@@@std@@YA_K_KAEBQEAVITool@ith@@@Z 000000014000cce0 f i Shell.cpp.obj
 0001:0000bd60       ??$_Free_non_head@V?$allocator@U?$_List_node@U?$pair@QEAVITool@ith@@V?$unique_ptr@VToolView@ith@@U?$default_delete@VToolView@ith@@@std@@@std@@@std@@PEAX@std@@@std@@@?$_List_node@U?$pair@QEAVITool@ith@@V?$unique_ptr@VToolView@ith@@U?$default_delete@VToolView@ith@@@std@@@std@@@std@@PEAX@std@@SAXAEAV?$allocator@U?$_List_node@U?$pair@QEAVITool@ith@@V?$unique_ptr@VToolView@ith@@U?$default_delete@VToolView@ith@@@std@@@std@@@std@@PEAX@std@@@1@PEAU01@@Z 000000014000cd60 f i Shell.cpp.obj
 0001:0000bdd0       ??$_Freenode0@V?$allocator@U?$_List_node@U?$pair@QEAVITool@ith@@V?$unique_ptr@VToolView@ith@@U?$default_delete@VToolView@ith@@@std@@@std@@@std@@PEAX@std@@@std@@@?$_List_node@U?$pair@QEAVITool@ith@@V?$unique_ptr@VToolView@ith@@U?$default_delete@VToolView@ith@@@std@@@std@@@std@@PEAX@std@@SAXAEAV?$allocator@U?$_List_node@U?$pair@QEAVITool@ith@@V?$unique_ptr@VToolView@ith@@U?$default_delete@VToolView@ith@@@std@@@std@@@std@@PEAX@std@@@1@PEAU01@@Z 000000014000cdd0 f i Shell.cpp.obj
 0001:0000bde0       ??$_Freenode0@V?$allocator@U?$_Tree_node@U?$pair@$$CBV?$basic_string@_WU?$char_traits@_W@std@@V?$allocator@_W@2@@std@@PEAU_TREEITEM@@@std@@PEAX@std@@@std@@@?$_Tree_node@U?$pair@$$CBV?$basic_string@_WU?$char_traits@_W@std@@V?$allocator@_W@2@@std@@PEAU_TREEITEM@@@std@@PEAX@std@@SAXAEAV?$allocator@U?$_Tree_node@U?$pair@$$CBV?$basic_string@_WU?$char_traits@_W@std@@V?$allocator@_W@2@@std@@PEAU_TREEITEM@@@std@@PEAX@std@@@1@PEAU01@@Z 000000014000cde0 f i Shell.cpp.obj
 0001:0000bdf0       ??$_Freenode@V?$allocator@U?$_List_node@U?$pair@QEAVITool@ith@@V?$unique_ptr@VToolView@ith@@U?$default_delete@VToolView@ith@@@std@@@std@@@std@@PEAX@std@@@std@@@?$_List_node@U?$pair@QEAVITool@ith@@V?$unique_ptr@VToolView@ith@@U?$default_delete@VToolView@ith@@@std@@@std@@@std@@PEAX@std@@SAXAEAV?$allocator@U?$_List_node@U?$pair@QEAVITool@ith@@V?$unique_ptr@VToolView@ith@@U?$default_delete@VToolView@ith@@@std@@@std@@@std@@PEAX@std@@@1@PEAU01@@Z 000000014000cdf0 f i Shell.cpp.obj
 0001:0000be30       ??$_Freenode@V?$allocator@U?$_Tree_node@U?$pair@$$CBV?$basic_string@_WU?$char_traits@_W@std@@V?$allocator@_W@2@@std@@PEAU_TREEITEM@@@std@@PEAX@std@@@std@@@?$_Tree_node@U?$pair@$$CBV?$basic_string@_WU?$char_traits@_W@std@@V?$allocator@_W@2@@std@@PEAU_TREEITEM@@@std@@PEAX@std@@SAXAEAV?$allocator@U?$_Tree_node@U?$pair@$$CBV?$basic_string@_WU?$char_traits@_W@std@@V?$allocator@_W@2@@std@@PEAU_TREEITEM@@@std@@PEAX@std@@@1@PEAU01@@Z 000000014000ce30 f i Shell.cpp.obj
 0001:0000be60       ??$_Get_proxy_allocator@V?$allocator@U?$_List_node@U?$pair@QEAVITool@ith@@V?$unique_ptr@VToolView@ith@@U?$default_delete@VToolView@ith@@@std@@@std@@@std@@PEAX@std@@@std@@@std@@YA?AU_Fake_allocator@0@AEBV?$allocator@U?$_List_node@U?$pair@QEAVITool@ith@@V?$unique_ptr@VToolView@ith@@U?$default_delete@VToolView@ith@@@std@@@std@@@std@@PEAX@std@@@0@@Z 000000014000ce60 f i Shell.cpp.obj
 0001:0000be70       ??$_Get_proxy_allocator@V?$allocator@U?$_Tree_node@U?$pair@$$CBV?$basic_string@_WU?$char_traits@_W@std@@V?$allocator@_W@2@@std@@PEAU_TREEITEM@@@std@@PEAX@std@@@std@@@std@@YA?AU_Fake_allocator@0@AEBV?$allocator@U?$_Tree_node@U?$pair@$$CBV?$basic_string@_WU?$char_traits@_W@std@@V?$allocator@_W@2@@std@@PEAU_TREEITEM@@@std@@PEAX@std@@@0@@Z 000000014000ce70 f i Shell.cpp.obj
 0001:0000be80       ??$_Get_proxy_allocator@V?$allocator@V?$_List_unchecked_iterator@V?$_List_val@U?$_List_simple_types@U?$pair@QEAVITool@ith@@V?$unique_ptr@VToolView@ith@@U?$default_delete@VToolView@ith@@@std@@@std@@@std@@@std@@@std@@@std@@@std@@@std@@YA?AU_Fake_allocator@0@AEBV?$allocator@V?$_List_unchecked_iterator@V?$_List_val@U?$_List_simple_types@U?$pair@QEAVITool@ith@@V?$unique_ptr@VToolView@ith@@U?$default_delete@VToolView@ith@@@std@@@std@@@std@@@std@@@std@@@std@@@0@@Z 000000014000ce80 f i Shell.cpp.obj
 0001:0000be90       ??$_Get_proxy_allocator@V?$allocator@V?$unique_ptr@VITool@ith@@U?$default_delete@VITool@ith@@@std@@@std@@@std@@@std@@YA?AU_Fake_allocator@0@AEBV?$allocator@V?$unique_ptr@VITool@ith@@U?$default_delete@VITool@ith@@@std@@@std@@@0@@Z 000000014000ce90 f i Shell.cpp.obj
 0001:0000bea0       ??$_Get_proxy_allocator@V?$allocator@_W@std@@@std@@YA?AU_Fake_allocator@0@AEBV?$allocator@_W@0@@Z 000000014000cea0 f i Shell.cpp.obj
 0001:0000beb0       ??$_Get_size_of_n@$01@std@@YA_K_K@Z 000000014000ceb0 f i Shell.cpp.obj
 0001:0000bee0       ??$_Get_size_of_n@$07@std@@YA_K_K@Z 000000014000cee0 f i Shell.cpp.obj
 0001:0000bf10       ??$_Get_size_of_n@$0CA@@std@@YA_K_K@Z 000000014000cf10 f i Shell.cpp.obj
 0001:0000bf40       ??$_Get_size_of_n@$0EI@@std@@YA_K_K@Z 000000014000cf40 f i Shell.cpp.obj
 0001:0000bf70       ??$_Get_unwrapped@AEBQEAV?$_List_unchecked_iterator@V?$_List_val@U?$_List_simple_types@U?$pair@QEAVITool@ith@@V?$unique_ptr@VToolView@ith@@U?$default_delete@VToolView@ith@@@std@@@std@@@std@@@std@@@std@@@std@@@std@@YA?A_TAEBQEAV?$_List_unchecked_iterator@V?$_List_val@U?$_List_simple_types@U?$pair@QEAVITool@ith@@V?$unique_ptr@VToolView@ith@@U?$default_delete@VToolView@ith@@@std@@@std@@@std@@@std@@@std@@@0@@Z 000000014000cf70 f i Shell.cpp.obj
 0001:0000bf80       ??$_Get_unwrapped@AEBQEAV?$unique_ptr@VITool@ith@@U?$default_delete@VITool@ith@@@std@@@std@@@std@@YA?A_TAEBQEAV?$unique_ptr@VITool@ith@@U?$default_delete@VITool@ith@@@std@@@0@@Z 000000014000cf80 f i Shell.cpp.obj
 0001:0000bf90       ??$_Hash_representation@PEAVITool@ith@@@std@@YA_KAEBQEAVITool@ith@@@Z 000000014000cf90 f i Shell.cpp.obj
 0001:0000bfb0       ??$_Kfn@$$CBV?$basic_string@_WU?$char_traits@_W@std@@V?$allocator@_W@2@@std@@PEAU_TREEITEM@@@?$_Tmap_traits@V?$basic_string@_WU?$char_traits@_W@std@@V?$allocator@_W@2@@std@@PEAU_TREEITEM@@U?$less@V?$basic_string@_WU?$char_traits@_W@std@@V?$allocator@_W@2@@std@@@2@V?$allocator@U?$pair@$$CBV?$basic_string@_WU?$char_traits@_W@std@@V?$allocator@_W@2@@std@@PEAU_TREEITEM@@@std@@@2@$0A@@std@@SAAEBV?$basic_string@_WU?$char_traits@_W@std@@V?$allocator@_W@2@@1@AEBU?$pair@$$CBV?$basic_string@_WU?$char_traits@_W@std@@V?$allocator@_W@2@@std@@PEAU_TREEITEM@@@1@@Z 000000014000cfb0 f i Shell.cpp.obj
 0001:0000bfc0       ??$_Kfn@QEAVITool@ith@@V?$unique_ptr@VToolView@ith@@U?$default_delete@VToolView@ith@@@std@@@std@@@?$_Umap_traits@PEAVITool@ith@@V?$unique_ptr@VToolView@ith@@U?$default_delete@VToolView@ith@@@std@@@std@@V?$_Uhash_compare@PEAVITool@ith@@U?$hash@PEAVITool@ith@@@std@@U?$equal_to@PEAVITool@ith@@@4@@4@V?$allocator@U?$pair@QEAVITool@ith@@V?$unique_ptr@VToolView@ith@@U?$default_delete@VToolView@ith@@@std@@@std@@@std@@@4@$0A@@std@@SAAEBQEAVITool@ith@@AEBU?$pair@QEAVITool@ith@@V?$unique_ptr@VToolView@ith@@U?$default_delete@VToolView@ith@@@std@@@std@@@1@@Z 000000014000cfc0 f i Shell.cpp.obj
 0001:0000bfd0       ??$_Lower_bound_duplicate@V?$basic_string@_WU?$char_traits@_W@std@@V?$allocator@_W@2@@std@@@?$_Tree@V?$_Tmap_traits@V?$basic_string@_WU?$char_traits@_W@std@@V?$allocator@_W@2@@std@@PEAU_TREEITEM@@U?$less@V?$basic_string@_WU?$char_traits@_W@std@@V?$allocator@_W@2@@std@@@2@V?$allocator@U?$pair@$$CBV?$basic_string@_WU?$char_traits@_W@std@@V?$allocator@_W@2@@std@@PEAU_TREEITEM@@@std@@@2@$0A@@std@@@std@@IEBA_NQEAU?$_Tree_node@U?$pair@$$CBV?$basic_string@_WU?$char_traits@_W@std@@V?$allocator@_W@2@@std@@PEAU_TREEITEM@@@std@@PEAX@1@AEBV?$basic_string@_WU?$char_traits@_W@std@@V?$allocator@_W@2@@1@@Z 000000014000cfd0 f i Shell.cpp.obj
 0001:0000c010       ??$_Max_limit@_J@std@@YA_JXZ 000000014000d010 f i Shell.cpp.obj
 0001:0000c020       ??$_Mismatch_vectorized@$01@std@@YA_KQEBX0_K@Z 000000014000d020 f i Shell.cpp.obj
 0001:0000c030       ??$_Pocma@V?$allocator@V?$unique_ptr@VITool@ith@@U?$default_delete@VITool@ith@@@std@@@std@@@std@@@std@@YAXAEAV?$allocator@V?$unique_ptr@VITool@ith@@U?$default_delete@VITool@ith@@@std@@@std@@@0@0@Z 000000014000d030 f i Shell.cpp.obj
 0001:0000c040       ??$_Traits_compare@U?$char_traits@_W@std@@@std@@YAHQEB_W_K01@Z 000000014000d040 f i Shell.cpp.obj
 0001:0000c0e0       ??$_Traits_copy_batch@U?$char_traits@_W@std@@_W@std@@YAXQEA_WQEB_W_K@Z 000000014000d0e0 f i Shell.cpp.obj
 0001:0000c0f0       ??$_Try_emplace@AEBV?$basic_string@_WU?$char_traits@_W@std@@V?$allocator@_W@2@@std@@$$V@?$map@V?$basic_string@_WU?$char_traits@_W@std@@V?$allocator@_W@2@@std@@PEAU_TREEITEM@@U?$less@V?$basic_string@_WU?$char_traits@_W@std@@V?$allocator@_W@2@@std@@@2@V?$allocator@U?$pair@$$CBV?$basic_string@_WU?$char_traits@_W@std@@V?$allocator@_W@2@@std@@PEAU_TREEITEM@@@std@@@2@@std@@AEAA?AU?$pair@PEAU?$_Tree_node@U?$pair@$$CBV?$basic_string@_WU?$char_traits@_W@std@@V?$allocator@_W@2@@std@@PEAU_TREEITEM@@@std@@PEAX@std@@_N@1@AEBV?$basic_string@_WU?$char_traits@_W@std@@V?$allocator@_W@2@@1@@Z 000000014000d0f0 f i Shell.cpp.obj
 0001:0000c300       ??$_Tuple_get@$0A@AEBV?$basic_string@_WU?$char_traits@_W@std@@V?$allocator@_W@2@@std@@@std@@YA$$QEA_P$$QEAV?$tuple@AEBV?$basic_string@_WU?$char_traits@_W@std@@V?$allocator@_W@2@@std@@@0@@Z 000000014000d300 f i Shell.cpp.obj
 0001:0000c310       ??$_Unfancy@V?$unique_ptr@VITool@ith@@U?$default_delete@VITool@ith@@@std@@@std@@@std@@YAPEAV?$unique_ptr@VITool@ith@@U?$default_delete@VITool@ith@@@std@@@0@PEAV10@@Z 000000014000d310 f i Shell.cpp.obj
 0001:0000c320       ??$_Unfancy@_W@std@@YAPEA_WPEA_W@Z 000000014000d320 f i Shell.cpp.obj
 0001:0000c330       ??$_Unfancy_maybe_null@V?$unique_ptr@VITool@ith@@U?$default_delete@VITool@ith@@@std@@@std@@@std@@YAPEAV?$unique_ptr@VITool@ith@@U?$default_delete@VITool@ith@@@std@@@0@PEAV10@@Z 000000014000d330 f i Shell.cpp.obj
 0001:0000c340       ??$_Uninitialized_move@PEAV?$unique_ptr@VITool@ith@@U?$default_delete@VITool@ith@@@std@@@std@@V?$allocator@V?$unique_ptr@VITool@ith@@U?$default_delete@VITool@ith@@@std@@@std@@@2@@std@@YAPEAV?$unique_ptr@VITool@ith@@U?$default_delete@VITool@ith@@@std@@@0@QEAV10@0PEAV10@AEAV?$allocator@V?$unique_ptr@VITool@ith@@U?$default_delete@VITool@ith@@@std@@@std@@@0@@Z 000000014000d340 f i Shell.cpp.obj
 0001:0000c370       ??$addressof@$$CBV?$_List_val@U?$_List_simple_types@U?$pair@QEAVITool@ith@@V?$unique_ptr@VToolView@ith@@U?$default_delete@VToolView@ith@@@std@@@std@@@std@@@std@@@std@@@std@@YAPEBV?$_List_val@U?$_List_simple_types@U?$pair@QEAVITool@ith@@V?$unique_ptr@VToolView@ith@@U?$default_delete@VToolView@ith@@@std@@@std@@@std@@@std@@@0@AEBV10@@Z 000000014000d370 f i Shell.cpp.obj
 0001:0000c380       ??$addressof@$$CBV?$_Tree_val@U?$_Tree_simple_types@U?$pair@$$CBV?$basic_string@_WU?$char_traits@_W@std@@V?$allocator@_W@2@@std@@PEAU_TREEITEM@@@std@@@std@@@std@@@std@@YAPEBV?$_Tree_val@U?$_Tree_simple_types@U?$pair@$$CBV?$basic_string@_WU?$char_traits@_W@std@@V?$allocator@_W@2@@std@@PEAU_TREEITEM@@@std@@@std@@@0@AEBV10@@Z 000000014000d380 f i Shell.cpp.obj
 0001:0000c390       ??$addressof@PEAU?$_List_node@U?$pair@QEAVITool@ith@@V?$unique_ptr@VToolView@ith@@U?$default_delete@VToolView@ith@@@std@@@std@@@std@@PEAX@std@@@std@@YAPEAPEAU?$_List_node@U?$pair@QEAVITool@ith@@V?$unique_ptr@VToolView@ith@@U?$default_delete@VToolView@ith@@@std@@@std@@@std@@PEAX@0@AEAPEAU10@@Z 000000014000d390 f i Shell.cpp.obj
 0001:0000c3a0       ??$addressof@PEAU?$_Tree_node@U?$pair@$$CBV?$basic_string@_WU?$char_traits@_W@std@@V?$allocator@_W@2@@std@@PEAU_TREEITEM@@@std@@PEAX@std@@@std@@YAPEAPEAU?$_Tree_node@U?$pair@$$CBV?$basic_string@_WU?$char_traits@_W@std@@V?$allocator@_W@2@@std@@PEAU_TREEITEM@@@std@@PEAX@0@AEAPEAU10@@Z 000000014000d3a0 f i Shell.cpp.obj
 0001:0000c3b0       ??$addressof@PEA_W@std@@YAPEAPEA_WAEAPEA_W@Z 000000014000d3b0 f i Shell.cpp.obj
 0001:0000c3c0       ??$addressof@U?$pair@$$CBV?$basic_string@_WU?$char_traits@_W@std@@V?$allocator@_W@2@@std@@PEAU_TREEITEM@@@std@@@std@@YAPEAU?$pair@$$CBV?$basic_string@_WU?$char_traits@_W@std@@V?$allocator@_W@2@@std@@PEAU_TREEITEM@@@0@AEAU10@@Z 000000014000d3c0 f i Shell.cpp.obj
 0001:0000c3d0       ??$addressof@U?$pair@QEAVITool@ith@@V?$unique_ptr@VToolView@ith@@U?$default_delete@VToolView@ith@@@std@@@std@@@std@@@std@@YAPEAU?$pair@QEAVITool@ith@@V?$unique_ptr@VToolView@ith@@U?$default_delete@VToolView@ith@@@std@@@std@@@0@AEAU10@@Z 000000014000d3d0 f i Shell.cpp.obj
 0001:0000c3e0       ??$addressof@V?$_List_unchecked_iterator@V?$_List_val@U?$_List_simple_types@U?$pair@QEAVITool@ith@@V?$unique_ptr@VToolView@ith@@U?$default_delete@VToolView@ith@@@std@@@std@@@std@@@std@@@std@@@std@@@std@@YAPEAV?$_List_unchecked_iterator@V?$_List_val@U?$_List_simple_types@U?$pair@QEAVITool@ith@@V?$unique_ptr@VToolView@ith@@U?$default_delete@VToolView@ith@@@std@@@std@@@std@@@std@@@std@@@0@AEAV10@@Z 000000014000d3e0 f i Shell.cpp.obj
 0001:0000c3f0       ??$addressof@V?$_List_val@U?$_List_simple_types@U?$pair@QEAVITool@ith@@V?$unique_ptr@VToolView@ith@@U?$default_delete@VToolView@ith@@@std@@@std@@@std@@@std@@@std@@@std@@YAPEAV?$_List_val@U?$_List_simple_types@U?$pair@QEAVITool@ith@@V?$unique_ptr@VToolView@ith@@U?$default_delete@VToolView@ith@@@std@@@std@@@std@@@std@@@0@AEAV10@@Z 000000014000d3f0 f i Shell.cpp.obj
 0001:0000c400       ??$addressof@V?$_Tree_val@U?$_Tree_simple_types@U?$pair@$$CBV?$basic_string@_WU?$char_traits@_W@std@@V?$allocator@_W@2@@std@@PEAU_TREEITEM@@@std@@@std@@@std@@@std@@YAPEAV?$_Tree_val@U?$_Tree_simple_types@U?$pair@$$CBV?$basic_string@_WU?$char_traits@_W@std@@V?$allocator@_W@2@@std@@PEAU_TREEITEM@@@std@@@std@@@0@AEAV10@@Z 000000014000d400 f i Shell.cpp.obj
 0001:0000c410       ??$addressof@V?$unique_ptr@VITool@ith@@U?$default_delete@VITool@ith@@@std@@@std@@@std@@YAPEAV?$unique_ptr@VITool@ith@@U?$default_delete@VITool@ith@@@std@@@0@AEAV10@@Z 000000014000d410 f i Shell.cpp.obj
 0001:0000c420       ??$addressof@V?$vector@V?$unique_ptr@VITool@ith@@U?$default_delete@VITool@ith@@@std@@@std@@V?$allocator@V?$unique_ptr@VITool@ith@@U?$default_delete@VITool@ith@@@std@@@std@@@2@@std@@@std@@YAPEAV?$vector@V?$unique_ptr@VITool@ith@@U?$default_delete@VITool@ith@@@std@@@std@@V?$allocator@V?$unique_ptr@VITool@ith@@U?$default_delete@VITool@ith@@@std@@@std@@@2@@0@AEAV10@@Z 000000014000d420 f i Shell.cpp.obj
 0001:0000c430       ??$construct@U?$pair@$$CBV?$basic_string@_WU?$char_traits@_W@std@@V?$allocator@_W@2@@std@@PEAU_TREEITEM@@@std@@AEBUpiecewise_construct_t@2@V?$tuple@AEBV?$basic_string@_WU?$char_traits@_W@std@@V?$allocator@_W@2@@std@@@2@V?$tuple@$$V@2@@?$_Default_allocator_traits@V?$allocator@U?$_Tree_node@U?$pair@$$CBV?$basic_string@_WU?$char_traits@_W@std@@V?$allocator@_W@2@@std@@PEAU_TREEITEM@@@std@@PEAX@std@@@std@@@std@@SAXAEAV?$allocator@U?$_Tree_node@U?$pair@$$CBV?$basic_string@_WU?$char_traits@_W@std@@V?$allocator@_W@2@@std@@PEAU_TREEITEM@@@std@@PEAX@std@@@1@QEAU?$pair@$$CBV?$basic_string@_WU?$char_traits@_W@std@@V?$allocator@_W@2@@std@@PEAU_TREEITEM@@@1@AEBUpiecewise_construct_t@1@$$QEAV?$tuple@AEBV?$basic_string@_WU?$char_traits@_W@std@@V?$allocator@_W@2@@std@@@1@$$QEAV?$tuple@$$V@1@@Z 000000014000d430 f i Shell.cpp.obj
 0001:0000c580       ??$construct@U?$pair@QEAVITool@ith@@V?$unique_ptr@VToolView@ith@@U?$default_delete@VToolView@ith@@@std@@@std@@@std@@AEAPEAVITool@ith@@V?$unique_ptr@VToolView@ith@@U?$default_delete@VToolView@ith@@@std@@@2@@?$_Default_allocator_traits@V?$allocator@U?$_List_node@U?$pair@QEAVITool@ith@@V?$unique_ptr@VToolView@ith@@U?$default_delete@VToolView@ith@@@std@@@std@@@std@@PEAX@std@@@std@@@std@@SAXAEAV?$allocator@U?$_List_node@U?$pair@QEAVITool@ith@@V?$unique_ptr@VToolView@ith@@U?$default_delete@VToolView@ith@@@std@@@std@@@std@@PEAX@std@@@1@QEAU?$pair@QEAVITool@ith@@V?$unique_ptr@VToolView@ith@@U?$default_delete@VToolView@ith@@@std@@@std@@@1@AEAPEAVITool@ith@@$$QEAV?$unique_ptr@VToolView@ith@@U?$default_delete@VToolView@ith@@@std@@@1@@Z 000000014000d580 f i Shell.cpp.obj
 0001:0000c5a0       ??$construct@V?$unique_ptr@VITool@ith@@U?$default_delete@VITool@ith@@@std@@@std@@V12@@?$_Default_allocator_traits@V?$allocator@V?$unique_ptr@VITool@ith@@U?$default_delete@VITool@ith@@@std@@@std@@@std@@@std@@SAXAEAV?$allocator@V?$unique_ptr@VITool@ith@@U?$default_delete@VITool@ith@@@std@@@std@@@1@QEAV?$unique_ptr@VITool@ith@@U?$default_delete@VITool@ith@@@std@@@1@$$QEAV31@@Z 000000014000d5a0 f i Shell.cpp.obj
 0001:0000c5c0       ??$construct_at@PEAU?$_List_node@U?$pair@QEAVITool@ith@@V?$unique_ptr@VToolView@ith@@U?$default_delete@VToolView@ith@@@std@@@std@@@std@@PEAX@std@@AEAPEAU12@@std@@YAPEAPEAU?$_List_node@U?$pair@QEAVITool@ith@@V?$unique_ptr@VToolView@ith@@U?$default_delete@VToolView@ith@@@std@@@std@@@std@@PEAX@0@QEAPEAU10@AEAPEAU10@@Z 000000014000d5c0 f i Shell.cpp.obj
 0001:0000c5d0       ??$construct_at@PEAU?$_List_node@U?$pair@QEAVITool@ith@@V?$unique_ptr@VToolView@ith@@U?$default_delete@VToolView@ith@@@std@@@std@@@std@@PEAX@std@@AEBQEAU12@@std@@YAPEAPEAU?$_List_node@U?$pair@QEAVITool@ith@@V?$unique_ptr@VToolView@ith@@U?$default_delete@VToolView@ith@@@std@@@std@@@std@@PEAX@0@QEAPEAU10@AEBQEAU10@@Z 000000014000d5d0 f i Shell.cpp.obj
 0001:0000c5e0       ??$construct_at@PEAU?$_Tree_node@U?$pair@$$CBV?$basic_string@_WU?$char_traits@_W@std@@V?$allocator@_W@2@@std@@PEAU_TREEITEM@@@std@@PEAX@std@@AEAPEAU12@@std@@YAPEAPEAU?$_Tree_node@U?$pair@$$CBV?$basic_string@_WU?$char_traits@_W@std@@V?$allocator@_W@2@@std@@PEAU_TREEITEM@@@std@@PEAX@0@QEAPEAU10@AEAPEAU10@@Z 000000014000d5e0 f i Shell.cpp.obj
 0001:0000c5f0       ??$construct_at@PEAU?$_Tree_node@U?$pair@$$CBV?$basic_string@_WU?$char_traits@_W@std@@V?$allocator@_W@2@@std@@PEAU_TREEITEM@@@std@@PEAX@std@@AEBQEAU12@@std@@YAPEAPEAU?$_Tree_node@U?$pair@$$CBV?$basic_string@_WU?$char_traits@_W@std@@V?$allocator@_W@2@@std@@PEAU_TREEITEM@@@std@@PEAX@0@QEAPEAU10@AEBQEAU10@@Z 000000014000d5f0 f i Shell.cpp.obj
 0001:0000c600       ??$construct_at@PEA_WAEBQEA_W@std@@YAPEAPEA_WQEAPEA_WAEBQEA_W@Z 000000014000d600 f i Shell.cpp.obj
 0001:0000c610       ??$construct_at@U?$pair@$$CBV?$basic_string@_WU?$char_traits@_W@std@@V?$allocator@_W@2@@std@@PEAU_TREEITEM@@@std@@AEBUpiecewise_construct_t@2@V?$tuple@AEBV?$basic_string@_WU?$char_traits@_W@std@@V?$allocator@_W@2@@std@@@2@V?$tuple@$$V@2@@std@@YAPEAU?$pair@$$CBV?$basic_string@_WU?$char_traits@_W@std@@V?$allocator@_W@2@@std@@PEAU_TREEITEM@@@0@QEAU10@AEBUpiecewise_construct_t@0@$$QEAV?$tuple@AEBV?$basic_string@_WU?$char_traits@_W@std@@V?$allocator@_W@2@@std@@@0@$$QEAV?$tuple@$$V@0@@Z 000000014000d610 f i Shell.cpp.obj
 0001:0000c760       ??$construct_at@U?$pair@QEAVITool@ith@@V?$unique_ptr@VToolView@ith@@U?$default_delete@VToolView@ith@@@std@@@std@@@std@@AEAPEAVITool@ith@@V?$unique_ptr@VToolView@ith@@U?$default_delete@VToolView@ith@@@std@@@2@@std@@YAPEAU?$pair@QEAVITool@ith@@V?$unique_ptr@VToolView@ith@@U?$default_delete@VToolView@ith@@@std@@@std@@@0@QEAU10@AEAPEAVITool@ith@@$$QEAV?$unique_ptr@VToolView@ith@@U?$default_delete@VToolView@ith@@@std@@@0@@Z 000000014000d760 f i Shell.cpp.obj
 0001:0000c780       ??$construct_at@V?$_List_unchecked_iterator@V?$_List_val@U?$_List_simple_types@U?$pair@QEAVITool@ith@@V?$unique_ptr@VToolView@ith@@U?$default_delete@VToolView@ith@@@std@@@std@@@std@@@std@@@std@@@std@@AEBV12@@std@@YAPEAV?$_List_unchecked_iterator@V?$_List_val@U?$_List_simple_types@U?$pair@QEAVITool@ith@@V?$unique_ptr@VToolView@ith@@U?$default_delete@VToolView@ith@@@std@@@std@@@std@@@std@@@std@@@0@QEAV10@AEBV10@@Z 000000014000d780 f i Shell.cpp.obj
 0001:0000c790       ??$construct_at@V?$unique_ptr@VITool@ith@@U?$default_delete@VITool@ith@@@std@@@std@@V12@@std@@YAPEAV?$unique_ptr@VITool@ith@@U?$default_delete@VITool@ith@@@std@@@0@QEAV10@$$QEAV10@@Z 000000014000d790 f i Shell.cpp.obj
 0001:0000c7b0       ??$construct_at@_W$$V@std@@YAPEA_WQEA_W@Z 000000014000d7b0 f i Shell.cpp.obj
 0001:0000c7c0       ??$destroy@U?$pair@$$CBV?$basic_string@_WU?$char_traits@_W@std@@V?$allocator@_W@2@@std@@PEAU_TREEITEM@@@std@@@?$_Default_allocator_traits@V?$allocator@U?$_Tree_node@U?$pair@$$CBV?$basic_string@_WU?$char_traits@_W@std@@V?$allocator@_W@2@@std@@PEAU_TREEITEM@@@std@@PEAX@std@@@std@@@std@@SAXAEAV?$allocator@U?$_Tree_node@U?$pair@$$CBV?$basic_string@_WU?$char_traits@_W@std@@V?$allocator@_W@2@@std@@PEAU_TREEITEM@@@std@@PEAX@std@@@1@QEAU?$pair@$$CBV?$basic_string@_WU?$char_traits@_W@std@@V?$allocator@_W@2@@std@@PEAU_TREEITEM@@@1@@Z 000000014000d7c0 f i Shell.cpp.obj
 0001:0000c7d0       ??$destroy@U?$pair@QEAVITool@ith@@V?$unique_ptr@VToolView@ith@@U?$default_delete@VToolView@ith@@@std@@@std@@@std@@@?$_Default_allocator_traits@V?$allocator@U?$_List_node@U?$pair@QEAVITool@ith@@V?$unique_ptr@VToolView@ith@@U?$default_delete@VToolView@ith@@@std@@@std@@@std@@PEAX@std@@@std@@@std@@SAXAEAV?$allocator@U?$_List_node@U?$pair@QEAVITool@ith@@V?$unique_ptr@VToolView@ith@@U?$default_delete@VToolView@ith@@@std@@@std@@@std@@PEAX@std@@@1@QEAU?$pair@QEAVITool@ith@@V?$unique_ptr@VToolView@ith@@U?$default_delete@VToolView@ith@@@std@@@std@@@1@@Z 000000014000d7d0 f i Shell.cpp.obj
 0001:0000c7f0       ??$destroy@V?$unique_ptr@VITool@ith@@U?$default_delete@VITool@ith@@@std@@@std@@@?$_Default_allocator_traits@V?$allocator@V?$unique_ptr@VITool@ith@@U?$default_delete@VITool@ith@@@std@@@std@@@std@@@std@@SAXAEAV?$allocator@V?$unique_ptr@VITool@ith@@U?$default_delete@VITool@ith@@@std@@@std@@@1@QEAV?$unique_ptr@VITool@ith@@U?$default_delete@VITool@ith@@@std@@@1@@Z 000000014000d7f0 f i Shell.cpp.obj
 0001:0000c810       ??$destroy_at@U?$pair@$$CBV?$basic_string@_WU?$char_traits@_W@std@@V?$allocator@_W@2@@std@@PEAU_TREEITEM@@@std@@@std@@YAXQEAU?$pair@$$CBV?$basic_string@_WU?$char_traits@_W@std@@V?$allocator@_W@2@@std@@PEAU_TREEITEM@@@0@@Z 000000014000d810 f i Shell.cpp.obj
 0001:0000c820       ??$destroy_at@U?$pair@QEAVITool@ith@@V?$unique_ptr@VToolView@ith@@U?$default_delete@VToolView@ith@@@std@@@std@@@std@@@std@@YAXQEAU?$pair@QEAVITool@ith@@V?$unique_ptr@VToolView@ith@@U?$default_delete@VToolView@ith@@@std@@@std@@@0@@Z 000000014000d820 f i Shell.cpp.obj
 0001:0000c840       ??$destroy_at@V?$unique_ptr@VITool@ith@@U?$default_delete@VITool@ith@@@std@@@std@@@std@@YAXQEAV?$unique_ptr@VITool@ith@@U?$default_delete@VITool@ith@@@std@@@0@@Z 000000014000d840 f i Shell.cpp.obj
 0001:0000c860       ??$emplace@AEAPEAVITool@ith@@V?$unique_ptr@VToolView@ith@@U?$default_delete@VToolView@ith@@@std@@@std@@@?$_Hash@V?$_Umap_traits@PEAVITool@ith@@V?$unique_ptr@VToolView@ith@@U?$default_delete@VToolView@ith@@@std@@@std@@V?$_Uhash_compare@PEAVITool@ith@@U?$hash@PEAVITool@ith@@@std@@U?$equal_to@PEAVITool@ith@@@4@@4@V?$allocator@U?$pair@QEAVITool@ith@@V?$unique_ptr@VToolView@ith@@U?$default_delete@VToolView@ith@@@std@@@std@@@std@@@4@$0A@@std@@@std@@QEAA?AU?$pair@V?$_List_iterator@V?$_List_val@U?$_List_simple_types@U?$pair@QEAVITool@ith@@V?$unique_ptr@VToolView@ith@@U?$default_delete@VToolView@ith@@@std@@@std@@@std@@@std@@@std@@@std@@_N@1@AEAPEAVITool@ith@@$$QEAV?$unique_ptr@VToolView@ith@@U?$default_delete@VToolView@ith@@@std@@@1@@Z 000000014000d860 f i Shell.cpp.obj
 0001:0000cb60       ??$exchange@PEAU?$_List_node@U?$pair@QEAVITool@ith@@V?$unique_ptr@VToolView@ith@@U?$default_delete@VToolView@ith@@@std@@@std@@@std@@PEAX@std@@$$T@std@@YAPEAU?$_List_node@U?$pair@QEAVITool@ith@@V?$unique_ptr@VToolView@ith@@U?$default_delete@VToolView@ith@@@std@@@std@@@std@@PEAX@0@AEAPEAU10@$$QEA$$T@Z 000000014000db60 f i Shell.cpp.obj
 0001:0000cb70       ??$exchange@PEAU?$_Tree_node@U?$pair@$$CBV?$basic_string@_WU?$char_traits@_W@std@@V?$allocator@_W@2@@std@@PEAU_TREEITEM@@@std@@PEAX@std@@$$T@std@@YAPEAU?$_Tree_node@U?$pair@$$CBV?$basic_string@_WU?$char_traits@_W@std@@V?$allocator@_W@2@@std@@PEAU_TREEITEM@@@std@@PEAX@0@AEAPEAU10@$$QEA$$T@Z 000000014000db70 f i Shell.cpp.obj
 0001:0000cb80       ??$exchange@PEAU?$_Tree_node@U?$pair@$$CBV?$basic_string@_WU?$char_traits@_W@std@@V?$allocator@_W@2@@std@@PEAU_TREEITEM@@@std@@PEAX@std@@AEAPEAU12@@std@@YAPEAU?$_Tree_node@U?$pair@$$CBV?$basic_string@_WU?$char_traits@_W@std@@V?$allocator@_W@2@@std@@PEAU_TREEITEM@@@std@@PEAX@0@AEAPEAU10@0@Z 000000014000db80 f i Shell.cpp.obj
 0001:0000cb90       ??$exchange@PEAV?$unique_ptr@VITool@ith@@U?$default_delete@VITool@ith@@@std@@@std@@$$T@std@@YAPEAV?$unique_ptr@VITool@ith@@U?$default_delete@VITool@ith@@@std@@@0@AEAPEAV10@$$QEA$$T@Z 000000014000db90 f i Shell.cpp.obj
 0001:0000cba0       ??$exchange@PEAVAdQueryTool@ith@@$$T@std@@YAPEAVAdQueryTool@ith@@AEAPEAV12@$$QEA$$T@Z 000000014000dba0 f i Shell.cpp.obj
 0001:0000cbb0       ??$exchange@PEAVITool@ith@@$$T@std@@YAPEAVITool@ith@@AEAPEAV12@$$QEA$$T@Z 000000014000dbb0 f i Shell.cpp.obj
 0001:0000cbc0       ??$exchange@PEAVToolView@ith@@$$T@std@@YAPEAVToolView@ith@@AEAPEAV12@$$QEA$$T@Z 000000014000dbc0 f i Shell.cpp.obj
 0001:0000cbd0       ??$fill@PEAV?$_List_unchecked_iterator@V?$_List_val@U?$_List_simple_types@U?$pair@QEAVITool@ith@@V?$unique_ptr@VToolView@ith@@U?$default_delete@VToolView@ith@@@std@@@std@@@std@@@std@@@std@@@std@@V12@@std@@YAXQEAV?$_List_unchecked_iterator@V?$_List_val@U?$_List_simple_types@U?$pair@QEAVITool@ith@@V?$unique_ptr@VToolView@ith@@U?$default_delete@VToolView@ith@@@std@@@std@@@std@@@std@@@std@@@0@0AEBV10@@Z 000000014000dbd0 f i Shell.cpp.obj
 0001:0000cca0       ??$forward@AEAPEAU?$_List_node@U?$pair@QEAVITool@ith@@V?$unique_ptr@VToolView@ith@@U?$default_delete@VToolView@ith@@@std@@@std@@@std@@PEAX@std@@@std@@YAAEAPEAU?$_List_node@U?$pair@QEAVITool@ith@@V?$unique_ptr@VToolView@ith@@U?$default_delete@VToolView@ith@@@std@@@std@@@std@@PEAX@0@AEAPEAU10@@Z 000000014000dca0 f i Shell.cpp.obj
 0001:0000ccb0       ??$forward@AEAPEAU?$_Tree_node@U?$pair@$$CBV?$basic_string@_WU?$char_traits@_W@std@@V?$allocator@_W@2@@std@@PEAU_TREEITEM@@@std@@PEAX@std@@@std@@YAAEAPEAU?$_Tree_node@U?$pair@$$CBV?$basic_string@_WU?$char_traits@_W@std@@V?$allocator@_W@2@@std@@PEAU_TREEITEM@@@std@@PEAX@0@AEAPEAU10@@Z 000000014000dcb0 f i Shell.cpp.obj
 0001:0000ccc0       ??$forward@AEAPEAVAdQueryTool@ith@@@std@@YAAEAPEAVAdQueryTool@ith@@AEAPEAV12@@Z 000000014000dcc0 f i Shell.cpp.obj
 0001:0000ccd0       ??$forward@AEAPEAVITool@ith@@@std@@YAAEAPEAVITool@ith@@AEAPEAV12@@Z 000000014000dcd0 f i Shell.cpp.obj
 0001:0000cce0       ??$forward@AEBQEAU?$_List_node@U?$pair@QEAVITool@ith@@V?$unique_ptr@VToolView@ith@@U?$default_delete@VToolView@ith@@@std@@@std@@@std@@PEAX@std@@@std@@YAAEBQEAU?$_List_node@U?$pair@QEAVITool@ith@@V?$unique_ptr@VToolView@ith@@U?$default_delete@VToolView@ith@@@std@@@std@@@std@@PEAX@0@AEBQEAU10@@Z 000000014000dce0 f i Shell.cpp.obj
 0001:0000ccf0       ??$forward@AEBQEAU?$_Tree_node@U?$pair@$$CBV?$basic_string@_WU?$char_traits@_W@std@@V?$allocator@_W@2@@std@@PEAU_TREEITEM@@@std@@PEAX@std@@@std@@YAAEBQEAU?$_Tree_node@U?$pair@$$CBV?$basic_string@_WU?$char_traits@_W@std@@V?$allocator@_W@2@@std@@PEAU_TREEITEM@@@std@@PEAX@0@AEBQEAU10@@Z 000000014000dcf0 f i Shell.cpp.obj
 0001:0000cd00       ??$forward@AEBQEA_W@std@@YAAEBQEA_WAEBQEA_W@Z 000000014000dd00 f i Shell.cpp.obj
 0001:0000cd10       ??$forward@AEBU?$less@V?$basic_string@_WU?$char_traits@_W@std@@V?$allocator@_W@2@@std@@@std@@@std@@YAAEBU?$less@V?$basic_string@_WU?$char_traits@_W@std@@V?$allocator@_W@2@@std@@@0@AEBU10@@Z 000000014000dd10 f i Shell.cpp.obj
 0001:0000cd20       ??$forward@AEBUpiecewise_construct_t@std@@@std@@YAAEBUpiecewise_construct_t@0@AEBU10@@Z 000000014000dd20 f i Shell.cpp.obj
 0001:0000cd30       ??$forward@AEBV?$_List_unchecked_iterator@V?$_List_val@U?$_List_simple_types@U?$pair@QEAVITool@ith@@V?$unique_ptr@VToolView@ith@@U?$default_delete@VToolView@ith@@@std@@@std@@@std@@@std@@@std@@@std@@@std@@YAAEBV?$_List_unchecked_iterator@V?$_List_val@U?$_List_simple_types@U?$pair@QEAVITool@ith@@V?$unique_ptr@VToolView@ith@@U?$default_delete@VToolView@ith@@@std@@@std@@@std@@@std@@@std@@@0@AEBV10@@Z 000000014000dd30 f i Shell.cpp.obj
 0001:0000cd40       ??$forward@AEBV?$allocator@U?$pair@QEAVITool@ith@@V?$unique_ptr@VToolView@ith@@U?$default_delete@VToolView@ith@@@std@@@std@@@std@@@std@@@std@@YAAEBV?$allocator@U?$pair@QEAVITool@ith@@V?$unique_ptr@VToolView@ith@@U?$default_delete@VToolView@ith@@@std@@@std@@@std@@@0@AEBV10@@Z 000000014000dd40 f i Shell.cpp.obj
 0001:0000cd50       ??$forward@AEBV?$basic_string@_WU?$char_traits@_W@std@@V?$allocator@_W@2@@std@@@std@@YAAEBV?$basic_string@_WU?$char_traits@_W@std@@V?$allocator@_W@2@@0@AEBV10@@Z 000000014000dd50 f i Shell.cpp.obj
 0001:0000cd60       ??$forward@M@std@@YA$$QEAMAEAM@Z 000000014000dd60 f i Shell.cpp.obj
 0001:0000cd70       ??$forward@PEAU?$_Tree_node@U?$pair@$$CBV?$basic_string@_WU?$char_traits@_W@std@@V?$allocator@_W@2@@std@@PEAU_TREEITEM@@@std@@PEAX@std@@@std@@YA$$QEAPEAU?$_Tree_node@U?$pair@$$CBV?$basic_string@_WU?$char_traits@_W@std@@V?$allocator@_W@2@@std@@PEAU_TREEITEM@@@std@@PEAX@0@AEAPEAU10@@Z 000000014000dd70 f i Shell.cpp.obj
 0001:0000cd80       ??$forward@PEAV?$unique_ptr@VITool@ith@@U?$default_delete@VITool@ith@@@std@@@std@@@std@@YA$$QEAPEAV?$unique_ptr@VITool@ith@@U?$default_delete@VITool@ith@@@std@@@0@AEAPEAV10@@Z 000000014000dd80 f i Shell.cpp.obj
 0001:0000cd90       ??$forward@PEAVAdQueryTool@ith@@@std@@YA$$QEAPEAVAdQueryTool@ith@@AEAPEAV12@@Z 000000014000dd90 f i Shell.cpp.obj
 0001:0000cda0       ??$forward@PEAVITool@ith@@@std@@YA$$QEAPEAVITool@ith@@AEAPEAV12@@Z 000000014000dda0 f i Shell.cpp.obj
 0001:0000cdb0       ??$forward@PEAVToolView@ith@@@std@@YA$$QEAPEAVToolView@ith@@AEAPEAV12@@Z 000000014000ddb0 f i Shell.cpp.obj
 0001:0000cdc0       ??$forward@U?$default_delete@VAdQueryTool@ith@@@std@@@std@@YA$$QEAU?$default_delete@VAdQueryTool@ith@@@0@AEAU10@@Z 000000014000ddc0 f i Shell.cpp.obj
 0001:0000cdd0       ??$forward@U?$default_delete@VITool@ith@@@std@@@std@@YA$$QEAU?$default_delete@VITool@ith@@@0@AEAU10@@Z 000000014000ddd0 f i Shell.cpp.obj
 0001:0000cde0       ??$forward@U?$default_delete@VToolView@ith@@@std@@@std@@YA$$QEAU?$default_delete@VToolView@ith@@@0@AEAU10@@Z 000000014000dde0 f i Shell.cpp.obj
 0001:0000cdf0       ??$forward@U_Zero_then_variadic_args_t@std@@@std@@YA$$QEAU_Zero_then_variadic_args_t@0@AEAU10@@Z 000000014000ddf0 f i Shell.cpp.obj
 0001:0000ce00       ??$forward@V?$_List_iterator@V?$_List_val@U?$_List_simple_types@U?$pair@QEAVITool@ith@@V?$unique_ptr@VToolView@ith@@U?$default_delete@VToolView@ith@@@std@@@std@@@std@@@std@@@std@@@std@@@std@@YA$$QEAV?$_List_iterator@V?$_List_val@U?$_List_simple_types@U?$pair@QEAVITool@ith@@V?$unique_ptr@VToolView@ith@@U?$default_delete@VToolView@ith@@@std@@@std@@@std@@@std@@@std@@@0@AEAV10@@Z 000000014000de00 f i Shell.cpp.obj
 0001:0000ce10       ??$forward@V?$allocator@V?$unique_ptr@VITool@ith@@U?$default_delete@VITool@ith@@@std@@@std@@@std@@@std@@YA$$QEAV?$allocator@V?$unique_ptr@VITool@ith@@U?$default_delete@VITool@ith@@@std@@@std@@@0@AEAV10@@Z 000000014000de10 f i Shell.cpp.obj
 0001:0000ce20       ??$forward@V?$allocator@_W@std@@@std@@YA$$QEAV?$allocator@_W@0@AEAV10@@Z 000000014000de20 f i Shell.cpp.obj
 0001:0000ce30       ??$forward@V?$tuple@$$V@std@@@std@@YA$$QEAV?$tuple@$$V@0@AEAV10@@Z 000000014000de30 f i Shell.cpp.obj
 0001:0000ce40       ??$forward@V?$tuple@AEBV?$basic_string@_WU?$char_traits@_W@std@@V?$allocator@_W@2@@std@@@std@@@std@@YA$$QEAV?$tuple@AEBV?$basic_string@_WU?$char_traits@_W@std@@V?$allocator@_W@2@@std@@@0@AEAV10@@Z 000000014000de40 f i Shell.cpp.obj
 0001:0000ce50       ??$forward@V?$unique_ptr@VITool@ith@@U?$default_delete@VITool@ith@@@std@@@std@@@std@@YA$$QEAV?$unique_ptr@VITool@ith@@U?$default_delete@VITool@ith@@@std@@@0@AEAV10@@Z 000000014000de50 f i Shell.cpp.obj
 0001:0000ce60       ??$forward@V?$unique_ptr@VToolView@ith@@U?$default_delete@VToolView@ith@@@std@@@std@@@std@@YA$$QEAV?$unique_ptr@VToolView@ith@@U?$default_delete@VToolView@ith@@@std@@@0@AEAV10@@Z 000000014000de60 f i Shell.cpp.obj
 0001:0000ce70       ??$forward@_N@std@@YA$$QEA_NAEA_N@Z 000000014000de70 f i Shell.cpp.obj
 0001:0000ce80       ??$forward_as_tuple@$$V@std@@YA?AV?$tuple@$$V@0@XZ 000000014000de80 f i Shell.cpp.obj
 0001:0000ce90       ??$forward_as_tuple@AEBV?$basic_string@_WU?$char_traits@_W@std@@V?$allocator@_W@2@@std@@@std@@YA?AV?$tuple@AEBV?$basic_string@_WU?$char_traits@_W@std@@V?$allocator@_W@2@@std@@@0@AEBV?$basic_string@_WU?$char_traits@_W@std@@V?$allocator@_W@2@@0@@Z 000000014000de90 f i Shell.cpp.obj
 0001:0000cea0       ??$make_unique@VAdQueryTool@ith@@$$V$0A@@std@@YA?AV?$unique_ptr@VAdQueryTool@ith@@U?$default_delete@VAdQueryTool@ith@@@std@@@0@XZ 000000014000dea0 f i Shell.cpp.obj
 0001:0000cef0       ??$max@_K@std@@YAAEB_KAEB_K0@Z 000000014000def0 f i Shell.cpp.obj
 0001:0000cf10       ??$min@_K@std@@YAAEB_KAEB_K0@Z 000000014000df10 f i Shell.cpp.obj
 0001:0000cf30       ??$move@AEAV?$allocator@V?$unique_ptr@VITool@ith@@U?$default_delete@VITool@ith@@@std@@@std@@@std@@@std@@YA$$QEAV?$allocator@V?$unique_ptr@VITool@ith@@U?$default_delete@VITool@ith@@@std@@@std@@@0@AEAV10@@Z 000000014000df30 f i Shell.cpp.obj
 0001:0000cf40       ??$move@AEAV?$tuple@AEBV?$basic_string@_WU?$char_traits@_W@std@@V?$allocator@_W@2@@std@@@std@@@std@@YA$$QEAV?$tuple@AEBV?$basic_string@_WU?$char_traits@_W@std@@V?$allocator@_W@2@@std@@@0@AEAV10@@Z 000000014000df40 f i Shell.cpp.obj
 0001:0000cf50       ??$move@AEAV?$unique_ptr@VITool@ith@@U?$default_delete@VITool@ith@@@std@@@std@@@std@@YA$$QEAV?$unique_ptr@VITool@ith@@U?$default_delete@VITool@ith@@@std@@@0@AEAV10@@Z 000000014000df50 f i Shell.cpp.obj
 0001:0000cf60       ??$move@AEAV?$unique_ptr@VToolView@ith@@U?$default_delete@VToolView@ith@@@std@@@std@@@std@@YA$$QEAV?$unique_ptr@VToolView@ith@@U?$default_delete@VToolView@ith@@@std@@@0@AEAV10@@Z 000000014000df60 f i Shell.cpp.obj
 0001:0000cf70       ??$uninitialized_fill@PEAV?$_List_unchecked_iterator@V?$_List_val@U?$_List_simple_types@U?$pair@QEAVITool@ith@@V?$unique_ptr@VToolView@ith@@U?$default_delete@VToolView@ith@@@std@@@std@@@std@@@std@@@std@@@std@@V12@@std@@YAXQEAV?$_List_unchecked_iterator@V?$_List_val@U?$_List_simple_types@U?$pair@QEAVITool@ith@@V?$unique_ptr@VToolView@ith@@U?$default_delete@VToolView@ith@@@std@@@std@@@std@@@std@@@std@@@0@0AEBV10@@Z 000000014000df70 f i Shell.cpp.obj
 0001:0000cfa0       ??$wcscpy_s@$0CA@@@YAHAEAY0CA@_WPEB_W@Z 000000014000dfa0 f i Shell.cpp.obj
 0001:0000cfb0       ??0?$_Alloc_construct_ptr@V?$allocator@U?$_List_node@U?$pair@QEAVITool@ith@@V?$unique_ptr@VToolView@ith@@U?$default_delete@VToolView@ith@@@std@@@std@@@std@@PEAX@std@@@std@@@std@@QEAA@AEAV?$allocator@U?$_List_node@U?$pair@QEAVITool@ith@@V?$unique_ptr@VToolView@ith@@U?$default_delete@VToolView@ith@@@std@@@std@@@std@@PEAX@std@@@1@@Z 000000014000dfb0 f i Shell.cpp.obj
 0001:0000cfd0       ??0?$_Alloc_construct_ptr@V?$allocator@U?$_Tree_node@U?$pair@$$CBV?$basic_string@_WU?$char_traits@_W@std@@V?$allocator@_W@2@@std@@PEAU_TREEITEM@@@std@@PEAX@std@@@std@@@std@@QEAA@AEAV?$allocator@U?$_Tree_node@U?$pair@$$CBV?$basic_string@_WU?$char_traits@_W@std@@V?$allocator@_W@2@@std@@PEAU_TREEITEM@@@std@@PEAX@std@@@1@@Z 000000014000dfd0 f i Shell.cpp.obj
 0001:0000cff0       ??0?$_Hash@V?$_Umap_traits@PEAVITool@ith@@V?$unique_ptr@VToolView@ith@@U?$default_delete@VToolView@ith@@@std@@@std@@V?$_Uhash_compare@PEAVITool@ith@@U?$hash@PEAVITool@ith@@@std@@U?$equal_to@PEAVITool@ith@@@4@@4@V?$allocator@U?$pair@QEAVITool@ith@@V?$unique_ptr@VToolView@ith@@U?$default_delete@VToolView@ith@@@std@@@std@@@std@@@4@$0A@@std@@@std@@IEAA@AEBV?$_Uhash_compare@PEAVITool@ith@@U?$hash@PEAVITool@ith@@@std@@U?$equal_to@PEAVITool@ith@@@4@@1@AEBV?$allocator@U?$pair@QEAVITool@ith@@V?$unique_ptr@VToolView@ith@@U?$default_delete@VToolView@ith@@@std@@@std@@@std@@@1@@Z 000000014000dff0 f i Shell.cpp.obj
 0001:0000d160       ??0?$_List_const_iterator@V?$_List_val@U?$_List_simple_types@U?$pair@QEAVITool@ith@@V?$unique_ptr@VToolView@ith@@U?$default_delete@VToolView@ith@@@std@@@std@@@std@@@std@@@std@@@std@@QEAA@PEAU?$_List_node@U?$pair@QEAVITool@ith@@V?$unique_ptr@VToolView@ith@@U?$default_delete@VToolView@ith@@@std@@@std@@@std@@PEAX@1@PEBV?$_List_val@U?$_List_simple_types@U?$pair@QEAVITool@ith@@V?$unique_ptr@VToolView@ith@@U?$default_delete@VToolView@ith@@@std@@@std@@@std@@@std@@@1@@Z 000000014000e160 f i Shell.cpp.obj
 0001:0000d170       ??0?$_List_iterator@V?$_List_val@U?$_List_simple_types@U?$pair@QEAVITool@ith@@V?$unique_ptr@VToolView@ith@@U?$default_delete@VToolView@ith@@@std@@@std@@@std@@@std@@@std@@@std@@QEAA@PEAU?$_List_node@U?$pair@QEAVITool@ith@@V?$unique_ptr@VToolView@ith@@U?$default_delete@VToolView@ith@@@std@@@std@@@std@@PEAX@1@PEBV?$_List_val@U?$_List_simple_types@U?$pair@QEAVITool@ith@@V?$unique_ptr@VToolView@ith@@U?$default_delete@VToolView@ith@@@std@@@std@@@std@@@std@@@1@@Z 000000014000e170 f i Shell.cpp.obj
 0001:0000d180       ??0?$_List_unchecked_const_iterator@V?$_List_val@U?$_List_simple_types@U?$pair@QEAVITool@ith@@V?$unique_ptr@VToolView@ith@@U?$default_delete@VToolView@ith@@@std@@@std@@@std@@@std@@@std@@U_Iterator_base0@2@@std@@QEAA@PEAU?$_List_node@U?$pair@QEAVITool@ith@@V?$unique_ptr@VToolView@ith@@U?$default_delete@VToolView@ith@@@std@@@std@@@std@@PEAX@1@PEBV?$_List_val@U?$_List_simple_types@U?$pair@QEAVITool@ith@@V?$unique_ptr@VToolView@ith@@U?$default_delete@VToolView@ith@@@std@@@std@@@std@@@std@@@1@@Z 000000014000e180 f i Shell.cpp.obj
 0001:0000d190       ??0?$_List_unchecked_iterator@V?$_List_val@U?$_List_simple_types@U?$pair@QEAVITool@ith@@V?$unique_ptr@VToolView@ith@@U?$default_delete@VToolView@ith@@@std@@@std@@@std@@@std@@@std@@@std@@QEAA@PEAU?$_List_node@U?$pair@QEAVITool@ith@@V?$unique_ptr@VToolView@ith@@U?$default_delete@VToolView@ith@@@std@@@std@@@std@@PEAX@1@PEBV?$_List_val@U?$_List_simple_types@U?$pair@QEAVITool@ith@@V?$unique_ptr@VToolView@ith@@U?$default_delete@VToolView@ith@@@std@@@std@@@std@@@std@@@1@@Z 000000014000e190 f i Shell.cpp.obj
 0001:0000d1a0       ??0?$_List_val@U?$_List_simple_types@U?$pair@QEAVITool@ith@@V?$unique_ptr@VToolView@ith@@U?$default_delete@VToolView@ith@@@std@@@std@@@std@@@std@@@std@@QEAA@XZ 000000014000e1a0 f i Shell.cpp.obj
 0001:0000d1b0       ??0?$_String_val@U?$_Simple_types@_W@std@@@std@@QEAA@XZ 000000014000e1b0 f i Shell.cpp.obj
 0001:0000d1d0       ??0?$_Tree@V?$_Tmap_traits@V?$basic_string@_WU?$char_traits@_W@std@@V?$allocator@_W@2@@std@@PEAU_TREEITEM@@U?$less@V?$basic_string@_WU?$char_traits@_W@std@@V?$allocator@_W@2@@std@@@2@V?$allocator@U?$pair@$$CBV?$basic_string@_WU?$char_traits@_W@std@@V?$allocator@_W@2@@std@@PEAU_TREEITEM@@@std@@@2@$0A@@std@@@std@@QEAA@AEBU?$less@V?$basic_string@_WU?$char_traits@_W@std@@V?$allocator@_W@2@@std@@@1@@Z 000000014000e1d0 f i Shell.cpp.obj
 0001:0000d220       ??0?$_Tree_const_iterator@V?$_Tree_val@U?$_Tree_simple_types@U?$pair@$$CBV?$basic_string@_WU?$char_traits@_W@std@@V?$allocator@_W@2@@std@@PEAU_TREEITEM@@@std@@@std@@@std@@@std@@QEAA@PEAU?$_Tree_node@U?$pair@$$CBV?$basic_string@_WU?$char_traits@_W@std@@V?$allocator@_W@2@@std@@PEAU_TREEITEM@@@std@@PEAX@1@PEBV?$_Tree_val@U?$_Tree_simple_types@U?$pair@$$CBV?$basic_string@_WU?$char_traits@_W@std@@V?$allocator@_W@2@@std@@PEAU_TREEITEM@@@std@@@std@@@1@@Z 000000014000e220 f i Shell.cpp.obj
 0001:0000d230       ??0?$_Tree_iterator@V?$_Tree_val@U?$_Tree_simple_types@U?$pair@$$CBV?$basic_string@_WU?$char_traits@_W@std@@V?$allocator@_W@2@@std@@PEAU_TREEITEM@@@std@@@std@@@std@@@std@@QEAA@PEAU?$_Tree_node@U?$pair@$$CBV?$basic_string@_WU?$char_traits@_W@std@@V?$allocator@_W@2@@std@@PEAU_TREEITEM@@@std@@PEAX@1@PEBV?$_Tree_val@U?$_Tree_simple_types@U?$pair@$$CBV?$basic_string@_WU?$char_traits@_W@std@@V?$allocator@_W@2@@std@@PEAU_TREEITEM@@@std@@@std@@@1@@Z 000000014000e230 f i Shell.cpp.obj
 0001:0000d240       ??0?$_Tree_temp_node_alloc@V?$allocator@U?$_Tree_node@U?$pair@$$CBV?$basic_string@_WU?$char_traits@_W@std@@V?$allocator@_W@2@@std@@PEAU_TREEITEM@@@std@@PEAX@std@@@std@@@std@@QEAA@AEAV?$allocator@U?$_Tree_node@U?$pair@$$CBV?$basic_string@_WU?$char_traits@_W@std@@V?$allocator@_W@2@@std@@PEAU_TREEITEM@@@std@@PEAX@std@@@1@@Z 000000014000e240 f i Shell.cpp.obj
 0001:0000d280       ??0?$_Tree_unchecked_const_iterator@V?$_Tree_val@U?$_Tree_simple_types@U?$pair@$$CBV?$basic_string@_WU?$char_traits@_W@std@@V?$allocator@_W@2@@std@@PEAU_TREEITEM@@@std@@@std@@@std@@U_Iterator_base0@2@@std@@QEAA@PEAU?$_Tree_node@U?$pair@$$CBV?$basic_string@_WU?$char_traits@_W@std@@V?$allocator@_W@2@@std@@PEAU_TREEITEM@@@std@@PEAX@1@PEBV?$_Tree_val@U?$_Tree_simple_types@U?$pair@$$CBV?$basic_string@_WU?$char_traits@_W@std@@V?$allocator@_W@2@@std@@PEAU_TREEITEM@@@std@@@std@@@1@@Z 000000014000e280 f i Shell.cpp.obj
 0001:0000d290       ??0?$_Tree_unchecked_iterator@V?$_Tree_val@U?$_Tree_simple_types@U?$pair@$$CBV?$basic_string@_WU?$char_traits@_W@std@@V?$allocator@_W@2@@std@@PEAU_TREEITEM@@@std@@@std@@@std@@@std@@QEAA@PEAU?$_Tree_node@U?$pair@$$CBV?$basic_string@_WU?$char_traits@_W@std@@V?$allocator@_W@2@@std@@PEAU_TREEITEM@@@std@@PEAX@1@PEBV?$_Tree_val@U?$_Tree_simple_types@U?$pair@$$CBV?$basic_string@_WU?$char_traits@_W@std@@V?$allocator@_W@2@@std@@PEAU_TREEITEM@@@std@@@std@@@1@@Z 000000014000e290 f i Shell.cpp.obj
 0001:0000d2a0       ??0?$_Tree_val@U?$_Tree_simple_types@U?$pair@$$CBV?$basic_string@_WU?$char_traits@_W@std@@V?$allocator@_W@2@@std@@PEAU_TREEITEM@@@std@@@std@@@std@@QEAA@XZ 000000014000e2a0 f i Shell.cpp.obj
 0001:0000d2b0       ??0?$_Uhash_compare@PEAVITool@ith@@U?$hash@PEAVITool@ith@@@std@@U?$equal_to@PEAVITool@ith@@@4@@std@@QEAA@XZ 000000014000e2b0 f i Shell.cpp.obj
 0001:0000d2c0       ??0?$_Umap_traits@PEAVITool@ith@@V?$unique_ptr@VToolView@ith@@U?$default_delete@VToolView@ith@@@std@@@std@@V?$_Uhash_compare@PEAVITool@ith@@U?$hash@PEAVITool@ith@@@std@@U?$equal_to@PEAVITool@ith@@@4@@4@V?$allocator@U?$pair@QEAVITool@ith@@V?$unique_ptr@VToolView@ith@@U?$default_delete@VToolView@ith@@@std@@@std@@@std@@@4@$0A@@std@@QEAA@AEBV?$_Uhash_compare@PEAVITool@ith@@U?$hash@PEAVITool@ith@@@std@@U?$equal_to@PEAVITool@ith@@@4@@1@@Z 000000014000e2c0 f i Shell.cpp.obj
 0001:0000d2d0       ??0?$_Uninitialized_backout@PEAV?$_List_unchecked_iterator@V?$_List_val@U?$_List_simple_types@U?$pair@QEAVITool@ith@@V?$unique_ptr@VToolView@ith@@U?$default_delete@VToolView@ith@@@std@@@std@@@std@@@std@@@std@@@std@@@std@@QEAA@PEAV?$_List_unchecked_iterator@V?$_List_val@U?$_List_simple_types@U?$pair@QEAVITool@ith@@V?$unique_ptr@VToolView@ith@@U?$default_delete@VToolView@ith@@@std@@@std@@@std@@@std@@@std@@@1@@Z 000000014000e2d0 f i Shell.cpp.obj
 0001:0000d2e0       ??0?$_Uninitialized_backout_al@V?$allocator@V?$unique_ptr@VITool@ith@@U?$default_delete@VITool@ith@@@std@@@std@@@std@@@std@@QEAA@PEAV?$unique_ptr@VITool@ith@@U?$default_delete@VITool@ith@@@std@@@1@AEAV?$allocator@V?$unique_ptr@VITool@ith@@U?$default_delete@VITool@ith@@@std@@@std@@@1@@Z 000000014000e2e0 f i Shell.cpp.obj
 0001:0000d300       ??0?$_Vector_val@U?$_Simple_types@V?$_List_unchecked_iterator@V?$_List_val@U?$_List_simple_types@U?$pair@QEAVITool@ith@@V?$unique_ptr@VToolView@ith@@U?$default_delete@VToolView@ith@@@std@@@std@@@std@@@std@@@std@@@std@@@std@@@std@@QEAA@XZ 000000014000e300 f i Shell.cpp.obj
 0001:0000d320       ??0?$_Vector_val@U?$_Simple_types@V?$unique_ptr@VITool@ith@@U?$default_delete@VITool@ith@@@std@@@std@@@std@@@std@@QEAA@PEAV?$unique_ptr@VITool@ith@@U?$default_delete@VITool@ith@@@std@@@1@00@Z 000000014000e320 f i Shell.cpp.obj
 0001:0000d340       ??0?$_Vector_val@U?$_Simple_types@V?$unique_ptr@VITool@ith@@U?$default_delete@VITool@ith@@@std@@@std@@@std@@@std@@QEAA@XZ 000000014000e340 f i Shell.cpp.obj
 0001:0000d360       ??0?$allocator@U?$_Tree_node@U?$pair@$$CBV?$basic_string@_WU?$char_traits@_W@std@@V?$allocator@_W@2@@std@@PEAU_TREEITEM@@@std@@PEAX@std@@@std@@QEAA@XZ 000000014000e360 f i Shell.cpp.obj
 0001:0000d370       ??0?$allocator@U?$pair@QEAVITool@ith@@V?$unique_ptr@VToolView@ith@@U?$default_delete@VToolView@ith@@@std@@@std@@@std@@@std@@QEAA@XZ 000000014000e370 f i Shell.cpp.obj
 0001:0000d380       ??0?$allocator@V?$unique_ptr@VITool@ith@@U?$default_delete@VITool@ith@@@std@@@std@@@std@@QEAA@XZ 000000014000e380 f i Shell.cpp.obj
 0001:0000d390       ??0?$allocator@_W@std@@QEAA@XZ 000000014000e390 f i Shell.cpp.obj
 0001:0000d3a0       ??0?$basic_string@_WU?$char_traits@_W@std@@V?$allocator@_W@2@@std@@QEAA@AEBV01@@Z 000000014000e3a0 f i Shell.cpp.obj
 0001:0000d4f0       ??0?$basic_string@_WU?$char_traits@_W@std@@V?$allocator@_W@2@@std@@QEAA@QEB_W@Z 000000014000e4f0 f i Shell.cpp.obj
 0001:0000d550       ??0?$list@U?$pair@QEAVITool@ith@@V?$unique_ptr@VToolView@ith@@U?$default_delete@VToolView@ith@@@std@@@std@@@std@@V?$allocator@U?$pair@QEAVITool@ith@@V?$unique_ptr@VToolView@ith@@U?$default_delete@VToolView@ith@@@std@@@std@@@std@@@2@@std@@QEAA@AEBV?$allocator@U?$pair@QEAVITool@ith@@V?$unique_ptr@VToolView@ith@@U?$default_delete@VToolView@ith@@@std@@@std@@@std@@@1@@Z 000000014000e550 f i Shell.cpp.obj
 0001:0000d590       ??0?$map@V?$basic_string@_WU?$char_traits@_W@std@@V?$allocator@_W@2@@std@@PEAU_TREEITEM@@U?$less@V?$basic_string@_WU?$char_traits@_W@std@@V?$allocator@_W@2@@std@@@2@V?$allocator@U?$pair@$$CBV?$basic_string@_WU?$char_traits@_W@std@@V?$allocator@_W@2@@std@@PEAU_TREEITEM@@@std@@@2@@std@@QEAA@XZ 000000014000e590 f i Shell.cpp.obj
 0001:0000d5e0       ??0?$tuple@$$V@std@@QEAA@AEBV01@@Z 000000014000e5e0 f i Shell.cpp.obj
 0001:0000d5f0       ??0?$tuple@AEBV?$basic_string@_WU?$char_traits@_W@std@@V?$allocator@_W@2@@std@@@std@@QEAA@$$QEAV01@@Z 000000014000e5f0 f i Shell.cpp.obj
 0001:0000d600       ??0?$unordered_map@PEAVITool@ith@@V?$unique_ptr@VToolView@ith@@U?$default_delete@VToolView@ith@@@std@@@std@@U?$hash@PEAVITool@ith@@@4@U?$equal_to@PEAVITool@ith@@@4@V?$allocator@U?$pair@QEAVITool@ith@@V?$unique_ptr@VToolView@ith@@U?$default_delete@VToolView@ith@@@std@@@std@@@std@@@4@@std@@QEAA@XZ 000000014000e600 f i Shell.cpp.obj
 0001:0000d770       ??0?$vector@V?$unique_ptr@VITool@ith@@U?$default_delete@VITool@ith@@@std@@@std@@V?$allocator@V?$unique_ptr@VITool@ith@@U?$default_delete@VITool@ith@@@std@@@std@@@2@@std@@QEAA@$$QEAV01@@Z 000000014000e770 f i Shell.cpp.obj
 0001:0000d7b0       ??0?$vector@V?$unique_ptr@VITool@ith@@U?$default_delete@VITool@ith@@@std@@@std@@V?$allocator@V?$unique_ptr@VITool@ith@@U?$default_delete@VITool@ith@@@std@@@std@@@2@@std@@QEAA@XZ 000000014000e7b0 f i Shell.cpp.obj
 0001:0000d7d0       ??0AdQueryTool@ith@@QEAA@XZ 000000014000e7d0 f i Shell.cpp.obj
 0001:0000d7f0       ??0ITool@ith@@QEAA@XZ      000000014000e7f0 f i Shell.cpp.obj
 0001:0000d810       ??0Shell@ith@@QEAA@PEAUHINSTANCE__@@@Z 000000014000e810 f   Shell.cpp.obj
 0001:0000dc00       ??0_Bxty@?$_String_val@U?$_Simple_types@_W@std@@@std@@QEAA@XZ 000000014000ec00 f i Shell.cpp.obj
 0001:0000dc10       ??0_Fake_proxy_ptr_impl@std@@QEAA@AEBU_Fake_allocator@1@AEBU_Container_base0@1@@Z 000000014000ec10 f i Shell.cpp.obj
 0001:0000dc20       ??0_Range_eraser@?$_Hash@V?$_Umap_traits@PEAVITool@ith@@V?$unique_ptr@VToolView@ith@@U?$default_delete@VToolView@ith@@@std@@@std@@V?$_Uhash_compare@PEAVITool@ith@@U?$hash@PEAVITool@ith@@@std@@U?$equal_to@PEAVITool@ith@@@4@@4@V?$allocator@U?$pair@QEAVITool@ith@@V?$unique_ptr@VToolView@ith@@U?$default_delete@VToolView@ith@@@std@@@std@@@std@@@4@$0A@@std@@@std@@QEAA@AEAV?$list@U?$pair@QEAVITool@ith@@V?$unique_ptr@VToolView@ith@@U?$default_delete@VToolView@ith@@@std@@@std@@@std@@V?$allocator@U?$pair@QEAVITool@ith@@V?$unique_ptr@VToolView@ith@@U?$default_delete@VToolView@ith@@@std@@@std@@@std@@@2@@2@QEAU?$_List_node@U?$pair@QEAVITool@ith@@V?$unique_ptr@VToolView@ith@@U?$default_delete@VToolView@ith@@@std@@@std@@@std@@PEAX@2@@Z 000000014000ec20 f i Shell.cpp.obj
 0001:0000dc40       ??0bad_alloc@std@@AEAA@QEBD@Z 000000014000ec40 f i Shell.cpp.obj
 0001:0000dc60       ??0bad_alloc@std@@QEAA@AEBV01@@Z 000000014000ec60 f i Shell.cpp.obj
 0001:0000dcb0       ??0bad_array_new_length@std@@QEAA@AEBV01@@Z 000000014000ecb0 f i Shell.cpp.obj
 0001:0000dd00       ??0bad_array_new_length@std@@QEAA@XZ 000000014000ed00 f i Shell.cpp.obj
 0001:0000dd30       ??0exception@std@@QEAA@AEBV01@@Z 000000014000ed30 f i Shell.cpp.obj
 0001:0000dd70       ??0exception@std@@QEAA@QEBDH@Z 000000014000ed70 f i Shell.cpp.obj
 0001:0000dd90       ??1?$_Alloc_construct_ptr@V?$allocator@U?$_List_node@U?$pair@QEAVITool@ith@@V?$unique_ptr@VToolView@ith@@U?$default_delete@VToolView@ith@@@std@@@std@@@std@@PEAX@std@@@std@@@std@@QEAA@XZ 000000014000ed90 f i Shell.cpp.obj
 0001:0000ddb0       ??1?$_Alloc_construct_ptr@V?$allocator@U?$_Tree_node@U?$pair@$$CBV?$basic_string@_WU?$char_traits@_W@std@@V?$allocator@_W@2@@std@@PEAU_TREEITEM@@@std@@PEAX@std@@@std@@@std@@QEAA@XZ 000000014000edb0 f i Shell.cpp.obj
 0001:0000ddd0       ??1?$_Clear_guard@V?$_Hash@V?$_Umap_traits@PEAVITool@ith@@V?$unique_ptr@VToolView@ith@@U?$default_delete@VToolView@ith@@@std@@@std@@V?$_Uhash_compare@PEAVITool@ith@@U?$hash@PEAVITool@ith@@@std@@U?$equal_to@PEAVITool@ith@@@4@@4@V?$allocator@U?$pair@QEAVITool@ith@@V?$unique_ptr@VToolView@ith@@U?$default_delete@VToolView@ith@@@std@@@std@@@std@@@4@$0A@@std@@@std@@@std@@QEAA@XZ 000000014000edd0 f i Shell.cpp.obj
 0001:0000dde0       ??1?$_Compressed_pair@V?$allocator@_W@std@@V?$_String_val@U?$_Simple_types@_W@std@@@2@$00@std@@QEAA@XZ 000000014000ede0 f i Shell.cpp.obj
 0001:0000ddf0       ??1?$_Hash@V?$_Umap_traits@PEAVITool@ith@@V?$unique_ptr@VToolView@ith@@U?$default_delete@VToolView@ith@@@std@@@std@@V?$_Uhash_compare@PEAVITool@ith@@U?$hash@PEAVITool@ith@@@std@@U?$equal_to@PEAVITool@ith@@@4@@4@V?$allocator@U?$pair@QEAVITool@ith@@V?$unique_ptr@VToolView@ith@@U?$default_delete@VToolView@ith@@@std@@@std@@@std@@@4@$0A@@std@@@std@@QEAA@XZ 000000014000edf0 f i Shell.cpp.obj
 0001:0000de20       ??1?$_Hash_vec@V?$allocator@V?$_List_unchecked_iterator@V?$_List_val@U?$_List_simple_types@U?$pair@QEAVITool@ith@@V?$unique_ptr@VToolView@ith@@U?$default_delete@VToolView@ith@@@std@@@std@@@std@@@std@@@std@@@std@@@std@@@std@@QEAA@XZ 000000014000ee20 f i Shell.cpp.obj
 0001:0000deb0       ??1?$_List_node_emplace_op2@V?$allocator@U?$_List_node@U?$pair@QEAVITool@ith@@V?$unique_ptr@VToolView@ith@@U?$default_delete@VToolView@ith@@@std@@@std@@@std@@PEAX@std@@@std@@@std@@QEAA@XZ 000000014000eeb0 f i Shell.cpp.obj
 0001:0000df10       ??1?$_String_val@U?$_Simple_types@_W@std@@@std@@QEAA@XZ 000000014000ef10 f i Shell.cpp.obj
 0001:0000df20       ??1?$_Tree@V?$_Tmap_traits@V?$basic_string@_WU?$char_traits@_W@std@@V?$allocator@_W@2@@std@@PEAU_TREEITEM@@U?$less@V?$basic_string@_WU?$char_traits@_W@std@@V?$allocator@_W@2@@std@@@2@V?$allocator@U?$pair@$$CBV?$basic_string@_WU?$char_traits@_W@std@@V?$allocator@_W@2@@std@@PEAU_TREEITEM@@@std@@@2@$0A@@std@@@std@@QEAA@XZ 000000014000ef20 f i Shell.cpp.obj
 0001:0000df60       ??1?$_Tree_temp_node@V?$allocator@U?$_Tree_node@U?$pair@$$CBV?$basic_string@_WU?$char_traits@_W@std@@V?$allocator@_W@2@@std@@PEAU_TREEITEM@@@std@@PEAX@std@@@std@@@std@@QEAA@XZ 000000014000ef60 f i Shell.cpp.obj
 0001:0000dfb0       ??1?$_Tree_temp_node_alloc@V?$allocator@U?$_Tree_node@U?$pair@$$CBV?$basic_string@_WU?$char_traits@_W@std@@V?$allocator@_W@2@@std@@PEAU_TREEITEM@@@std@@PEAX@std@@@std@@@std@@QEAA@XZ 000000014000efb0 f i Shell.cpp.obj
 0001:0000dfd0       ??1?$_Uninitialized_backout@PEAV?$_List_unchecked_iterator@V?$_List_val@U?$_List_simple_types@U?$pair@QEAVITool@ith@@V?$unique_ptr@VToolView@ith@@U?$default_delete@VToolView@ith@@@std@@@std@@@std@@@std@@@std@@@std@@@std@@QEAA@XZ 000000014000efd0 f i Shell.cpp.obj
 0001:0000dfe0       ??1?$_Uninitialized_backout_al@V?$allocator@V?$unique_ptr@VITool@ith@@U?$default_delete@VITool@ith@@@std@@@std@@@std@@@std@@QEAA@XZ 000000014000efe0 f i Shell.cpp.obj
 0001:0000e030       ??1?$basic_string@_WU?$char_traits@_W@std@@V?$allocator@_W@2@@std@@QEAA@XZ 000000014000f030 f i Shell.cpp.obj
 0001:0000e040       ??1?$list@U?$pair@QEAVITool@ith@@V?$unique_ptr@VToolView@ith@@U?$default_delete@VToolView@ith@@@std@@@std@@@std@@V?$allocator@U?$pair@QEAVITool@ith@@V?$unique_ptr@VToolView@ith@@U?$default_delete@VToolView@ith@@@std@@@std@@@std@@@2@@std@@QEAA@XZ 000000014000f040 f i Shell.cpp.obj
 0001:0000e0e0       ??1?$map@V?$basic_string@_WU?$char_traits@_W@std@@V?$allocator@_W@2@@std@@PEAU_TREEITEM@@U?$less@V?$basic_string@_WU?$char_traits@_W@std@@V?$allocator@_W@2@@std@@@2@V?$allocator@U?$pair@$$CBV?$basic_string@_WU?$char_traits@_W@std@@V?$allocator@_W@2@@std@@PEAU_TREEITEM@@@std@@@2@@std@@QEAA@XZ 000000014000f0e0 f i Shell.cpp.obj
 0001:0000e120       ??1?$pair@$$CBV?$basic_string@_WU?$char_traits@_W@std@@V?$allocator@_W@2@@std@@PEAU_TREEITEM@@@std@@QEAA@XZ 000000014000f120 f i Shell.cpp.obj
 0001:0000e130       ??1?$pair@QEAVITool@ith@@V?$unique_ptr@VToolView@ith@@U?$default_delete@VToolView@ith@@@std@@@std@@@std@@QEAA@XZ 000000014000f130 f i Shell.cpp.obj
 0001:0000e150       ??1?$unique_ptr@VAdQueryTool@ith@@U?$default_delete@VAdQueryTool@ith@@@std@@@std@@QEAA@XZ 000000014000f150 f i Shell.cpp.obj
 0001:0000e170       ??1?$unique_ptr@VITool@ith@@U?$default_delete@VITool@ith@@@std@@@std@@QEAA@XZ 000000014000f170 f i Shell.cpp.obj
 0001:0000e190       ??1?$unique_ptr@VToolView@ith@@U?$default_delete@VToolView@ith@@@std@@@std@@QEAA@XZ 000000014000f190 f i Shell.cpp.obj
 0001:0000e1b0       ??1?$unordered_map@PEAVITool@ith@@V?$unique_ptr@VToolView@ith@@U?$default_delete@VToolView@ith@@@std@@@std@@U?$hash@PEAVITool@ith@@@4@U?$equal_to@PEAVITool@ith@@@4@V?$allocator@U?$pair@QEAVITool@ith@@V?$unique_ptr@VToolView@ith@@U?$default_delete@VToolView@ith@@@std@@@std@@@std@@@4@@std@@QEAA@XZ 000000014000f1b0 f i Shell.cpp.obj
 0001:0000e1e0       ??1?$vector@V?$unique_ptr@VITool@ith@@U?$default_delete@VITool@ith@@@std@@@std@@V?$allocator@V?$unique_ptr@VITool@ith@@U?$default_delete@VITool@ith@@@std@@@std@@@2@@std@@QEAA@XZ 000000014000f1e0 f i Shell.cpp.obj
 0001:0000e1f0       ??1AdQueryTool@ith@@UEAA@XZ 000000014000f1f0 f i Shell.cpp.obj
 0001:0000e200       ??1ITool@ith@@UEAA@XZ      000000014000f200 f i Shell.cpp.obj
 0001:0000e210       ??1Shell@ith@@QEAA@XZ      000000014000f210 f   Shell.cpp.obj
 0001:0000e260       ??1_Bxty@?$_String_val@U?$_Simple_types@_W@std@@@std@@QEAA@XZ 000000014000f260 f i Shell.cpp.obj
 0001:0000e270       ??1_Range_eraser@?$_Hash@V?$_Umap_traits@PEAVITool@ith@@V?$unique_ptr@VToolView@ith@@U?$default_delete@VToolView@ith@@@std@@@std@@V?$_Uhash_compare@PEAVITool@ith@@U?$hash@PEAVITool@ith@@@std@@U?$equal_to@PEAVITool@ith@@@4@@4@V?$allocator@U?$pair@QEAVITool@ith@@V?$unique_ptr@VToolView@ith@@U?$default_delete@VToolView@ith@@@std@@@std@@@std@@@4@$0A@@std@@@std@@QEAA@XZ 000000014000f270 f i Shell.cpp.obj
 0001:0000e290       ??1_Reallocation_guard2@?$vector@V?$unique_ptr@VITool@ith@@U?$default_delete@VITool@ith@@@std@@@std@@V?$allocator@V?$unique_ptr@VITool@ith@@U?$default_delete@VITool@ith@@@std@@@std@@@2@@std@@QEAA@XZ 000000014000f290 f i Shell.cpp.obj
 0001:0000e370       ??1bad_alloc@std@@UEAA@XZ  000000014000f370 f i Shell.cpp.obj
 0001:0000e390       ??1bad_array_new_length@std@@UEAA@XZ 000000014000f390 f i Shell.cpp.obj
 0001:0000e3b0       ??1exception@std@@UEAA@XZ  000000014000f3b0 f i Shell.cpp.obj
 0001:0000e3d0       ??2@YAPEAX_KPEAX@Z         000000014000f3d0 f i Shell.cpp.obj
 0001:0000e3e0       ??4?$vector@V?$unique_ptr@VITool@ith@@U?$default_delete@VITool@ith@@@std@@@std@@V?$allocator@V?$unique_ptr@VITool@ith@@U?$default_delete@VITool@ith@@@std@@@std@@@2@@std@@QEAAAEAV01@$$QEAV01@@Z 000000014000f3e0 f i Shell.cpp.obj
 0001:0000e440       ??8?$_List_const_iterator@V?$_List_val@U?$_List_simple_types@U?$pair@QEAVITool@ith@@V?$unique_ptr@VToolView@ith@@U?$default_delete@VToolView@ith@@@std@@@std@@@std@@@std@@@std@@@std@@QEBA_NAEBV01@@Z 000000014000f440 f i Shell.cpp.obj
 0001:0000e450       ??8?$_List_unchecked_const_iterator@V?$_List_val@U?$_List_simple_types@U?$pair@QEAVITool@ith@@V?$unique_ptr@VToolView@ith@@U?$default_delete@VToolView@ith@@@std@@@std@@@std@@@std@@@std@@U_Iterator_base0@2@@std@@QEBA_NAEBV01@@Z 000000014000f450 f i Shell.cpp.obj
 0001:0000e460       ??8?$_Tree_const_iterator@V?$_Tree_val@U?$_Tree_simple_types@U?$pair@$$CBV?$basic_string@_WU?$char_traits@_W@std@@V?$allocator@_W@2@@std@@PEAU_TREEITEM@@@std@@@std@@@std@@@std@@QEBA_NAEBV01@@Z 000000014000f460 f i Shell.cpp.obj
 0001:0000e470       ??8?$_Tree_unchecked_const_iterator@V?$_Tree_val@U?$_Tree_simple_types@U?$pair@$$CBV?$basic_string@_WU?$char_traits@_W@std@@V?$allocator@_W@2@@std@@PEAU_TREEITEM@@@std@@@std@@@std@@U_Iterator_base0@2@@std@@QEBA_NU_Default_sentinel@1@@Z 000000014000f470 f i Shell.cpp.obj
 0001:0000e480       ??A?$map@V?$basic_string@_WU?$char_traits@_W@std@@V?$allocator@_W@2@@std@@PEAU_TREEITEM@@U?$less@V?$basic_string@_WU?$char_traits@_W@std@@V?$allocator@_W@2@@std@@@2@V?$allocator@U?$pair@$$CBV?$basic_string@_WU?$char_traits@_W@std@@V?$allocator@_W@2@@std@@PEAU_TREEITEM@@@std@@@2@@std@@QEAAAEAPEAU_TREEITEM@@AEBV?$basic_string@_WU?$char_traits@_W@std@@V?$allocator@_W@2@@1@@Z 000000014000f480 f i Shell.cpp.obj
 0001:0000e4b0       ??C?$_List_iterator@V?$_List_val@U?$_List_simple_types@U?$pair@QEAVITool@ith@@V?$unique_ptr@VToolView@ith@@U?$default_delete@VToolView@ith@@@std@@@std@@@std@@@std@@@std@@@std@@QEBAPEAU?$pair@QEAVITool@ith@@V?$unique_ptr@VToolView@ith@@U?$default_delete@VToolView@ith@@@std@@@std@@@1@XZ 000000014000f4b0 f i Shell.cpp.obj
 0001:0000e4c0       ??C?$_Tree_iterator@V?$_Tree_val@U?$_Tree_simple_types@U?$pair@$$CBV?$basic_string@_WU?$char_traits@_W@std@@V?$allocator@_W@2@@std@@PEAU_TREEITEM@@@std@@@std@@@std@@@std@@QEBAPEAU?$pair@$$CBV?$basic_string@_WU?$char_traits@_W@std@@V?$allocator@_W@2@@std@@PEAU_TREEITEM@@@1@XZ 000000014000f4c0 f i Shell.cpp.obj
 0001:0000e4d0       ??C?$unique_ptr@VITool@ith@@U?$default_delete@VITool@ith@@@std@@@std@@QEBAPEAVITool@ith@@XZ 000000014000f4d0 f i Shell.cpp.obj
 0001:0000e4e0       ??D?$_List_const_iterator@V?$_List_val@U?$_List_simple_types@U?$pair@QEAVITool@ith@@V?$unique_ptr@VToolView@ith@@U?$default_delete@VToolView@ith@@@std@@@std@@@std@@@std@@@std@@@std@@QEBAAEBU?$pair@QEAVITool@ith@@V?$unique_ptr@VToolView@ith@@U?$default_delete@VToolView@ith@@@std@@@std@@@1@XZ 000000014000f4e0 f i Shell.cpp.obj
 0001:0000e4f0       ??D?$_List_iterator@V?$_List_val@U?$_List_simple_types@U?$pair@QEAVITool@ith@@V?$unique_ptr@VToolView@ith@@U?$default_delete@VToolView@ith@@@std@@@std@@@std@@@std@@@std@@@std@@QEBAAEAU?$pair@QEAVITool@ith@@V?$unique_ptr@VToolView@ith@@U?$default_delete@VToolView@ith@@@std@@@std@@@1@XZ 000000014000f4f0 f i Shell.cpp.obj
 0001:0000e500       ??D?$_List_unchecked_const_iterator@V?$_List_val@U?$_List_simple_types@U?$pair@QEAVITool@ith@@V?$unique_ptr@VToolView@ith@@U?$default_delete@VToolView@ith@@@std@@@std@@@std@@@std@@@std@@U_Iterator_base0@2@@std@@QEBAAEBU?$pair@QEAVITool@ith@@V?$unique_ptr@VToolView@ith@@U?$default_delete@VToolView@ith@@@std@@@std@@@1@XZ 000000014000f500 f i Shell.cpp.obj
 0001:0000e510       ??D?$_List_unchecked_iterator@V?$_List_val@U?$_List_simple_types@U?$pair@QEAVITool@ith@@V?$unique_ptr@VToolView@ith@@U?$default_delete@VToolView@ith@@@std@@@std@@@std@@@std@@@std@@@std@@QEBAAEAU?$pair@QEAVITool@ith@@V?$unique_ptr@VToolView@ith@@U?$default_delete@VToolView@ith@@@std@@@std@@@1@XZ 000000014000f510 f i Shell.cpp.obj
 0001:0000e520       ??D?$_Tree_const_iterator@V?$_Tree_val@U?$_Tree_simple_types@U?$pair@$$CBV?$basic_string@_WU?$char_traits@_W@std@@V?$allocator@_W@2@@std@@PEAU_TREEITEM@@@std@@@std@@@std@@@std@@QEBAAEBU?$pair@$$CBV?$basic_string@_WU?$char_traits@_W@std@@V?$allocator@_W@2@@std@@PEAU_TREEITEM@@@1@XZ 000000014000f520 f i Shell.cpp.obj
 0001:0000e530       ??D?$_Tree_iterator@V?$_Tree_val@U?$_Tree_simple_types@U?$pair@$$CBV?$basic_string@_WU?$char_traits@_W@std@@V?$allocator@_W@2@@std@@PEAU_TREEITEM@@@std@@@std@@@std@@@std@@QEBAAEAU?$pair@$$CBV?$basic_string@_WU?$char_traits@_W@std@@V?$allocator@_W@2@@std@@PEAU_TREEITEM@@@1@XZ 000000014000f530 f i Shell.cpp.obj
 0001:0000e540       ??D?$_Tree_unchecked_const_iterator@V?$_Tree_val@U?$_Tree_simple_types@U?$pair@$$CBV?$basic_string@_WU?$char_traits@_W@std@@V?$allocator@_W@2@@std@@PEAU_TREEITEM@@@std@@@std@@@std@@U_Iterator_base0@2@@std@@QEBAAEBU?$pair@$$CBV?$basic_string@_WU?$char_traits@_W@std@@V?$allocator@_W@2@@std@@PEAU_TREEITEM@@@1@XZ 000000014000f540 f i Shell.cpp.obj
 0001:0000e550       ??D?$_Tree_unchecked_iterator@V?$_Tree_val@U?$_Tree_simple_types@U?$pair@$$CBV?$basic_string@_WU?$char_traits@_W@std@@V?$allocator@_W@2@@std@@PEAU_TREEITEM@@@std@@@std@@@std@@@std@@QEBAAEAU?$pair@$$CBV?$basic_string@_WU?$char_traits@_W@std@@V?$allocator@_W@2@@std@@PEAU_TREEITEM@@@1@XZ 000000014000f550 f i Shell.cpp.obj
 0001:0000e560       ??E?$_List_unchecked_const_iterator@V?$_List_val@U?$_List_simple_types@U?$pair@QEAVITool@ith@@V?$unique_ptr@VToolView@ith@@U?$default_delete@VToolView@ith@@@std@@@std@@@std@@@std@@@std@@U_Iterator_base0@2@@std@@QEAAAEAV01@XZ 000000014000f560 f i Shell.cpp.obj
 0001:0000e570       ??E?$_List_unchecked_iterator@V?$_List_val@U?$_List_simple_types@U?$pair@QEAVITool@ith@@V?$unique_ptr@VToolView@ith@@U?$default_delete@VToolView@ith@@@std@@@std@@@std@@@std@@@std@@@std@@QEAAAEAV01@XZ 000000014000f570 f i Shell.cpp.obj
 0001:0000e580       ??E?$_Tree_unchecked_const_iterator@V?$_Tree_val@U?$_Tree_simple_types@U?$pair@$$CBV?$basic_string@_WU?$char_traits@_W@std@@V?$allocator@_W@2@@std@@PEAU_TREEITEM@@@std@@@std@@@std@@U_Iterator_base0@2@@std@@QEAAAEAV01@XZ 000000014000f580 f i Shell.cpp.obj
 0001:0000e5f0       ??E?$_Tree_unchecked_iterator@V?$_Tree_val@U?$_Tree_simple_types@U?$pair@$$CBV?$basic_string@_WU?$char_traits@_W@std@@V?$allocator@_W@2@@std@@PEAU_TREEITEM@@@std@@@std@@@std@@@std@@QEAAAEAV01@XZ 000000014000f5f0 f i Shell.cpp.obj
 0001:0000e660       ??F?$_List_unchecked_const_iterator@V?$_List_val@U?$_List_simple_types@U?$pair@QEAVITool@ith@@V?$unique_ptr@VToolView@ith@@U?$default_delete@VToolView@ith@@@std@@@std@@@std@@@std@@@std@@U_Iterator_base0@2@@std@@QEAAAEAV01@XZ 000000014000f660 f i Shell.cpp.obj
 0001:0000e680       ??Mstd@@YA_NUstrong_ordering@0@U_Literal_zero@0@@Z 000000014000f680 f i Shell.cpp.obj
 0001:0000e690       ??R?$_Conditionally_enabled_hash@PEAVITool@ith@@$00@std@@SA_KAEBQEAVITool@ith@@@Z 000000014000f690 f i Shell.cpp.obj
 0001:0000e6a0       ??R?$default_delete@VAdQueryTool@ith@@@std@@QEBAXPEAVAdQueryTool@ith@@@Z 000000014000f6a0 f i Shell.cpp.obj
 0001:0000e6c0       ??R?$default_delete@VITool@ith@@@std@@QEBAXPEAVITool@ith@@@Z 000000014000f6c0 f i Shell.cpp.obj
 0001:0000e6e0       ??R?$default_delete@VToolView@ith@@@std@@QEBAXPEAVToolView@ith@@@Z 000000014000f6e0 f i Shell.cpp.obj
 0001:0000e700       ??R?$equal_to@PEAVITool@ith@@@std@@QEBA_NAEBQEAVITool@ith@@0@Z 000000014000f700 f i Shell.cpp.obj
 0001:0000e710       ??R?$less@V?$basic_string@_WU?$char_traits@_W@std@@V?$allocator@_W@2@@std@@@std@@QEBA_NAEBV?$basic_string@_WU?$char_traits@_W@std@@V?$allocator@_W@2@@1@0@Z 000000014000f710 f i Shell.cpp.obj
 0001:0000e810       ??_G?$pair@$$CBV?$basic_string@_WU?$char_traits@_W@std@@V?$allocator@_W@2@@std@@PEAU_TREEITEM@@@std@@QEAAPEAXI@Z 000000014000f810 f i Shell.cpp.obj
 0001:0000e860       ??_G?$pair@QEAVITool@ith@@V?$unique_ptr@VToolView@ith@@U?$default_delete@VToolView@ith@@@std@@@std@@@std@@QEAAPEAXI@Z 000000014000f860 f i Shell.cpp.obj
 0001:0000e8c0       ??_G?$unique_ptr@VITool@ith@@U?$default_delete@VITool@ith@@@std@@@std@@QEAAPEAXI@Z 000000014000f8c0 f i Shell.cpp.obj
 0001:0000e920       ??_EAdQueryTool@ith@@UEAAPEAXI@Z 000000014000f920 f i Shell.cpp.obj
 0001:0000e920       ??_GAdQueryTool@ith@@UEAAPEAXI@Z 000000014000f920 f i Shell.cpp.obj
 0001:0000e950       ??_EITool@ith@@UEAAPEAXI@Z 000000014000f950 f i Shell.cpp.obj
 0001:0000e950       ??_GITool@ith@@UEAAPEAXI@Z 000000014000f950 f i Shell.cpp.obj
 0001:0000e980       ??_Ebad_alloc@std@@UEAAPEAXI@Z 000000014000f980 f i Shell.cpp.obj
 0001:0000e980       ??_Gbad_alloc@std@@UEAAPEAXI@Z 000000014000f980 f i Shell.cpp.obj
 0001:0000e9e0       ??_Ebad_array_new_length@std@@UEAAPEAXI@Z 000000014000f9e0 f i Shell.cpp.obj
 0001:0000e9e0       ??_Gbad_array_new_length@std@@UEAAPEAXI@Z 000000014000f9e0 f i Shell.cpp.obj
 0001:0000ea40       ??_Eexception@std@@UEAAPEAXI@Z 000000014000fa40 f i Shell.cpp.obj
 0001:0000ea40       ??_Gexception@std@@UEAAPEAXI@Z 000000014000fa40 f i Shell.cpp.obj
 0001:0000eaa0       ?BuildTree@Shell@ith@@AEAAXXZ 000000014000faa0 f   Shell.cpp.obj
 0001:0000f030       ?Category@AdQueryTool@ith@@UEBA?AV?$basic_string@_WU?$char_traits@_W@std@@V?$allocator@_W@2@@std@@XZ 0000000140010030 f i Shell.cpp.obj
 0001:0000f080       ?Create@Shell@ith@@QEAA_NXZ 0000000140010080 f   Shell.cpp.obj
 0001:0000f1f0       ?CreateTools@ToolRegistry@ith@@SA?AV?$vector@V?$unique_ptr@VITool@ith@@U?$default_delete@VITool@ith@@@std@@@std@@V?$allocator@V?$unique_ptr@VITool@ith@@U?$default_delete@VITool@ith@@@std@@@std@@@2@@std@@XZ 00000001400101f0 f i Shell.cpp.obj
 0001:0000f2c0       ?Handle@Shell@ith@@AEAA_JPEAUHWND__@@I_K_J@Z 00000001400102c0 f   Shell.cpp.obj
 0001:0000f5d0       ?Layout@Shell@ith@@AEAAXXZ 00000001400105d0 f   Shell.cpp.obj
 0001:0000f700       ?Name@AdQueryTool@ith@@UEBA?AV?$basic_string@_WU?$char_traits@_W@std@@V?$allocator@_W@2@@std@@XZ 0000000140010700 f i Shell.cpp.obj
 0001:0000f750       ?RecreateFont@Shell@ith@@AEAAXXZ 0000000140010750 f   Shell.cpp.obj
 0001:0000f8c0       ?Scale@ith@@YAHHI@Z        00000001400108c0 f i Shell.cpp.obj
 0001:0000f8d0       ?SelectTool@Shell@ith@@AEAAXPEAVITool@2@@Z 00000001400108d0 f   Shell.cpp.obj
 0001:0000fa10       ?Show@Shell@ith@@QEAAXH@Z  0000000140010a10 f   Shell.cpp.obj
 0001:0000fa40       ?WndProc@Shell@ith@@CA_JPEAUHWND__@@I_K_J@Z 0000000140010a40 f   Shell.cpp.obj
 0001:0000fb10       ?_Adjust_manually_vector_aligned@std@@YAXAEAPEAXAEA_K@Z 0000000140010b10 f i Shell.cpp.obj
 0001:0000fb40       ?_Adopt@_Iterator_base0@std@@QEAAXPEBX@Z 0000000140010b40 f i Shell.cpp.obj
 0001:0000fb50       ?_Alloc_proxy@_Container_base0@std@@QEAAXAEBU_Fake_allocator@2@@Z 0000000140010b50 f i Shell.cpp.obj
 0001:0000fb60       ?_Alloc_sentinel_and_proxy@?$_Tree@V?$_Tmap_traits@V?$basic_string@_WU?$char_traits@_W@std@@V?$allocator@_W@2@@std@@PEAU_TREEITEM@@U?$less@V?$basic_string@_WU?$char_traits@_W@std@@V?$allocator@_W@2@@std@@@2@V?$allocator@U?$pair@$$CBV?$basic_string@_WU?$char_traits@_W@std@@V?$allocator@_W@2@@std@@PEAU_TREEITEM@@@std@@@2@$0A@@std@@@std@@IEAAXXZ 0000000140010b60 f i Shell.cpp.obj
 0001:0000fba0       ?_Alloc_sentinel_and_proxy@?$list@U?$pair@QEAVITool@ith@@V?$unique_ptr@VToolView@ith@@U?$default_delete@VToolView@ith@@@std@@@std@@@std@@V?$allocator@U?$pair@QEAVITool@ith@@V?$unique_ptr@VToolView@ith@@U?$default_delete@VToolView@ith@@@std@@@std@@@std@@@2@@std@@AEAAXXZ 0000000140010ba0 f i Shell.cpp.obj
 0001:0000fbd0       ?_Allocate@?$_Alloc_construct_ptr@V?$allocator@U?$_List_node@U?$pair@QEAVITool@ith@@V?$unique_ptr@VToolView@ith@@U?$default_delete@VToolView@ith@@@std@@@std@@@std@@PEAX@std@@@std@@@std@@QEAAXXZ 0000000140010bd0 f i Shell.cpp.obj
 0001:0000fc00       ?_Allocate@?$_Alloc_construct_ptr@V?$allocator@U?$_Tree_node@U?$pair@$$CBV?$basic_string@_WU?$char_traits@_W@std@@V?$allocator@_W@2@@std@@PEAU_TREEITEM@@@std@@PEAX@std@@@std@@@std@@QEAAXXZ 0000000140010c00 f i Shell.cpp.obj
 0001:0000fc30       ?_Allocate@_Default_allocate_traits@std@@SAPEAX_K@Z 0000000140010c30 f i Shell.cpp.obj
 0001:0000fc40       ?_Assign_grow@?$_Hash_vec@V?$allocator@V?$_List_unchecked_iterator@V?$_List_val@U?$_List_simple_types@U?$pair@QEAVITool@ith@@V?$unique_ptr@VToolView@ith@@U?$default_delete@VToolView@ith@@@std@@@std@@@std@@@std@@@std@@@std@@@std@@@std@@QEAAX_KV?$_List_unchecked_iterator@V?$_List_val@U?$_List_simple_types@U?$pair@QEAVITool@ith@@V?$unique_ptr@VToolView@ith@@U?$default_delete@VToolView@ith@@@std@@@std@@@std@@@std@@@std@@@2@@Z 0000000140010c40 f i Shell.cpp.obj
 0001:0000fd90       ?_Bump_erased@_Range_eraser@?$_Hash@V?$_Umap_traits@PEAVITool@ith@@V?$unique_ptr@VToolView@ith@@U?$default_delete@VToolView@ith@@@std@@@std@@V?$_Uhash_compare@PEAVITool@ith@@U?$hash@PEAVITool@ith@@@std@@U?$equal_to@PEAVITool@ith@@@4@@4@V?$allocator@U?$pair@QEAVITool@ith@@V?$unique_ptr@VToolView@ith@@U?$default_delete@VToolView@ith@@@std@@@std@@@std@@@4@$0A@@std@@@std@@QEAAXXZ 0000000140010d90 f i Shell.cpp.obj
 0001:0000fdf0       ?_Calculate_growth@?$basic_string@_WU?$char_traits@_W@std@@V?$allocator@_W@2@@std@@CA_K_K00@Z 0000000140010df0 f i Shell.cpp.obj
 0001:0000fe30       ?_Calculate_growth@?$vector@V?$unique_ptr@VITool@ith@@U?$default_delete@VITool@ith@@@std@@@std@@V?$allocator@V?$unique_ptr@VITool@ith@@U?$default_delete@VITool@ith@@@std@@@std@@@2@@std@@AEBA_K_K@Z 0000000140010e30 f i Shell.cpp.obj
 0001:0000fe70       ?_Ceiling_of_log_2@std@@YAK_K@Z 0000000140010e70 f i Shell.cpp.obj
 0001:0000fe90       ?_Change_array@?$vector@V?$unique_ptr@VITool@ith@@U?$default_delete@VITool@ith@@@std@@@std@@V?$allocator@V?$unique_ptr@VITool@ith@@U?$default_delete@VITool@ith@@@std@@@std@@@2@@std@@AEAAXQEAV?$unique_ptr@VITool@ith@@U?$default_delete@VITool@ith@@@std@@@2@_K1@Z 0000000140010e90 f i Shell.cpp.obj
 0001:0000ff90       ?_Check_grow_by_1@?$_Tree@V?$_Tmap_traits@V?$basic_string@_WU?$char_traits@_W@std@@V?$allocator@_W@2@@std@@PEAU_TREEITEM@@U?$less@V?$basic_string@_WU?$char_traits@_W@std@@V?$allocator@_W@2@@std@@@2@V?$allocator@U?$pair@$$CBV?$basic_string@_WU?$char_traits@_W@std@@V?$allocator@_W@2@@std@@PEAU_TREEITEM@@@std@@@2@$0A@@std@@@std@@IEAAXXZ 0000000140010f90 f i Shell.cpp.obj
 0001:0000ffc0       ?_Check_max_size@?$_Hash@V?$_Umap_traits@PEAVITool@ith@@V?$unique_ptr@VToolView@ith@@U?$default_delete@VToolView@ith@@@std@@@std@@V?$_Uhash_compare@PEAVITool@ith@@U?$hash@PEAVITool@ith@@@std@@U?$equal_to@PEAVITool@ith@@@4@@4@V?$allocator@U?$pair@QEAVITool@ith@@V?$unique_ptr@VToolView@ith@@U?$default_delete@VToolView@ith@@@std@@@std@@@std@@@4@$0A@@std@@@std@@IEBAXXZ 0000000140010fc0 f i Shell.cpp.obj
 0001:0000fff0       ?_Check_rehash_required_1@?$_Hash@V?$_Umap_traits@PEAVITool@ith@@V?$unique_ptr@VToolView@ith@@U?$default_delete@VToolView@ith@@@std@@@std@@V?$_Uhash_compare@PEAVITool@ith@@U?$hash@PEAVITool@ith@@@std@@U?$equal_to@PEAVITool@ith@@@4@@4@V?$allocator@U?$pair@QEAVITool@ith@@V?$unique_ptr@VToolView@ith@@U?$default_delete@VToolView@ith@@@std@@@std@@@std@@@4@$0A@@std@@@std@@IEBA_NXZ 0000000140010ff0 f i Shell.cpp.obj
 0001:00010080       ?_Deallocate_for_capacity@?$basic_string@_WU?$char_traits@_W@std@@V?$allocator@_W@2@@std@@CAXAEAV?$allocator@_W@2@QEA_W_K@Z 0000000140011080 f i Shell.cpp.obj
 0001:000100e0       ?_Desired_grow_bucket_count@?$_Hash@V?$_Umap_traits@PEAVITool@ith@@V?$unique_ptr@VToolView@ith@@U?$default_delete@VToolView@ith@@@std@@@std@@V?$_Uhash_compare@PEAVITool@ith@@U?$hash@PEAVITool@ith@@@std@@U?$equal_to@PEAVITool@ith@@@4@@4@V?$allocator@U?$pair@QEAVITool@ith@@V?$unique_ptr@VToolView@ith@@U?$default_delete@VToolView@ith@@@std@@@std@@@std@@@4@$0A@@std@@@std@@IEBA_K_K@Z 00000001400110e0 f i Shell.cpp.obj
 0001:000101b0       ?_Do_hash@?$hash@PEAVITool@ith@@@std@@SA_KAEBQEAVITool@ith@@@Z 00000001400111b0 f i Shell.cpp.obj
 0001:000101c0       ?_Extract@?$_In_place_key_extract_map_impl@PEAVITool@ith@@PEAV12@V?$unique_ptr@VToolView@ith@@U?$default_delete@VToolView@ith@@@std@@@std@@@std@@SAAEBQEAVITool@ith@@AEBQEAV34@AEBV?$unique_ptr@VToolView@ith@@U?$default_delete@VToolView@ith@@@std@@@2@@Z 00000001400111c0 f i Shell.cpp.obj
 0001:000101d0       ?_Floor_of_log_2@std@@YAK_K@Z 00000001400111d0 f i Shell.cpp.obj
 0001:000101e0       ?_Fnv1a_append_bytes@std@@YA_K_KQEBE_K@Z 00000001400111e0 f i Shell.cpp.obj
 0001:00010230       ?_Forced_rehash@?$_Hash@V?$_Umap_traits@PEAVITool@ith@@V?$unique_ptr@VToolView@ith@@U?$default_delete@VToolView@ith@@@std@@@std@@V?$_Uhash_compare@PEAVITool@ith@@U?$hash@PEAVITool@ith@@@std@@U?$equal_to@PEAVITool@ith@@@4@@4@V?$allocator@U?$pair@QEAVITool@ith@@V?$unique_ptr@VToolView@ith@@U?$default_delete@VToolView@ith@@@std@@@std@@@std@@@4@$0A@@std@@@std@@IEAAX_K@Z 0000000140011230 f i Shell.cpp.obj
 0001:00010430       ?_Get_first@?$_Compressed_pair@U?$default_delete@VAdQueryTool@ith@@@std@@PEAVAdQueryTool@ith@@$00@std@@QEAAAEAU?$default_delete@VAdQueryTool@ith@@@2@XZ 0000000140011430 f i Shell.cpp.obj
 0001:00010440       ?_Get_first@?$_Compressed_pair@U?$default_delete@VITool@ith@@@std@@PEAVITool@ith@@$00@std@@QEAAAEAU?$default_delete@VITool@ith@@@2@XZ 0000000140011440 f i Shell.cpp.obj
 0001:00010450       ?_Get_first@?$_Compressed_pair@U?$default_delete@VToolView@ith@@@std@@PEAVToolView@ith@@$00@std@@QEAAAEAU?$default_delete@VToolView@ith@@@2@XZ 0000000140011450 f i Shell.cpp.obj
 0001:00010460       ?_Get_first@?$_Compressed_pair@U?$equal_to@PEAVITool@ith@@@std@@M$00@std@@QEBAAEBU?$equal_to@PEAVITool@ith@@@2@XZ 0000000140011460 f i Shell.cpp.obj
 0001:00010470       ?_Get_first@?$_Compressed_pair@U?$hash@PEAVITool@ith@@@std@@V?$_Compressed_pair@U?$equal_to@PEAVITool@ith@@@std@@M$00@2@$00@std@@QEBAAEBU?$hash@PEAVITool@ith@@@2@XZ 0000000140011470 f i Shell.cpp.obj
 0001:00010480       ?_Get_first@?$_Compressed_pair@U?$less@V?$basic_string@_WU?$char_traits@_W@std@@V?$allocator@_W@2@@std@@@std@@V?$_Compressed_pair@V?$allocator@U?$_Tree_node@U?$pair@$$CBV?$basic_string@_WU?$char_traits@_W@std@@V?$allocator@_W@2@@std@@PEAU_TREEITEM@@@std@@PEAX@std@@@std@@V?$_Tree_val@U?$_Tree_simple_types@U?$pair@$$CBV?$basic_string@_WU?$char_traits@_W@std@@V?$allocator@_W@2@@std@@PEAU_TREEITEM@@@std@@@std@@@2@$00@2@$00@std@@QEBAAEBU?$less@V?$basic_string@_WU?$char_traits@_W@std@@V?$allocator@_W@2@@std@@@2@XZ 0000000140011480 f i Shell.cpp.obj
 0001:00010490       ?_Get_first@?$_Compressed_pair@V?$allocator@U?$_List_node@U?$pair@QEAVITool@ith@@V?$unique_ptr@VToolView@ith@@U?$default_delete@VToolView@ith@@@std@@@std@@@std@@PEAX@std@@@std@@V?$_List_val@U?$_List_simple_types@U?$pair@QEAVITool@ith@@V?$unique_ptr@VToolView@ith@@U?$default_delete@VToolView@ith@@@std@@@std@@@std@@@std@@@2@$00@std@@QEAAAEAV?$allocator@U?$_List_node@U?$pair@QEAVITool@ith@@V?$unique_ptr@VToolView@ith@@U?$default_delete@VToolView@ith@@@std@@@std@@@std@@PEAX@std@@@2@XZ 0000000140011490 f i Shell.cpp.obj
 0001:000104a0       ?_Get_first@?$_Compressed_pair@V?$allocator@U?$_List_node@U?$pair@QEAVITool@ith@@V?$unique_ptr@VToolView@ith@@U?$default_delete@VToolView@ith@@@std@@@std@@@std@@PEAX@std@@@std@@V?$_List_val@U?$_List_simple_types@U?$pair@QEAVITool@ith@@V?$unique_ptr@VToolView@ith@@U?$default_delete@VToolView@ith@@@std@@@std@@@std@@@std@@@2@$00@std@@QEBAAEBV?$allocator@U?$_List_node@U?$pair@QEAVITool@ith@@V?$unique_ptr@VToolView@ith@@U?$default_delete@VToolView@ith@@@std@@@std@@@std@@PEAX@std@@@2@XZ 00000001400114a0 f i Shell.cpp.obj
 0001:000104b0       ?_Get_first@?$_Compressed_pair@V?$allocator@U?$_Tree_node@U?$pair@$$CBV?$basic_string@_WU?$char_traits@_W@std@@V?$allocator@_W@2@@std@@PEAU_TREEITEM@@@std@@PEAX@std@@@std@@V?$_Tree_val@U?$_Tree_simple_types@U?$pair@$$CBV?$basic_string@_WU?$char_traits@_W@std@@V?$allocator@_W@2@@std@@PEAU_TREEITEM@@@std@@@std@@@2@$00@std@@QEAAAEAV?$allocator@U?$_Tree_node@U?$pair@$$CBV?$basic_string@_WU?$char_traits@_W@std@@V?$allocator@_W@2@@std@@PEAU_TREEITEM@@@std@@PEAX@std@@@2@XZ 00000001400114b0 f i Shell.cpp.obj
 0001:000104c0       ?_Get_first@?$_Compressed_pair@V?$allocator@U?$_Tree_node@U?$pair@$$CBV?$basic_string@_WU?$char_traits@_W@std@@V?$allocator@_W@2@@std@@PEAU_TREEITEM@@@std@@PEAX@std@@@std@@V?$_Tree_val@U?$_Tree_simple_types@U?$pair@$$CBV?$basic_string@_WU?$char_traits@_W@std@@V?$allocator@_W@2@@std@@PEAU_TREEITEM@@@std@@@std@@@2@$00@std@@QEBAAEBV?$allocator@U?$_Tree_node@U?$pair@$$CBV?$basic_string@_WU?$char_traits@_W@std@@V?$allocator@_W@2@@std@@PEAU_TREEITEM@@@std@@PEAX@std@@@2@XZ 00000001400114c0 f i Shell.cpp.obj
 0001:000104d0       ?_Get_first@?$_Compressed_pair@V?$allocator@V?$_List_unchecked_iterator@V?$_List_val@U?$_List_simple_types@U?$pair@QEAVITool@ith@@V?$unique_ptr@VToolView@ith@@U?$default_delete@VToolView@ith@@@std@@@std@@@std@@@std@@@std@@@std@@@std@@V?$_Vector_val@U?$_Simple_types@V?$_List_unchecked_iterator@V?$_List_val@U?$_List_simple_types@U?$pair@QEAVITool@ith@@V?$unique_ptr@VToolView@ith@@U?$default_delete@VToolView@ith@@@std@@@std@@@std@@@std@@@std@@@std@@@std@@@2@$00@std@@QEAAAEAV?$allocator@V?$_List_unchecked_iterator@V?$_List_val@U?$_List_simple_types@U?$pair@QEAVITool@ith@@V?$unique_ptr@VToolView@ith@@U?$default_delete@VToolView@ith@@@std@@@std@@@std@@@std@@@std@@@std@@@2@XZ 00000001400114d0 f i Shell.cpp.obj
 0001:000104e0       ?_Get_first@?$_Compressed_pair@V?$allocator@V?$_List_unchecked_iterator@V?$_List_val@U?$_List_simple_types@U?$pair@QEAVITool@ith@@V?$unique_ptr@VToolView@ith@@U?$default_delete@VToolView@ith@@@std@@@std@@@std@@@std@@@std@@@std@@@std@@V?$_Vector_val@U?$_Simple_types@V?$_List_unchecked_iterator@V?$_List_val@U?$_List_simple_types@U?$pair@QEAVITool@ith@@V?$unique_ptr@VToolView@ith@@U?$default_delete@VToolView@ith@@@std@@@std@@@std@@@std@@@std@@@std@@@std@@@2@$00@std@@QEBAAEBV?$allocator@V?$_List_unchecked_iterator@V?$_List_val@U?$_List_simple_types@U?$pair@QEAVITool@ith@@V?$unique_ptr@VToolView@ith@@U?$default_delete@VToolView@ith@@@std@@@std@@@std@@@std@@@std@@@std@@@2@XZ 00000001400114e0 f i Shell.cpp.obj
 0001:000104f0       ?_Get_first@?$_Compressed_pair@V?$allocator@V?$unique_ptr@VITool@ith@@U?$default_delete@VITool@ith@@@std@@@std@@@std@@V?$_Vector_val@U?$_Simple_types@V?$unique_ptr@VITool@ith@@U?$default_delete@VITool@ith@@@std@@@std@@@std@@@2@$00@std@@QEAAAEAV?$allocator@V?$unique_ptr@VITool@ith@@U?$default_delete@VITool@ith@@@std@@@std@@@2@XZ 00000001400114f0 f i Shell.cpp.obj
 0001:00010500       ?_Get_first@?$_Compressed_pair@V?$allocator@V?$unique_ptr@VITool@ith@@U?$default_delete@VITool@ith@@@std@@@std@@@std@@V?$_Vector_val@U?$_Simple_types@V?$unique_ptr@VITool@ith@@U?$default_delete@VITool@ith@@@std@@@std@@@std@@@2@$00@std@@QEBAAEBV?$allocator@V?$unique_ptr@VITool@ith@@U?$default_delete@VITool@ith@@@std@@@std@@@2@XZ 0000000140011500 f i Shell.cpp.obj
 0001:00010510       ?_Get_first@?$_Compressed_pair@V?$allocator@_W@std@@V?$_String_val@U?$_Simple_types@_W@std@@@2@$00@std@@QEAAAEAV?$allocator@_W@2@XZ 0000000140011510 f i Shell.cpp.obj
 0001:00010520       ?_Get_first@?$_Compressed_pair@V?$allocator@_W@std@@V?$_String_val@U?$_Simple_types@_W@std@@@2@$00@std@@QEBAAEBV?$allocator@_W@2@XZ 0000000140011520 f i Shell.cpp.obj
 0001:00010530       ?_Get_max_bucket_size@?$_Uhash_compare@PEAVITool@ith@@U?$hash@PEAVITool@ith@@@std@@U?$equal_to@PEAVITool@ith@@@4@@std@@QEAAAEAMXZ 0000000140011530 f i Shell.cpp.obj
 0001:00010540       ?_Get_max_bucket_size@?$_Uhash_compare@PEAVITool@ith@@U?$hash@PEAVITool@ith@@@std@@U?$equal_to@PEAVITool@ith@@@4@@std@@QEBAAEBMXZ 0000000140011540 f i Shell.cpp.obj
 0001:00010550       ?_Get_scary@?$_Tree@V?$_Tmap_traits@V?$basic_string@_WU?$char_traits@_W@std@@V?$allocator@_W@2@@std@@PEAU_TREEITEM@@U?$less@V?$basic_string@_WU?$char_traits@_W@std@@V?$allocator@_W@2@@std@@@2@V?$allocator@U?$pair@$$CBV?$basic_string@_WU?$char_traits@_W@std@@V?$allocator@_W@2@@std@@PEAU_TREEITEM@@@std@@@2@$0A@@std@@@std@@IEAAPEAV?$_Tree_val@U?$_Tree_simple_types@U?$pair@$$CBV?$basic_string@_WU?$char_traits@_W@std@@V?$allocator@_W@2@@std@@PEAU_TREEITEM@@@std@@@std@@@2@XZ 0000000140011550 f i Shell.cpp.obj
 0001:00010560       ?_Get_scary@?$_Tree@V?$_Tmap_traits@V?$basic_string@_WU?$char_traits@_W@std@@V?$allocator@_W@2@@std@@PEAU_TREEITEM@@U?$less@V?$basic_string@_WU?$char_traits@_W@std@@V?$allocator@_W@2@@std@@@2@V?$allocator@U?$pair@$$CBV?$basic_string@_WU?$char_traits@_W@std@@V?$allocator@_W@2@@std@@PEAU_TREEITEM@@@std@@@2@$0A@@std@@@std@@IEBAPEBV?$_Tree_val@U?$_Tree_simple_types@U?$pair@$$CBV?$basic_string@_WU?$char_traits@_W@std@@V?$allocator@_W@2@@std@@PEAU_TREEITEM@@@std@@@std@@@2@XZ 0000000140011560 f i Shell.cpp.obj
 0001:00010570       ?_Getal@?$_Tree@V?$_Tmap_traits@V?$basic_string@_WU?$char_traits@_W@std@@V?$allocator@_W@2@@std@@PEAU_TREEITEM@@U?$less@V?$basic_string@_WU?$char_traits@_W@std@@V?$allocator@_W@2@@std@@@2@V?$allocator@U?$pair@$$CBV?$basic_string@_WU?$char_traits@_W@std@@V?$allocator@_W@2@@std@@PEAU_TREEITEM@@@std@@@2@$0A@@std@@@std@@IEAAAEAV?$allocator@U?$_Tree_node@U?$pair@$$CBV?$basic_string@_WU?$char_traits@_W@std@@V?$allocator@_W@2@@std@@PEAU_TREEITEM@@@std@@PEAX@std@@@2@XZ 0000000140011570 f i Shell.cpp.obj
 0001:00010580       ?_Getal@?$_Tree@V?$_Tmap_traits@V?$basic_string@_WU?$char_traits@_W@std@@V?$allocator@_W@2@@std@@PEAU_TREEITEM@@U?$less@V?$basic_string@_WU?$char_traits@_W@std@@V?$allocator@_W@2@@std@@@2@V?$allocator@U?$pair@$$CBV?$basic_string@_WU?$char_traits@_W@std@@V?$allocator@_W@2@@std@@PEAU_TREEITEM@@@std@@@2@$0A@@std@@@std@@IEBAAEBV?$allocator@U?$_Tree_node@U?$pair@$$CBV?$basic_string@_WU?$char_traits@_W@std@@V?$allocator@_W@2@@std@@PEAU_TREEITEM@@@std@@PEAX@std@@@2@XZ 0000000140011580 f i Shell.cpp.obj
 0001:00010590       ?_Getal@?$basic_string@_WU?$char_traits@_W@std@@V?$allocator@_W@2@@std@@AEAAAEAV?$allocator@_W@2@XZ 0000000140011590 f i Shell.cpp.obj
 0001:000105a0       ?_Getal@?$basic_string@_WU?$char_traits@_W@std@@V?$allocator@_W@2@@std@@AEBAAEBV?$allocator@_W@2@XZ 00000001400115a0 f i Shell.cpp.obj
 0001:000105b0       ?_Getal@?$list@U?$pair@QEAVITool@ith@@V?$unique_ptr@VToolView@ith@@U?$default_delete@VToolView@ith@@@std@@@std@@@std@@V?$allocator@U?$pair@QEAVITool@ith@@V?$unique_ptr@VToolView@ith@@U?$default_delete@VToolView@ith@@@std@@@std@@@std@@@2@@std@@AEAAAEAV?$allocator@U?$_List_node@U?$pair@QEAVITool@ith@@V?$unique_ptr@VToolView@ith@@U?$default_delete@VToolView@ith@@@std@@@std@@@std@@PEAX@std@@@2@XZ 00000001400115b0 f i Shell.cpp.obj
 0001:000105c0       ?_Getal@?$list@U?$pair@QEAVITool@ith@@V?$unique_ptr@VToolView@ith@@U?$default_delete@VToolView@ith@@@std@@@std@@@std@@V?$allocator@U?$pair@QEAVITool@ith@@V?$unique_ptr@VToolView@ith@@U?$default_delete@VToolView@ith@@@std@@@std@@@std@@@2@@std@@AEBAAEBV?$allocator@U?$_List_node@U?$pair@QEAVITool@ith@@V?$unique_ptr@VToolView@ith@@U?$default_delete@VToolView@ith@@@std@@@std@@@std@@PEAX@std@@@2@XZ 00000001400115c0 f i Shell.cpp.obj
 0001:000105d0       ?_Getal@?$vector@V?$unique_ptr@VITool@ith@@U?$default_delete@VITool@ith@@@std@@@std@@V?$allocator@V?$unique_ptr@VITool@ith@@U?$default_delete@VITool@ith@@@std@@@std@@@2@@std@@AEAAAEAV?$allocator@V?$unique_ptr@VITool@ith@@U?$default_delete@VITool@ith@@@std@@@std@@@2@XZ 00000001400115d0 f i Shell.cpp.obj
 0001:000105e0       ?_Getal@?$vector@V?$unique_ptr@VITool@ith@@U?$default_delete@VITool@ith@@@std@@@std@@V?$allocator@V?$unique_ptr@VITool@ith@@U?$default_delete@VITool@ith@@@std@@@std@@@2@@std@@AEBAAEBV?$allocator@V?$unique_ptr@VITool@ith@@U?$default_delete@VITool@ith@@@std@@@std@@@2@XZ 00000001400115e0 f i Shell.cpp.obj
 0001:000105f0       ?_Getcomp@?$_Tree@V?$_Tmap_traits@V?$basic_string@_WU?$char_traits@_W@std@@V?$allocator@_W@2@@std@@PEAU_TREEITEM@@U?$less@V?$basic_string@_WU?$char_traits@_W@std@@V?$allocator@_W@2@@std@@@2@V?$allocator@U?$pair@$$CBV?$basic_string@_WU?$char_traits@_W@std@@V?$allocator@_W@2@@std@@PEAU_TREEITEM@@@std@@@2@$0A@@std@@@std@@IEBAAEBU?$less@V?$basic_string@_WU?$char_traits@_W@std@@V?$allocator@_W@2@@std@@@2@XZ 00000001400115f0 f i Shell.cpp.obj
 0001:00010600       ?_Insert_new_node_before@?$_Hash@V?$_Umap_traits@PEAVITool@ith@@V?$unique_ptr@VToolView@ith@@U?$default_delete@VToolView@ith@@@std@@@std@@V?$_Uhash_compare@PEAVITool@ith@@U?$hash@PEAVITool@ith@@@std@@U?$equal_to@PEAVITool@ith@@@4@@4@V?$allocator@U?$pair@QEAVITool@ith@@V?$unique_ptr@VToolView@ith@@U?$default_delete@VToolView@ith@@@std@@@std@@@std@@@4@$0A@@std@@@std@@IEAAPEAU?$_List_node@U?$pair@QEAVITool@ith@@V?$unique_ptr@VToolView@ith@@U?$default_delete@VToolView@ith@@@std@@@std@@@std@@PEAX@2@_KQEAU32@1@Z 0000000140011600 f i Shell.cpp.obj
 0001:00010670       ?_Insert_node@?$_Tree_val@U?$_Tree_simple_types@U?$pair@$$CBV?$basic_string@_WU?$char_traits@_W@std@@V?$allocator@_W@2@@std@@PEAU_TREEITEM@@@std@@@std@@@std@@QEAAPEAU?$_Tree_node@U?$pair@$$CBV?$basic_string@_WU?$char_traits@_W@std@@V?$allocator@_W@2@@std@@PEAU_TREEITEM@@@std@@PEAX@2@U?$_Tree_id@PEAU?$_Tree_node@U?$pair@$$CBV?$basic_string@_WU?$char_traits@_W@std@@V?$allocator@_W@2@@std@@PEAU_TREEITEM@@@std@@PEAX@std@@@2@QEAU32@@Z 0000000140011670 f i Shell.cpp.obj
 0001:00010980       ?_Is_constant_evaluated@std@@YA_NXZ 0000000140011980 f i Shell.cpp.obj
 0001:00010990       ?_Large_mode_engaged@?$_String_val@U?$_Simple_types@_W@std@@@std@@QEBA_NXZ 0000000140011990 f i Shell.cpp.obj
 0001:000109a0       ?_Lrotate@?$_Tree_val@U?$_Tree_simple_types@U?$pair@$$CBV?$basic_string@_WU?$char_traits@_W@std@@V?$allocator@_W@2@@std@@PEAU_TREEITEM@@@std@@@std@@@std@@QEAAXPEAU?$_Tree_node@U?$pair@$$CBV?$basic_string@_WU?$char_traits@_W@std@@V?$allocator@_W@2@@std@@PEAU_TREEITEM@@@std@@PEAX@2@@Z 00000001400119a0 f i Shell.cpp.obj
 0001:00010a10       ?_Make_iter@?$list@U?$pair@QEAVITool@ith@@V?$unique_ptr@VToolView@ith@@U?$default_delete@VToolView@ith@@@std@@@std@@@std@@V?$allocator@U?$pair@QEAVITool@ith@@V?$unique_ptr@VToolView@ith@@U?$default_delete@VToolView@ith@@@std@@@std@@@std@@@2@@std@@QEBA?AV?$_List_iterator@V?$_List_val@U?$_List_simple_types@U?$pair@QEAVITool@ith@@V?$unique_ptr@VToolView@ith@@U?$default_delete@VToolView@ith@@@std@@@std@@@std@@@std@@@std@@@2@PEAU?$_List_node@U?$pair@QEAVITool@ith@@V?$unique_ptr@VToolView@ith@@U?$default_delete@VToolView@ith@@@std@@@std@@@std@@PEAX@2@@Z 0000000140011a10 f i Shell.cpp.obj
 0001:00010a20       ?_Max_bucket_size@?$_Hash@V?$_Umap_traits@PEAVITool@ith@@V?$unique_ptr@VToolView@ith@@U?$default_delete@VToolView@ith@@@std@@@std@@V?$_Uhash_compare@PEAVITool@ith@@U?$hash@PEAVITool@ith@@@std@@U?$equal_to@PEAVITool@ith@@@4@@4@V?$allocator@U?$pair@QEAVITool@ith@@V?$unique_ptr@VToolView@ith@@U?$default_delete@VToolView@ith@@@std@@@std@@@std@@@4@$0A@@std@@@std@@IEAAAEAMXZ 0000000140011a20 f i Shell.cpp.obj
 0001:00010a30       ?_Max_bucket_size@?$_Hash@V?$_Umap_traits@PEAVITool@ith@@V?$unique_ptr@VToolView@ith@@U?$default_delete@VToolView@ith@@@std@@@std@@V?$_Uhash_compare@PEAVITool@ith@@U?$hash@PEAVITool@ith@@@std@@U?$equal_to@PEAVITool@ith@@@4@@4@V?$allocator@U?$pair@QEAVITool@ith@@V?$unique_ptr@VToolView@ith@@U?$default_delete@VToolView@ith@@@std@@@std@@@std@@@4@$0A@@std@@@std@@IEBAAEBMXZ 0000000140011a30 f i Shell.cpp.obj
 0001:00010a40       ?_Min@?$_Tree_val@U?$_Tree_simple_types@U?$pair@$$CBV?$basic_string@_WU?$char_traits@_W@std@@V?$allocator@_W@2@@std@@PEAU_TREEITEM@@@std@@@std@@@std@@SAPEAU?$_Tree_node@U?$pair@$$CBV?$basic_string@_WU?$char_traits@_W@std@@V?$allocator@_W@2@@std@@PEAU_TREEITEM@@@std@@PEAX@2@PEAU32@@Z 0000000140011a40 f i Shell.cpp.obj
 0001:00010a70       ?_Min_load_factor_buckets@?$_Hash@V?$_Umap_traits@PEAVITool@ith@@V?$unique_ptr@VToolView@ith@@U?$default_delete@VToolView@ith@@@std@@@std@@V?$_Uhash_compare@PEAVITool@ith@@U?$hash@PEAVITool@ith@@@std@@U?$equal_to@PEAVITool@ith@@@4@@4@V?$allocator@U?$pair@QEAVITool@ith@@V?$unique_ptr@VToolView@ith@@U?$default_delete@VToolView@ith@@@std@@@std@@@std@@@4@$0A@@std@@@std@@IEBA_K_K@Z 0000000140011a70 f i Shell.cpp.obj
 0001:00010af0       ?_Myptr@?$_String_val@U?$_Simple_types@_W@std@@@std@@QEBAPEB_WXZ 0000000140011af0 f i Shell.cpp.obj
 0001:00010b10       ?_Orphan_all@_Container_base0@std@@QEAAXXZ 0000000140011b10 f i Shell.cpp.obj
 0001:00010b20       ?_Orphan_non_end@?$_List_val@U?$_List_simple_types@U?$pair@QEAVITool@ith@@V?$unique_ptr@VToolView@ith@@U?$default_delete@VToolView@ith@@@std@@@std@@@std@@@std@@@std@@QEAAXXZ 0000000140011b20 f i Shell.cpp.obj
 0001:00010b30       ?_Orphan_range@?$vector@V?$unique_ptr@VITool@ith@@U?$default_delete@VITool@ith@@@std@@@std@@V?$allocator@V?$unique_ptr@VITool@ith@@U?$default_delete@VITool@ith@@@std@@@std@@@2@@std@@AEBAXPEAV?$unique_ptr@VITool@ith@@U?$default_delete@VITool@ith@@@std@@@2@0@Z 0000000140011b30 f i Shell.cpp.obj
 0001:00010b40       ?_Rehash_for_1@?$_Hash@V?$_Umap_traits@PEAVITool@ith@@V?$unique_ptr@VToolView@ith@@U?$default_delete@VToolView@ith@@@std@@@std@@V?$_Uhash_compare@PEAVITool@ith@@U?$hash@PEAVITool@ith@@@std@@U?$equal_to@PEAVITool@ith@@@4@@4@V?$allocator@U?$pair@QEAVITool@ith@@V?$unique_ptr@VToolView@ith@@U?$default_delete@VToolView@ith@@@std@@@std@@@std@@@4@$0A@@std@@@std@@IEAAXXZ 0000000140011b40 f i Shell.cpp.obj
 0001:00010c20       ?_Release@?$_Alloc_construct_ptr@V?$allocator@U?$_List_node@U?$pair@QEAVITool@ith@@V?$unique_ptr@VToolView@ith@@U?$default_delete@VToolView@ith@@@std@@@std@@@std@@PEAX@std@@@std@@@std@@QEAAPEAU?$_List_node@U?$pair@QEAVITool@ith@@V?$unique_ptr@VToolView@ith@@U?$default_delete@VToolView@ith@@@std@@@std@@@std@@PEAX@2@XZ 0000000140011c20 f i Shell.cpp.obj
 0001:00010c30       ?_Release@?$_Alloc_construct_ptr@V?$allocator@U?$_Tree_node@U?$pair@$$CBV?$basic_string@_WU?$char_traits@_W@std@@V?$allocator@_W@2@@std@@PEAU_TREEITEM@@@std@@PEAX@std@@@std@@@std@@QEAAPEAU?$_Tree_node@U?$pair@$$CBV?$basic_string@_WU?$char_traits@_W@std@@V?$allocator@_W@2@@std@@PEAU_TREEITEM@@@std@@PEAX@2@XZ 0000000140011c30 f i Shell.cpp.obj
 0001:00010c40       ?_Release@?$_Uninitialized_backout@PEAV?$_List_unchecked_iterator@V?$_List_val@U?$_List_simple_types@U?$pair@QEAVITool@ith@@V?$unique_ptr@VToolView@ith@@U?$default_delete@VToolView@ith@@@std@@@std@@@std@@@std@@@std@@@std@@@std@@QEAAPEAV?$_List_unchecked_iterator@V?$_List_val@U?$_List_simple_types@U?$pair@QEAVITool@ith@@V?$unique_ptr@VToolView@ith@@U?$default_delete@VToolView@ith@@@std@@@std@@@std@@@std@@@std@@@2@XZ 0000000140011c40 f i Shell.cpp.obj
 0001:00010c50       ?_Release@?$_Uninitialized_backout_al@V?$allocator@V?$unique_ptr@VITool@ith@@U?$default_delete@VITool@ith@@@std@@@std@@@std@@@std@@QEAAPEAV?$unique_ptr@VITool@ith@@U?$default_delete@VITool@ith@@@std@@@2@XZ 0000000140011c50 f i Shell.cpp.obj
 0001:00010c60       ?_Release@_Fake_proxy_ptr_impl@std@@QEAAXXZ 0000000140011c60 f i Shell.cpp.obj
 0001:00010c70       ?_Rrotate@?$_Tree_val@U?$_Tree_simple_types@U?$pair@$$CBV?$basic_string@_WU?$char_traits@_W@std@@V?$allocator@_W@2@@std@@PEAU_TREEITEM@@@std@@@std@@@std@@QEAAXPEAU?$_Tree_node@U?$pair@$$CBV?$basic_string@_WU?$char_traits@_W@std@@V?$allocator@_W@2@@std@@PEAU_TREEITEM@@@std@@PEAX@2@@Z 0000000140011c70 f i Shell.cpp.obj
 0001:00010ce0       ?_Swap_proxy_and_iterators@_Container_base0@std@@QEAAXAEAU12@@Z 0000000140011ce0 f i Shell.cpp.obj
 0001:00010cf0       ?_Switch_to_buf@_Bxty@?$_String_val@U?$_Simple_types@_W@std@@@std@@QEAAXXZ 0000000140011cf0 f i Shell.cpp.obj
 0001:00010d00       ?_Take_contents@?$_Vector_val@U?$_Simple_types@V?$unique_ptr@VITool@ith@@U?$default_delete@VITool@ith@@@std@@@std@@@std@@@std@@QEAAXAEAV12@@Z 0000000140011d00 f i Shell.cpp.obj
 0001:00010d30       ?_Throw_bad_array_new_length@std@@YAXXZ 0000000140011d30 f i Shell.cpp.obj
 0001:00010d60       ?_Throw_tree_length_error@std@@YAXXZ 0000000140011d60 f i Shell.cpp.obj
 0001:00010d80       ?_Tidy@?$_Hash_vec@V?$allocator@V?$_List_unchecked_iterator@V?$_List_val@U?$_List_simple_types@U?$pair@QEAVITool@ith@@V?$unique_ptr@VToolView@ith@@U?$default_delete@VToolView@ith@@@std@@@std@@@std@@@std@@@std@@@std@@@std@@@std@@QEAAXXZ 0000000140011d80 f i Shell.cpp.obj
 0001:00010e10       ?_Tidy@?$list@U?$pair@QEAVITool@ith@@V?$unique_ptr@VToolView@ith@@U?$default_delete@VToolView@ith@@@std@@@std@@@std@@V?$allocator@U?$pair@QEAVITool@ith@@V?$unique_ptr@VToolView@ith@@U?$default_delete@VToolView@ith@@@std@@@std@@@std@@@2@@std@@AEAAXXZ 0000000140011e10 f i Shell.cpp.obj
 0001:00010eb0       ?_Tidy@?$vector@V?$unique_ptr@VITool@ith@@U?$default_delete@VITool@ith@@@std@@@std@@V?$allocator@V?$unique_ptr@VITool@ith@@U?$default_delete@VITool@ith@@@std@@@std@@@2@@std@@AEAAXXZ 0000000140011eb0 f i Shell.cpp.obj
 0001:00010f80       ?_Tidy_deallocate@?$basic_string@_WU?$char_traits@_W@std@@V?$allocator@_W@2@@std@@AEAAXXZ 0000000140011f80 f i Shell.cpp.obj
 0001:00011010       ?_Unchecked_begin@?$_Hash@V?$_Umap_traits@PEAVITool@ith@@V?$unique_ptr@VToolView@ith@@U?$default_delete@VToolView@ith@@@std@@@std@@V?$_Uhash_compare@PEAVITool@ith@@U?$hash@PEAVITool@ith@@@std@@U?$equal_to@PEAVITool@ith@@@4@@4@V?$allocator@U?$pair@QEAVITool@ith@@V?$unique_ptr@VToolView@ith@@U?$default_delete@VToolView@ith@@@std@@@std@@@std@@@4@$0A@@std@@@std@@QEAA?AV?$_List_unchecked_iterator@V?$_List_val@U?$_List_simple_types@U?$pair@QEAVITool@ith@@V?$unique_ptr@VToolView@ith@@U?$default_delete@VToolView@ith@@@std@@@std@@@std@@@std@@@std@@@2@XZ 0000000140012010 f i Shell.cpp.obj
 0001:00011030       ?_Unchecked_begin@?$_Tree@V?$_Tmap_traits@V?$basic_string@_WU?$char_traits@_W@std@@V?$allocator@_W@2@@std@@PEAU_TREEITEM@@U?$less@V?$basic_string@_WU?$char_traits@_W@std@@V?$allocator@_W@2@@std@@@2@V?$allocator@U?$pair@$$CBV?$basic_string@_WU?$char_traits@_W@std@@V?$allocator@_W@2@@std@@PEAU_TREEITEM@@@std@@@2@$0A@@std@@@std@@QEAA?AV?$_Tree_unchecked_iterator@V?$_Tree_val@U?$_Tree_simple_types@U?$pair@$$CBV?$basic_string@_WU?$char_traits@_W@std@@V?$allocator@_W@2@@std@@PEAU_TREEITEM@@@std@@@std@@@std@@@2@XZ 0000000140012030 f i Shell.cpp.obj
 0001:00011040       ?_Unchecked_begin@?$list@U?$pair@QEAVITool@ith@@V?$unique_ptr@VToolView@ith@@U?$default_delete@VToolView@ith@@@std@@@std@@@std@@V?$allocator@U?$pair@QEAVITool@ith@@V?$unique_ptr@VToolView@ith@@U?$default_delete@VToolView@ith@@@std@@@std@@@std@@@2@@std@@QEAA?AV?$_List_unchecked_iterator@V?$_List_val@U?$_List_simple_types@U?$pair@QEAVITool@ith@@V?$unique_ptr@VToolView@ith@@U?$default_delete@VToolView@ith@@@std@@@std@@@std@@@std@@@std@@@2@XZ 0000000140012040 f i Shell.cpp.obj
 0001:00011050       ?_Unchecked_begin@?$vector@V?$unique_ptr@VITool@ith@@U?$default_delete@VITool@ith@@@std@@@std@@V?$allocator@V?$unique_ptr@VITool@ith@@U?$default_delete@VITool@ith@@@std@@@std@@@2@@std@@QEAAPEAV?$unique_ptr@VITool@ith@@U?$default_delete@VITool@ith@@@std@@@2@XZ 0000000140012050 f i Shell.cpp.obj
 0001:00011060       ?_Unchecked_end@?$_Hash@V?$_Umap_traits@PEAVITool@ith@@V?$unique_ptr@VToolView@ith@@U?$default_delete@VToolView@ith@@@std@@@std@@V?$_Uhash_compare@PEAVITool@ith@@U?$hash@PEAVITool@ith@@@std@@U?$equal_to@PEAVITool@ith@@@4@@4@V?$allocator@U?$pair@QEAVITool@ith@@V?$unique_ptr@VToolView@ith@@U?$default_delete@VToolView@ith@@@std@@@std@@@std@@@4@$0A@@std@@@std@@QEAA?AV?$_List_unchecked_iterator@V?$_List_val@U?$_List_simple_types@U?$pair@QEAVITool@ith@@V?$unique_ptr@VToolView@ith@@U?$default_delete@VToolView@ith@@@std@@@std@@@std@@@std@@@std@@@2@XZ 0000000140012060 f i Shell.cpp.obj
 0001:00011070       ?_Unchecked_end@?$_Tree@V?$_Tmap_traits@V?$basic_string@_WU?$char_traits@_W@std@@V?$allocator@_W@2@@std@@PEAU_TREEITEM@@U?$less@V?$basic_string@_WU?$char_traits@_W@std@@V?$allocator@_W@2@@std@@@2@V?$allocator@U?$pair@$$CBV?$basic_string@_WU?$char_traits@_W@std@@V?$allocator@_W@2@@std@@PEAU_TREEITEM@@@std@@@2@$0A@@std@@@std@@QEBA?AU_Default_sentinel@2@XZ 0000000140012070 f i Shell.cpp.obj
 0001:00011080       ?_Unchecked_end@?$list@U?$pair@QEAVITool@ith@@V?$unique_ptr@VToolView@ith@@U?$default_delete@VToolView@ith@@@std@@@std@@@std@@V?$allocator@U?$pair@QEAVITool@ith@@V?$unique_ptr@VToolView@ith@@U?$default_delete@VToolView@ith@@@std@@@std@@@std@@@2@@std@@QEAA?AV?$_List_unchecked_iterator@V?$_List_val@U?$_List_simple_types@U?$pair@QEAVITool@ith@@V?$unique_ptr@VToolView@ith@@U?$default_delete@VToolView@ith@@@std@@@std@@@std@@@std@@@std@@@2@XZ 0000000140012080 f i Shell.cpp.obj
 0001:00011090       ?_Unchecked_end@?$vector@V?$unique_ptr@VITool@ith@@U?$default_delete@VITool@ith@@@std@@@std@@V?$allocator@V?$unique_ptr@VITool@ith@@U?$default_delete@VITool@ith@@@std@@@std@@@2@@std@@QEAAPEAV?$unique_ptr@VITool@ith@@U?$default_delete@VITool@ith@@@std@@@2@XZ 0000000140012090 f i Shell.cpp.obj
 0001:000110a0       ?_Unchecked_erase@?$_Hash@V?$_Umap_traits@PEAVITool@ith@@V?$unique_ptr@VToolView@ith@@U?$default_delete@VToolView@ith@@@std@@@std@@V?$_Uhash_compare@PEAVITool@ith@@U?$hash@PEAVITool@ith@@@std@@U?$equal_to@PEAVITool@ith@@@4@@4@V?$allocator@U?$pair@QEAVITool@ith@@V?$unique_ptr@VToolView@ith@@U?$default_delete@VToolView@ith@@@std@@@std@@@std@@@4@$0A@@std@@@std@@AEAAPEAU?$_List_node@U?$pair@QEAVITool@ith@@V?$unique_ptr@VToolView@ith@@U?$default_delete@VToolView@ith@@@std@@@std@@@std@@PEAX@2@PEAU32@QEAU32@@Z 00000001400120a0 f i Shell.cpp.obj
 0001:000112f0       ?_Unchecked_splice@?$_List_val@U?$_List_simple_types@U?$pair@QEAVITool@ith@@V?$unique_ptr@VToolView@ith@@U?$default_delete@VToolView@ith@@@std@@@std@@@std@@@std@@@std@@SAPEAU?$_List_node@U?$pair@QEAVITool@ith@@V?$unique_ptr@VToolView@ith@@U?$default_delete@VToolView@ith@@@std@@@std@@@std@@PEAX@2@QEAU32@00@Z 00000001400122f0 f i Shell.cpp.obj
 0001:00011320       ?_Xlen_string@std@@YAXXZ   0000000140012320 f i Shell.cpp.obj
 0001:00011340       ?_Xlength@?$vector@V?$unique_ptr@VITool@ith@@U?$default_delete@VITool@ith@@@std@@@std@@V?$allocator@V?$unique_ptr@VITool@ith@@U?$default_delete@VITool@ith@@@std@@@std@@@2@@std@@CAXXZ 0000000140012340 f i Shell.cpp.obj
 0001:00011360       ?allocate@?$allocator@U?$_List_node@U?$pair@QEAVITool@ith@@V?$unique_ptr@VToolView@ith@@U?$default_delete@VToolView@ith@@@std@@@std@@@std@@PEAX@std@@@std@@QEAAPEAU?$_List_node@U?$pair@QEAVITool@ith@@V?$unique_ptr@VToolView@ith@@U?$default_delete@VToolView@ith@@@std@@@std@@@std@@PEAX@2@_K@Z 0000000140012360 f i Shell.cpp.obj
 0001:000113c0       ?allocate@?$allocator@U?$_Tree_node@U?$pair@$$CBV?$basic_string@_WU?$char_traits@_W@std@@V?$allocator@_W@2@@std@@PEAU_TREEITEM@@@std@@PEAX@std@@@std@@QEAAPEAU?$_Tree_node@U?$pair@$$CBV?$basic_string@_WU?$char_traits@_W@std@@V?$allocator@_W@2@@std@@PEAU_TREEITEM@@@std@@PEAX@2@_K@Z 00000001400123c0 f i Shell.cpp.obj
 0001:00011420       ?allocate@?$allocator@V?$_List_unchecked_iterator@V?$_List_val@U?$_List_simple_types@U?$pair@QEAVITool@ith@@V?$unique_ptr@VToolView@ith@@U?$default_delete@VToolView@ith@@@std@@@std@@@std@@@std@@@std@@@std@@@std@@QEAAPEAV?$_List_unchecked_iterator@V?$_List_val@U?$_List_simple_types@U?$pair@QEAVITool@ith@@V?$unique_ptr@VToolView@ith@@U?$default_delete@VToolView@ith@@@std@@@std@@@std@@@std@@@std@@@2@_K@Z 0000000140012420 f i Shell.cpp.obj
 0001:00011480       ?allocate@?$allocator@V?$unique_ptr@VITool@ith@@U?$default_delete@VITool@ith@@@std@@@std@@@std@@QEAAPEAV?$unique_ptr@VITool@ith@@U?$default_delete@VITool@ith@@@std@@@2@_K@Z 0000000140012480 f i Shell.cpp.obj
 0001:000114e0       ?allocate@?$allocator@_W@std@@QEAAPEA_W_K@Z 00000001400124e0 f i Shell.cpp.obj
 0001:00011540       ?assign@?$_WChar_traits@_W@std@@SAXAEA_WAEB_W@Z 0000000140012540 f i Shell.cpp.obj
 0001:00011550       ?bucket@?$_Hash@V?$_Umap_traits@PEAVITool@ith@@V?$unique_ptr@VToolView@ith@@U?$default_delete@VToolView@ith@@@std@@@std@@V?$_Uhash_compare@PEAVITool@ith@@U?$hash@PEAVITool@ith@@@std@@U?$equal_to@PEAVITool@ith@@@4@@4@V?$allocator@U?$pair@QEAVITool@ith@@V?$unique_ptr@VToolView@ith@@U?$default_delete@VToolView@ith@@@std@@@std@@@std@@@4@$0A@@std@@@std@@QEBA_KAEBQEAVITool@ith@@@Z 0000000140012550 f i Shell.cpp.obj
 0001:00011580       ?bucket_count@?$_Hash@V?$_Umap_traits@PEAVITool@ith@@V?$unique_ptr@VToolView@ith@@U?$default_delete@VToolView@ith@@@std@@@std@@V?$_Uhash_compare@PEAVITool@ith@@U?$hash@PEAVITool@ith@@@std@@U?$equal_to@PEAVITool@ith@@@4@@4@V?$allocator@U?$pair@QEAVITool@ith@@V?$unique_ptr@VToolView@ith@@U?$default_delete@VToolView@ith@@@std@@@std@@@std@@@4@$0A@@std@@@std@@QEBA_KXZ 0000000140012580 f i Shell.cpp.obj
 0001:00011590       ?c_str@?$basic_string@_WU?$char_traits@_W@std@@V?$allocator@_W@2@@std@@QEBAPEB_WXZ 0000000140012590 f i Shell.cpp.obj
 0001:000115b0       ?capacity@?$_Hash_vec@V?$allocator@V?$_List_unchecked_iterator@V?$_List_val@U?$_List_simple_types@U?$pair@QEAVITool@ith@@V?$unique_ptr@VToolView@ith@@U?$default_delete@VToolView@ith@@@std@@@std@@@std@@@std@@@std@@@std@@@std@@@std@@QEBA_KXZ 00000001400125b0 f i Shell.cpp.obj
 0001:000115c0       ?capacity@?$vector@V?$unique_ptr@VITool@ith@@U?$default_delete@VITool@ith@@@std@@@std@@V?$allocator@V?$unique_ptr@VITool@ith@@U?$default_delete@VITool@ith@@@std@@@std@@@2@@std@@QEBA_KXZ 00000001400125c0 f i Shell.cpp.obj
 0001:000115d0       ?clear@?$_Hash@V?$_Umap_traits@PEAVITool@ith@@V?$unique_ptr@VToolView@ith@@U?$default_delete@VToolView@ith@@@std@@@std@@V?$_Uhash_compare@PEAVITool@ith@@U?$hash@PEAVITool@ith@@@std@@U?$equal_to@PEAVITool@ith@@@4@@4@V?$allocator@U?$pair@QEAVITool@ith@@V?$unique_ptr@VToolView@ith@@U?$default_delete@VToolView@ith@@@std@@@std@@@std@@@4@$0A@@std@@@std@@QEAAXXZ 00000001400125d0 f i Shell.cpp.obj
 0001:000116d0       ?clear@?$list@U?$pair@QEAVITool@ith@@V?$unique_ptr@VToolView@ith@@U?$default_delete@VToolView@ith@@@std@@@std@@@std@@V?$allocator@U?$pair@QEAVITool@ith@@V?$unique_ptr@VToolView@ith@@U?$default_delete@VToolView@ith@@@std@@@std@@@std@@@2@@std@@QEAAXXZ 00000001400126d0 f i Shell.cpp.obj
 0001:00011770       ?compare@?$_WChar_traits@_W@std@@SAHQEB_W0_K@Z 0000000140012770 f i Shell.cpp.obj
 0001:000117f0       ?compare@?$basic_string@_WU?$char_traits@_W@std@@V?$allocator@_W@2@@std@@QEBAHAEBV12@@Z 00000001400127f0 f i Shell.cpp.obj
 0001:000118b0       ?copy@?$_Char_traits@_WG@std@@SAPEA_WQEA_WQEB_W_K@Z 00000001400128b0 f i Shell.cpp.obj
 0001:000118d0       ?deallocate@?$_Default_allocator_traits@V?$allocator@U?$_List_node@U?$pair@QEAVITool@ith@@V?$unique_ptr@VToolView@ith@@U?$default_delete@VToolView@ith@@@std@@@std@@@std@@PEAX@std@@@std@@@std@@SAXAEAV?$allocator@U?$_List_node@U?$pair@QEAVITool@ith@@V?$unique_ptr@VToolView@ith@@U?$default_delete@VToolView@ith@@@std@@@std@@@std@@PEAX@std@@@2@QEAU?$_List_node@U?$pair@QEAVITool@ith@@V?$unique_ptr@VToolView@ith@@U?$default_delete@VToolView@ith@@@std@@@std@@@std@@PEAX@2@_K@Z 00000001400128d0 f i Shell.cpp.obj
 0001:00011920       ?deallocate@?$_Default_allocator_traits@V?$allocator@U?$_Tree_node@U?$pair@$$CBV?$basic_string@_WU?$char_traits@_W@std@@V?$allocator@_W@2@@std@@PEAU_TREEITEM@@@std@@PEAX@std@@@std@@@std@@SAXAEAV?$allocator@U?$_Tree_node@U?$pair@$$CBV?$basic_string@_WU?$char_traits@_W@std@@V?$allocator@_W@2@@std@@PEAU_TREEITEM@@@std@@PEAX@std@@@2@QEAU?$_Tree_node@U?$pair@$$CBV?$basic_string@_WU?$char_traits@_W@std@@V?$allocator@_W@2@@std@@PEAU_TREEITEM@@@std@@PEAX@2@_K@Z 0000000140012920 f i Shell.cpp.obj
 0001:00011980       ?deallocate@?$allocator@U?$_List_node@U?$pair@QEAVITool@ith@@V?$unique_ptr@VToolView@ith@@U?$default_delete@VToolView@ith@@@std@@@std@@@std@@PEAX@std@@@std@@QEAAXQEAU?$_List_node@U?$pair@QEAVITool@ith@@V?$unique_ptr@VToolView@ith@@U?$default_delete@VToolView@ith@@@std@@@std@@@std@@PEAX@2@_K@Z 0000000140012980 f i Shell.cpp.obj
 0001:000119d0       ?deallocate@?$allocator@U?$_Tree_node@U?$pair@$$CBV?$basic_string@_WU?$char_traits@_W@std@@V?$allocator@_W@2@@std@@PEAU_TREEITEM@@@std@@PEAX@std@@@std@@QEAAXQEAU?$_Tree_node@U?$pair@$$CBV?$basic_string@_WU?$char_traits@_W@std@@V?$allocator@_W@2@@std@@PEAU_TREEITEM@@@std@@PEAX@2@_K@Z 00000001400129d0 f i Shell.cpp.obj
 0001:00011a30       ?deallocate@?$allocator@V?$_List_unchecked_iterator@V?$_List_val@U?$_List_simple_types@U?$pair@QEAVITool@ith@@V?$unique_ptr@VToolView@ith@@U?$default_delete@VToolView@ith@@@std@@@std@@@std@@@std@@@std@@@std@@@std@@QEAAXQEAV?$_List_unchecked_iterator@V?$_List_val@U?$_List_simple_types@U?$pair@QEAVITool@ith@@V?$unique_ptr@VToolView@ith@@U?$default_delete@VToolView@ith@@@std@@@std@@@std@@@std@@@std@@@2@_K@Z 0000000140012a30 f i Shell.cpp.obj
 0001:00011a80       ?deallocate@?$allocator@V?$unique_ptr@VITool@ith@@U?$default_delete@VITool@ith@@@std@@@std@@@std@@QEAAXQEAV?$unique_ptr@VITool@ith@@U?$default_delete@VITool@ith@@@std@@@2@_K@Z 0000000140012a80 f i Shell.cpp.obj
 0001:00011ad0       ?deallocate@?$allocator@_W@std@@QEAAXQEA_W_K@Z 0000000140012ad0 f i Shell.cpp.obj
 0001:00011b20       ?end@?$_Hash@V?$_Umap_traits@PEAVITool@ith@@V?$unique_ptr@VToolView@ith@@U?$default_delete@VToolView@ith@@@std@@@std@@V?$_Uhash_compare@PEAVITool@ith@@U?$hash@PEAVITool@ith@@@std@@U?$equal_to@PEAVITool@ith@@@4@@4@V?$allocator@U?$pair@QEAVITool@ith@@V?$unique_ptr@VToolView@ith@@U?$default_delete@VToolView@ith@@@std@@@std@@@std@@@4@$0A@@std@@@std@@QEAA?AV?$_List_iterator@V?$_List_val@U?$_List_simple_types@U?$pair@QEAVITool@ith@@V?$unique_ptr@VToolView@ith@@U?$default_delete@VToolView@ith@@@std@@@std@@@std@@@std@@@std@@@2@XZ 0000000140012b20 f i Shell.cpp.obj
 0001:00011b30       ?end@?$_Tree@V?$_Tmap_traits@V?$basic_string@_WU?$char_traits@_W@std@@V?$allocator@_W@2@@std@@PEAU_TREEITEM@@U?$less@V?$basic_string@_WU?$char_traits@_W@std@@V?$allocator@_W@2@@std@@@2@V?$allocator@U?$pair@$$CBV?$basic_string@_WU?$char_traits@_W@std@@V?$allocator@_W@2@@std@@PEAU_TREEITEM@@@std@@@2@$0A@@std@@@std@@QEAA?AV?$_Tree_iterator@V?$_Tree_val@U?$_Tree_simple_types@U?$pair@$$CBV?$basic_string@_WU?$char_traits@_W@std@@V?$allocator@_W@2@@std@@PEAU_TREEITEM@@@std@@@std@@@std@@@2@XZ 0000000140012b30 f i Shell.cpp.obj
 0001:00011b40       ?end@?$list@U?$pair@QEAVITool@ith@@V?$unique_ptr@VToolView@ith@@U?$default_delete@VToolView@ith@@@std@@@std@@@std@@V?$allocator@U?$pair@QEAVITool@ith@@V?$unique_ptr@VToolView@ith@@U?$default_delete@VToolView@ith@@@std@@@std@@@std@@@2@@std@@QEAA?AV?$_List_iterator@V?$_List_val@U?$_List_simple_types@U?$pair@QEAVITool@ith@@V?$unique_ptr@VToolView@ith@@U?$default_delete@VToolView@ith@@@std@@@std@@@std@@@std@@@std@@@2@XZ 0000000140012b40 f i Shell.cpp.obj
 0001:00011b50       ?find@?$_Hash@V?$_Umap_traits@PEAVITool@ith@@V?$unique_ptr@VToolView@ith@@U?$default_delete@VToolView@ith@@@std@@@std@@V?$_Uhash_compare@PEAVITool@ith@@U?$hash@PEAVITool@ith@@@std@@U?$equal_to@PEAVITool@ith@@@4@@4@V?$allocator@U?$pair@QEAVITool@ith@@V?$unique_ptr@VToolView@ith@@U?$default_delete@VToolView@ith@@@std@@@std@@@std@@@4@$0A@@std@@@std@@QEAA?AV?$_List_iterator@V?$_List_val@U?$_List_simple_types@U?$pair@QEAVITool@ith@@V?$unique_ptr@VToolView@ith@@U?$default_delete@VToolView@ith@@@std@@@std@@@std@@@std@@@std@@@2@AEBQEAVITool@ith@@@Z 0000000140012b50 f i Shell.cpp.obj
 0001:00011bf0       ?find@?$_Tree@V?$_Tmap_traits@V?$basic_string@_WU?$char_traits@_W@std@@V?$allocator@_W@2@@std@@PEAU_TREEITEM@@U?$less@V?$basic_string@_WU?$char_traits@_W@std@@V?$allocator@_W@2@@std@@@2@V?$allocator@U?$pair@$$CBV?$basic_string@_WU?$char_traits@_W@std@@V?$allocator@_W@2@@std@@PEAU_TREEITEM@@@std@@@2@$0A@@std@@@std@@QEAA?AV?$_Tree_iterator@V?$_Tree_val@U?$_Tree_simple_types@U?$pair@$$CBV?$basic_string@_WU?$char_traits@_W@std@@V?$allocator@_W@2@@std@@PEAU_TREEITEM@@@std@@@std@@@std@@@2@AEBV?$basic_string@_WU?$char_traits@_W@std@@V?$allocator@_W@2@@2@@Z 0000000140012bf0 f i Shell.cpp.obj
 0001:00011c70       ?get@?$unique_ptr@VITool@ith@@U?$default_delete@VITool@ith@@@std@@@std@@QEBAPEAVITool@ith@@XZ 0000000140012c70 f i Shell.cpp.obj
 0001:00011c80       ?get@?$unique_ptr@VToolView@ith@@U?$default_delete@VToolView@ith@@@std@@@std@@QEBAPEAVToolView@ith@@XZ 0000000140012c80 f i Shell.cpp.obj
 0001:00011c90       ?get_deleter@?$unique_ptr@VAdQueryTool@ith@@U?$default_delete@VAdQueryTool@ith@@@std@@@std@@QEAAAEAU?$default_delete@VAdQueryTool@ith@@@2@XZ 0000000140012c90 f i Shell.cpp.obj
 0001:00011ca0       ?get_deleter@?$unique_ptr@VITool@ith@@U?$default_delete@VITool@ith@@@std@@@std@@QEAAAEAU?$default_delete@VITool@ith@@@2@XZ 0000000140012ca0 f i Shell.cpp.obj
 0001:00011cb0       ?get_deleter@?$unique_ptr@VToolView@ith@@U?$default_delete@VToolView@ith@@@std@@@std@@QEAAAEAU?$default_delete@VToolView@ith@@@2@XZ 0000000140012cb0 f i Shell.cpp.obj
 0001:00011cc0       ?is_constant_evaluated@std@@YA_NXZ 0000000140012cc0 f i Shell.cpp.obj
 0001:00011cd0       ?length@?$_WChar_traits@_W@std@@SA_KPEB_W@Z 0000000140012cd0 f i Shell.cpp.obj
 0001:00011ce0       ?max_load_factor@?$_Hash@V?$_Umap_traits@PEAVITool@ith@@V?$unique_ptr@VToolView@ith@@U?$default_delete@VToolView@ith@@@std@@@std@@V?$_Uhash_compare@PEAVITool@ith@@U?$hash@PEAVITool@ith@@@std@@U?$equal_to@PEAVITool@ith@@@4@@4@V?$allocator@U?$pair@QEAVITool@ith@@V?$unique_ptr@VToolView@ith@@U?$default_delete@VToolView@ith@@@std@@@std@@@std@@@4@$0A@@std@@@std@@QEBAMXZ 0000000140012ce0 f i Shell.cpp.obj
 0001:00011cf0       ?max_size@?$_Default_allocator_traits@V?$allocator@U?$_List_node@U?$pair@QEAVITool@ith@@V?$unique_ptr@VToolView@ith@@U?$default_delete@VToolView@ith@@@std@@@std@@@std@@PEAX@std@@@std@@@std@@SA_KAEBV?$allocator@U?$_List_node@U?$pair@QEAVITool@ith@@V?$unique_ptr@VToolView@ith@@U?$default_delete@VToolView@ith@@@std@@@std@@@std@@PEAX@std@@@2@@Z 0000000140012cf0 f i Shell.cpp.obj
 0001:00011d00       ?max_size@?$_Default_allocator_traits@V?$allocator@U?$_Tree_node@U?$pair@$$CBV?$basic_string@_WU?$char_traits@_W@std@@V?$allocator@_W@2@@std@@PEAU_TREEITEM@@@std@@PEAX@std@@@std@@@std@@SA_KAEBV?$allocator@U?$_Tree_node@U?$pair@$$CBV?$basic_string@_WU?$char_traits@_W@std@@V?$allocator@_W@2@@std@@PEAU_TREEITEM@@@std@@PEAX@std@@@2@@Z 0000000140012d00 f i Shell.cpp.obj
 0001:00011d10       ?max_size@?$_Default_allocator_traits@V?$allocator@V?$_List_unchecked_iterator@V?$_List_val@U?$_List_simple_types@U?$pair@QEAVITool@ith@@V?$unique_ptr@VToolView@ith@@U?$default_delete@VToolView@ith@@@std@@@std@@@std@@@std@@@std@@@std@@@std@@@std@@SA_KAEBV?$allocator@V?$_List_unchecked_iterator@V?$_List_val@U?$_List_simple_types@U?$pair@QEAVITool@ith@@V?$unique_ptr@VToolView@ith@@U?$default_delete@VToolView@ith@@@std@@@std@@@std@@@std@@@std@@@std@@@2@@Z 0000000140012d10 f i Shell.cpp.obj
 0001:00011d20       ?max_size@?$_Default_allocator_traits@V?$allocator@V?$unique_ptr@VITool@ith@@U?$default_delete@VITool@ith@@@std@@@std@@@std@@@std@@SA_KAEBV?$allocator@V?$unique_ptr@VITool@ith@@U?$default_delete@VITool@ith@@@std@@@std@@@2@@Z 0000000140012d20 f i Shell.cpp.obj
 0001:00011d30       ?max_size@?$_Default_allocator_traits@V?$allocator@_W@std@@@std@@SA_KAEBV?$allocator@_W@2@@Z 0000000140012d30 f i Shell.cpp.obj
 0001:00011d40       ?max_size@?$_Hash_vec@V?$allocator@V?$_List_unchecked_iterator@V?$_List_val@U?$_List_simple_types@U?$pair@QEAVITool@ith@@V?$unique_ptr@VToolView@ith@@U?$default_delete@VToolView@ith@@@std@@@std@@@std@@@std@@@std@@@std@@@std@@@std@@QEBA_KXZ 0000000140012d40 f i Shell.cpp.obj
 0001:00011d50       ?max_size@?$_Tree@V?$_Tmap_traits@V?$basic_string@_WU?$char_traits@_W@std@@V?$allocator@_W@2@@std@@PEAU_TREEITEM@@U?$less@V?$basic_string@_WU?$char_traits@_W@std@@V?$allocator@_W@2@@std@@@2@V?$allocator@U?$pair@$$CBV?$basic_string@_WU?$char_traits@_W@std@@V?$allocator@_W@2@@std@@PEAU_TREEITEM@@@std@@@2@$0A@@std@@@std@@QEBA_KXZ 0000000140012d50 f i Shell.cpp.obj
 0001:00011d60       ?max_size@?$basic_string@_WU?$char_traits@_W@std@@V?$allocator@_W@2@@std@@QEBA_KXZ 0000000140012d60 f i Shell.cpp.obj
 0001:00011d70       ?max_size@?$list@U?$pair@QEAVITool@ith@@V?$unique_ptr@VToolView@ith@@U?$default_delete@VToolView@ith@@@std@@@std@@@std@@V?$allocator@U?$pair@QEAVITool@ith@@V?$unique_ptr@VToolView@ith@@U?$default_delete@VToolView@ith@@@std@@@std@@@std@@@2@@std@@QEBA_KXZ 0000000140012d70 f i Shell.cpp.obj
 0001:00011d80       ?max_size@?$vector@V?$unique_ptr@VITool@ith@@U?$default_delete@VITool@ith@@@std@@@std@@V?$allocator@V?$unique_ptr@VITool@ith@@U?$default_delete@VITool@ith@@@std@@@std@@@2@@std@@QEBA_KXZ 0000000140012d80 f i Shell.cpp.obj
 0001:00011d90       ?pointer_to@?$pointer_traits@PEAU?$pair@$$CBV?$basic_string@_WU?$char_traits@_W@std@@V?$allocator@_W@2@@std@@PEAU_TREEITEM@@@std@@@std@@SAPEAU?$pair@$$CBV?$basic_string@_WU?$char_traits@_W@std@@V?$allocator@_W@2@@std@@PEAU_TREEITEM@@@2@AEAU32@@Z 0000000140012d90 f i Shell.cpp.obj
 0001:00011da0       ?pointer_to@?$pointer_traits@PEAU?$pair@QEAVITool@ith@@V?$unique_ptr@VToolView@ith@@U?$default_delete@VToolView@ith@@@std@@@std@@@std@@@std@@SAPEAU?$pair@QEAVITool@ith@@V?$unique_ptr@VToolView@ith@@U?$default_delete@VToolView@ith@@@std@@@std@@@2@AEAU32@@Z 0000000140012da0 f i Shell.cpp.obj
 0001:00011db0       ?push_back@?$vector@V?$unique_ptr@VITool@ith@@U?$default_delete@VITool@ith@@@std@@@std@@V?$allocator@V?$unique_ptr@VITool@ith@@U?$default_delete@VITool@ith@@@std@@@std@@@2@@std@@QEAAX$$QEAV?$unique_ptr@VITool@ith@@U?$default_delete@VITool@ith@@@std@@@2@@Z 0000000140012db0 f i Shell.cpp.obj
 0001:00011df0       ?release@?$unique_ptr@VAdQueryTool@ith@@U?$default_delete@VAdQueryTool@ith@@@std@@@std@@QEAAPEAVAdQueryTool@ith@@XZ 0000000140012df0 f i Shell.cpp.obj
 0001:00011e00       ?release@?$unique_ptr@VITool@ith@@U?$default_delete@VITool@ith@@@std@@@std@@QEAAPEAVITool@ith@@XZ 0000000140012e00 f i Shell.cpp.obj
 0001:00011e10       ?release@?$unique_ptr@VToolView@ith@@U?$default_delete@VToolView@ith@@@std@@@std@@QEAAPEAVToolView@ith@@XZ 0000000140012e10 f i Shell.cpp.obj
 0001:00011e20       ?select_on_container_copy_construction@?$_Default_allocator_traits@V?$allocator@_W@std@@@std@@SA?AV?$allocator@_W@2@AEBV32@@Z 0000000140012e20 f i Shell.cpp.obj
 0001:00011e30       ?size@?$_Hash_vec@V?$allocator@V?$_List_unchecked_iterator@V?$_List_val@U?$_List_simple_types@U?$pair@QEAVITool@ith@@V?$unique_ptr@VToolView@ith@@U?$default_delete@VToolView@ith@@@std@@@std@@@std@@@std@@@std@@@std@@@std@@@std@@QEBA_KXZ 0000000140012e30 f i Shell.cpp.obj
 0001:00011e40       ?what@exception@std@@UEBAPEBDXZ 0000000140012e40 f i Shell.cpp.obj
 0001:00011e60       ??$?0$$V@?$_Compressed_pair@V?$allocator@E@std@@V?$_Vector_val@U?$_Simple_types@E@std@@@2@$00@std@@QEAA@U_Zero_then_variadic_args_t@1@@Z 0000000140012e60 f i AdQuery.cpp.obj
 0001:00011e80       ??$?0$$V@?$_Compressed_pair@V?$allocator@PEA_W@std@@V?$_Vector_val@U?$_Simple_types@PEA_W@std@@@2@$00@std@@QEAA@U_Zero_then_variadic_args_t@1@@Z 0000000140012e80 f i AdQuery.cpp.obj
 0001:00011ea0       ??$?0$$V@?$_Compressed_pair@V?$allocator@UInfoPair@ith@@@std@@V?$_Vector_val@U?$_Simple_types@UInfoPair@ith@@@std@@@2@$00@std@@QEAA@U_Zero_then_variadic_args_t@1@@Z 0000000140012ea0 f i AdQuery.cpp.obj
 0001:00011ec0       ??$?0$$V@?$_Compressed_pair@V?$allocator@UNamedEntry@ith@@@std@@V?$_Vector_val@U?$_Simple_types@UNamedEntry@ith@@@std@@@2@$00@std@@QEAA@U_Zero_then_variadic_args_t@1@@Z 0000000140012ec0 f i AdQuery.cpp.obj
 0001:00011ee0       ??$?0$$V@?$_Compressed_pair@V?$allocator@V?$basic_string@_WU?$char_traits@_W@std@@V?$allocator@_W@2@@std@@@std@@V?$_Vector_val@U?$_Simple_types@V?$basic_string@_WU?$char_traits@_W@std@@V?$allocator@_W@2@@std@@@std@@@2@$00@std@@QEAA@U_Zero_then_variadic_args_t@1@@Z 0000000140012ee0 f i AdQuery.cpp.obj
 0001:00011f00       ??$?0AEAPEAUAdResult@ith@@@?$_Compressed_pair@U?$default_delete@UAdResult@ith@@@std@@PEAUAdResult@ith@@$00@std@@QEAA@U_Zero_then_variadic_args_t@1@AEAPEAUAdResult@ith@@@Z 0000000140012f00 f i AdQuery.cpp.obj
 0001:00011f10       ??$?0AEAPEAUNamedEntry@ith@@AEAPEAU01@$0A@@?$pair@PEAUNamedEntry@ith@@PEAU12@@std@@QEAA@AEAPEAUNamedEntry@ith@@0@Z 0000000140012f10 f i AdQuery.cpp.obj
 0001:00011fe0       ??$?0AEAV?$basic_string@_WU?$char_traits@_W@std@@V?$allocator@_W@2@@std@@$0A@@?$optional@V?$basic_string@_WU?$char_traits@_W@std@@V?$allocator@_W@2@@std@@@std@@QEAA@AEAV?$basic_string@_WU?$char_traits@_W@std@@V?$allocator@_W@2@@1@@Z 0000000140012fe0 f i AdQuery.cpp.obj
 0001:00012010       ??$?0AEAV?$basic_string@_WU?$char_traits@_W@std@@V?$allocator@_W@2@@std@@@?$_Non_trivial_copy@U?$_Optional_construct_base@V?$basic_string@_WU?$char_traits@_W@std@@V?$allocator@_W@2@@std@@@std@@@std@@QEAA@Uin_place_t@1@AEAV?$basic_string@_WU?$char_traits@_W@std@@V?$allocator@_W@2@@1@@Z 0000000140013010 f i AdQuery.cpp.obj
 0001:00012040       ??$?0AEAV?$basic_string@_WU?$char_traits@_W@std@@V?$allocator@_W@2@@std@@@?$_Non_trivial_copy_assign@U?$_Optional_construct_base@V?$basic_string@_WU?$char_traits@_W@std@@V?$allocator@_W@2@@std@@@std@@V?$basic_string@_WU?$char_traits@_W@std@@V?$allocator@_W@2@@2@@std@@QEAA@Uin_place_t@1@AEAV?$basic_string@_WU?$char_traits@_W@std@@V?$allocator@_W@2@@1@@Z 0000000140013040 f i AdQuery.cpp.obj
 0001:00012070       ??$?0AEAV?$basic_string@_WU?$char_traits@_W@std@@V?$allocator@_W@2@@std@@@?$_Non_trivial_move@U?$_Optional_construct_base@V?$basic_string@_WU?$char_traits@_W@std@@V?$allocator@_W@2@@std@@@std@@V?$basic_string@_WU?$char_traits@_W@std@@V?$allocator@_W@2@@2@@std@@QEAA@Uin_place_t@1@AEAV?$basic_string@_WU?$char_traits@_W@std@@V?$allocator@_W@2@@1@@Z 0000000140013070 f i AdQuery.cpp.obj
 0001:000120a0       ??$?0AEAV?$basic_string@_WU?$char_traits@_W@std@@V?$allocator@_W@2@@std@@@?$_Non_trivial_move_assign@U?$_Optional_construct_base@V?$basic_string@_WU?$char_traits@_W@std@@V?$allocator@_W@2@@std@@@std@@V?$basic_string@_WU?$char_traits@_W@std@@V?$allocator@_W@2@@2@@std@@QEAA@Uin_place_t@1@AEAV?$basic_string@_WU?$char_traits@_W@std@@V?$allocator@_W@2@@1@@Z 00000001400130a0 f i AdQuery.cpp.obj
 0001:000120d0       ??$?0AEAV?$basic_string@_WU?$char_traits@_W@std@@V?$allocator@_W@2@@std@@@?$_Optional_construct_base@V?$basic_string@_WU?$char_traits@_W@std@@V?$allocator@_W@2@@std@@@std@@QEAA@Uin_place_t@1@AEAV?$basic_string@_WU?$char_traits@_W@std@@V?$allocator@_W@2@@1@@Z 00000001400130d0 f i AdQuery.cpp.obj
 0001:00012100       ??$?0AEAV?$basic_string@_WU?$char_traits@_W@std@@V?$allocator@_W@2@@std@@@?$_Optional_destruct_base@V?$basic_string@_WU?$char_traits@_W@std@@V?$allocator@_W@2@@std@@$0A@@std@@QEAA@Uin_place_t@1@AEAV?$basic_string@_WU?$char_traits@_W@std@@V?$allocator@_W@2@@1@@Z 0000000140013100 f i AdQuery.cpp.obj
 0001:000121c0       ??$?0AEBV?$allocator@E@std@@$$V@?$_Compressed_pair@V?$allocator@E@std@@V?$_Vector_val@U?$_Simple_types@E@std@@@2@$00@std@@QEAA@U_One_then_variadic_args_t@1@AEBV?$allocator@E@1@@Z 00000001400131c0 f i AdQuery.cpp.obj
 0001:000121e0       ??$?0AEBV?$allocator@PEB_W@std@@$$V@?$_Compressed_pair@V?$allocator@PEB_W@std@@V?$_Vector_val@U?$_Simple_types@PEB_W@std@@@2@$00@std@@QEAA@U_One_then_variadic_args_t@1@AEBV?$allocator@PEB_W@1@@Z 00000001400131e0 f i AdQuery.cpp.obj
 0001:00012200       ??$?0I$0A@@?$optional@I@std@@QEAA@$$QEAI@Z 0000000140013200 f i AdQuery.cpp.obj
 0001:00012210       ??$?0I@?$_Optional_construct_base@I@std@@QEAA@Uin_place_t@1@$$QEAI@Z 0000000140013210 f i AdQuery.cpp.obj
 0001:00012220       ??$?0I@?$_Optional_destruct_base@I$00@std@@QEAA@Uin_place_t@1@$$QEAI@Z 0000000140013220 f i AdQuery.cpp.obj
 0001:00012230       ??$?0PEAE$0A@@?$vector@EV?$allocator@E@std@@@std@@QEAA@PEAE0AEBV?$allocator@E@1@@Z 0000000140013230 f i AdQuery.cpp.obj
 0001:000122f0       ??$?0U?$default_delete@UAdResult@ith@@@std@@$0A@@?$unique_ptr@UAdResult@ith@@U?$default_delete@UAdResult@ith@@@std@@@std@@QEAA@$$QEAV01@@Z 00000001400132f0 f i AdQuery.cpp.obj
 0001:00012310       ??$?0U?$default_delete@UAdResult@ith@@@std@@$0A@@?$unique_ptr@UAdResult@ith@@U?$default_delete@UAdResult@ith@@@std@@@std@@QEAA@PEAUAdResult@ith@@@Z 0000000140013310 f i AdQuery.cpp.obj
 0001:00012320       ??$?0U?$default_delete@UAdResult@ith@@@std@@PEAUAdResult@ith@@@?$_Compressed_pair@U?$default_delete@UAdResult@ith@@@std@@PEAUAdResult@ith@@$00@std@@QEAA@U_One_then_variadic_args_t@1@$$QEAU?$default_delete@UAdResult@ith@@@1@$$QEAPEAUAdResult@ith@@@Z 0000000140013320 f i AdQuery.cpp.obj
 0001:000123a0       ??$?0V?$allocator@E@std@@$$V@?$_Compressed_pair@V?$allocator@E@std@@V?$_Vector_val@U?$_Simple_types@E@std@@@2@$00@std@@QEAA@U_One_then_variadic_args_t@1@$$QEAV?$allocator@E@1@@Z 00000001400133a0 f i AdQuery.cpp.obj
 0001:000123c0       ??$?0V?$allocator@E@std@@PEAEPEAEPEAE@?$_Compressed_pair@V?$allocator@E@std@@V?$_Vector_val@U?$_Simple_types@E@std@@@2@$00@std@@QEAA@U_One_then_variadic_args_t@1@$$QEAV?$allocator@E@1@$$QEAPEAE22@Z 00000001400133c0 f i AdQuery.cpp.obj
 0001:000123f0       ??$?0V?$allocator@UNamedEntry@ith@@@std@@PEAUNamedEntry@ith@@PEAU23@PEAU23@@?$_Compressed_pair@V?$allocator@UNamedEntry@ith@@@std@@V?$_Vector_val@U?$_Simple_types@UNamedEntry@ith@@@std@@@2@$00@std@@QEAA@U_One_then_variadic_args_t@1@$$QEAV?$allocator@UNamedEntry@ith@@@1@$$QEAPEAUNamedEntry@ith@@22@Z 00000001400133f0 f i AdQuery.cpp.obj
 0001:00012420       ??$?0V?$allocator@V?$basic_string@_WU?$char_traits@_W@std@@V?$allocator@_W@2@@std@@@std@@PEAV?$basic_string@_WU?$char_traits@_W@std@@V?$allocator@_W@2@@1@PEAV21@PEAV21@@?$_Compressed_pair@V?$allocator@V?$basic_string@_WU?$char_traits@_W@std@@V?$allocator@_W@2@@std@@@std@@V?$_Vector_val@U?$_Simple_types@V?$basic_string@_WU?$char_traits@_W@std@@V?$allocator@_W@2@@std@@@std@@@2@$00@std@@QEAA@U_One_then_variadic_args_t@1@$$QEAV?$allocator@V?$basic_string@_WU?$char_traits@_W@std@@V?$allocator@_W@2@@std@@@1@$$QEAPEAV?$basic_string@_WU?$char_traits@_W@std@@V?$allocator@_W@2@@1@22@Z 0000000140013420 f i AdQuery.cpp.obj
 0001:00012450       ??$?0V?$vector@EV?$allocator@E@std@@@std@@$0A@@?$optional@V?$vector@EV?$allocator@E@std@@@std@@@std@@QEAA@$$QEAV?$vector@EV?$allocator@E@std@@@1@@Z 0000000140013450 f i AdQuery.cpp.obj
 0001:00012490       ??$?0V?$vector@EV?$allocator@E@std@@@std@@@?$_Non_trivial_copy@U?$_Optional_construct_base@V?$vector@EV?$allocator@E@std@@@std@@@std@@@std@@QEAA@Uin_place_t@1@$$QEAV?$vector@EV?$allocator@E@std@@@1@@Z 0000000140013490 f i AdQuery.cpp.obj
 0001:000124d0       ??$?0V?$vector@EV?$allocator@E@std@@@std@@@?$_Non_trivial_copy_assign@U?$_Optional_construct_base@V?$vector@EV?$allocator@E@std@@@std@@@std@@V?$vector@EV?$allocator@E@std@@@2@@std@@QEAA@Uin_place_t@1@$$QEAV?$vector@EV?$allocator@E@std@@@1@@Z 00000001400134d0 f i AdQuery.cpp.obj
 0001:00012510       ??$?0V?$vector@EV?$allocator@E@std@@@std@@@?$_Non_trivial_move@U?$_Optional_construct_base@V?$vector@EV?$allocator@E@std@@@std@@@std@@V?$vector@EV?$allocator@E@std@@@2@@std@@QEAA@Uin_place_t@1@$$QEAV?$vector@EV?$allocator@E@std@@@1@@Z 0000000140013510 f i AdQuery.cpp.obj
 0001:00012550       ??$?0V?$vector@EV?$allocator@E@std@@@std@@@?$_Non_trivial_move_assign@U?$_Optional_construct_base@V?$vector@EV?$allocator@E@std@@@std@@@std@@V?$vector@EV?$allocator@E@std@@@2@@std@@QEAA@Uin_place_t@1@$$QEAV?$vector@EV?$allocator@E@std@@@1@@Z 0000000140013550 f i AdQuery.cpp.obj
 0001:00012590       ??$?0V?$vector@EV?$allocator@E@std@@@std@@@?$_Optional_construct_base@V?$vector@EV?$allocator@E@std@@@std@@@std@@QEAA@Uin_place_t@1@$$QEAV?$vector@EV?$allocator@E@std@@@1@@Z 0000000140013590 f i AdQuery.cpp.obj
 0001:000125d0       ??$?0V?$vector@EV?$allocator@E@std@@@std@@@?$_Optional_destruct_base@V?$vector@EV?$allocator@E@std@@@std@@$0A@@std@@QEAA@Uin_place_t@1@$$QEAV?$vector@EV?$allocator@E@std@@@1@@Z 00000001400135d0 f i AdQuery.cpp.obj
 0001:00012610       ??$?0_J$0A@@?$optional@_J@std@@QEAA@$$QEA_J@Z 0000000140013610 f i AdQuery.cpp.obj
 0001:00012630       ??$?0_J@?$_Optional_construct_base@_J@std@@QEAA@Uin_place_t@1@$$QEA_J@Z 0000000140013630 f i AdQuery.cpp.obj
 0001:00012650       ??$?0_J@?$_Optional_destruct_base@_J$00@std@@QEAA@Uin_place_t@1@$$QEA_J@Z 0000000140013650 f i AdQuery.cpp.obj
 0001:00012670       ??$?4AEBQEA_W$0A@@?$optional@V?$basic_string@_WU?$char_traits@_W@std@@V?$allocator@_W@2@@std@@@std@@QEAAAEAV01@AEBQEA_W@Z 0000000140013670 f i AdQuery.cpp.obj
 0001:00012700       ??$?4V?$vector@EV?$allocator@E@std@@@std@@$0A@@?$optional@V?$vector@EV?$allocator@E@std@@@std@@@std@@QEAAAEAV01@$$QEAV?$vector@EV?$allocator@E@std@@@1@@Z 0000000140013700 f i AdQuery.cpp.obj
 0001:00012820       ??$?H_WU?$char_traits@_W@std@@V?$allocator@_W@1@@std@@YA?AV?$basic_string@_WU?$char_traits@_W@std@@V?$allocator@_W@2@@0@$$QEAV10@AEBV10@@Z 0000000140013820 f i AdQuery.cpp.obj
 0001:000128a0       ??$?H_WU?$char_traits@_W@std@@V?$allocator@_W@1@@std@@YA?AV?$basic_string@_WU?$char_traits@_W@std@@V?$allocator@_W@2@@0@$$QEAV10@QEB_W@Z 00000001400138a0 f i AdQuery.cpp.obj
 0001:00012920       ??$?H_WU?$char_traits@_W@std@@V?$allocator@_W@1@@std@@YA?AV?$basic_string@_WU?$char_traits@_W@std@@V?$allocator@_W@2@@0@AEBV10@0@Z 0000000140013920 f i AdQuery.cpp.obj
 0001:000129b0       ??$?H_WU?$char_traits@_W@std@@V?$allocator@_W@1@@std@@YA?AV?$basic_string@_WU?$char_traits@_W@std@@V?$allocator@_W@2@@0@AEBV10@QEB_W@Z 00000001400139b0 f i AdQuery.cpp.obj
 0001:00012a40       ??$?H_WU?$char_traits@_W@std@@V?$allocator@_W@1@@std@@YA?AV?$basic_string@_WU?$char_traits@_W@std@@V?$allocator@_W@2@@0@QEB_W$$QEAV10@@Z 0000000140013a40 f i AdQuery.cpp.obj
 0001:00012be0       ??$?H_WU?$char_traits@_W@std@@V?$allocator@_W@1@@std@@YA?AV?$basic_string@_WU?$char_traits@_W@std@@V?$allocator@_W@2@@0@QEB_WAEBV10@@Z 0000000140013be0 f i AdQuery.cpp.obj
 0001:00012c90       ??$_Adl_verify_range@PEAEPEAE@std@@YAXAEBQEAE0@Z 0000000140013c90 f i AdQuery.cpp.obj
 0001:00012ca0       ??$_Adl_verify_range@V?$_Vector_iterator@V?$_Vector_val@U?$_Simple_types@UNamedEntry@ith@@@std@@@std@@@std@@V12@@std@@YAXAEBV?$_Vector_iterator@V?$_Vector_val@U?$_Simple_types@UNamedEntry@ith@@@std@@@std@@@0@0@Z 0000000140013ca0 f i AdQuery.cpp.obj
 0001:00012cb0       ??$_Allocate_at_least_helper@V?$allocator@E@std@@@std@@YAPEAEAEAV?$allocator@E@0@AEA_K@Z 0000000140013cb0 f i AdQuery.cpp.obj
 0001:00012ce0       ??$_Allocate_at_least_helper@V?$allocator@PEA_W@std@@@std@@YAPEAPEA_WAEAV?$allocator@PEA_W@0@AEA_K@Z 0000000140013ce0 f i AdQuery.cpp.obj
 0001:00012d40       ??$_Allocate_at_least_helper@V?$allocator@PEB_W@std@@@std@@YAPEAPEB_WAEAV?$allocator@PEB_W@0@AEA_K@Z 0000000140013d40 f i AdQuery.cpp.obj
 0001:00012da0       ??$_Allocate_at_least_helper@V?$allocator@UInfoPair@ith@@@std@@@std@@YAPEAUInfoPair@ith@@AEAV?$allocator@UInfoPair@ith@@@0@AEA_K@Z 0000000140013da0 f i AdQuery.cpp.obj
 0001:00012e00       ??$_Allocate_at_least_helper@V?$allocator@UNamedEntry@ith@@@std@@@std@@YAPEAUNamedEntry@ith@@AEAV?$allocator@UNamedEntry@ith@@@0@AEA_K@Z 0000000140013e00 f i AdQuery.cpp.obj
 0001:00012e60       ??$_Allocate_at_least_helper@V?$allocator@V?$basic_string@_WU?$char_traits@_W@std@@V?$allocator@_W@2@@std@@@std@@@std@@YAPEAV?$basic_string@_WU?$char_traits@_W@std@@V?$allocator@_W@2@@0@AEAV?$allocator@V?$basic_string@_WU?$char_traits@_W@std@@V?$allocator@_W@2@@std@@@0@AEA_K@Z 0000000140013e60 f i AdQuery.cpp.obj
 0001:00012ec0       ??$_Append@_W@?$basic_string@_WU?$char_traits@_W@std@@V?$allocator@_W@2@@std@@AEAAAEAV01@QEB_W_K@Z 0000000140013ec0 f i AdQuery.cpp.obj
 0001:00012f70       ??$_Assign@AEBQEA_W@?$_Optional_construct_base@V?$basic_string@_WU?$char_traits@_W@std@@V?$allocator@_W@2@@std@@@std@@QEAAXAEBQEA_W@Z 0000000140013f70 f i AdQuery.cpp.obj
 0001:00013000       ??$_Assign@V?$vector@EV?$allocator@E@std@@@std@@@?$_Optional_construct_base@V?$vector@EV?$allocator@E@std@@@std@@@std@@QEAAX$$QEAV?$vector@EV?$allocator@E@std@@@1@@Z 0000000140014000 f i AdQuery.cpp.obj
 0001:00013120       ??$_Assign@_W@?$basic_string@_WU?$char_traits@_W@std@@V?$allocator@_W@2@@std@@AEAAAEAV01@QEB_W_K@Z 0000000140014120 f i AdQuery.cpp.obj
 0001:000132f0       ??$_Assign_counted_range@PEAE@?$vector@EV?$allocator@E@std@@@std@@AEAAXPEAE_K@Z 00000001400142f0 f i AdQuery.cpp.obj
 0001:000134b0       ??$_Construct@AEBQEA_W@?$_Optional_construct_base@V?$basic_string@_WU?$char_traits@_W@std@@V?$allocator@_W@2@@std@@@std@@QEAAAEAV?$basic_string@_WU?$char_traits@_W@std@@V?$allocator@_W@2@@1@AEBQEA_W@Z 00000001400144b0 f i AdQuery.cpp.obj
 0001:00013510       ??$_Construct@V?$basic_string@_WU?$char_traits@_W@std@@V?$allocator@_W@2@@std@@@?$_Optional_construct_base@V?$basic_string@_WU?$char_traits@_W@std@@V?$allocator@_W@2@@std@@@std@@QEAAAEAV?$basic_string@_WU?$char_traits@_W@std@@V?$allocator@_W@2@@1@$$QEAV21@@Z 0000000140014510 f i AdQuery.cpp.obj
 0001:00013560       ??$_Construct@V?$vector@EV?$allocator@E@std@@@std@@@?$_Optional_construct_base@V?$vector@EV?$allocator@E@std@@@std@@@std@@QEAAAEAV?$vector@EV?$allocator@E@std@@@1@$$QEAV21@@Z 0000000140014560 f i AdQuery.cpp.obj
 0001:000135a0       ??$_Construct_from@U?$_Optional_construct_base@V?$basic_string@_WU?$char_traits@_W@std@@V?$allocator@_W@2@@std@@@std@@@?$_Optional_construct_base@V?$basic_string@_WU?$char_traits@_W@std@@V?$allocator@_W@2@@std@@@std@@QEAAX$$QEAU01@@Z 00000001400145a0 f i AdQuery.cpp.obj
 0001:000135f0       ??$_Construct_from@U?$_Optional_construct_base@V?$vector@EV?$allocator@E@std@@@std@@@std@@@?$_Optional_construct_base@V?$vector@EV?$allocator@E@std@@@std@@@std@@QEAAX$$QEAU01@@Z 00000001400145f0 f i AdQuery.cpp.obj
 0001:00013630       ??$_Construct_in_place@PEA_WAEAPEA_W@std@@YAXAEAPEA_W0@Z 0000000140014630 f i AdQuery.cpp.obj
 0001:00013640       ??$_Construct_in_place@PEA_WPEA_W@std@@YAXAEAPEA_W$$QEAPEA_W@Z 0000000140014640 f i AdQuery.cpp.obj
 0001:00013650       ??$_Construct_in_place@UInfoPair@ith@@U12@@std@@YAXAEAUInfoPair@ith@@$$QEAU12@@Z 0000000140014650 f i AdQuery.cpp.obj
 0001:000136d0       ??$_Construct_in_place@UNamedEntry@ith@@U12@@std@@YAXAEAUNamedEntry@ith@@$$QEAU12@@Z 00000001400146d0 f i AdQuery.cpp.obj
 0001:00013720       ??$_Construct_in_place@V?$basic_string@_WU?$char_traits@_W@std@@V?$allocator@_W@2@@std@@AEBQEA_W@std@@YAXAEAV?$basic_string@_WU?$char_traits@_W@std@@V?$allocator@_W@2@@0@AEBQEA_W@Z 0000000140014720 f i AdQuery.cpp.obj
 0001:00013770       ??$_Construct_in_place@V?$basic_string@_WU?$char_traits@_W@std@@V?$allocator@_W@2@@std@@V12@@std@@YAXAEAV?$basic_string@_WU?$char_traits@_W@std@@V?$allocator@_W@2@@0@$$QEAV10@@Z 0000000140014770 f i AdQuery.cpp.obj
 0001:000137b0       ??$_Construct_in_place@V?$vector@EV?$allocator@E@std@@@std@@V12@@std@@YAXAEAV?$vector@EV?$allocator@E@std@@@0@$$QEAV10@@Z 00000001400147b0 f i AdQuery.cpp.obj
 0001:000137e0       ??$_Construct_n@AEBQEAEAEBQEAE@?$vector@EV?$allocator@E@std@@@std@@AEAAX_KAEBQEAE1@Z 00000001400147e0 f i AdQuery.cpp.obj
 0001:000138a0       ??$_Construct_n@PEAEPEAE@?$vector@EV?$allocator@E@std@@@std@@AEAAX_K$$QEAPEAE1@Z 00000001400148a0 f i AdQuery.cpp.obj
 0001:00013960       ??$_Construct_n@PEBQEB_WPEBQEB_W@?$vector@PEB_WV?$allocator@PEB_W@std@@@std@@AEAAX_K$$QEAPEBQEB_W1@Z 0000000140014960 f i AdQuery.cpp.obj
 0001:00013a50       ??$_Contiguous_iter_verify@PEAE@std@@YAXAEBQEAEAEB_J@Z 0000000140014a50 f i AdQuery.cpp.obj
 0001:00013a60       ??$_Contiguous_iter_verify@PEAPEA_W@std@@YAXAEBQEAPEA_WAEB_J@Z 0000000140014a60 f i AdQuery.cpp.obj
 0001:00013a70       ??$_Contiguous_iter_verify@PEAPEB_W@std@@YAXAEBQEAPEB_WAEB_J@Z 0000000140014a70 f i AdQuery.cpp.obj
 0001:00013a80       ??$_Copy_memcpy@PEAEPEAE@std@@YAPEAEPEAE00@Z 0000000140014a80 f i AdQuery.cpp.obj
 0001:00013a90       ??$_Copy_memcpy@PEAPEA_WPEAPEA_W@std@@YAPEAPEA_WPEAPEA_W00@Z 0000000140014a90 f i AdQuery.cpp.obj
 0001:00013aa0       ??$_Copy_memcpy@PEBQEB_WPEAPEB_W@std@@YAPEAPEB_WPEBQEB_W0PEAPEB_W@Z 0000000140014aa0 f i AdQuery.cpp.obj
 0001:00013ab0       ??$_Copy_memcpy_n@PEAEPEAE@std@@YAPEAEPEAE_K0@Z 0000000140014ab0 f i AdQuery.cpp.obj
 0001:00013ac0       ??$_Copy_memmove_n@PEAEPEAE@std@@YAPEAEPEAE_K0@Z 0000000140014ac0 f i AdQuery.cpp.obj
 0001:00013ad0       ??$_Copy_n_unchecked4@PEAE_KPEAE@std@@YAPEAEPEAE_K0@Z 0000000140014ad0 f i AdQuery.cpp.obj
 0001:00013ae0       ??$_Deallocate@$07@std@@YAXPEAX_K@Z 0000000140014ae0 f i AdQuery.cpp.obj
 0001:00013b20       ??$_Destroy_range@V?$allocator@E@std@@@std@@YAXPEAEQEAEAEAV?$allocator@E@0@@Z 0000000140014b20 f i AdQuery.cpp.obj
 0001:00013b30       ??$_Destroy_range@V?$allocator@PEA_W@std@@@std@@YAXPEAPEA_WQEAPEA_WAEAV?$allocator@PEA_W@0@@Z 0000000140014b30 f i AdQuery.cpp.obj
 0001:00013b40       ??$_Destroy_range@V?$allocator@PEB_W@std@@@std@@YAXPEAPEB_WQEAPEB_WAEAV?$allocator@PEB_W@0@@Z 0000000140014b40 f i AdQuery.cpp.obj
 0001:00013b50       ??$_Destroy_range@V?$allocator@UInfoPair@ith@@@std@@@std@@YAXPEAUInfoPair@ith@@QEAU12@AEAV?$allocator@UInfoPair@ith@@@0@@Z 0000000140014b50 f i AdQuery.cpp.obj
 0001:00013ba0       ??$_Destroy_range@V?$allocator@UNamedEntry@ith@@@std@@@std@@YAXPEAUNamedEntry@ith@@QEAU12@AEAV?$allocator@UNamedEntry@ith@@@0@@Z 0000000140014ba0 f i AdQuery.cpp.obj
 0001:00013be0       ??$_Destroy_range@V?$allocator@V?$basic_string@_WU?$char_traits@_W@std@@V?$allocator@_W@2@@std@@@std@@@std@@YAXPEAV?$basic_string@_WU?$char_traits@_W@std@@V?$allocator@_W@2@@0@QEAV10@AEAV?$allocator@V?$basic_string@_WU?$char_traits@_W@std@@V?$allocator@_W@2@@std@@@0@@Z 0000000140014be0 f i AdQuery.cpp.obj
 0001:00013c20       ??$_Emplace_back@AEAE@?$_Uninitialized_backout_al@V?$allocator@E@std@@@std@@QEAAXAEAE@Z 0000000140014c20 f i AdQuery.cpp.obj
 0001:00013c40       ??$_Emplace_back@AEBQEB_W@?$_Uninitialized_backout_al@V?$allocator@PEB_W@std@@@std@@QEAAXAEBQEB_W@Z 0000000140014c40 f i AdQuery.cpp.obj
 0001:00013c60       ??$_Emplace_back@PEA_W@?$_Uninitialized_backout_al@V?$allocator@PEA_W@std@@@std@@QEAAX$$QEAPEA_W@Z 0000000140014c60 f i AdQuery.cpp.obj
 0001:00013c80       ??$_Emplace_back@UInfoPair@ith@@@?$_Uninitialized_backout_al@V?$allocator@UInfoPair@ith@@@std@@@std@@QEAAX$$QEAUInfoPair@ith@@@Z 0000000140014c80 f i AdQuery.cpp.obj
 0001:00013d10       ??$_Emplace_back@UNamedEntry@ith@@@?$_Uninitialized_backout_al@V?$allocator@UNamedEntry@ith@@@std@@@std@@QEAAX$$QEAUNamedEntry@ith@@@Z 0000000140014d10 f i AdQuery.cpp.obj
 0001:00013d70       ??$_Emplace_back@V?$basic_string@_WU?$char_traits@_W@std@@V?$allocator@_W@2@@std@@@?$_Uninitialized_backout_al@V?$allocator@V?$basic_string@_WU?$char_traits@_W@std@@V?$allocator@_W@2@@std@@@std@@@std@@QEAAX$$QEAV?$basic_string@_WU?$char_traits@_W@std@@V?$allocator@_W@2@@1@@Z 0000000140014d70 f i AdQuery.cpp.obj
 0001:00013dc0       ??$_Emplace_back_with_unused_capacity@AEBQEA_W@?$vector@V?$basic_string@_WU?$char_traits@_W@std@@V?$allocator@_W@2@@std@@V?$allocator@V?$basic_string@_WU?$char_traits@_W@std@@V?$allocator@_W@2@@std@@@2@@std@@AEAAAEAV?$basic_string@_WU?$char_traits@_W@std@@V?$allocator@_W@2@@1@AEBQEA_W@Z 0000000140014dc0 f i AdQuery.cpp.obj
 0001:00013e40       ??$_Emplace_back_with_unused_capacity@PEA_W@?$vector@PEA_WV?$allocator@PEA_W@std@@@std@@AEAAAEAPEA_W$$QEAPEA_W@Z 0000000140014e40 f i AdQuery.cpp.obj
 0001:00013e60       ??$_Emplace_back_with_unused_capacity@UInfoPair@ith@@@?$vector@UInfoPair@ith@@V?$allocator@UInfoPair@ith@@@std@@@std@@AEAAAEAUInfoPair@ith@@$$QEAU23@@Z 0000000140014e60 f i AdQuery.cpp.obj
 0001:00013f00       ??$_Emplace_back_with_unused_capacity@UNamedEntry@ith@@@?$vector@UNamedEntry@ith@@V?$allocator@UNamedEntry@ith@@@std@@@std@@AEAAAEAUNamedEntry@ith@@$$QEAU23@@Z 0000000140014f00 f i AdQuery.cpp.obj
 0001:00013f60       ??$_Emplace_one_at_back@AEBQEA_W@?$vector@V?$basic_string@_WU?$char_traits@_W@std@@V?$allocator@_W@2@@std@@V?$allocator@V?$basic_string@_WU?$char_traits@_W@std@@V?$allocator@_W@2@@std@@@2@@std@@AEAAAEAV?$basic_string@_WU?$char_traits@_W@std@@V?$allocator@_W@2@@1@AEBQEA_W@Z 0000000140014f60 f i AdQuery.cpp.obj
 0001:00014000       ??$_Emplace_one_at_back@PEA_W@?$vector@PEA_WV?$allocator@PEA_W@std@@@std@@AEAAAEAPEA_W$$QEAPEA_W@Z 0000000140015000 f i AdQuery.cpp.obj
 0001:000141a0       ??$_Emplace_one_at_back@UInfoPair@ith@@@?$vector@UInfoPair@ith@@V?$allocator@UInfoPair@ith@@@std@@@std@@AEAAAEAUInfoPair@ith@@$$QEAU23@@Z 00000001400151a0 f i AdQuery.cpp.obj
 0001:00014250       ??$_Emplace_one_at_back@UNamedEntry@ith@@@?$vector@UNamedEntry@ith@@V?$allocator@UNamedEntry@ith@@@std@@@std@@AEAAAEAUNamedEntry@ith@@$$QEAU23@@Z 0000000140015250 f i AdQuery.cpp.obj
 0001:000142c0       ??$_Emplace_reallocate@AEBQEA_W@?$vector@V?$basic_string@_WU?$char_traits@_W@std@@V?$allocator@_W@2@@std@@V?$allocator@V?$basic_string@_WU?$char_traits@_W@std@@V?$allocator@_W@2@@std@@@2@@std@@AEAAPEAV?$basic_string@_WU?$char_traits@_W@std@@V?$allocator@_W@2@@1@QEAV21@AEBQEA_W@Z 00000001400152c0 f i AdQuery.cpp.obj
 0001:00014610       ??$_Emplace_reallocate@PEA_W@?$vector@PEA_WV?$allocator@PEA_W@std@@@std@@AEAAPEAPEA_WQEAPEA_W$$QEAPEA_W@Z 0000000140015610 f i AdQuery.cpp.obj
 0001:00014790       ??$_Emplace_reallocate@UInfoPair@ith@@@?$vector@UInfoPair@ith@@V?$allocator@UInfoPair@ith@@@std@@@std@@AEAAPEAUInfoPair@ith@@QEAU23@$$QEAU23@@Z 0000000140015790 f i AdQuery.cpp.obj
 0001:00014a40       ??$_Emplace_reallocate@UNamedEntry@ith@@@?$vector@UNamedEntry@ith@@V?$allocator@UNamedEntry@ith@@@std@@@std@@AEAAPEAUNamedEntry@ith@@QEAU23@$$QEAU23@@Z 0000000140015a40 f i AdQuery.cpp.obj
 0001:00014e10       ??$_Get_proxy_allocator@V?$allocator@E@std@@@std@@YA?AU_Fake_allocator@0@AEBV?$allocator@E@0@@Z 0000000140015e10 f i AdQuery.cpp.obj
 0001:00014e20       ??$_Get_proxy_allocator@V?$allocator@PEA_W@std@@@std@@YA?AU_Fake_allocator@0@AEBV?$allocator@PEA_W@0@@Z 0000000140015e20 f i AdQuery.cpp.obj
 0001:00014e30       ??$_Get_proxy_allocator@V?$allocator@PEB_W@std@@@std@@YA?AU_Fake_allocator@0@AEBV?$allocator@PEB_W@0@@Z 0000000140015e30 f i AdQuery.cpp.obj
 0001:00014e40       ??$_Get_proxy_allocator@V?$allocator@UInfoPair@ith@@@std@@@std@@YA?AU_Fake_allocator@0@AEBV?$allocator@UInfoPair@ith@@@0@@Z 0000000140015e40 f i AdQuery.cpp.obj
 0001:00014e50       ??$_Get_proxy_allocator@V?$allocator@UNamedEntry@ith@@@std@@@std@@YA?AU_Fake_allocator@0@AEBV?$allocator@UNamedEntry@ith@@@0@@Z 0000000140015e50 f i AdQuery.cpp.obj
 0001:00014e60       ??$_Get_proxy_allocator@V?$allocator@V?$basic_string@_WU?$char_traits@_W@std@@V?$allocator@_W@2@@std@@@std@@@std@@YA?AU_Fake_allocator@0@AEBV?$allocator@V?$basic_string@_WU?$char_traits@_W@std@@V?$allocator@_W@2@@std@@@0@@Z 0000000140015e60 f i AdQuery.cpp.obj
 0001:00014e70       ??$_Get_size_of_n@$00@std@@YA_K_K@Z 0000000140015e70 f i AdQuery.cpp.obj
 0001:00014e80       ??$_Get_size_of_n@$0CI@@std@@YA_K_K@Z 0000000140015e80 f i AdQuery.cpp.obj
 0001:00014eb0       ??$_Get_size_of_n@$0EA@@std@@YA_K_K@Z 0000000140015eb0 f i AdQuery.cpp.obj
 0001:00014ee0       ??$_Get_unwrapped@AEAPEAE@std@@YA?A_TAEAPEAE@Z 0000000140015ee0 f i AdQuery.cpp.obj
 0001:00014ef0       ??$_Get_unwrapped@AEBQEAPEA_W@std@@YA?A_TAEBQEAPEA_W@Z 0000000140015ef0 f i AdQuery.cpp.obj
 0001:00014f00       ??$_Get_unwrapped@AEBQEAUInfoPair@ith@@@std@@YA?A_TAEBQEAUInfoPair@ith@@@Z 0000000140015f00 f i AdQuery.cpp.obj
 0001:00014f10       ??$_Get_unwrapped@AEBQEAUNamedEntry@ith@@@std@@YA?A_TAEBQEAUNamedEntry@ith@@@Z 0000000140015f10 f i AdQuery.cpp.obj
 0001:00014f20       ??$_Get_unwrapped@AEBQEAV?$basic_string@_WU?$char_traits@_W@std@@V?$allocator@_W@2@@std@@@std@@YA?A_TAEBQEAV?$basic_string@_WU?$char_traits@_W@std@@V?$allocator@_W@2@@0@@Z 0000000140015f20 f i AdQuery.cpp.obj
 0001:00014f30       ??$_Get_unwrapped@AEBV?$_Vector_iterator@V?$_Vector_val@U?$_Simple_types@UNamedEntry@ith@@@std@@@std@@@std@@@std@@YA?A_TAEBV?$_Vector_iterator@V?$_Vector_val@U?$_Simple_types@UNamedEntry@ith@@@std@@@std@@@0@@Z 0000000140015f30 f i AdQuery.cpp.obj
 0001:00014f40       ??$_Get_unwrapped@PEAE@std@@YA?A_T$$QEAPEAE@Z 0000000140015f40 f i AdQuery.cpp.obj
 0001:000152d0       ??$_Impl_copy_memmeow@$00PEAEPEAE@std@@YAPEAEPEAE00@Z 00000001400162d0 f i AdQuery.cpp.obj
 0001:000152f0       ??$_Impl_copy_memmeow@$00PEAPEA_WPEAPEA_W@std@@YAPEAPEA_WPEAPEA_W00@Z 00000001400162f0 f i AdQuery.cpp.obj
 0001:00015310       ??$_Impl_copy_memmeow@$00PEBQEB_WPEAPEB_W@std@@YAPEAPEB_WPEBQEB_W0PEAPEB_W@Z 0000000140016310 f i AdQuery.cpp.obj
 0001:00015330       ??$_Impl_copy_memmeow_n@$00PEAEPEAE@std@@YAPEAEPEAE_K0@Z 0000000140016330 f i AdQuery.cpp.obj
 0001:00015350       ??$_Impl_copy_memmeow_n@$0A@PEAEPEAE@std@@YAPEAEPEAE_K0@Z 0000000140016350 f i AdQuery.cpp.obj
 0001:00015370       ??$_Impl_copy_memmeow_tail@$00PEAE@std@@YAPEAEQEBDQEAE_K2@Z 0000000140016370 f i AdQuery.cpp.obj
 0001:000153b0       ??$_Impl_copy_memmeow_tail@$00PEAPEA_W@std@@YAPEAPEA_WQEBDQEAPEA_W_K2@Z 00000001400163b0 f i AdQuery.cpp.obj
 0001:000153f0       ??$_Impl_copy_memmeow_tail@$00PEAPEB_W@std@@YAPEAPEB_WQEBDQEAPEB_W_K2@Z 00000001400163f0 f i AdQuery.cpp.obj
 0001:00015430       ??$_Impl_copy_memmeow_tail@$0A@PEAE@std@@YAPEAEQEBDQEAE_K2@Z 0000000140016430 f i AdQuery.cpp.obj
 0001:00015470       ??$_Insert@_W@?$basic_string@_WU?$char_traits@_W@std@@V?$allocator@_W@2@@std@@AEAAAEAV01@_KQEB_W0@Z 0000000140016470 f i AdQuery.cpp.obj
 0001:00016430       ??$_Move_backward_unchecked@PEAUNamedEntry@ith@@PEAU12@@std@@YAPEAUNamedEntry@ith@@PEAU12@00@Z 0000000140017430 f i AdQuery.cpp.obj
 0001:000164c0       ??$_Next_iter@PEAUNamedEntry@ith@@@std@@YAPEAUNamedEntry@ith@@PEAU12@@Z 00000001400174c0 f i AdQuery.cpp.obj
 0001:00018190       ??$_Pocca@V?$allocator@E@std@@@std@@YAXAEAV?$allocator@E@0@AEBV10@@Z 0000000140019190 f i AdQuery.cpp.obj
 0001:000181a0       ??$_Pocca@V?$allocator@_W@std@@@std@@YAXAEAV?$allocator@_W@0@AEBV10@@Z 00000001400191a0 f i AdQuery.cpp.obj
 0001:000181b0       ??$_Pocma@V?$allocator@E@std@@@std@@YAXAEAV?$allocator@E@0@0@Z 00000001400191b0 f i AdQuery.cpp.obj
 0001:000181c0       ??$_Pocma@V?$allocator@UNamedEntry@ith@@@std@@@std@@YAXAEAV?$allocator@UNamedEntry@ith@@@0@0@Z 00000001400191c0 f i AdQuery.cpp.obj
 0001:000181d0       ??$_Pocma@V?$allocator@V?$basic_string@_WU?$char_traits@_W@std@@V?$allocator@_W@2@@std@@@std@@@std@@YAXAEAV?$allocator@V?$basic_string@_WU?$char_traits@_W@std@@V?$allocator@_W@2@@std@@@0@0@Z 00000001400191d0 f i AdQuery.cpp.obj
 0001:000181e0       ??$_Pocma@V?$allocator@_W@std@@@std@@YAXAEAV?$allocator@_W@0@0@Z 00000001400191e0 f i AdQuery.cpp.obj
 0001:00018ab0       ??$_Prev_iter@PEAUNamedEntry@ith@@@std@@YAPEAUNamedEntry@ith@@PEAU12@@Z 0000000140019ab0 f i AdQuery.cpp.obj
 0001:00018cc0       ??$_Reallocate@$0A@@?$vector@PEA_WV?$allocator@PEA_W@std@@@std@@AEAAXAEA_K@Z 0000000140019cc0 f i AdQuery.cpp.obj
 0001:00018d90       ??$_Reallocate_for@V<lambda_1>@?1???$_Assign@_W@?$basic_string@_WU?$char_traits@_W@std@@V?$allocator@_W@2@@std@@AEAAAEAV23@QEB_W_K@Z@PEB_W@?$basic_string@_WU?$char_traits@_W@std@@V?$allocator@_W@2@@std@@AEAAAEAV01@_KV<lambda_1>@?1???$_Assign@_W@01@AEAAAEAV01@QEB_W0@Z@PEB_W@Z 0000000140019d90 f i AdQuery.cpp.obj
 0001:00018f20       ??$_Reallocate_grow_by@V<lambda_1>@?1???$_Append@_W@?$basic_string@_WU?$char_traits@_W@std@@V?$allocator@_W@2@@std@@AEAAAEAV23@QEB_W_K@Z@PEB_W_K@?$basic_string@_WU?$char_traits@_W@std@@V?$allocator@_W@2@@std@@AEAAAEAV01@_KV<lambda_1>@?1???$_Append@_W@01@AEAAAEAV01@QEB_W0@Z@PEB_W_K@Z 0000000140019f20 f i AdQuery.cpp.obj
 0001:00019120       ??$_Reallocate_grow_by@V<lambda_1>@?1???$_Insert@_W@?$basic_string@_WU?$char_traits@_W@std@@V?$allocator@_W@2@@std@@AEAAAEAV23@_KQEB_W0@Z@_KPEB_W_K@?$basic_string@_WU?$char_traits@_W@std@@V?$allocator@_W@2@@std@@AEAAAEAV01@_KV<lambda_1>@?1???$_Insert@_W@01@AEAAAEAV01@0QEB_W0@Z@_KPEB_W3@Z 000000014001a120 f i AdQuery.cpp.obj
 0001:00019370       ??$_Reallocate_grow_by@V<lambda_1>@?1??push_back@?$basic_string@_WU?$char_traits@_W@std@@V?$allocator@_W@2@@std@@QEAAX_W@Z@_W@?$basic_string@_WU?$char_traits@_W@std@@V?$allocator@_W@2@@std@@AEAAAEAV01@_KV<lambda_1>@?1??push_back@01@QEAAX_W@Z@_W@Z 000000014001a370 f i AdQuery.cpp.obj
 0001:00019540       ??$_Reallocate_grow_by@V<lambda_1>@?1??reserve@?$basic_string@_WU?$char_traits@_W@std@@V?$allocator@_W@2@@std@@QEAAX_K@Z@$$V@?$basic_string@_WU?$char_traits@_W@std@@V?$allocator@_W@2@@std@@AEAAAEAV01@_KV<lambda_1>@?1??reserve@01@QEAAX0@Z@@Z 000000014001a540 f i AdQuery.cpp.obj
 0001:0001a470       ??$_To_address@PEAE@std@@YA?A_PAEBQEAE@Z 000000014001b470 f i AdQuery.cpp.obj
 0001:0001a480       ??$_To_address@PEAPEA_W@std@@YA?A_PAEBQEAPEA_W@Z 000000014001b480 f i AdQuery.cpp.obj
 0001:0001a490       ??$_To_address@PEAPEB_W@std@@YA?A_PAEBQEAPEB_W@Z 000000014001b490 f i AdQuery.cpp.obj
 0001:0001a4a0       ??$_To_address@PEBQEB_W@std@@YA?A_PAEBQEBQEB_W@Z 000000014001b4a0 f i AdQuery.cpp.obj
 0001:0001a4b0       ??$_Traits_move_batch@U?$char_traits@_W@std@@_W@std@@YAXQEA_WQEB_W_K@Z 000000014001b4b0 f i AdQuery.cpp.obj
 0001:0001a4c0       ??$_Unfancy@E@std@@YAPEAEPEAE@Z 000000014001b4c0 f i AdQuery.cpp.obj
 0001:0001a4d0       ??$_Unfancy@PEA_W@std@@YAPEAPEA_WPEAPEA_W@Z 000000014001b4d0 f i AdQuery.cpp.obj
 0001:0001a4e0       ??$_Unfancy@PEB_W@std@@YAPEAPEB_WPEAPEB_W@Z 000000014001b4e0 f i AdQuery.cpp.obj
 0001:0001a4f0       ??$_Unfancy@UInfoPair@ith@@@std@@YAPEAUInfoPair@ith@@PEAU12@@Z 000000014001b4f0 f i AdQuery.cpp.obj
 0001:0001a500       ??$_Unfancy@UNamedEntry@ith@@@std@@YAPEAUNamedEntry@ith@@PEAU12@@Z 000000014001b500 f i AdQuery.cpp.obj
 0001:0001a510       ??$_Unfancy@V?$basic_string@_WU?$char_traits@_W@std@@V?$allocator@_W@2@@std@@@std@@YAPEAV?$basic_string@_WU?$char_traits@_W@std@@V?$allocator@_W@2@@0@PEAV10@@Z 000000014001b510 f i AdQuery.cpp.obj
 0001:0001a520       ??$_Unfancy_maybe_null@E@std@@YAPEAEPEAE@Z 000000014001b520 f i AdQuery.cpp.obj
 0001:0001a530       ??$_Unfancy_maybe_null@PEA_W@std@@YAPEAPEA_WPEAPEA_W@Z 000000014001b530 f i AdQuery.cpp.obj
 0001:0001a540       ??$_Unfancy_maybe_null@PEB_W@std@@YAPEAPEB_WPEAPEB_W@Z 000000014001b540 f i AdQuery.cpp.obj
 0001:0001a550       ??$_Unfancy_maybe_null@UNamedEntry@ith@@@std@@YAPEAUNamedEntry@ith@@PEAU12@@Z 000000014001b550 f i AdQuery.cpp.obj
 0001:0001a560       ??$_Unfancy_maybe_null@V?$basic_string@_WU?$char_traits@_W@std@@V?$allocator@_W@2@@std@@@std@@YAPEAV?$basic_string@_WU?$char_traits@_W@std@@V?$allocator@_W@2@@0@PEAV10@@Z 000000014001b560 f i AdQuery.cpp.obj
 0001:0001a570       ??$_Uninitialized_copy@PEAEPEAEV?$allocator@E@std@@@std@@YAPEAEPEAE00AEAV?$allocator@E@0@@Z 000000014001b570 f i AdQuery.cpp.obj
 0001:0001a5c0       ??$_Uninitialized_copy@PEBQEB_WPEBQEB_WV?$allocator@PEB_W@std@@@std@@YAPEAPEB_WPEBQEB_W0PEAPEB_WAEAV?$allocator@PEB_W@0@@Z 000000014001b5c0 f i AdQuery.cpp.obj
 0001:0001a610       ??$_Uninitialized_copy_n@PEAEV?$allocator@E@std@@@std@@YAPEAEPEAE_K0AEAV?$allocator@E@0@@Z 000000014001b610 f i AdQuery.cpp.obj
 0001:0001a640       ??$_Uninitialized_move@PEAPEA_WV?$allocator@PEA_W@std@@@std@@YAPEAPEA_WQEAPEA_W0PEAPEA_WAEAV?$allocator@PEA_W@0@@Z 000000014001b640 f i AdQuery.cpp.obj
 0001:0001a690       ??$_Uninitialized_move@PEAUInfoPair@ith@@V?$allocator@UInfoPair@ith@@@std@@@std@@YAPEAUInfoPair@ith@@QEAU12@0PEAU12@AEAV?$allocator@UInfoPair@ith@@@0@@Z 000000014001b690 f i AdQuery.cpp.obj
 0001:0001a740       ??$_Uninitialized_move@PEAUNamedEntry@ith@@V?$allocator@UNamedEntry@ith@@@std@@@std@@YAPEAUNamedEntry@ith@@QEAU12@0PEAU12@AEAV?$allocator@UNamedEntry@ith@@@0@@Z 000000014001b740 f i AdQuery.cpp.obj
 0001:0001a7b0       ??$_Uninitialized_move@PEAV?$basic_string@_WU?$char_traits@_W@std@@V?$allocator@_W@2@@std@@V?$allocator@V?$basic_string@_WU?$char_traits@_W@std@@V?$allocator@_W@2@@std@@@2@@std@@YAPEAV?$basic_string@_WU?$char_traits@_W@std@@V?$allocator@_W@2@@0@QEAV10@0PEAV10@AEAV?$allocator@V?$basic_string@_WU?$char_traits@_W@std@@V?$allocator@_W@2@@std@@@0@@Z 000000014001b7b0 f i AdQuery.cpp.obj
 0001:0001a820       ??$_Unwrap_iter@PEAEPEAE@ranges@std@@YA?A_T$$QEAPEAE@Z 000000014001b820 f i AdQuery.cpp.obj
 0001:0001a830       ??$_Unwrap_iter@PEBQEB_WPEBQEB_W@ranges@std@@YA?A_T$$QEAPEBQEB_W@Z 000000014001b830 f i AdQuery.cpp.obj
 0001:0001a840       ??$_Unwrap_sent@PEAEPEAE@ranges@std@@YA?A_T$$QEAPEAE@Z 000000014001b840 f i AdQuery.cpp.obj
 0001:0001a850       ??$_Unwrap_sent@PEBQEB_WPEBQEB_W@ranges@std@@YA?A_T$$QEAPEBQEB_W@Z 000000014001b850 f i AdQuery.cpp.obj
 0001:0001a880       ??$addressof@$$CBV?$basic_string@_WU?$char_traits@_W@std@@V?$allocator@_W@2@@std@@@std@@YAPEBV?$basic_string@_WU?$char_traits@_W@std@@V?$allocator@_W@2@@0@AEBV10@@Z 000000014001b880 f i AdQuery.cpp.obj
 0001:0001a890       ??$addressof@$$CBV?$vector@EV?$allocator@E@std@@@std@@@std@@YAPEBV?$vector@EV?$allocator@E@std@@@0@AEBV10@@Z 000000014001b890 f i AdQuery.cpp.obj
 0001:0001a8a0       ??$addressof@UInfoPair@ith@@@std@@YAPEAUInfoPair@ith@@AEAU12@@Z 000000014001b8a0 f i AdQuery.cpp.obj
 0001:0001a8b0       ??$addressof@UNamedEntry@ith@@@std@@YAPEAUNamedEntry@ith@@AEAU12@@Z 000000014001b8b0 f i AdQuery.cpp.obj
 0001:0001a8c0       ??$addressof@V?$_String_val@U?$_Simple_types@_W@std@@@std@@@std@@YAPEAV?$_String_val@U?$_Simple_types@_W@std@@@0@AEAV10@@Z 000000014001b8c0 f i AdQuery.cpp.obj
 0001:0001a8d0       ??$addressof@V?$_Vector_val@U?$_Simple_types@UNamedEntry@ith@@@std@@@std@@@std@@YAPEAV?$_Vector_val@U?$_Simple_types@UNamedEntry@ith@@@std@@@0@AEAV10@@Z 000000014001b8d0 f i AdQuery.cpp.obj
 0001:0001a8e0       ??$addressof@V?$basic_string@_WU?$char_traits@_W@std@@V?$allocator@_W@2@@std@@@std@@YAPEAV?$basic_string@_WU?$char_traits@_W@std@@V?$allocator@_W@2@@0@AEAV10@@Z 000000014001b8e0 f i AdQuery.cpp.obj
 0001:0001a8f0       ??$addressof@V?$vector@EV?$allocator@E@std@@@std@@@std@@YAPEAV?$vector@EV?$allocator@E@std@@@0@AEAV10@@Z 000000014001b8f0 f i AdQuery.cpp.obj
 0001:0001a900       ??$addressof@V?$vector@UNamedEntry@ith@@V?$allocator@UNamedEntry@ith@@@std@@@std@@@std@@YAPEAV?$vector@UNamedEntry@ith@@V?$allocator@UNamedEntry@ith@@@std@@@0@AEAV10@@Z 000000014001b900 f i AdQuery.cpp.obj
 0001:0001a910       ??$addressof@V?$vector@V?$basic_string@_WU?$char_traits@_W@std@@V?$allocator@_W@2@@std@@V?$allocator@V?$basic_string@_WU?$char_traits@_W@std@@V?$allocator@_W@2@@std@@@2@@std@@@std@@YAPEAV?$vector@V?$basic_string@_WU?$char_traits@_W@std@@V?$allocator@_W@2@@std@@V?$allocator@V?$basic_string@_WU?$char_traits@_W@std@@V?$allocator@_W@2@@std@@@2@@0@AEAV10@@Z 000000014001b910 f i AdQuery.cpp.obj
 0001:0001a920       ??$construct@EAEAE@?$_Default_allocator_traits@V?$allocator@E@std@@@std@@SAXAEAV?$allocator@E@1@QEAEAEAE@Z 000000014001b920 f i AdQuery.cpp.obj
 0001:0001a930       ??$construct@PEA_WPEA_W@?$_Default_allocator_traits@V?$allocator@PEA_W@std@@@std@@SAXAEAV?$allocator@PEA_W@1@QEAPEA_W$$QEAPEA_W@Z 000000014001b930 f i AdQuery.cpp.obj
 0001:0001a940       ??$construct@PEB_WAEBQEB_W@?$_Default_allocator_traits@V?$allocator@PEB_W@std@@@std@@SAXAEAV?$allocator@PEB_W@1@QEAPEB_WAEBQEB_W@Z 000000014001b940 f i AdQuery.cpp.obj
 0001:0001a950       ??$construct@UInfoPair@ith@@U12@@?$_Default_allocator_traits@V?$allocator@UInfoPair@ith@@@std@@@std@@SAXAEAV?$allocator@UInfoPair@ith@@@1@QEAUInfoPair@ith@@$$QEAU34@@Z 000000014001b950 f i AdQuery.cpp.obj
 0001:0001a9d0       ??$construct@UNamedEntry@ith@@U12@@?$_Default_allocator_traits@V?$allocator@UNamedEntry@ith@@@std@@@std@@SAXAEAV?$allocator@UNamedEntry@ith@@@1@QEAUNamedEntry@ith@@$$QEAU34@@Z 000000014001b9d0 f i AdQuery.cpp.obj
 0001:0001aa20       ??$construct@V?$basic_string@_WU?$char_traits@_W@std@@V?$allocator@_W@2@@std@@AEBQEA_W@?$_Default_allocator_traits@V?$allocator@V?$basic_string@_WU?$char_traits@_W@std@@V?$allocator@_W@2@@std@@@std@@@std@@SAXAEAV?$allocator@V?$basic_string@_WU?$char_traits@_W@std@@V?$allocator@_W@2@@std@@@1@QEAV?$basic_string@_WU?$char_traits@_W@std@@V?$allocator@_W@2@@1@AEBQEA_W@Z 000000014001ba20 f i AdQuery.cpp.obj
 0001:0001aa70       ??$construct@V?$basic_string@_WU?$char_traits@_W@std@@V?$allocator@_W@2@@std@@V12@@?$_Default_allocator_traits@V?$allocator@V?$basic_string@_WU?$char_traits@_W@std@@V?$allocator@_W@2@@std@@@std@@@std@@SAXAEAV?$allocator@V?$basic_string@_WU?$char_traits@_W@std@@V?$allocator@_W@2@@std@@@1@QEAV?$basic_string@_WU?$char_traits@_W@std@@V?$allocator@_W@2@@1@$$QEAV31@@Z 000000014001ba70 f i AdQuery.cpp.obj
 0001:0001aab0       ??$construct_at@EAEAE@std@@YAPEAEQEAEAEAE@Z 000000014001bab0 f i AdQuery.cpp.obj
 0001:0001aac0       ??$construct_at@PEA_WAEAPEA_W@std@@YAPEAPEA_WQEAPEA_WAEAPEA_W@Z 000000014001bac0 f i AdQuery.cpp.obj
 0001:0001aad0       ??$construct_at@PEA_WPEA_W@std@@YAPEAPEA_WQEAPEA_W$$QEAPEA_W@Z 000000014001bad0 f i AdQuery.cpp.obj
 0001:0001aae0       ??$construct_at@PEB_WAEBQEB_W@std@@YAPEAPEB_WQEAPEB_WAEBQEB_W@Z 000000014001bae0 f i AdQuery.cpp.obj
 0001:0001aaf0       ??$construct_at@UInfoPair@ith@@U12@@std@@YAPEAUInfoPair@ith@@QEAU12@$$QEAU12@@Z 000000014001baf0 f i AdQuery.cpp.obj
 0001:0001ab70       ??$construct_at@UNamedEntry@ith@@U12@@std@@YAPEAUNamedEntry@ith@@QEAU12@$$QEAU12@@Z 000000014001bb70 f i AdQuery.cpp.obj
 0001:0001abc0       ??$construct_at@V?$basic_string@_WU?$char_traits@_W@std@@V?$allocator@_W@2@@std@@AEBQEA_W@std@@YAPEAV?$basic_string@_WU?$char_traits@_W@std@@V?$allocator@_W@2@@0@QEAV10@AEBQEA_W@Z 000000014001bbc0 f i AdQuery.cpp.obj
 0001:0001ac20       ??$construct_at@V?$basic_string@_WU?$char_traits@_W@std@@V?$allocator@_W@2@@std@@V12@@std@@YAPEAV?$basic_string@_WU?$char_traits@_W@std@@V?$allocator@_W@2@@0@QEAV10@$$QEAV10@@Z 000000014001bc20 f i AdQuery.cpp.obj
 0001:0001ac60       ??$construct_at@V?$vector@EV?$allocator@E@std@@@std@@V12@@std@@YAPEAV?$vector@EV?$allocator@E@std@@@0@QEAV10@$$QEAV10@@Z 000000014001bc60 f i AdQuery.cpp.obj
 0001:0001aca0       ??$destroy@UInfoPair@ith@@@?$_Default_allocator_traits@V?$allocator@UInfoPair@ith@@@std@@@std@@SAXAEAV?$allocator@UInfoPair@ith@@@1@QEAUInfoPair@ith@@@Z 000000014001bca0 f i AdQuery.cpp.obj
 0001:0001acd0       ??$destroy@UNamedEntry@ith@@@?$_Default_allocator_traits@V?$allocator@UNamedEntry@ith@@@std@@@std@@SAXAEAV?$allocator@UNamedEntry@ith@@@1@QEAUNamedEntry@ith@@@Z 000000014001bcd0 f i AdQuery.cpp.obj
 0001:0001ace0       ??$destroy@V?$basic_string@_WU?$char_traits@_W@std@@V?$allocator@_W@2@@std@@@?$_Default_allocator_traits@V?$allocator@V?$basic_string@_WU?$char_traits@_W@std@@V?$allocator@_W@2@@std@@@std@@@std@@SAXAEAV?$allocator@V?$basic_string@_WU?$char_traits@_W@std@@V?$allocator@_W@2@@std@@@1@QEAV?$basic_string@_WU?$char_traits@_W@std@@V?$allocator@_W@2@@1@@Z 000000014001bce0 f i AdQuery.cpp.obj
 0001:0001acf0       ??$destroy_at@UInfoPair@ith@@@std@@YAXQEAUInfoPair@ith@@@Z 000000014001bcf0 f i AdQuery.cpp.obj
 0001:0001ad20       ??$destroy_at@UNamedEntry@ith@@@std@@YAXQEAUNamedEntry@ith@@@Z 000000014001bd20 f i AdQuery.cpp.obj
 0001:0001ad30       ??$destroy_at@V?$basic_string@_WU?$char_traits@_W@std@@V?$allocator@_W@2@@std@@@std@@YAXQEAV?$basic_string@_WU?$char_traits@_W@std@@V?$allocator@_W@2@@0@@Z 000000014001bd30 f i AdQuery.cpp.obj
 0001:0001ad40       ??$distance@PEAE@std@@YA_JPEAE0@Z 000000014001bd40 f i AdQuery.cpp.obj
 0001:0001ad50       ??$emplace_back@AEBQEA_W@?$vector@V?$basic_string@_WU?$char_traits@_W@std@@V?$allocator@_W@2@@std@@V?$allocator@V?$basic_string@_WU?$char_traits@_W@std@@V?$allocator@_W@2@@std@@@2@@std@@QEAAAEAV?$basic_string@_WU?$char_traits@_W@std@@V?$allocator@_W@2@@1@AEBQEA_W@Z 000000014001bd50 f i AdQuery.cpp.obj
 0001:0001adf0       ??$exchange@PEAE$$T@std@@YAPEAEAEAPEAE$$QEA$$T@Z 000000014001bdf0 f i AdQuery.cpp.obj
 0001:0001ae00       ??$exchange@PEAUAdResult@ith@@$$T@std@@YAPEAUAdResult@ith@@AEAPEAU12@$$QEA$$T@Z 000000014001be00 f i AdQuery.cpp.obj
 0001:0001ae10       ??$exchange@PEAUNamedEntry@ith@@$$T@std@@YAPEAUNamedEntry@ith@@AEAPEAU12@$$QEA$$T@Z 000000014001be10 f i AdQuery.cpp.obj
 0001:0001ae20       ??$exchange@PEAV?$basic_string@_WU?$char_traits@_W@std@@V?$allocator@_W@2@@std@@$$T@std@@YAPEAV?$basic_string@_WU?$char_traits@_W@std@@V?$allocator@_W@2@@0@AEAPEAV10@$$QEA$$T@Z 000000014001be20 f i AdQuery.cpp.obj
 0001:0001ae30       ??$exchange@PEAX$$T@std@@YAPEAXAEAPEAX$$QEA$$T@Z 000000014001be30 f i AdQuery.cpp.obj
 0001:0001ae40       ??$forward@AEAE@std@@YAAEAEAEAE@Z 000000014001be40 f i AdQuery.cpp.obj
 0001:0001ae50       ??$forward@AEAPEAUAdResult@ith@@@std@@YAAEAPEAUAdResult@ith@@AEAPEAU12@@Z 000000014001be50 f i AdQuery.cpp.obj
 0001:0001ae60       ??$forward@AEAPEAUNamedEntry@ith@@@std@@YAAEAPEAUNamedEntry@ith@@AEAPEAU12@@Z 000000014001be60 f i AdQuery.cpp.obj
 0001:0001ae70       ??$forward@AEAPEA_W@std@@YAAEAPEA_WAEAPEA_W@Z 000000014001be70 f i AdQuery.cpp.obj
 0001:0001ae90       ??$forward@AEAV?$basic_string@_WU?$char_traits@_W@std@@V?$allocator@_W@2@@std@@@std@@YAAEAV?$basic_string@_WU?$char_traits@_W@std@@V?$allocator@_W@2@@0@AEAV10@@Z 000000014001be90 f i AdQuery.cpp.obj
 0001:0001aea0       ??$forward@AEBQEAE@std@@YAAEBQEAEAEBQEAE@Z 000000014001bea0 f i AdQuery.cpp.obj
 0001:0001aeb0       ??$forward@AEBQEB_W@std@@YAAEBQEB_WAEBQEB_W@Z 000000014001beb0 f i AdQuery.cpp.obj
 0001:0001aee0       ??$forward@AEBV?$allocator@E@std@@@std@@YAAEBV?$allocator@E@0@AEBV10@@Z 000000014001bee0 f i AdQuery.cpp.obj
 0001:0001aef0       ??$forward@AEBV?$allocator@PEB_W@std@@@std@@YAAEBV?$allocator@PEB_W@0@AEBV10@@Z 000000014001bef0 f i AdQuery.cpp.obj
 0001:0001af00       ??$forward@I@std@@YA$$QEAIAEAI@Z 000000014001bf00 f i AdQuery.cpp.obj
 0001:0001af10       ??$forward@PEAE@std@@YA$$QEAPEAEAEAPEAE@Z 000000014001bf10 f i AdQuery.cpp.obj
 0001:0001af20       ??$forward@PEAUAdResult@ith@@@std@@YA$$QEAPEAUAdResult@ith@@AEAPEAU12@@Z 000000014001bf20 f i AdQuery.cpp.obj
 0001:0001af30       ??$forward@PEAUNamedEntry@ith@@@std@@YA$$QEAPEAUNamedEntry@ith@@AEAPEAU12@@Z 000000014001bf30 f i AdQuery.cpp.obj
 0001:0001af40       ??$forward@PEAV?$basic_string@_WU?$char_traits@_W@std@@V?$allocator@_W@2@@std@@@std@@YA$$QEAPEAV?$basic_string@_WU?$char_traits@_W@std@@V?$allocator@_W@2@@0@AEAPEAV10@@Z 000000014001bf40 f i AdQuery.cpp.obj
 0001:0001af50       ??$forward@PEAX@std@@YA$$QEAPEAXAEAPEAX@Z 000000014001bf50 f i AdQuery.cpp.obj
 0001:0001af60       ??$forward@PEA_W@std@@YA$$QEAPEA_WAEAPEA_W@Z 000000014001bf60 f i AdQuery.cpp.obj
 0001:0001af70       ??$forward@PEBQEB_W@std@@YA$$QEAPEBQEB_WAEAPEBQEB_W@Z 000000014001bf70 f i AdQuery.cpp.obj
 0001:0001af80       ??$forward@U?$_Optional_construct_base@V?$basic_string@_WU?$char_traits@_W@std@@V?$allocator@_W@2@@std@@@std@@@std@@YA$$QEAU?$_Optional_construct_base@V?$basic_string@_WU?$char_traits@_W@std@@V?$allocator@_W@2@@std@@@0@AEAU10@@Z 000000014001bf80 f i AdQuery.cpp.obj
 0001:0001af90       ??$forward@U?$_Optional_construct_base@V?$vector@EV?$allocator@E@std@@@std@@@std@@@std@@YA$$QEAU?$_Optional_construct_base@V?$vector@EV?$allocator@E@std@@@std@@@0@AEAU10@@Z 000000014001bf90 f i AdQuery.cpp.obj
 0001:0001afa0       ??$forward@U?$default_delete@UAdResult@ith@@@std@@@std@@YA$$QEAU?$default_delete@UAdResult@ith@@@0@AEAU10@@Z 000000014001bfa0 f i AdQuery.cpp.obj
 0001:0001afb0       ??$forward@UInfoPair@ith@@@std@@YA$$QEAUInfoPair@ith@@AEAU12@@Z 000000014001bfb0 f i AdQuery.cpp.obj
 0001:0001afc0       ??$forward@UNamedEntry@ith@@@std@@YA$$QEAUNamedEntry@ith@@AEAU12@@Z 000000014001bfc0 f i AdQuery.cpp.obj
 0001:0001afe0       ??$forward@V?$allocator@E@std@@@std@@YA$$QEAV?$allocator@E@0@AEAV10@@Z 000000014001bfe0 f i AdQuery.cpp.obj
 0001:0001aff0       ??$forward@V?$allocator@UNamedEntry@ith@@@std@@@std@@YA$$QEAV?$allocator@UNamedEntry@ith@@@0@AEAV10@@Z 000000014001bff0 f i AdQuery.cpp.obj
 0001:0001b000       ??$forward@V?$allocator@V?$basic_string@_WU?$char_traits@_W@std@@V?$allocator@_W@2@@std@@@std@@@std@@YA$$QEAV?$allocator@V?$basic_string@_WU?$char_traits@_W@std@@V?$allocator@_W@2@@std@@@0@AEAV10@@Z 000000014001c000 f i AdQuery.cpp.obj
 0001:0001b010       ??$forward@V?$basic_string@_WU?$char_traits@_W@std@@V?$allocator@_W@2@@std@@@std@@YA$$QEAV?$basic_string@_WU?$char_traits@_W@std@@V?$allocator@_W@2@@0@AEAV10@@Z 000000014001c010 f i AdQuery.cpp.obj
 0001:0001b020       ??$forward@V?$vector@EV?$allocator@E@std@@@std@@@std@@YA$$QEAV?$vector@EV?$allocator@E@std@@@0@AEAV10@@Z 000000014001c020 f i AdQuery.cpp.obj
 0001:0001b030       ??$forward@_J@std@@YA$$QEA_JAEA_J@Z 000000014001c030 f i AdQuery.cpp.obj
 0001:0001b060       ??$make_unique@UAdResult@ith@@$$V$0A@@std@@YA?AV?$unique_ptr@UAdResult@ith@@U?$default_delete@UAdResult@ith@@@std@@@0@XZ 000000014001c060 f i AdQuery.cpp.obj
 0001:0001b160       ??$move@AEAPEAE@std@@YA$$QEAPEAEAEAPEAE@Z 000000014001c160 f i AdQuery.cpp.obj
 0001:0001b170       ??$move@AEAPEAPEA_W@std@@YA$$QEAPEAPEA_WAEAPEAPEA_W@Z 000000014001c170 f i AdQuery.cpp.obj
 0001:0001b180       ??$move@AEAPEAPEB_W@std@@YA$$QEAPEAPEB_WAEAPEAPEB_W@Z 000000014001c180 f i AdQuery.cpp.obj
 0001:0001b190       ??$move@AEAPEA_W@std@@YA$$QEAPEA_WAEAPEA_W@Z 000000014001c190 f i AdQuery.cpp.obj
 0001:0001b1a0       ??$move@AEAPEBQEB_W@std@@YA$$QEAPEBQEB_WAEAPEBQEB_W@Z 000000014001c1a0 f i AdQuery.cpp.obj
 0001:0001b1b0       ??$move@AEAUInfoPair@ith@@@std@@YA$$QEAUInfoPair@ith@@AEAU12@@Z 000000014001c1b0 f i AdQuery.cpp.obj
 0001:0001b1c0       ??$move@AEAUNamedEntry@ith@@@std@@YA$$QEAUNamedEntry@ith@@AEAU12@@Z 000000014001c1c0 f i AdQuery.cpp.obj
 0001:0001b1e0       ??$move@AEAV?$allocator@E@std@@@std@@YA$$QEAV?$allocator@E@0@AEAV10@@Z 000000014001c1e0 f i AdQuery.cpp.obj
 0001:0001b1f0       ??$move@AEAV?$allocator@UNamedEntry@ith@@@std@@@std@@YA$$QEAV?$allocator@UNamedEntry@ith@@@0@AEAV10@@Z 000000014001c1f0 f i AdQuery.cpp.obj
 0001:0001b200       ??$move@AEAV?$allocator@V?$basic_string@_WU?$char_traits@_W@std@@V?$allocator@_W@2@@std@@@std@@@std@@YA$$QEAV?$allocator@V?$basic_string@_WU?$char_traits@_W@std@@V?$allocator@_W@2@@std@@@0@AEAV10@@Z 000000014001c200 f i AdQuery.cpp.obj
 0001:0001b210       ??$move@AEAV?$allocator@_W@std@@@std@@YA$$QEAV?$allocator@_W@0@AEAV10@@Z 000000014001c210 f i AdQuery.cpp.obj
 0001:0001b220       ??$move@AEAV?$basic_string@_WU?$char_traits@_W@std@@V?$allocator@_W@2@@std@@@std@@YA$$QEAV?$basic_string@_WU?$char_traits@_W@std@@V?$allocator@_W@2@@0@AEAV10@@Z 000000014001c220 f i AdQuery.cpp.obj
 0001:0001b230       ??$move@AEAV?$vector@EV?$allocator@E@std@@@std@@@std@@YA$$QEAV?$vector@EV?$allocator@E@std@@@0@AEAV10@@Z 000000014001c230 f i AdQuery.cpp.obj
 0001:0001b2c0       ??$swap@UNamedEntry@ith@@$0A@@std@@YAXAEAUNamedEntry@ith@@0@Z 000000014001c2c0 f i AdQuery.cpp.obj
 0001:0001b470       ??$to_address@E@std@@YAPEAEQEAE@Z 000000014001c470 f i AdQuery.cpp.obj
 0001:0001b480       ??$to_address@PEA_W@std@@YAPEAPEA_WQEAPEA_W@Z 000000014001c480 f i AdQuery.cpp.obj
 0001:0001b490       ??$to_address@PEB_W@std@@YAPEAPEB_WQEAPEB_W@Z 000000014001c490 f i AdQuery.cpp.obj
 0001:0001b4a0       ??$to_address@QEB_W@std@@YAPEBQEB_WQEBQEB_W@Z 000000014001c4a0 f i AdQuery.cpp.obj
 0001:0001b570       ??0?$ComPtr@UIADs@@@WRL@Microsoft@@QEAA@XZ 000000014001c570 f i AdQuery.cpp.obj
 0001:0001b580       ??0?$ComPtr@UIDirectorySearch@@@WRL@Microsoft@@QEAA@XZ 000000014001c580 f i AdQuery.cpp.obj
 0001:0001b590       ??0?$_Func_base@XPEAX@std@@QEAA@XZ 000000014001c590 f i AdQuery.cpp.obj
 0001:0001b5a0       ??0?$_Func_class@XPEAX@std@@QEAA@XZ 000000014001c5a0 f i AdQuery.cpp.obj
 0001:0001b5b0       ??0?$_Non_trivial_copy@U?$_Optional_construct_base@V?$basic_string@_WU?$char_traits@_W@std@@V?$allocator@_W@2@@std@@@std@@@std@@QEAA@XZ 000000014001c5b0 f i AdQuery.cpp.obj
 0001:0001b5c0       ??0?$_Non_trivial_copy@U?$_Optional_construct_base@V?$vector@EV?$allocator@E@std@@@std@@@std@@@std@@QEAA@XZ 000000014001c5c0 f i AdQuery.cpp.obj
 0001:0001b5d0       ??0?$_Non_trivial_copy_assign@U?$_Optional_construct_base@V?$basic_string@_WU?$char_traits@_W@std@@V?$allocator@_W@2@@std@@@std@@V?$basic_string@_WU?$char_traits@_W@std@@V?$allocator@_W@2@@2@@std@@QEAA@$$QEAU01@@Z 000000014001c5d0 f i AdQuery.cpp.obj
 0001:0001b620       ??0?$_Non_trivial_copy_assign@U?$_Optional_construct_base@V?$basic_string@_WU?$char_traits@_W@std@@V?$allocator@_W@2@@std@@@std@@V?$basic_string@_WU?$char_traits@_W@std@@V?$allocator@_W@2@@2@@std@@QEAA@XZ 000000014001c620 f i AdQuery.cpp.obj
 0001:0001b630       ??0?$_Non_trivial_copy_assign@U?$_Optional_construct_base@V?$vector@EV?$allocator@E@std@@@std@@@std@@V?$vector@EV?$allocator@E@std@@@2@@std@@QEAA@$$QEAU01@@Z 000000014001c630 f i AdQuery.cpp.obj
 0001:0001b680       ??0?$_Non_trivial_copy_assign@U?$_Optional_construct_base@V?$vector@EV?$allocator@E@std@@@std@@@std@@V?$vector@EV?$allocator@E@std@@@2@@std@@QEAA@XZ 000000014001c680 f i AdQuery.cpp.obj
 0001:0001b690       ??0?$_Non_trivial_move@U?$_Optional_construct_base@V?$basic_string@_WU?$char_traits@_W@std@@V?$allocator@_W@2@@std@@@std@@V?$basic_string@_WU?$char_traits@_W@std@@V?$allocator@_W@2@@2@@std@@QEAA@$$QEAU01@@Z 000000014001c690 f i AdQuery.cpp.obj
 0001:0001b6e0       ??0?$_Non_trivial_move@U?$_Optional_construct_base@V?$basic_string@_WU?$char_traits@_W@std@@V?$allocator@_W@2@@std@@@std@@V?$basic_string@_WU?$char_traits@_W@std@@V?$allocator@_W@2@@2@@std@@QEAA@XZ 000000014001c6e0 f i AdQuery.cpp.obj
 0001:0001b6f0       ??0?$_Non_trivial_move@U?$_Optional_construct_base@V?$vector@EV?$allocator@E@std@@@std@@@std@@V?$vector@EV?$allocator@E@std@@@2@@std@@QEAA@$$QEAU01@@Z 000000014001c6f0 f i AdQuery.cpp.obj
 0001:0001b740       ??0?$_Non_trivial_move@U?$_Optional_construct_base@V?$vector@EV?$allocator@E@std@@@std@@@std@@V?$vector@EV?$allocator@E@std@@@2@@std@@QEAA@XZ 000000014001c740 f i AdQuery.cpp.obj
 0001:0001b750       ??0?$_Non_trivial_move_assign@U?$_Optional_construct_base@V?$basic_string@_WU?$char_traits@_W@std@@V?$allocator@_W@2@@std@@@std@@V?$basic_string@_WU?$char_traits@_W@std@@V?$allocator@_W@2@@2@@std@@QEAA@$$QEAU01@@Z 000000014001c750 f i AdQuery.cpp.obj
 0001:0001b7a0       ??0?$_Non_trivial_move_assign@U?$_Optional_construct_base@V?$basic_string@_WU?$char_traits@_W@std@@V?$allocator@_W@2@@std@@@std@@V?$basic_string@_WU?$char_traits@_W@std@@V?$allocator@_W@2@@2@@std@@QEAA@XZ 000000014001c7a0 f i AdQuery.cpp.obj
 0001:0001b7b0       ??0?$_Non_trivial_move_assign@U?$_Optional_construct_base@V?$vector@EV?$allocator@E@std@@@std@@@std@@V?$vector@EV?$allocator@E@std@@@2@@std@@QEAA@$$QEAU01@@Z 000000014001c7b0 f i AdQuery.cpp.obj
 0001:0001b800       ??0?$_Non_trivial_move_assign@U?$_Optional_construct_base@V?$vector@EV?$allocator@E@std@@@std@@@std@@V?$vector@EV?$allocator@E@std@@@2@@std@@QEAA@XZ 000000014001c800 f i AdQuery.cpp.obj
 0001:0001b810       ??0?$_Optional_construct_base@I@std@@QEAA@XZ 000000014001c810 f i AdQuery.cpp.obj
 0001:0001b820       ??0?$_Optional_construct_base@V?$basic_string@_WU?$char_traits@_W@std@@V?$allocator@_W@2@@std@@@std@@QEAA@XZ 000000014001c820 f i AdQuery.cpp.obj
 0001:0001b830       ??0?$_Optional_construct_base@V?$vector@EV?$allocator@E@std@@@std@@@std@@QEAA@XZ 000000014001c830 f i AdQuery.cpp.obj
 0001:0001b840       ??0?$_Optional_construct_base@_J@std@@QEAA@XZ 000000014001c840 f i AdQuery.cpp.obj
 0001:0001b850       ??0?$_Optional_destruct_base@I$00@std@@QEAA@XZ 000000014001c850 f i AdQuery.cpp.obj
 0001:0001b860       ??0?$_Optional_destruct_base@V?$basic_string@_WU?$char_traits@_W@std@@V?$allocator@_W@2@@std@@$0A@@std@@QEAA@XZ 000000014001c860 f i AdQuery.cpp.obj
 0001:0001b870       ??0?$_Optional_destruct_base@V?$vector@EV?$allocator@E@std@@@std@@$0A@@std@@QEAA@XZ 000000014001c870 f i AdQuery.cpp.obj
 0001:0001b880       ??0?$_Optional_destruct_base@_J$00@std@@QEAA@XZ 000000014001c880 f i AdQuery.cpp.obj
 0001:0001b890       ??0?$_Uninitialized_backout_al@V?$allocator@E@std@@@std@@QEAA@PEAEAEAV?$allocator@E@1@@Z 000000014001c890 f i AdQuery.cpp.obj
 0001:0001b8b0       ??0?$_Uninitialized_backout_al@V?$allocator@PEA_W@std@@@std@@QEAA@PEAPEA_WAEAV?$allocator@PEA_W@1@@Z 000000014001c8b0 f i AdQuery.cpp.obj
 0001:0001b8d0       ??0?$_Uninitialized_backout_al@V?$allocator@PEB_W@std@@@std@@QEAA@PEAPEB_WAEAV?$allocator@PEB_W@1@@Z 000000014001c8d0 f i AdQuery.cpp.obj
 0001:0001b8f0       ??0?$_Uninitialized_backout_al@V?$allocator@UInfoPair@ith@@@std@@@std@@QEAA@PEAUInfoPair@ith@@AEAV?$allocator@UInfoPair@ith@@@1@@Z 000000014001c8f0 f i AdQuery.cpp.obj
 0001:0001b910       ??0?$_Uninitialized_backout_al@V?$allocator@UNamedEntry@ith@@@std@@@std@@QEAA@PEAUNamedEntry@ith@@AEAV?$allocator@UNamedEntry@ith@@@1@@Z 000000014001c910 f i AdQuery.cpp.obj
 0001:0001b930       ??0?$_Uninitialized_backout_al@V?$allocator@V?$basic_string@_WU?$char_traits@_W@std@@V?$allocator@_W@2@@std@@@std@@@std@@QEAA@PEAV?$basic_string@_WU?$char_traits@_W@std@@V?$allocator@_W@2@@1@AEAV?$allocator@V?$basic_string@_WU?$char_traits@_W@std@@V?$allocator@_W@2@@std@@@1@@Z 000000014001c930 f i AdQuery.cpp.obj
 0001:0001b950       ??0?$_Vector_const_iterator@V?$_Vector_val@U?$_Simple_types@UNamedEntry@ith@@@std@@@std@@@std@@QEAA@PEAUNamedEntry@ith@@PEBU_Container_base0@1@@Z 000000014001c950 f i AdQuery.cpp.obj
 0001:0001b960       ??0?$_Vector_iterator@V?$_Vector_val@U?$_Simple_types@UNamedEntry@ith@@@std@@@std@@@std@@QEAA@PEAUNamedEntry@ith@@PEBU_Container_base0@1@@Z 000000014001c960 f i AdQuery.cpp.obj
 0001:0001b970       ??0?$_Vector_val@U?$_Simple_types@E@std@@@std@@QEAA@PEAE00@Z 000000014001c970 f i AdQuery.cpp.obj
 0001:0001b990       ??0?$_Vector_val@U?$_Simple_types@E@std@@@std@@QEAA@XZ 000000014001c990 f i AdQuery.cpp.obj
 0001:0001b9b0       ??0?$_Vector_val@U?$_Simple_types@PEA_W@std@@@std@@QEAA@XZ 000000014001c9b0 f i AdQuery.cpp.obj
 0001:0001b9d0       ??0?$_Vector_val@U?$_Simple_types@PEB_W@std@@@std@@QEAA@XZ 000000014001c9d0 f i AdQuery.cpp.obj
 0001:0001b9f0       ??0?$_Vector_val@U?$_Simple_types@UInfoPair@ith@@@std@@@std@@QEAA@XZ 000000014001c9f0 f i AdQuery.cpp.obj
 0001:0001ba10       ??0?$_Vector_val@U?$_Simple_types@UNamedEntry@ith@@@std@@@std@@QEAA@PEAUNamedEntry@ith@@00@Z 000000014001ca10 f i AdQuery.cpp.obj
 0001:0001ba30       ??0?$_Vector_val@U?$_Simple_types@UNamedEntry@ith@@@std@@@std@@QEAA@XZ 000000014001ca30 f i AdQuery.cpp.obj
 0001:0001ba50       ??0?$_Vector_val@U?$_Simple_types@V?$basic_string@_WU?$char_traits@_W@std@@V?$allocator@_W@2@@std@@@std@@@std@@QEAA@PEAV?$basic_string@_WU?$char_traits@_W@std@@V?$allocator@_W@2@@1@00@Z 000000014001ca50 f i AdQuery.cpp.obj
 0001:0001ba70       ??0?$_Vector_val@U?$_Simple_types@V?$basic_string@_WU?$char_traits@_W@std@@V?$allocator@_W@2@@std@@@std@@@std@@QEAA@XZ 000000014001ca70 f i AdQuery.cpp.obj
 0001:0001ba90       ??0?$allocator@E@std@@QEAA@XZ 000000014001ca90 f i AdQuery.cpp.obj
 0001:0001baa0       ??0?$allocator@PEA_W@std@@QEAA@XZ 000000014001caa0 f i AdQuery.cpp.obj
 0001:0001bab0       ??0?$allocator@PEB_W@std@@QEAA@XZ 000000014001cab0 f i AdQuery.cpp.obj
 0001:0001bac0       ??0?$allocator@UInfoPair@ith@@@std@@QEAA@XZ 000000014001cac0 f i AdQuery.cpp.obj
 0001:0001bad0       ??0?$allocator@UNamedEntry@ith@@@std@@QEAA@XZ 000000014001cad0 f i AdQuery.cpp.obj
 0001:0001bae0       ??0?$allocator@V?$basic_string@_WU?$char_traits@_W@std@@V?$allocator@_W@2@@std@@@std@@QEAA@XZ 000000014001cae0 f i AdQuery.cpp.obj
 0001:0001baf0       ??0?$basic_string@_WU?$char_traits@_W@std@@V?$allocator@_W@2@@std@@QEAA@$$QEAV01@@Z 000000014001caf0 f i AdQuery.cpp.obj
 0001:0001bb30       ??0?$basic_string@_WU?$char_traits@_W@std@@V?$allocator@_W@2@@std@@QEAA@U_String_constructor_concat_tag@1@AEBV01@QEB_W_K23@Z 000000014001cb30 f i AdQuery.cpp.obj
 0001:0001bca0       ??0?$basic_string@_WU?$char_traits@_W@std@@V?$allocator@_W@2@@std@@QEAA@XZ 000000014001cca0 f i AdQuery.cpp.obj
 0001:0001bcd0       ??0?$initializer_list@PEB_W@std@@QEAA@PEBQEB_W0@Z 000000014001ccd0 f i AdQuery.cpp.obj
 0001:0001bce0       ??0?$optional@I@std@@QEAA@Unullopt_t@1@@Z 000000014001cce0 f i AdQuery.cpp.obj
 0001:0001bcf0       ??0?$optional@I@std@@QEAA@XZ 000000014001ccf0 f i AdQuery.cpp.obj
 0001:0001bd00       ??0?$optional@V?$basic_string@_WU?$char_traits@_W@std@@V?$allocator@_W@2@@std@@@std@@QEAA@$$QEAV01@@Z 000000014001cd00 f i AdQuery.cpp.obj
 0001:0001bd50       ??0?$optional@V?$basic_string@_WU?$char_traits@_W@std@@V?$allocator@_W@2@@std@@@std@@QEAA@Unullopt_t@1@@Z 000000014001cd50 f i AdQuery.cpp.obj
 0001:0001bd60       ??0?$optional@V?$basic_string@_WU?$char_traits@_W@std@@V?$allocator@_W@2@@std@@@std@@QEAA@XZ 000000014001cd60 f i AdQuery.cpp.obj
 0001:0001bd70       ??0?$optional@V?$vector@EV?$allocator@E@std@@@std@@@std@@QEAA@$$QEAV01@@Z 000000014001cd70 f i AdQuery.cpp.obj
 0001:0001bdc0       ??0?$optional@V?$vector@EV?$allocator@E@std@@@std@@@std@@QEAA@Unullopt_t@1@@Z 000000014001cdc0 f i AdQuery.cpp.obj
 0001:0001bdd0       ??0?$optional@V?$vector@EV?$allocator@E@std@@@std@@@std@@QEAA@XZ 000000014001cdd0 f i AdQuery.cpp.obj
 0001:0001bde0       ??0?$optional@_J@std@@QEAA@Unullopt_t@1@@Z 000000014001cde0 f i AdQuery.cpp.obj
 0001:0001bdf0       ??0?$optional@_J@std@@QEAA@XZ 000000014001cdf0 f i AdQuery.cpp.obj
 0001:0001be00       ??0?$vector@EV?$allocator@E@std@@@std@@QEAA@$$QEAV01@@Z 000000014001ce00 f i AdQuery.cpp.obj
 0001:0001be40       ??0?$vector@EV?$allocator@E@std@@@std@@QEAA@AEBV01@@Z 000000014001ce40 f i AdQuery.cpp.obj
 0001:0001bf10       ??0?$vector@EV?$allocator@E@std@@@std@@QEAA@XZ 000000014001cf10 f i AdQuery.cpp.obj
 0001:0001bf30       ??0?$vector@PEA_WV?$allocator@PEA_W@std@@@std@@QEAA@XZ 000000014001cf30 f i AdQuery.cpp.obj
 0001:0001bf50       ??0?$vector@PEB_WV?$allocator@PEB_W@std@@@std@@QEAA@V?$initializer_list@PEB_W@1@AEBV?$allocator@PEB_W@1@@Z 000000014001cf50 f i AdQuery.cpp.obj
 0001:0001c020       ??0?$vector@UInfoPair@ith@@V?$allocator@UInfoPair@ith@@@std@@@std@@QEAA@XZ 000000014001d020 f i AdQuery.cpp.obj
 0001:0001c040       ??0?$vector@UNamedEntry@ith@@V?$allocator@UNamedEntry@ith@@@std@@@std@@QEAA@$$QEAV01@@Z 000000014001d040 f i AdQuery.cpp.obj
 0001:0001c080       ??0?$vector@UNamedEntry@ith@@V?$allocator@UNamedEntry@ith@@@std@@@std@@QEAA@XZ 000000014001d080 f i AdQuery.cpp.obj
 0001:0001c0a0       ??0?$vector@V?$basic_string@_WU?$char_traits@_W@std@@V?$allocator@_W@2@@std@@V?$allocator@V?$basic_string@_WU?$char_traits@_W@std@@V?$allocator@_W@2@@std@@@2@@std@@QEAA@$$QEAV01@@Z 000000014001d0a0 f i AdQuery.cpp.obj
 0001:0001c0e0       ??0?$vector@V?$basic_string@_WU?$char_traits@_W@std@@V?$allocator@_W@2@@std@@V?$allocator@V?$basic_string@_WU?$char_traits@_W@std@@V?$allocator@_W@2@@std@@@2@@std@@QEAA@XZ 000000014001d0e0 f i AdQuery.cpp.obj
 0001:0001c100       ??0AdResult@ith@@QEAA@XZ   000000014001d100 f i AdQuery.cpp.obj
 0001:0001c190       ??0BstrPtr@ith@@QEAA@PEB_W@Z 000000014001d190 f i AdQuery.cpp.obj
 0001:0001c1d0       ??0InfoPair@ith@@QEAA@$$QEAU01@@Z 000000014001d1d0 f i AdQuery.cpp.obj
 0001:0001c250       ??0NamedEntry@ith@@QEAA@$$QEAU01@@Z 000000014001d250 f i AdQuery.cpp.obj
 0001:0001c2a0       ??0NamedEntry@ith@@QEAA@XZ 000000014001d2a0 f i AdQuery.cpp.obj
 0001:0001c2d0       ??0VariantPtr@ith@@QEAA@XZ 000000014001d2d0 f i AdQuery.cpp.obj
 0001:0001c2f0       ??0_Nontrivial_dummy_type@std@@QEAA@XZ 000000014001d2f0 f i AdQuery.cpp.obj
 0001:0001c300       ??1?$ComPtr@UIADs@@@WRL@Microsoft@@QEAA@XZ 000000014001d300 f i AdQuery.cpp.obj
 0001:0001c330       ??1?$ComPtr@UIDirectorySearch@@@WRL@Microsoft@@QEAA@XZ 000000014001d330 f i AdQuery.cpp.obj
 0001:0001c360       ??1?$_Allocation_guard@V?$allocator@PEA_W@std@@@std@@QEAA@XZ 000000014001d360 f i AdQuery.cpp.obj
 0001:0001c3c0       ??1?$_Func_class@XPEAX@std@@QEAA@XZ 000000014001d3c0 f i AdQuery.cpp.obj
 0001:0001c400       ??1?$_Non_trivial_copy@U?$_Optional_construct_base@V?$basic_string@_WU?$char_traits@_W@std@@V?$allocator@_W@2@@std@@@std@@@std@@QEAA@XZ 000000014001d400 f i AdQuery.cpp.obj
 0001:0001c410       ??1?$_Non_trivial_copy@U?$_Optional_construct_base@V?$vector@EV?$allocator@E@std@@@std@@@std@@@std@@QEAA@XZ 000000014001d410 f i AdQuery.cpp.obj
 0001:0001c420       ??1?$_Non_trivial_copy_assign@U?$_Optional_construct_base@V?$basic_string@_WU?$char_traits@_W@std@@V?$allocator@_W@2@@std@@@std@@V?$basic_string@_WU?$char_traits@_W@std@@V?$allocator@_W@2@@2@@std@@QEAA@XZ 000000014001d420 f i AdQuery.cpp.obj
 0001:0001c430       ??1?$_Non_trivial_copy_assign@U?$_Optional_construct_base@V?$vector@EV?$allocator@E@std@@@std@@@std@@V?$vector@EV?$allocator@E@std@@@2@@std@@QEAA@XZ 000000014001d430 f i AdQuery.cpp.obj
 0001:0001c440       ??1?$_Non_trivial_move@U?$_Optional_construct_base@V?$basic_string@_WU?$char_traits@_W@std@@V?$allocator@_W@2@@std@@@std@@V?$basic_string@_WU?$char_traits@_W@std@@V?$allocator@_W@2@@2@@std@@QEAA@XZ 000000014001d440 f i AdQuery.cpp.obj
 0001:0001c450       ??1?$_Non_trivial_move@U?$_Optional_construct_base@V?$vector@EV?$allocator@E@std@@@std@@@std@@V?$vector@EV?$allocator@E@std@@@2@@std@@QEAA@XZ 000000014001d450 f i AdQuery.cpp.obj
 0001:0001c460       ??1?$_Non_trivial_move_assign@U?$_Optional_construct_base@V?$basic_string@_WU?$char_traits@_W@std@@V?$allocator@_W@2@@std@@@std@@V?$basic_string@_WU?$char_traits@_W@std@@V?$allocator@_W@2@@2@@std@@QEAA@XZ 000000014001d460 f i AdQuery.cpp.obj
 0001:0001c470       ??1?$_Non_trivial_move_assign@U?$_Optional_construct_base@V?$vector@EV?$allocator@E@std@@@std@@@std@@V?$vector@EV?$allocator@E@std@@@2@@std@@QEAA@XZ 000000014001d470 f i AdQuery.cpp.obj
 0001:0001c480       ??1?$_Optional_construct_base@V?$basic_string@_WU?$char_traits@_W@std@@V?$allocator@_W@2@@std@@@std@@QEAA@XZ 000000014001d480 f i AdQuery.cpp.obj
 0001:0001c490       ??1?$_Optional_construct_base@V?$vector@EV?$allocator@E@std@@@std@@@std@@QEAA@XZ 000000014001d490 f i AdQuery.cpp.obj
 0001:0001c4a0       ??1?$_Optional_destruct_base@V?$basic_string@_WU?$char_traits@_W@std@@V?$allocator@_W@2@@std@@$0A@@std@@QEAA@XZ 000000014001d4a0 f i AdQuery.cpp.obj
 0001:0001c4b0       ??1?$_Optional_destruct_base@V?$vector@EV?$allocator@E@std@@@std@@$0A@@std@@QEAA@XZ 000000014001d4b0 f i AdQuery.cpp.obj
 0001:0001c530       ??1?$_Tidy_guard@V?$vector@EV?$allocator@E@std@@@std@@@std@@QEAA@XZ 000000014001d530 f i AdQuery.cpp.obj
 0001:0001c540       ??1?$_Tidy_guard@V?$vector@PEB_WV?$allocator@PEB_W@std@@@std@@@std@@QEAA@XZ 000000014001d540 f i AdQuery.cpp.obj
 0001:0001c550       ??1?$_Uninitialized_backout_al@V?$allocator@E@std@@@std@@QEAA@XZ 000000014001d550 f i AdQuery.cpp.obj
 0001:0001c560       ??1?$_Uninitialized_backout_al@V?$allocator@PEA_W@std@@@std@@QEAA@XZ 000000014001d560 f i AdQuery.cpp.obj
 0001:0001c570       ??1?$_Uninitialized_backout_al@V?$allocator@PEB_W@std@@@std@@QEAA@XZ 000000014001d570 f i AdQuery.cpp.obj
 0001:0001c580       ??1?$_Uninitialized_backout_al@V?$allocator@UInfoPair@ith@@@std@@@std@@QEAA@XZ 000000014001d580 f i AdQuery.cpp.obj
 0001:0001c5d0       ??1?$_Uninitialized_backout_al@V?$allocator@UNamedEntry@ith@@@std@@@std@@QEAA@XZ 000000014001d5d0 f i AdQuery.cpp.obj
 0001:0001c610       ??1?$_Uninitialized_backout_al@V?$allocator@V?$basic_string@_WU?$char_traits@_W@std@@V?$allocator@_W@2@@std@@@std@@@std@@QEAA@XZ 000000014001d610 f i AdQuery.cpp.obj
 0001:0001c650       ??1?$function@$$A6AXPEAX@Z@std@@QEAA@XZ 000000014001d650 f i AdQuery.cpp.obj
 0001:0001c690       ??1?$optional@V?$basic_string@_WU?$char_traits@_W@std@@V?$allocator@_W@2@@std@@@std@@QEAA@XZ 000000014001d690 f i AdQuery.cpp.obj
 0001:0001c6a0       ??1?$optional@V?$vector@EV?$allocator@E@std@@@std@@@std@@QEAA@XZ 000000014001d6a0 f i AdQuery.cpp.obj
 0001:0001c6b0       ??1?$unique_ptr@UAdResult@ith@@U?$default_delete@UAdResult@ith@@@std@@@std@@QEAA@XZ 000000014001d6b0 f i AdQuery.cpp.obj
 0001:0001c720       ??1?$vector@EV?$allocator@E@std@@@std@@QEAA@XZ 000000014001d720 f i AdQuery.cpp.obj
 0001:0001c790       ??1?$vector@PEA_WV?$allocator@PEA_W@std@@@std@@QEAA@XZ 000000014001d790 f i AdQuery.cpp.obj
 0001:0001c820       ??1?$vector@PEB_WV?$allocator@PEB_W@std@@@std@@QEAA@XZ 000000014001d820 f i AdQuery.cpp.obj
 0001:0001c830       ??1?$vector@UInfoPair@ith@@V?$allocator@UInfoPair@ith@@@std@@@std@@QEAA@XZ 000000014001d830 f i AdQuery.cpp.obj
 0001:0001c8f0       ??1?$vector@UNamedEntry@ith@@V?$allocator@UNamedEntry@ith@@@std@@@std@@QEAA@XZ 000000014001d8f0 f i AdQuery.cpp.obj
 0001:0001c900       ??1?$vector@V?$basic_string@_WU?$char_traits@_W@std@@V?$allocator@_W@2@@std@@V?$allocator@V?$basic_string@_WU?$char_traits@_W@std@@V?$allocator@_W@2@@std@@@2@@std@@QEAA@XZ 000000014001d900 f i AdQuery.cpp.obj
 0001:0001c910       ??1AdResult@ith@@QEAA@XZ   000000014001d910 f i AdQuery.cpp.obj
 0001:0001c960       ??1BstrPtr@ith@@QEAA@XZ    000000014001d960 f i AdQuery.cpp.obj
 0001:0001c990       ??1InfoPair@ith@@QEAA@XZ   000000014001d990 f i AdQuery.cpp.obj
 0001:0001c9c0       ??1NamedEntry@ith@@QEAA@XZ 000000014001d9c0 f i AdQuery.cpp.obj
 0001:0001c9d0       ??1VariantPtr@ith@@QEAA@XZ 000000014001d9d0 f i AdQuery.cpp.obj
 0001:0001ca20       ??1_Reallocation_guard2@?$vector@PEA_WV?$allocator@PEA_W@std@@@std@@QEAA@XZ 000000014001da20 f i AdQuery.cpp.obj
 0001:0001ca80       ??1_Reallocation_guard2@?$vector@UInfoPair@ith@@V?$allocator@UInfoPair@ith@@@std@@@std@@QEAA@XZ 000000014001da80 f i AdQuery.cpp.obj
 0001:0001cb50       ??1_Reallocation_guard2@?$vector@UNamedEntry@ith@@V?$allocator@UNamedEntry@ith@@@std@@@std@@QEAA@XZ 000000014001db50 f i AdQuery.cpp.obj
 0001:0001cc30       ??1_Reallocation_guard2@?$vector@V?$basic_string@_WU?$char_traits@_W@std@@V?$allocator@_W@2@@std@@V?$allocator@V?$basic_string@_WU?$char_traits@_W@std@@V?$allocator@_W@2@@std@@@2@@std@@QEAA@XZ 000000014001dc30 f i AdQuery.cpp.obj
 0001:0001ccf0       ??4?$basic_string@_WU?$char_traits@_W@std@@V?$allocator@_W@2@@std@@QEAAAEAV01@$$QEAV01@@Z 000000014001dcf0 f i AdQuery.cpp.obj
 0001:0001cdc0       ??4?$basic_string@_WU?$char_traits@_W@std@@V?$allocator@_W@2@@std@@QEAAAEAV01@AEBV01@@Z 000000014001ddc0 f i AdQuery.cpp.obj
 0001:0001ce00       ??4?$basic_string@_WU?$char_traits@_W@std@@V?$allocator@_W@2@@std@@QEAAAEAV01@QEB_W@Z 000000014001de00 f i AdQuery.cpp.obj
 0001:0001ce40       ??4?$vector@EV?$allocator@E@std@@@std@@QEAAAEAV01@$$QEAV01@@Z 000000014001de40 f i AdQuery.cpp.obj
 0001:0001cf00       ??4?$vector@EV?$allocator@E@std@@@std@@QEAAAEAV01@AEBV01@@Z 000000014001df00 f i AdQuery.cpp.obj
 0001:0001d0b0       ??4?$vector@UNamedEntry@ith@@V?$allocator@UNamedEntry@ith@@@std@@@std@@QEAAAEAV01@$$QEAV01@@Z 000000014001e0b0 f i AdQuery.cpp.obj
 0001:0001d110       ??4?$vector@V?$basic_string@_WU?$char_traits@_W@std@@V?$allocator@_W@2@@std@@V?$allocator@V?$basic_string@_WU?$char_traits@_W@std@@V?$allocator@_W@2@@std@@@2@@std@@QEAAAEAV01@$$QEAV01@@Z 000000014001e110 f i AdQuery.cpp.obj
 0001:0001d220       ??4NamedEntry@ith@@QEAAAEAU01@$$QEAU01@@Z 000000014001e220 f i AdQuery.cpp.obj
 0001:0001d260       ??A?$vector@EV?$allocator@E@std@@@std@@QEAAAEAE_K@Z 000000014001e260 f i AdQuery.cpp.obj
 0001:0001d270       ??A?$vector@EV?$allocator@E@std@@@std@@QEBAAEBE_K@Z 000000014001e270 f i AdQuery.cpp.obj
 0001:0001d280       ??B?$optional@I@std@@QEBA_NXZ 000000014001e280 f i AdQuery.cpp.obj
 0001:0001d290       ??B?$optional@V?$basic_string@_WU?$char_traits@_W@std@@V?$allocator@_W@2@@std@@@std@@QEBA_NXZ 000000014001e290 f i AdQuery.cpp.obj
 0001:0001d2a0       ??B?$optional@V?$vector@EV?$allocator@E@std@@@std@@@std@@QEBA_NXZ 000000014001e2a0 f i AdQuery.cpp.obj
 0001:0001d2b0       ??B?$optional@_J@std@@QEBA_NXZ 000000014001e2b0 f i AdQuery.cpp.obj
 0001:0001d2c0       ??BBstrPtr@ith@@QEBAPEA_WXZ 000000014001e2c0 f i AdQuery.cpp.obj
 0001:0001d2d0       ??C?$ComPtr@UIADs@@@WRL@Microsoft@@QEBAPEAUIADs@@XZ 000000014001e2d0 f i AdQuery.cpp.obj
 0001:0001d2e0       ??C?$ComPtr@UIDirectorySearch@@@WRL@Microsoft@@QEBAPEAUIDirectorySearch@@XZ 000000014001e2e0 f i AdQuery.cpp.obj
 0001:0001d2f0       ??C?$optional@V?$basic_string@_WU?$char_traits@_W@std@@V?$allocator@_W@2@@std@@@std@@QEAAPEAV?$basic_string@_WU?$char_traits@_W@std@@V?$allocator@_W@2@@1@XZ 000000014001e2f0 f i AdQuery.cpp.obj
 0001:0001d300       ??C?$optional@V?$basic_string@_WU?$char_traits@_W@std@@V?$allocator@_W@2@@std@@@std@@QEBAPEBV?$basic_string@_WU?$char_traits@_W@std@@V?$allocator@_W@2@@1@XZ 000000014001e300 f i AdQuery.cpp.obj
 0001:0001d310       ??C?$unique_ptr@UAdResult@ith@@U?$default_delete@UAdResult@ith@@@std@@@std@@QEBAPEAUAdResult@ith@@XZ 000000014001e310 f i AdQuery.cpp.obj
 0001:0001d320       ??D?$_Optional_construct_base@I@std@@QEGAAAEAIXZ 000000014001e320 f i AdQuery.cpp.obj
 0001:0001d330       ??D?$_Optional_construct_base@V?$basic_string@_WU?$char_traits@_W@std@@V?$allocator@_W@2@@std@@@std@@QEGAAAEAV?$basic_string@_WU?$char_traits@_W@std@@V?$allocator@_W@2@@1@XZ 000000014001e330 f i AdQuery.cpp.obj
 0001:0001d340       ??D?$_Optional_construct_base@V?$basic_string@_WU?$char_traits@_W@std@@V?$allocator@_W@2@@std@@@std@@QEGBAAEBV?$basic_string@_WU?$char_traits@_W@std@@V?$allocator@_W@2@@1@XZ 000000014001e340 f i AdQuery.cpp.obj
 0001:0001d350       ??D?$_Optional_construct_base@V?$basic_string@_WU?$char_traits@_W@std@@V?$allocator@_W@2@@std@@@std@@QEHAA$$QEAV?$basic_string@_WU?$char_traits@_W@std@@V?$allocator@_W@2@@1@XZ 000000014001e350 f i AdQuery.cpp.obj
 0001:0001d360       ??D?$_Optional_construct_base@V?$vector@EV?$allocator@E@std@@@std@@@std@@QEGAAAEAV?$vector@EV?$allocator@E@std@@@1@XZ 000000014001e360 f i AdQuery.cpp.obj
 0001:0001d370       ??D?$_Optional_construct_base@V?$vector@EV?$allocator@E@std@@@std@@@std@@QEHAA$$QEAV?$vector@EV?$allocator@E@std@@@1@XZ 000000014001e370 f i AdQuery.cpp.obj
 0001:0001d380       ??D?$_Optional_construct_base@_J@std@@QEGAAAEA_JXZ 000000014001e380 f i AdQuery.cpp.obj
 0001:0001d390       ??IVariantPtr@ith@@QEAAPEAUtagVARIANT@@XZ 000000014001e390 f i AdQuery.cpp.obj
 0001:0001d3a0       ??R<lambda_1>@?1???$_Append@_W@?$basic_string@_WU?$char_traits@_W@std@@V?$allocator@_W@2@@std@@AEAAAEAV12@QEB_W_K@Z@SA@QEA_W0101@Z 000000014001e3a0 f i AdQuery.cpp.obj
 0001:0001d400       ??R<lambda_1>@?1???$_Assign@_W@?$basic_string@_WU?$char_traits@_W@std@@V?$allocator@_W@2@@std@@AEAAAEAV12@QEB_W_K@Z@SA@QEA_W10@Z 000000014001e400 f i AdQuery.cpp.obj
 0001:0001d440       ??R<lambda_1>@?1???$_Insert@_W@?$basic_string@_WU?$char_traits@_W@std@@V?$allocator@_W@2@@std@@AEAAAEAV12@_KQEB_W0@Z@SA@QEA_W10010@Z 000000014001e440 f i AdQuery.cpp.obj
 0001:0001dfc0       ??R<lambda_1>@?1??push_back@?$basic_string@_WU?$char_traits@_W@std@@V?$allocator@_W@2@@std@@QEAAX_W@Z@SA@QEA_WQEB_W_K0@Z 000000014001efc0 f i AdQuery.cpp.obj
 0001:0001e010       ??R<lambda_1>@?1??reserve@?$basic_string@_WU?$char_traits@_W@std@@V?$allocator@_W@2@@std@@QEAAX_K@Z@SA@QEA_WQEB_W0@Z 000000014001f010 f i AdQuery.cpp.obj
 0001:0001e0c0       ??R?$_Func_class@XPEAX@std@@QEBAXPEAX@Z 000000014001f0c0 f i AdQuery.cpp.obj
 0001:0001e100       ??R?$default_delete@UAdResult@ith@@@std@@QEBAXPEAUAdResult@ith@@@Z 000000014001f100 f i AdQuery.cpp.obj
 0001:0001e170       ??Y?$basic_string@_WU?$char_traits@_W@std@@V?$allocator@_W@2@@std@@QEAAAEAV01@QEB_W@Z 000000014001f170 f i AdQuery.cpp.obj
 0001:0001e1b0       ??Y?$basic_string@_WU?$char_traits@_W@std@@V?$allocator@_W@2@@std@@QEAAAEAV01@_W@Z 000000014001f1b0 f i AdQuery.cpp.obj
 0001:0001e1d0       ??_G?$basic_string@_WU?$char_traits@_W@std@@V?$allocator@_W@2@@std@@QEAAPEAXI@Z 000000014001f1d0 f i AdQuery.cpp.obj
 0001:0001e220       ??_G?$vector@EV?$allocator@E@std@@@std@@QEAAPEAXI@Z 000000014001f220 f i AdQuery.cpp.obj
 0001:0001e2c0       ??_GAdResult@ith@@QEAAPEAXI@Z 000000014001f2c0 f i AdQuery.cpp.obj
 0001:0001e340       ??_GInfoPair@ith@@QEAAPEAXI@Z 000000014001f340 f i AdQuery.cpp.obj
 0001:0001e390       ??_GNamedEntry@ith@@QEAAPEAXI@Z 000000014001f390 f i AdQuery.cpp.obj
 0001:0001e7c0       ?BytesToLdapFilter@ith@@YA?AV?$basic_string@_WU?$char_traits@_W@std@@V?$allocator@_W@2@@std@@AEBV?$vector@EV?$allocator@E@std@@@3@@Z 000000014001f7c0 f i AdQuery.cpp.obj
 0001:0001f8b0       ?FileTime64ToString@ith@@YA?AV?$basic_string@_WU?$char_traits@_W@std@@V?$allocator@_W@2@@std@@_J@Z 00000001400208b0 f i AdQuery.cpp.obj
 0001:0001fef0       ?Get@?$ComPtr@UIDirectorySearch@@@WRL@Microsoft@@QEBAPEAUIDirectorySearch@@XZ 0000000140020ef0 f i AdQuery.cpp.obj
 0001:0001ff00       ?GetAddressOf@?$ComPtr@UIADs@@@WRL@Microsoft@@QEAAPEAPEAUIADs@@XZ 0000000140020f00 f i AdQuery.cpp.obj
 0001:0001ff10       ?GetAddressOf@?$ComPtr@UIDirectorySearch@@@WRL@Microsoft@@QEAAPEAPEAUIDirectorySearch@@XZ 0000000140020f10 f i AdQuery.cpp.obj
 0001:000205d0       ?InternalRelease@?$ComPtr@UIADs@@@WRL@Microsoft@@IEAAKXZ 00000001400215d0 f i AdQuery.cpp.obj
 0001:00020600       ?InternalRelease@?$ComPtr@UIDirectorySearch@@@WRL@Microsoft@@IEAAKXZ 0000000140021600 f i AdQuery.cpp.obj
 0001:00020630       ?LdapEscape@ith@@YA?AV?$basic_string@_WU?$char_traits@_W@std@@V?$allocator@_W@2@@std@@AEBV23@@Z 0000000140021630 f i AdQuery.cpp.obj
 0001:00020c30       ?LessNoCase@ith@@YA_NAEBV?$basic_string@_WU?$char_traits@_W@std@@V?$allocator@_W@2@@std@@0@Z 0000000140021c30 f i AdQuery.cpp.obj
 0001:00020c80       ?RunAdQuery@ith@@YA?AV?$unique_ptr@UAdResult@ith@@U?$default_delete@UAdResult@ith@@@std@@@std@@AEBUAdQueryRequest@1@@Z 0000000140021c80 f   AdQuery.cpp.obj
 0001:00023e70       ?SidReplaceRid@ith@@YA?AV?$optional@V?$vector@EV?$allocator@E@std@@@std@@@std@@AEBV?$vector@EV?$allocator@E@std@@@3@I@Z 0000000140024e70 f i AdQuery.cpp.obj
 0001:00023fc0       ?SidRid@ith@@YA?AV?$optional@I@std@@AEBV?$vector@EV?$allocator@E@std@@@3@@Z 0000000140024fc0 f i AdQuery.cpp.obj
 0001:00024160       ?_Activate_SSO_buffer@?$_String_val@U?$_Simple_types@_W@std@@@std@@QEAAXXZ 0000000140025160 f i AdQuery.cpp.obj
 0001:00024170       ?_Buy_nonzero@?$vector@EV?$allocator@E@std@@@std@@AEAAX_K@Z 0000000140025170 f i AdQuery.cpp.obj
 0001:000241f0       ?_Buy_nonzero@?$vector@PEB_WV?$allocator@PEB_W@std@@@std@@AEAAX_K@Z 00000001400251f0 f i AdQuery.cpp.obj
 0001:00024270       ?_Buy_raw@?$vector@EV?$allocator@E@std@@@std@@AEAAX_K@Z 0000000140025270 f i AdQuery.cpp.obj
 0001:000242d0       ?_Buy_raw@?$vector@PEB_WV?$allocator@PEB_W@std@@@std@@AEAAX_K@Z 00000001400252d0 f i AdQuery.cpp.obj
 0001:00024350       ?_Calculate_growth@?$basic_string@_WU?$char_traits@_W@std@@V?$allocator@_W@2@@std@@AEBA_K_K@Z 0000000140025350 f i AdQuery.cpp.obj
 0001:000243a0       ?_Calculate_growth@?$vector@EV?$allocator@E@std@@@std@@AEBA_K_K@Z 00000001400253a0 f i AdQuery.cpp.obj
 0001:000243e0       ?_Calculate_growth@?$vector@PEA_WV?$allocator@PEA_W@std@@@std@@AEBA_K_K@Z 00000001400253e0 f i AdQuery.cpp.obj
 0001:00024420       ?_Calculate_growth@?$vector@UInfoPair@ith@@V?$allocator@UInfoPair@ith@@@std@@@std@@AEBA_K_K@Z 0000000140025420 f i AdQuery.cpp.obj
 0001:00024460       ?_Calculate_growth@?$vector@UNamedEntry@ith@@V?$allocator@UNamedEntry@ith@@@std@@@std@@AEBA_K_K@Z 0000000140025460 f i AdQuery.cpp.obj
 0001:000244c0       ?_Calculate_growth@?$vector@V?$basic_string@_WU?$char_traits@_W@std@@V?$allocator@_W@2@@std@@V?$allocator@V?$basic_string@_WU?$char_traits@_W@std@@V?$allocator@_W@2@@std@@@2@@std@@AEBA_K_K@Z 00000001400254c0 f i AdQuery.cpp.obj
 0001:00024500       ?_Change_array@?$vector@PEA_WV?$allocator@PEA_W@std@@@std@@AEAAXQEAPEA_W_K1@Z 0000000140025500 f i AdQuery.cpp.obj
 0001:000245a0       ?_Change_array@?$vector@UInfoPair@ith@@V?$allocator@UInfoPair@ith@@@std@@@std@@AEAAXQEAUInfoPair@ith@@_K1@Z 00000001400255a0 f i AdQuery.cpp.obj
 0001:00024690       ?_Change_array@?$vector@UNamedEntry@ith@@V?$allocator@UNamedEntry@ith@@@std@@@std@@AEAAXQEAUNamedEntry@ith@@_K1@Z 0000000140025690 f i AdQuery.cpp.obj
 0001:000247b0       ?_Change_array@?$vector@V?$basic_string@_WU?$char_traits@_W@std@@V?$allocator@_W@2@@std@@V?$allocator@V?$basic_string@_WU?$char_traits@_W@std@@V?$allocator@_W@2@@std@@@2@@std@@AEAAXQEAV?$basic_string@_WU?$char_traits@_W@std@@V?$allocator@_W@2@@2@_K1@Z 00000001400257b0 f i AdQuery.cpp.obj
 0001:000248a0       ?_Check_offset@?$_String_val@U?$_Simple_types@_W@std@@@std@@QEBAX_K@Z 00000001400258a0 f i AdQuery.cpp.obj
 0001:000248c0       ?_Clear_and_reserve_geometric@?$vector@EV?$allocator@E@std@@@std@@AEAAX_K@Z 00000001400258c0 f i AdQuery.cpp.obj
 0001:000249e0       ?_Construct_empty@?$basic_string@_WU?$char_traits@_W@std@@V?$allocator@_W@2@@std@@AEAAXXZ 00000001400259e0 f i AdQuery.cpp.obj
 0001:00024a90       ?_Empty@?$_Func_class@XPEAX@std@@IEBA_NXZ 0000000140025a90 f i AdQuery.cpp.obj
 0001:00024aa0       ?_Eos@?$basic_string@_WU?$char_traits@_W@std@@V?$allocator@_W@2@@std@@AEAAX_K@Z 0000000140025aa0 f i AdQuery.cpp.obj
 0001:00024ae0       ?_Get_first@?$_Compressed_pair@U?$default_delete@UAdResult@ith@@@std@@PEAUAdResult@ith@@$00@std@@QEAAAEAU?$default_delete@UAdResult@ith@@@2@XZ 0000000140025ae0 f i AdQuery.cpp.obj
 0001:00024af0       ?_Get_first@?$_Compressed_pair@V?$allocator@E@std@@V?$_Vector_val@U?$_Simple_types@E@std@@@2@$00@std@@QEAAAEAV?$allocator@E@2@XZ 0000000140025af0 f i AdQuery.cpp.obj
 0001:00024b00       ?_Get_first@?$_Compressed_pair@V?$allocator@E@std@@V?$_Vector_val@U?$_Simple_types@E@std@@@2@$00@std@@QEBAAEBV?$allocator@E@2@XZ 0000000140025b00 f i AdQuery.cpp.obj
 0001:00024b10       ?_Get_first@?$_Compressed_pair@V?$allocator@PEA_W@std@@V?$_Vector_val@U?$_Simple_types@PEA_W@std@@@2@$00@std@@QEAAAEAV?$allocator@PEA_W@2@XZ 0000000140025b10 f i AdQuery.cpp.obj
 0001:00024b20       ?_Get_first@?$_Compressed_pair@V?$allocator@PEA_W@std@@V?$_Vector_val@U?$_Simple_types@PEA_W@std@@@2@$00@std@@QEBAAEBV?$allocator@PEA_W@2@XZ 0000000140025b20 f i AdQuery.cpp.obj
 0001:00024b30       ?_Get_first@?$_Compressed_pair@V?$allocator@PEB_W@std@@V?$_Vector_val@U?$_Simple_types@PEB_W@std@@@2@$00@std@@QEAAAEAV?$allocator@PEB_W@2@XZ 0000000140025b30 f i AdQuery.cpp.obj
 0001:00024b40       ?_Get_first@?$_Compressed_pair@V?$allocator@PEB_W@std@@V?$_Vector_val@U?$_Simple_types@PEB_W@std@@@2@$00@std@@QEBAAEBV?$allocator@PEB_W@2@XZ 0000000140025b40 f i AdQuery.cpp.obj
 0001:00024b50       ?_Get_first@?$_Compressed_pair@V?$allocator@UInfoPair@ith@@@std@@V?$_Vector_val@U?$_Simple_types@UInfoPair@ith@@@std@@@2@$00@std@@QEAAAEAV?$allocator@UInfoPair@ith@@@2@XZ 0000000140025b50 f i AdQuery.cpp.obj
 0001:00024b60       ?_Get_first@?$_Compressed_pair@V?$allocator@UInfoPair@ith@@@std@@V?$_Vector_val@U?$_Simple_types@UInfoPair@ith@@@std@@@2@$00@std@@QEBAAEBV?$allocator@UInfoPair@ith@@@2@XZ 0000000140025b60 f i AdQuery.cpp.obj
 0001:00024b70       ?_Get_first@?$_Compressed_pair@V?$allocator@UNamedEntry@ith@@@std@@V?$_Vector_val@U?$_Simple_types@UNamedEntry@ith@@@std@@@2@$00@std@@QEAAAEAV?$allocator@UNamedEntry@ith@@@2@XZ 0000000140025b70 f i AdQuery.cpp.obj
 0001:00024b80       ?_Get_first@?$_Compressed_pair@V?$allocator@UNamedEntry@ith@@@std@@V?$_Vector_val@U?$_Simple_types@UNamedEntry@ith@@@std@@@2@$00@std@@QEBAAEBV?$allocator@UNamedEntry@ith@@@2@XZ 0000000140025b80 f i AdQuery.cpp.obj
 0001:00024b90       ?_Get_first@?$_Compressed_pair@V?$allocator@V?$basic_string@_WU?$char_traits@_W@std@@V?$allocator@_W@2@@std@@@std@@V?$_Vector_val@U?$_Simple_types@V?$basic_string@_WU?$char_traits@_W@std@@V?$allocator@_W@2@@std@@@std@@@2@$00@std@@QEAAAEAV?$allocator@V?$basic_string@_WU?$char_traits@_W@std@@V?$allocator@_W@2@@std@@@2@XZ 0000000140025b90 f i AdQuery.cpp.obj
 0001:00024ba0       ?_Get_first@?$_Compressed_pair@V?$allocator@V?$basic_string@_WU?$char_traits@_W@std@@V?$allocator@_W@2@@std@@@std@@V?$_Vector_val@U?$_Simple_types@V?$basic_string@_WU?$char_traits@_W@std@@V?$allocator@_W@2@@std@@@std@@@2@$00@std@@QEBAAEBV?$allocator@V?$basic_string@_WU?$char_traits@_W@std@@V?$allocator@_W@2@@std@@@2@XZ 0000000140025ba0 f i AdQuery.cpp.obj
 0001:00024bb0       ?_Getal@?$vector@EV?$allocator@E@std@@@std@@AEAAAEAV?$allocator@E@2@XZ 0000000140025bb0 f i AdQuery.cpp.obj
 0001:00024bc0       ?_Getal@?$vector@EV?$allocator@E@std@@@std@@AEBAAEBV?$allocator@E@2@XZ 0000000140025bc0 f i AdQuery.cpp.obj
 0001:00024bd0       ?_Getal@?$vector@PEA_WV?$allocator@PEA_W@std@@@std@@AEAAAEAV?$allocator@PEA_W@2@XZ 0000000140025bd0 f i AdQuery.cpp.obj
 0001:00024be0       ?_Getal@?$vector@PEA_WV?$allocator@PEA_W@std@@@std@@AEBAAEBV?$allocator@PEA_W@2@XZ 0000000140025be0 f i AdQuery.cpp.obj
 0001:00024bf0       ?_Getal@?$vector@PEB_WV?$allocator@PEB_W@std@@@std@@AEAAAEAV?$allocator@PEB_W@2@XZ 0000000140025bf0 f i AdQuery.cpp.obj
 0001:00024c00       ?_Getal@?$vector@PEB_WV?$allocator@PEB_W@std@@@std@@AEBAAEBV?$allocator@PEB_W@2@XZ 0000000140025c00 f i AdQuery.cpp.obj
 0001:00024c10       ?_Getal@?$vector@UInfoPair@ith@@V?$allocator@UInfoPair@ith@@@std@@@std@@AEAAAEAV?$allocator@UInfoPair@ith@@@2@XZ 0000000140025c10 f i AdQuery.cpp.obj
 0001:00024c20       ?_Getal@?$vector@UInfoPair@ith@@V?$allocator@UInfoPair@ith@@@std@@@std@@AEBAAEBV?$allocator@UInfoPair@ith@@@2@XZ 0000000140025c20 f i AdQuery.cpp.obj
 0001:00024c30       ?_Getal@?$vector@UNamedEntry@ith@@V?$allocator@UNamedEntry@ith@@@std@@@std@@AEAAAEAV?$allocator@UNamedEntry@ith@@@2@XZ 0000000140025c30 f i AdQuery.cpp.obj
 0001:00024c40       ?_Getal@?$vector@UNamedEntry@ith@@V?$allocator@UNamedEntry@ith@@@std@@@std@@AEBAAEBV?$allocator@UNamedEntry@ith@@@2@XZ 0000000140025c40 f i AdQuery.cpp.obj
 0001:00024c50       ?_Getal@?$vector@V?$basic_string@_WU?$char_traits@_W@std@@V?$allocator@_W@2@@std@@V?$allocator@V?$basic_string@_WU?$char_traits@_W@std@@V?$allocator@_W@2@@std@@@2@@std@@AEAAAEAV?$allocator@V?$basic_string@_WU?$char_traits@_W@std@@V?$allocator@_W@2@@std@@@2@XZ 0000000140025c50 f i AdQuery.cpp.obj
 0001:00024c60       ?_Getal@?$vector@V?$basic_string@_WU?$char_traits@_W@std@@V?$allocator@_W@2@@std@@V?$allocator@V?$basic_string@_WU?$char_traits@_W@std@@V?$allocator@_W@2@@std@@@2@@std@@AEBAAEBV?$allocator@V?$basic_string@_WU?$char_traits@_W@std@@V?$allocator@_W@2@@std@@@2@XZ 0000000140025c60 f i AdQuery.cpp.obj
 0001:00024c70       ?_Getimpl@?$_Func_class@XPEAX@std@@AEBAPEAV?$_Func_base@XPEAX@2@XZ 0000000140025c70 f i AdQuery.cpp.obj
 0001:00024c80       ?_Local@?$_Func_class@XPEAX@std@@AEBA_NXZ 0000000140025c80 f i AdQuery.cpp.obj
 0001:00024cc0       ?_Myptr@?$_String_val@U?$_Simple_types@_W@std@@@std@@QEAAPEA_WXZ 0000000140025cc0 f i AdQuery.cpp.obj
 0001:00024ce0       ?_Orphan_range@?$vector@PEA_WV?$allocator@PEA_W@std@@@std@@AEBAXPEAPEA_W0@Z 0000000140025ce0 f i AdQuery.cpp.obj
 0001:00024cf0       ?_Orphan_range@?$vector@UInfoPair@ith@@V?$allocator@UInfoPair@ith@@@std@@@std@@AEBAXPEAUInfoPair@ith@@0@Z 0000000140025cf0 f i AdQuery.cpp.obj
 0001:00024d00       ?_Orphan_range@?$vector@UNamedEntry@ith@@V?$allocator@UNamedEntry@ith@@@std@@@std@@AEBAXPEAUNamedEntry@ith@@0@Z 0000000140025d00 f i AdQuery.cpp.obj
 0001:00024d10       ?_Orphan_range@?$vector@V?$basic_string@_WU?$char_traits@_W@std@@V?$allocator@_W@2@@std@@V?$allocator@V?$basic_string@_WU?$char_traits@_W@std@@V?$allocator@_W@2@@std@@@2@@std@@AEBAXPEAV?$basic_string@_WU?$char_traits@_W@std@@V?$allocator@_W@2@@2@0@Z 0000000140025d10 f i AdQuery.cpp.obj
 0001:00024d20       ?_Release@?$_Uninitialized_backout_al@V?$allocator@E@std@@@std@@QEAAPEAEXZ 0000000140025d20 f i AdQuery.cpp.obj
 0001:00024d30       ?_Release@?$_Uninitialized_backout_al@V?$allocator@PEA_W@std@@@std@@QEAAPEAPEA_WXZ 0000000140025d30 f i AdQuery.cpp.obj
 0001:00024d40       ?_Release@?$_Uninitialized_backout_al@V?$allocator@PEB_W@std@@@std@@QEAAPEAPEB_WXZ 0000000140025d40 f i AdQuery.cpp.obj
 0001:00024d50       ?_Release@?$_Uninitialized_backout_al@V?$allocator@UInfoPair@ith@@@std@@@std@@QEAAPEAUInfoPair@ith@@XZ 0000000140025d50 f i AdQuery.cpp.obj
 0001:00024d60       ?_Release@?$_Uninitialized_backout_al@V?$allocator@UNamedEntry@ith@@@std@@@std@@QEAAPEAUNamedEntry@ith@@XZ 0000000140025d60 f i AdQuery.cpp.obj
 0001:00024d70       ?_Release@?$_Uninitialized_backout_al@V?$allocator@V?$basic_string@_WU?$char_traits@_W@std@@V?$allocator@_W@2@@std@@@std@@@std@@QEAAPEAV?$basic_string@_WU?$char_traits@_W@std@@V?$allocator@_W@2@@2@XZ 0000000140025d70 f i AdQuery.cpp.obj
 0001:00024d80       ?_Set@?$_Func_class@XPEAX@std@@AEAAXPEAV?$_Func_base@XPEAX@2@@Z 0000000140025d80 f i AdQuery.cpp.obj
 0001:00024d90       ?_Swap_proxy_and_iterators@?$basic_string@_WU?$char_traits@_W@std@@V?$allocator@_W@2@@std@@AEAAXAEAV12@@Z 0000000140025d90 f i AdQuery.cpp.obj
 0001:00024da0       ?_Take_contents@?$_Vector_val@U?$_Simple_types@E@std@@@std@@QEAAXAEAV12@@Z 0000000140025da0 f i AdQuery.cpp.obj
 0001:00024dd0       ?_Take_contents@?$_Vector_val@U?$_Simple_types@UNamedEntry@ith@@@std@@@std@@QEAAXAEAV12@@Z 0000000140025dd0 f i AdQuery.cpp.obj
 0001:00024e00       ?_Take_contents@?$_Vector_val@U?$_Simple_types@V?$basic_string@_WU?$char_traits@_W@std@@V?$allocator@_W@2@@std@@@std@@@std@@QEAAXAEAV12@@Z 0000000140025e00 f i AdQuery.cpp.obj
 0001:00024e30       ?_Take_contents@?$basic_string@_WU?$char_traits@_W@std@@V?$allocator@_W@2@@std@@AEAAXAEAV12@@Z 0000000140025e30 f i AdQuery.cpp.obj
 0001:00024e80       ?_Tidy@?$_Func_class@XPEAX@std@@IEAAXXZ 0000000140025e80 f i AdQuery.cpp.obj
 0001:00024ec0       ?_Tidy@?$vector@EV?$allocator@E@std@@@std@@AEAAXXZ 0000000140025ec0 f i AdQuery.cpp.obj
 0001:00024f30       ?_Tidy@?$vector@PEA_WV?$allocator@PEA_W@std@@@std@@AEAAXXZ 0000000140025f30 f i AdQuery.cpp.obj
 0001:00024fc0       ?_Tidy@?$vector@PEB_WV?$allocator@PEB_W@std@@@std@@AEAAXXZ 0000000140025fc0 f i AdQuery.cpp.obj
 0001:00025050       ?_Tidy@?$vector@UInfoPair@ith@@V?$allocator@UInfoPair@ith@@@std@@@std@@AEAAXXZ 0000000140026050 f i AdQuery.cpp.obj
 0001:00025110       ?_Tidy@?$vector@UNamedEntry@ith@@V?$allocator@UNamedEntry@ith@@@std@@@std@@AEAAXXZ 0000000140026110 f i AdQuery.cpp.obj
 0001:00025200       ?_Tidy@?$vector@V?$basic_string@_WU?$char_traits@_W@std@@V?$allocator@_W@2@@std@@V?$allocator@V?$basic_string@_WU?$char_traits@_W@std@@V?$allocator@_W@2@@std@@@2@@std@@AEAAXXZ 0000000140026200 f i AdQuery.cpp.obj
 0001:000252c0       ?_Unchecked_begin@?$basic_string@_WU?$char_traits@_W@std@@V?$allocator@_W@2@@std@@QEBAPEB_WXZ 00000001400262c0 f i AdQuery.cpp.obj
 0001:000252e0       ?_Unchecked_begin@?$vector@EV?$allocator@E@std@@@std@@QEBAPEBEXZ 00000001400262e0 f i AdQuery.cpp.obj
 0001:000252f0       ?_Unchecked_begin@?$vector@PEB_WV?$allocator@PEB_W@std@@@std@@QEBAPEBQEB_WXZ 00000001400262f0 f i AdQuery.cpp.obj
 0001:00025300       ?_Unchecked_begin@?$vector@UNamedEntry@ith@@V?$allocator@UNamedEntry@ith@@@std@@@std@@QEAAPEAUNamedEntry@ith@@XZ 0000000140026300 f i AdQuery.cpp.obj
 0001:00025310       ?_Unchecked_begin@?$vector@V?$basic_string@_WU?$char_traits@_W@std@@V?$allocator@_W@2@@std@@V?$allocator@V?$basic_string@_WU?$char_traits@_W@std@@V?$allocator@_W@2@@std@@@2@@std@@QEBAPEBV?$basic_string@_WU?$char_traits@_W@std@@V?$allocator@_W@2@@2@XZ 0000000140026310 f i AdQuery.cpp.obj
 0001:00025320       ?_Unchecked_end@?$basic_string@_WU?$char_traits@_W@std@@V?$allocator@_W@2@@std@@QEBAPEB_WXZ 0000000140026320 f i AdQuery.cpp.obj
 0001:00025350       ?_Unchecked_end@?$vector@EV?$allocator@E@std@@@std@@QEBAPEBEXZ 0000000140026350 f i AdQuery.cpp.obj
 0001:00025360       ?_Unchecked_end@?$vector@PEB_WV?$allocator@PEB_W@std@@@std@@QEBAPEBQEB_WXZ 0000000140026360 f i AdQuery.cpp.obj
 0001:00025370       ?_Unchecked_end@?$vector@UNamedEntry@ith@@V?$allocator@UNamedEntry@ith@@@std@@@std@@QEAAPEAUNamedEntry@ith@@XZ 0000000140026370 f i AdQuery.cpp.obj
 0001:00025380       ?_Unchecked_end@?$vector@V?$basic_string@_WU?$char_traits@_W@std@@V?$allocator@_W@2@@std@@V?$allocator@V?$basic_string@_WU?$char_traits@_W@std@@V?$allocator@_W@2@@std@@@2@@std@@QEBAPEBV?$basic_string@_WU?$char_traits@_W@std@@V?$allocator@_W@2@@2@XZ 0000000140026380 f i AdQuery.cpp.obj
 0001:00025390       ?_Unwrapped@?$_Vector_iterator@V?$_Vector_val@U?$_Simple_types@UNamedEntry@ith@@@std@@@std@@@std@@QEBAPEAUNamedEntry@ith@@XZ 0000000140026390 f i AdQuery.cpp.obj
 0001:000253a0       ?_Xlength@?$vector@EV?$allocator@E@std@@@std@@CAXXZ 00000001400263a0 f i AdQuery.cpp.obj
 0001:000253c0       ?_Xlength@?$vector@PEA_WV?$allocator@PEA_W@std@@@std@@CAXXZ 00000001400263c0 f i AdQuery.cpp.obj
 0001:000253e0       ?_Xlength@?$vector@PEB_WV?$allocator@PEB_W@std@@@std@@CAXXZ 00000001400263e0 f i AdQuery.cpp.obj
 0001:00025400       ?_Xlength@?$vector@UInfoPair@ith@@V?$allocator@UInfoPair@ith@@@std@@@std@@CAXXZ 0000000140026400 f i AdQuery.cpp.obj
 0001:00025420       ?_Xlength@?$vector@UNamedEntry@ith@@V?$allocator@UNamedEntry@ith@@@std@@@std@@CAXXZ 0000000140026420 f i AdQuery.cpp.obj
 0001:00025440       ?_Xlength@?$vector@V?$basic_string@_WU?$char_traits@_W@std@@V?$allocator@_W@2@@std@@V?$allocator@V?$basic_string@_WU?$char_traits@_W@std@@V?$allocator@_W@2@@std@@@2@@std@@CAXXZ 0000000140026440 f i AdQuery.cpp.obj
 0001:00025460       ?_Xran@?$_String_val@U?$_Simple_types@_W@std@@@std@@SAXXZ 0000000140026460 f i AdQuery.cpp.obj
 0001:00025480       ?allocate@?$allocator@E@std@@QEAAPEAE_K@Z 0000000140026480 f i AdQuery.cpp.obj
 0001:000254b0       ?allocate@?$allocator@PEA_W@std@@QEAAPEAPEA_W_K@Z 00000001400264b0 f i AdQuery.cpp.obj
 0001:00025510       ?allocate@?$allocator@PEB_W@std@@QEAAPEAPEB_W_K@Z 0000000140026510 f i AdQuery.cpp.obj
 0001:00025570       ?allocate@?$allocator@UInfoPair@ith@@@std@@QEAAPEAUInfoPair@ith@@_K@Z 0000000140026570 f i AdQuery.cpp.obj
 0001:000255d0       ?allocate@?$allocator@UNamedEntry@ith@@@std@@QEAAPEAUNamedEntry@ith@@_K@Z 00000001400265d0 f i AdQuery.cpp.obj
 0001:00025630       ?allocate@?$allocator@V?$basic_string@_WU?$char_traits@_W@std@@V?$allocator@_W@2@@std@@@std@@QEAAPEAV?$basic_string@_WU?$char_traits@_W@std@@V?$allocator@_W@2@@2@_K@Z 0000000140026630 f i AdQuery.cpp.obj
 0001:00025690       ?append@?$basic_string@_WU?$char_traits@_W@std@@V?$allocator@_W@2@@std@@QEAAAEAV12@AEBV12@@Z 0000000140026690 f i AdQuery.cpp.obj
 0001:000256c0       ?append@?$basic_string@_WU?$char_traits@_W@std@@V?$allocator@_W@2@@std@@QEAAAEAV12@QEB_W@Z 00000001400266c0 f i AdQuery.cpp.obj
 0001:00025700       ?assign@?$basic_string@_WU?$char_traits@_W@std@@V?$allocator@_W@2@@std@@QEAAAEAV12@QEB_W@Z 0000000140026700 f i AdQuery.cpp.obj
 0001:00025740       ?assign@?$basic_string@_WU?$char_traits@_W@std@@V?$allocator@_W@2@@std@@QEAAAEAV12@QEB_W_K@Z 0000000140026740 f i AdQuery.cpp.obj
 0001:00025750       ?back@?$basic_string@_WU?$char_traits@_W@std@@V?$allocator@_W@2@@std@@QEAAAEA_WXZ 0000000140026750 f i AdQuery.cpp.obj
 0001:00025780       ?begin@?$initializer_list@PEB_W@std@@QEBAPEBQEB_WXZ 0000000140026780 f i AdQuery.cpp.obj
 0001:00025790       ?begin@?$vector@UNamedEntry@ith@@V?$allocator@UNamedEntry@ith@@@std@@@std@@QEAA?AV?$_Vector_iterator@V?$_Vector_val@U?$_Simple_types@UNamedEntry@ith@@@std@@@std@@@2@XZ 0000000140026790 f i AdQuery.cpp.obj
 0001:000257a0       ?capacity@?$vector@EV?$allocator@E@std@@@std@@QEBA_KXZ 00000001400267a0 f i AdQuery.cpp.obj
 0001:000257b0       ?capacity@?$vector@PEA_WV?$allocator@PEA_W@std@@@std@@QEBA_KXZ 00000001400267b0 f i AdQuery.cpp.obj
 0001:000257c0       ?capacity@?$vector@UInfoPair@ith@@V?$allocator@UInfoPair@ith@@@std@@@std@@QEBA_KXZ 00000001400267c0 f i AdQuery.cpp.obj
 0001:000257d0       ?capacity@?$vector@UNamedEntry@ith@@V?$allocator@UNamedEntry@ith@@@std@@@std@@QEBA_KXZ 00000001400267d0 f i AdQuery.cpp.obj
 0001:00025800       ?capacity@?$vector@V?$basic_string@_WU?$char_traits@_W@std@@V?$allocator@_W@2@@std@@V?$allocator@V?$basic_string@_WU?$char_traits@_W@std@@V?$allocator@_W@2@@std@@@2@@std@@QEBA_KXZ 0000000140026800 f i AdQuery.cpp.obj
 0001:00025810       ?data@?$vector@PEA_WV?$allocator@PEA_W@std@@@std@@QEAAPEAPEA_WXZ 0000000140026810 f i AdQuery.cpp.obj
 0001:00025820       ?deallocate@?$allocator@E@std@@QEAAXQEAE_K@Z 0000000140026820 f i AdQuery.cpp.obj
 0001:00025870       ?deallocate@?$allocator@PEA_W@std@@QEAAXQEAPEA_W_K@Z 0000000140026870 f i AdQuery.cpp.obj
 0001:000258c0       ?deallocate@?$allocator@PEB_W@std@@QEAAXQEAPEB_W_K@Z 00000001400268c0 f i AdQuery.cpp.obj
 0001:00025910       ?deallocate@?$allocator@UInfoPair@ith@@@std@@QEAAXQEAUInfoPair@ith@@_K@Z 0000000140026910 f i AdQuery.cpp.obj
 0001:00025960       ?deallocate@?$allocator@UNamedEntry@ith@@@std@@QEAAXQEAUNamedEntry@ith@@_K@Z 0000000140026960 f i AdQuery.cpp.obj
 0001:000259c0       ?deallocate@?$allocator@V?$basic_string@_WU?$char_traits@_W@std@@V?$allocator@_W@2@@std@@@std@@QEAAXQEAV?$basic_string@_WU?$char_traits@_W@std@@V?$allocator@_W@2@@2@_K@Z 00000001400269c0 f i AdQuery.cpp.obj
 0001:00025a10       ?empty@?$basic_string@_WU?$char_traits@_W@std@@V?$allocator@_W@2@@std@@QEBA_NXZ 0000000140026a10 f i AdQuery.cpp.obj
 0001:00025a20       ?empty@?$vector@EV?$allocator@E@std@@@std@@QEBA_NXZ 0000000140026a20 f i AdQuery.cpp.obj
 0001:00025a30       ?end@?$initializer_list@PEB_W@std@@QEBAPEBQEB_WXZ 0000000140026a30 f i AdQuery.cpp.obj
 0001:00025a40       ?end@?$vector@UNamedEntry@ith@@V?$allocator@UNamedEntry@ith@@@std@@@std@@QEAA?AV?$_Vector_iterator@V?$_Vector_val@U?$_Simple_types@UNamedEntry@ith@@@std@@@std@@@2@XZ 0000000140026a40 f i AdQuery.cpp.obj
 0001:00025a50       ?free@BstrPtr@ith@@AEAAXXZ 0000000140026a50 f i AdQuery.cpp.obj
 0001:00025a80       ?get@VariantPtr@ith@@QEBAAEBUtagVARIANT@@XZ 0000000140026a80 f i AdQuery.cpp.obj
 0001:00025a90       ?get_deleter@?$unique_ptr@UAdResult@ith@@U?$default_delete@UAdResult@ith@@@std@@@std@@QEAAAEAU?$default_delete@UAdResult@ith@@@2@XZ 0000000140026a90 f i AdQuery.cpp.obj
 0001:00025aa0       ?insert@?$basic_string@_WU?$char_traits@_W@std@@V?$allocator@_W@2@@std@@QEAAAEAV12@_KQEB_W@Z 0000000140026aa0 f i AdQuery.cpp.obj
 0001:00025c10       ?max_size@?$_Default_allocator_traits@V?$allocator@E@std@@@std@@SA_KAEBV?$allocator@E@2@@Z 0000000140026c10 f i AdQuery.cpp.obj
 0001:00025c20       ?max_size@?$_Default_allocator_traits@V?$allocator@PEA_W@std@@@std@@SA_KAEBV?$allocator@PEA_W@2@@Z 0000000140026c20 f i AdQuery.cpp.obj
 0001:00025c30       ?max_size@?$_Default_allocator_traits@V?$allocator@PEB_W@std@@@std@@SA_KAEBV?$allocator@PEB_W@2@@Z 0000000140026c30 f i AdQuery.cpp.obj
 0001:00025c40       ?max_size@?$_Default_allocator_traits@V?$allocator@UInfoPair@ith@@@std@@@std@@SA_KAEBV?$allocator@UInfoPair@ith@@@2@@Z 0000000140026c40 f i AdQuery.cpp.obj
 0001:00025c50       ?max_size@?$_Default_allocator_traits@V?$allocator@UNamedEntry@ith@@@std@@@std@@SA_KAEBV?$allocator@UNamedEntry@ith@@@2@@Z 0000000140026c50 f i AdQuery.cpp.obj
 0001:00025c60       ?max_size@?$_Default_allocator_traits@V?$allocator@V?$basic_string@_WU?$char_traits@_W@std@@V?$allocator@_W@2@@std@@@std@@@std@@SA_KAEBV?$allocator@V?$basic_string@_WU?$char_traits@_W@std@@V?$allocator@_W@2@@std@@@2@@Z 0000000140026c60 f i AdQuery.cpp.obj
 0001:00025c70       ?max_size@?$vector@EV?$allocator@E@std@@@std@@QEBA_KXZ 0000000140026c70 f i AdQuery.cpp.obj
 0001:00025c80       ?max_size@?$vector@PEA_WV?$allocator@PEA_W@std@@@std@@QEBA_KXZ 0000000140026c80 f i AdQuery.cpp.obj
 0001:00025c90       ?max_size@?$vector@PEB_WV?$allocator@PEB_W@std@@@std@@QEBA_KXZ 0000000140026c90 f i AdQuery.cpp.obj
 0001:00025ca0       ?max_size@?$vector@UInfoPair@ith@@V?$allocator@UInfoPair@ith@@@std@@@std@@QEBA_KXZ 0000000140026ca0 f i AdQuery.cpp.obj
 0001:00025cb0       ?max_size@?$vector@UNamedEntry@ith@@V?$allocator@UNamedEntry@ith@@@std@@@std@@QEBA_KXZ 0000000140026cb0 f i AdQuery.cpp.obj
 0001:00025cc0       ?max_size@?$vector@V?$basic_string@_WU?$char_traits@_W@std@@V?$allocator@_W@2@@std@@V?$allocator@V?$basic_string@_WU?$char_traits@_W@std@@V?$allocator@_W@2@@std@@@2@@std@@QEBA_KXZ 0000000140026cc0 f i AdQuery.cpp.obj
 0001:00025cd0       ?move@?$_Char_traits@_WG@std@@SAPEA_WQEA_WQEB_W_K@Z 0000000140026cd0 f i AdQuery.cpp.obj
 0001:00025cf0       ?pop_back@?$basic_string@_WU?$char_traits@_W@std@@V?$allocator@_W@2@@std@@QEAAXXZ 0000000140026cf0 f i AdQuery.cpp.obj
 0001:00025d20       ?push_back@?$basic_string@_WU?$char_traits@_W@std@@V?$allocator@_W@2@@std@@QEAAX_W@Z 0000000140026d20 f i AdQuery.cpp.obj
 0001:00025f30       ?push_back@?$vector@PEA_WV?$allocator@PEA_W@std@@@std@@QEAAX$$QEAPEA_W@Z 0000000140026f30 f i AdQuery.cpp.obj
 0001:000260d0       ?push_back@?$vector@UInfoPair@ith@@V?$allocator@UInfoPair@ith@@@std@@@std@@QEAAX$$QEAUInfoPair@ith@@@Z 00000001400270d0 f i AdQuery.cpp.obj
 0001:00026170       ?push_back@?$vector@UNamedEntry@ith@@V?$allocator@UNamedEntry@ith@@@std@@@std@@QEAAX$$QEAUNamedEntry@ith@@@Z 0000000140027170 f i AdQuery.cpp.obj
 0001:000261e0       ?release@?$unique_ptr@UAdResult@ith@@U?$default_delete@UAdResult@ith@@@std@@@std@@QEAAPEAUAdResult@ith@@XZ 00000001400271e0 f i AdQuery.cpp.obj
 0001:000261f0       ?reserve@?$basic_string@_WU?$char_traits@_W@std@@V?$allocator@_W@2@@std@@QEAAX_K@Z 00000001400271f0 f i AdQuery.cpp.obj
 0001:000263b0       ?reserve@?$vector@PEA_WV?$allocator@PEA_W@std@@@std@@QEAAX_K@Z 00000001400273b0 f i AdQuery.cpp.obj
 0001:00026490       ?select_on_container_copy_construction@?$_Default_allocator_traits@V?$allocator@E@std@@@std@@SA?AV?$allocator@E@2@AEBV32@@Z 0000000140027490 f i AdQuery.cpp.obj
 0001:000264a0       ?size@?$basic_string@_WU?$char_traits@_W@std@@V?$allocator@_W@2@@std@@QEBA_KXZ 00000001400274a0 f i AdQuery.cpp.obj
 0001:000264b0       ?size@?$initializer_list@PEB_W@std@@QEBA_KXZ 00000001400274b0 f i AdQuery.cpp.obj
 0001:000264c0       ?size@?$vector@EV?$allocator@E@std@@@std@@QEBA_KXZ 00000001400274c0 f i AdQuery.cpp.obj
 0001:000264d0       ?size@?$vector@PEA_WV?$allocator@PEA_W@std@@@std@@QEBA_KXZ 00000001400274d0 f i AdQuery.cpp.obj
 0001:000264e0       ?size@?$vector@PEB_WV?$allocator@PEB_W@std@@@std@@QEBA_KXZ 00000001400274e0 f i AdQuery.cpp.obj
 0001:000264f0       ?type@VariantPtr@ith@@QEBAGXZ 00000001400274f0 f i AdQuery.cpp.obj
 0001:00026500       ??$?0$$V@?$_Compressed_pair@U?$default_delete@UAdResult@ith@@@std@@PEAUAdResult@ith@@$00@std@@QEAA@U_Zero_then_variadic_args_t@1@@Z 0000000140027500 f i AdQueryTool.cpp.obj
 0001:00026530       ??$?0A6AXPEAUHWND__@@IUAdQueryRequest@ith@@@Z@?$_Tuple_val@P6AXPEAUHWND__@@IUAdQueryRequest@ith@@@Z@std@@QEAA@A6AXPEAUHWND__@@IUAdQueryRequest@ith@@@Z@Z 0000000140027530 f i AdQueryTool.cpp.obj
 0001:00026540       ??$?0A6AXPEAUHWND__@@IUAdQueryRequest@ith@@@ZAEAPEAU0@AEAIAEAU12@$0A@@?$tuple@P6AXPEAUHWND__@@IUAdQueryRequest@ith@@@ZPEAU1@IU23@@std@@QEAA@A6AXPEAUHWND__@@IUAdQueryRequest@ith@@@ZAEAPEAU2@AEAIAEAU34@@Z 0000000140027540 f i AdQueryTool.cpp.obj
 0001:000265e0       ??$?0A6AXPEAUHWND__@@IUAdQueryRequest@ith@@@ZAEAPEAU0@AEAIAEAU12@$0A@@thread@std@@QEAA@A6AXPEAUHWND__@@IUAdQueryRequest@ith@@@ZAEAPEAU2@AEAIAEAU34@@Z 00000001400275e0 f i AdQueryTool.cpp.obj
 0001:000266e0       ??$?0AEAI@?$_Tuple_val@I@std@@QEAA@AEAI@Z 00000001400276e0 f i AdQueryTool.cpp.obj
 0001:000266f0       ??$?0AEAPEAUHWND__@@@?$_Tuple_val@PEAUHWND__@@@std@@QEAA@AEAPEAUHWND__@@@Z 00000001400276f0 f i AdQueryTool.cpp.obj
 0001:00026700       ??$?0AEAPEAV?$tuple@P6AXPEAUHWND__@@IUAdQueryRequest@ith@@@ZPEAU1@IU23@@std@@@?$_Compressed_pair@U?$default_delete@V?$tuple@P6AXPEAUHWND__@@IUAdQueryRequest@ith@@@ZPEAU1@IU23@@std@@@std@@PEAV?$tuple@P6AXPEAUHWND__@@IUAdQueryRequest@ith@@@ZPEAU1@IU23@@2@$00@std@@QEAA@U_Zero_then_variadic_args_t@1@AEAPEAV?$tuple@P6AXPEAUHWND__@@IUAdQueryRequest@ith@@@ZPEAU1@IU23@@1@@Z 0000000140027700 f i AdQueryTool.cpp.obj
 0001:00026710       ??$?0AEAPEAVAdQueryView@ith@@@?$_Compressed_pair@U?$default_delete@VAdQueryView@ith@@@std@@PEAVAdQueryView@ith@@$00@std@@QEAA@U_Zero_then_variadic_args_t@1@AEAPEAVAdQueryView@ith@@@Z 0000000140027710 f i AdQueryTool.cpp.obj
 0001:00026720       ??$?0AEAUAdQueryRequest@ith@@@?$_Tuple_val@UAdQueryRequest@ith@@@std@@QEAA@AEAUAdQueryRequest@ith@@@Z 0000000140027720 f i AdQueryTool.cpp.obj
 0001:00026780       ??$?0AEAV?$allocator@_W@std@@$$V@?$_Compressed_pair@V?$allocator@_W@std@@V?$_String_val@U?$_Simple_types@_W@std@@@2@$00@std@@QEAA@U_One_then_variadic_args_t@1@AEAV?$allocator@_W@1@@Z 0000000140027780 f i AdQueryTool.cpp.obj
 0001:000267a0       ??$?0AEBV?$allocator@_W@std@@$$V@?$_Compressed_pair@V?$allocator@_W@std@@V?$_String_val@U?$_Simple_types@_W@std@@@2@$00@std@@QEAA@U_One_then_variadic_args_t@1@AEBV?$allocator@_W@1@@Z 00000001400277a0 f i AdQueryTool.cpp.obj
 0001:000267c0       ??$?0U?$default_delete@UAdResult@ith@@@std@@$0A@@?$unique_ptr@UAdResult@ith@@U?$default_delete@UAdResult@ith@@@std@@@std@@QEAA@XZ 00000001400277c0 f i AdQueryTool.cpp.obj
 0001:000267d0       ??$?0U?$default_delete@V?$tuple@P6AXPEAUHWND__@@IUAdQueryRequest@ith@@@ZPEAU1@IU23@@std@@@std@@$0A@@?$unique_ptr@V?$tuple@P6AXPEAUHWND__@@IUAdQueryRequest@ith@@@ZPEAU1@IU23@@std@@U?$default_delete@V?$tuple@P6AXPEAUHWND__@@IUAdQueryRequest@ith@@@ZPEAU1@IU23@@std@@@2@@std@@QEAA@PEAV?$tuple@P6AXPEAUHWND__@@IUAdQueryRequest@ith@@@ZPEAU1@IU23@@1@@Z 00000001400277d0 f i AdQueryTool.cpp.obj
 0001:000267e0       ??$?0U?$default_delete@VAdQueryView@ith@@@std@@$0A@@?$unique_ptr@VAdQueryView@ith@@U?$default_delete@VAdQueryView@ith@@@std@@@std@@QEAA@PEAVAdQueryView@ith@@@Z 00000001400277e0 f i AdQueryTool.cpp.obj
 0001:000267f0       ??$?0U?$default_delete@VAdQueryView@ith@@@std@@PEAVAdQueryView@ith@@@?$_Compressed_pair@U?$default_delete@VToolView@ith@@@std@@PEAVToolView@ith@@$00@std@@QEAA@U_One_then_variadic_args_t@1@$$QEAU?$default_delete@VAdQueryView@ith@@@1@$$QEAPEAVAdQueryView@ith@@@Z 00000001400277f0 f i AdQueryTool.cpp.obj
 0001:00026800       ??$?0U_Exact_args_t@std@@A6AXPEAUHWND__@@IUAdQueryRequest@ith@@@ZAEAPEAU2@AEAIAEAU34@$0A@@?$tuple@P6AXPEAUHWND__@@IUAdQueryRequest@ith@@@ZPEAU1@IU23@@std@@QEAA@U_Exact_args_t@1@A6AXPEAUHWND__@@IUAdQueryRequest@ith@@@ZAEAPEAU3@AEAIAEAU45@@Z 0000000140027800 f i AdQueryTool.cpp.obj
 0001:00026880       ??$?0U_Exact_args_t@std@@AEAIAEAUAdQueryRequest@ith@@$0A@@?$tuple@IUAdQueryRequest@ith@@@std@@QEAA@U_Exact_args_t@1@AEAIAEAUAdQueryRequest@ith@@@Z 0000000140027880 f i AdQueryTool.cpp.obj
 0001:00026900       ??$?0U_Exact_args_t@std@@AEAPEAUHWND__@@AEAIAEAUAdQueryRequest@ith@@$0A@@?$tuple@PEAUHWND__@@IUAdQueryRequest@ith@@@std@@QEAA@U_Exact_args_t@1@AEAPEAUHWND__@@AEAIAEAUAdQueryRequest@ith@@@Z 0000000140027900 f i AdQueryTool.cpp.obj
 0001:00026980       ??$?0U_Exact_args_t@std@@AEAUAdQueryRequest@ith@@$$V$0A@@?$tuple@UAdQueryRequest@ith@@@std@@QEAA@U_Exact_args_t@1@AEAUAdQueryRequest@ith@@@Z 0000000140027980 f i AdQueryTool.cpp.obj
 0001:000269e0       ??$?0VAdQueryView@ith@@$0A@@?$default_delete@VToolView@ith@@@std@@QEAA@AEBU?$default_delete@VAdQueryView@ith@@@1@@Z 00000001400279e0 f i AdQueryTool.cpp.obj
 0001:000269f0       ??$?0VAdQueryView@ith@@U?$default_delete@VAdQueryView@ith@@@std@@$0A@@?$unique_ptr@VToolView@ith@@U?$default_delete@VToolView@ith@@@std@@@std@@QEAA@$$QEAV?$unique_ptr@VAdQueryView@ith@@U?$default_delete@VAdQueryView@ith@@@std@@@1@@Z 00000001400279f0 f i AdQueryTool.cpp.obj
 0001:00026a10       ??$?4U?$default_delete@UAdResult@ith@@@std@@$0A@@?$unique_ptr@UAdResult@ith@@U?$default_delete@UAdResult@ith@@@std@@@std@@QEAAAEAV01@$$QEAV01@@Z 0000000140027a10 f i AdQueryTool.cpp.obj
 0001:00026aa0       ??$?H_WU?$char_traits@_W@std@@V?$allocator@_W@1@@std@@YA?AV?$basic_string@_WU?$char_traits@_W@std@@V?$allocator@_W@2@@0@$$QEAV10@0@Z 0000000140027aa0 f i AdQueryTool.cpp.obj
 0001:00026b30       ??$_Allocators_equal@V?$allocator@_W@std@@@std@@YA_NAEBV?$allocator@_W@0@0@Z 0000000140027b30 f i AdQueryTool.cpp.obj
 0001:00026b40       ??$_Assign_counted_range@PEAUInfoPair@ith@@@?$vector@UInfoPair@ith@@V?$allocator@UInfoPair@ith@@@std@@@std@@AEAAXPEAUInfoPair@ith@@_K@Z 0000000140027b40 f i AdQueryTool.cpp.obj
 0001:00026e60       ??$_Assign_counted_range@PEAUNamedEntry@ith@@@?$vector@UNamedEntry@ith@@V?$allocator@UNamedEntry@ith@@@std@@@std@@AEAAXPEAUNamedEntry@ith@@_K@Z 0000000140027e60 f i AdQueryTool.cpp.obj
 0001:00027220       ??$_Copy_n_unchecked4@PEAUInfoPair@ith@@_KPEAU12@@std@@YAPEAUInfoPair@ith@@PEAU12@_K0@Z 0000000140028220 f i AdQueryTool.cpp.obj
 0001:000272c0       ??$_Copy_n_unchecked4@PEAUNamedEntry@ith@@_KPEAU12@@std@@YAPEAUNamedEntry@ith@@PEAU12@_K0@Z 00000001400282c0 f i AdQueryTool.cpp.obj
 0001:00027350       ??$_Emplace_back@AEAUInfoPair@ith@@@?$_Uninitialized_backout_al@V?$allocator@UInfoPair@ith@@@std@@@std@@QEAAXAEAUInfoPair@ith@@@Z 0000000140028350 f i AdQueryTool.cpp.obj
 0001:000273b0       ??$_Emplace_back@AEAUNamedEntry@ith@@@?$_Uninitialized_backout_al@V?$allocator@UNamedEntry@ith@@@std@@@std@@QEAAXAEAUNamedEntry@ith@@@Z 00000001400283b0 f i AdQueryTool.cpp.obj
 0001:00027700       ??$_Find_first_not_of_pos_vectorized@_W_W@std@@YA_KQEB_W_K01@Z 0000000140028700 f i AdQueryTool.cpp.obj
 0001:00027710       ??$_Find_last_not_of_pos_vectorized@_W_W@std@@YA_KQEB_W_K01@Z 0000000140028710 f i AdQueryTool.cpp.obj
 0001:00027730       ??$_Get_size_of_n@$0BI@@std@@YA_K_K@Z 0000000140028730 f i AdQueryTool.cpp.obj
 0001:00027770       ??$_Get_unwrapped@PEAUInfoPair@ith@@@std@@YA?A_T$$QEAPEAUInfoPair@ith@@@Z 0000000140028770 f i AdQueryTool.cpp.obj
 0001:00027780       ??$_Get_unwrapped@PEAUNamedEntry@ith@@@std@@YA?A_T$$QEAPEAUNamedEntry@ith@@@Z 0000000140028780 f i AdQueryTool.cpp.obj
 0001:00027810       ??$_Invoke@V?$tuple@P6AXPEAUHWND__@@IUAdQueryRequest@ith@@@ZPEAU1@IU23@@std@@$0A@$00$01$02@thread@std@@CAIPEAX@Z 0000000140028810 f i AdQueryTool.cpp.obj
 0001:000279d0       ??$_Pocca@V?$allocator@UInfoPair@ith@@@std@@@std@@YAXAEAV?$allocator@UInfoPair@ith@@@0@AEBV10@@Z 00000001400289d0 f i AdQueryTool.cpp.obj
 0001:000279e0       ??$_Pocca@V?$allocator@UNamedEntry@ith@@@std@@@std@@YAXAEAV?$allocator@UNamedEntry@ith@@@0@AEBV10@@Z 00000001400289e0 f i AdQueryTool.cpp.obj
 0001:000279f0       ??$_Start@A6AXPEAUHWND__@@IUAdQueryRequest@ith@@@ZAEAPEAU1@AEAIAEAU23@@thread@std@@AEAAXA6AXPEAUHWND__@@IUAdQueryRequest@ith@@@ZAEAPEAU2@AEAIAEAU34@@Z 00000001400289f0 f i AdQueryTool.cpp.obj
 0001:00027b00       ??$_Traits_find_first_not_of@U?$char_traits@_W@std@@@std@@YA_KQEB_W_K101@Z 0000000140028b00 f i AdQueryTool.cpp.obj
 0001:00027c70       ??$_Traits_find_last_not_of@U?$char_traits@_W@std@@@std@@YA_KQEB_W_K101@Z 0000000140028c70 f i AdQueryTool.cpp.obj
 0001:00027e00       ??$_Unfancy_maybe_null@UInfoPair@ith@@@std@@YAPEAUInfoPair@ith@@PEAU12@@Z 0000000140028e00 f i AdQueryTool.cpp.obj
 0001:00027e20       ??$_Uninitialized_copy_n@PEAUInfoPair@ith@@V?$allocator@UInfoPair@ith@@@std@@@std@@YAPEAUInfoPair@ith@@PEAU12@_K0AEAV?$allocator@UInfoPair@ith@@@0@@Z 0000000140028e20 f i AdQueryTool.cpp.obj
 0001:00027ec0       ??$_Uninitialized_copy_n@PEAUNamedEntry@ith@@V?$allocator@UNamedEntry@ith@@@std@@@std@@YAPEAUNamedEntry@ith@@PEAU12@_K0AEAV?$allocator@UNamedEntry@ith@@@0@@Z 0000000140028ec0 f i AdQueryTool.cpp.obj
 0001:00027fb0       ??$addressof@$$CBV?$vector@UInfoPair@ith@@V?$allocator@UInfoPair@ith@@@std@@@std@@@std@@YAPEBV?$vector@UInfoPair@ith@@V?$allocator@UInfoPair@ith@@@std@@@0@AEBV10@@Z 0000000140028fb0 f i AdQueryTool.cpp.obj
 0001:00027fc0       ??$addressof@$$CBV?$vector@UNamedEntry@ith@@V?$allocator@UNamedEntry@ith@@@std@@@std@@@std@@YAPEBV?$vector@UNamedEntry@ith@@V?$allocator@UNamedEntry@ith@@@std@@@0@AEBV10@@Z 0000000140028fc0 f i AdQueryTool.cpp.obj
 0001:00027fe0       ??$construct@UInfoPair@ith@@AEAU12@@?$_Default_allocator_traits@V?$allocator@UInfoPair@ith@@@std@@@std@@SAXAEAV?$allocator@UInfoPair@ith@@@1@QEAUInfoPair@ith@@AEAU34@@Z 0000000140028fe0 f i AdQueryTool.cpp.obj
 0001:00028030       ??$construct@UNamedEntry@ith@@AEAU12@@?$_Default_allocator_traits@V?$allocator@UNamedEntry@ith@@@std@@@std@@SAXAEAV?$allocator@UNamedEntry@ith@@@1@QEAUNamedEntry@ith@@AEAU34@@Z 0000000140029030 f i AdQueryTool.cpp.obj
 0001:00028090       ??$construct_at@UInfoPair@ith@@AEAU12@@std@@YAPEAUInfoPair@ith@@QEAU12@AEAU12@@Z 0000000140029090 f i AdQueryTool.cpp.obj
 0001:000280e0       ??$construct_at@UNamedEntry@ith@@AEAU12@@std@@YAPEAUNamedEntry@ith@@QEAU12@AEAU12@@Z 00000001400290e0 f i AdQueryTool.cpp.obj
 0001:00028140       ??$exchange@PEAUAdResult@ith@@AEAPEAU12@@std@@YAPEAUAdResult@ith@@AEAPEAU12@0@Z 0000000140029140 f i AdQueryTool.cpp.obj
 0001:00028150       ??$exchange@PEAV?$tuple@P6AXPEAUHWND__@@IUAdQueryRequest@ith@@@ZPEAU1@IU23@@std@@$$T@std@@YAPEAV?$tuple@P6AXPEAUHWND__@@IUAdQueryRequest@ith@@@ZPEAU1@IU23@@0@AEAPEAV10@$$QEA$$T@Z 0000000140029150 f i AdQueryTool.cpp.obj
 0001:00028160       ??$exchange@PEAVAdQueryView@ith@@$$T@std@@YAPEAVAdQueryView@ith@@AEAPEAV12@$$QEA$$T@Z 0000000140029160 f i AdQueryTool.cpp.obj
 0001:00028170       ??$forward@A6AXPEAUHWND__@@IUAdQueryRequest@ith@@@Z@std@@YAA6AXPEAUHWND__@@IUAdQueryRequest@ith@@@ZA6AX0I1@Z@Z 0000000140029170 f i AdQueryTool.cpp.obj
 0001:00028180       ??$forward@AEAI@std@@YAAEAIAEAI@Z 0000000140029180 f i AdQueryTool.cpp.obj
 0001:00028190       ??$forward@AEAPEAUHFONT__@@@std@@YAAEAPEAUHFONT__@@AEAPEAU1@@Z 0000000140029190 f i AdQueryTool.cpp.obj
 0001:000281a0       ??$forward@AEAPEAUHWND__@@@std@@YAAEAPEAUHWND__@@AEAPEAU1@@Z 00000001400291a0 f i AdQueryTool.cpp.obj
 0001:000281b0       ??$forward@AEAPEAV?$tuple@P6AXPEAUHWND__@@IUAdQueryRequest@ith@@@ZPEAU1@IU23@@std@@@std@@YAAEAPEAV?$tuple@P6AXPEAUHWND__@@IUAdQueryRequest@ith@@@ZPEAU1@IU23@@0@AEAPEAV10@@Z 00000001400291b0 f i AdQueryTool.cpp.obj
 0001:000281c0       ??$forward@AEAPEAVAdQueryView@ith@@@std@@YAAEAPEAVAdQueryView@ith@@AEAPEAV12@@Z 00000001400291c0 f i AdQueryTool.cpp.obj
 0001:000281d0       ??$forward@AEAUAdQueryRequest@ith@@@std@@YAAEAUAdQueryRequest@ith@@AEAU12@@Z 00000001400291d0 f i AdQueryTool.cpp.obj
 0001:000281e0       ??$forward@AEAUInfoPair@ith@@@std@@YAAEAUInfoPair@ith@@AEAU12@@Z 00000001400291e0 f i AdQueryTool.cpp.obj
 0001:000281f0       ??$forward@AEAUNamedEntry@ith@@@std@@YAAEAUNamedEntry@ith@@AEAU12@@Z 00000001400291f0 f i AdQueryTool.cpp.obj
 0001:00028200       ??$forward@AEAV?$allocator@_W@std@@@std@@YAAEAV?$allocator@_W@0@AEAV10@@Z 0000000140029200 f i AdQueryTool.cpp.obj
 0001:00028210       ??$forward@AEBV?$allocator@_W@std@@@std@@YAAEBV?$allocator@_W@0@AEBV10@@Z 0000000140029210 f i AdQueryTool.cpp.obj
 0001:00028220       ??$forward@PEAVAdQueryView@ith@@@std@@YA$$QEAPEAVAdQueryView@ith@@AEAPEAV12@@Z 0000000140029220 f i AdQueryTool.cpp.obj
 0001:00028230       ??$forward@U?$default_delete@VAdQueryView@ith@@@std@@@std@@YA$$QEAU?$default_delete@VAdQueryView@ith@@@0@AEAU10@@Z 0000000140029230 f i AdQueryTool.cpp.obj
 0001:00028250       ??$get@$00P6AXPEAUHWND__@@IUAdQueryRequest@ith@@@ZPEAU1@IU23@@std@@YAAEAPEAUHWND__@@AEAV?$tuple@P6AXPEAUHWND__@@IUAdQueryRequest@ith@@@ZPEAU1@IU23@@0@@Z 0000000140029250 f i AdQueryTool.cpp.obj
 0001:00028260       ??$get@$01P6AXPEAUHWND__@@IUAdQueryRequest@ith@@@ZPEAU1@IU23@@std@@YAAEAIAEAV?$tuple@P6AXPEAUHWND__@@IUAdQueryRequest@ith@@@ZPEAU1@IU23@@0@@Z 0000000140029260 f i AdQueryTool.cpp.obj
 0001:00028270       ??$get@$02P6AXPEAUHWND__@@IUAdQueryRequest@ith@@@ZPEAU1@IU23@@std@@YAAEAUAdQueryRequest@ith@@AEAV?$tuple@P6AXPEAUHWND__@@IUAdQueryRequest@ith@@@ZPEAU1@IU23@@0@@Z 0000000140029270 f i AdQueryTool.cpp.obj
 0001:00028280       ??$get@$0A@P6AXPEAUHWND__@@IUAdQueryRequest@ith@@@ZPEAU1@IU23@@std@@YAAEAP6AXPEAUHWND__@@IUAdQueryRequest@ith@@@ZAEAV?$tuple@P6AXPEAUHWND__@@IUAdQueryRequest@ith@@@ZPEAU1@IU23@@0@@Z 0000000140029280 f i AdQueryTool.cpp.obj
 0001:00028290       ??$invoke@P6AXPEAUHWND__@@IUAdQueryRequest@ith@@@ZPEAU1@IU23@@std@@YAX$$QEAP6AXPEAUHWND__@@IUAdQueryRequest@ith@@@Z$$QEAPEAU1@$$QEAI$$QEAU23@@Z 0000000140029290 f i AdQueryTool.cpp.obj
 0001:00028330       ??$make_unique@V?$tuple@P6AXPEAUHWND__@@IUAdQueryRequest@ith@@@ZPEAU1@IU23@@std@@A6AXPEAUHWND__@@IUAdQueryRequest@ith@@@ZAEAPEAU3@AEAIAEAU45@$0A@@std@@YA?AV?$unique_ptr@V?$tuple@P6AXPEAUHWND__@@IUAdQueryRequest@ith@@@ZPEAU1@IU23@@std@@U?$default_delete@V?$tuple@P6AXPEAUHWND__@@IUAdQueryRequest@ith@@@ZPEAU1@IU23@@std@@@2@@0@A6AXPEAUHWND__@@IUAdQueryRequest@ith@@@ZAEAPEAU2@AEAIAEAU34@@Z 0000000140029330 f i AdQueryTool.cpp.obj
 0001:000283e0       ??$make_unique@VAdQueryView@ith@@AEAPEAUHWND__@@AEAPEAUHFONT__@@$0A@@std@@YA?AV?$unique_ptr@VAdQueryView@ith@@U?$default_delete@VAdQueryView@ith@@@std@@@0@AEAPEAUHWND__@@AEAPEAUHFONT__@@@Z 00000001400293e0 f i AdQueryTool.cpp.obj
 0001:00028450       ??$move@AEAI@std@@YA$$QEAIAEAI@Z 0000000140029450 f i AdQueryTool.cpp.obj
 0001:00028460       ??$move@AEAP6AXPEAUHWND__@@IUAdQueryRequest@ith@@@Z@std@@YA$$QEAP6AXPEAUHWND__@@IUAdQueryRequest@ith@@@ZAEAP6AX0I1@Z@Z 0000000140029460 f i AdQueryTool.cpp.obj
 0001:00028470       ??$move@AEAPEAUHWND__@@@std@@YA$$QEAPEAUHWND__@@AEAPEAU1@@Z 0000000140029470 f i AdQueryTool.cpp.obj
 0001:00028480       ??$move@AEAPEAUInfoPair@ith@@@std@@YA$$QEAPEAUInfoPair@ith@@AEAPEAU12@@Z 0000000140029480 f i AdQueryTool.cpp.obj
 0001:00028490       ??$move@AEAPEAUNamedEntry@ith@@@std@@YA$$QEAPEAUNamedEntry@ith@@AEAPEAU12@@Z 0000000140029490 f i AdQueryTool.cpp.obj
 0001:000284b0       ??$move@AEAUAdQueryRequest@ith@@@std@@YA$$QEAUAdQueryRequest@ith@@AEAU12@@Z 00000001400294b0 f i AdQueryTool.cpp.obj
 0001:000284d0       ??$move@AEAV?$unique_ptr@UAdResult@ith@@U?$default_delete@UAdResult@ith@@@std@@@std@@@std@@YA$$QEAV?$unique_ptr@UAdResult@ith@@U?$default_delete@UAdResult@ith@@@std@@@0@AEAV10@@Z 00000001400294d0 f i AdQueryTool.cpp.obj
 0001:00028500       ??0?$_String_bitmap@_W$0A@@std@@QEAA@XZ 0000000140029500 f i AdQueryTool.cpp.obj
 0001:00028580       ??0?$basic_string@_WU?$char_traits@_W@std@@V?$allocator@_W@2@@std@@QEAA@AEBV01@_K1AEBV?$allocator@_W@1@@Z 0000000140029580 f i AdQueryTool.cpp.obj
 0001:000285f0       ??0?$basic_string@_WU?$char_traits@_W@std@@V?$allocator@_W@2@@std@@QEAA@U_String_constructor_concat_tag@1@AEAV01@1@Z 00000001400295f0 f i AdQueryTool.cpp.obj
 0001:00028850       ??0?$initializer_list@PEAUHWND__@@@std@@QEAA@PEBQEAUHWND__@@0@Z 0000000140029850 f i AdQueryTool.cpp.obj
 0001:00028880       ??0AdQueryRequest@ith@@QEAA@$$QEAU01@@Z 0000000140029880 f i AdQueryTool.cpp.obj
 0001:00028910       ??0AdQueryRequest@ith@@QEAA@AEBU01@@Z 0000000140029910 f i AdQueryTool.cpp.obj
 0001:00028970       ??0AdQueryRequest@ith@@QEAA@XZ 0000000140029970 f i AdQueryTool.cpp.obj
 0001:000289b0       ??0AdQueryView@ith@@QEAA@PEAUHWND__@@PEAUHFONT__@@@Z 00000001400299b0 f   AdQueryTool.cpp.obj
 0001:00028b70       ??0ComApartment@ith@@QEAA@K@Z 0000000140029b70 f i AdQueryTool.cpp.obj
 0001:00028bb0       ??0InfoPair@ith@@QEAA@AEBU01@@Z 0000000140029bb0 f i AdQueryTool.cpp.obj
 0001:00028c00       ??0NamedEntry@ith@@QEAA@AEBU01@@Z 0000000140029c00 f i AdQueryTool.cpp.obj
 0001:00028c40       ??0ToolView@ith@@QEAA@XZ   0000000140029c40 f i AdQueryTool.cpp.obj
 0001:00028c60       ??1?$_Tuple_val@UAdQueryRequest@ith@@@std@@QEAA@XZ 0000000140029c60 f i AdQueryTool.cpp.obj
 0001:00028ca0       ??1?$tuple@IUAdQueryRequest@ith@@@std@@QEAA@XZ 0000000140029ca0 f i AdQueryTool.cpp.obj
 0001:00028cd0       ??1?$tuple@P6AXPEAUHWND__@@IUAdQueryRequest@ith@@@ZPEAU1@IU23@@std@@QEAA@XZ 0000000140029cd0 f i AdQueryTool.cpp.obj
 0001:00028d00       ??1?$tuple@PEAUHWND__@@IUAdQueryRequest@ith@@@std@@QEAA@XZ 0000000140029d00 f i AdQueryTool.cpp.obj
 0001:00028d30       ??1?$tuple@UAdQueryRequest@ith@@@std@@QEAA@XZ 0000000140029d30 f i AdQueryTool.cpp.obj
 0001:00028d60       ??1?$unique_ptr@V?$tuple@P6AXPEAUHWND__@@IUAdQueryRequest@ith@@@ZPEAU1@IU23@@std@@U?$default_delete@V?$tuple@P6AXPEAUHWND__@@IUAdQueryRequest@ith@@@ZPEAU1@IU23@@std@@@2@@std@@QEAA@XZ 0000000140029d60 f i AdQueryTool.cpp.obj
 0001:00028db0       ??1?$unique_ptr@VAdQueryView@ith@@U?$default_delete@VAdQueryView@ith@@@std@@@std@@QEAA@XZ 0000000140029db0 f i AdQueryTool.cpp.obj
 0001:00028e80       ??1AdQueryRequest@ith@@QEAA@XZ 0000000140029e80 f i AdQueryTool.cpp.obj
 0001:00028eb0       ??1AdQueryView@ith@@UEAA@XZ 0000000140029eb0 f   AdQueryTool.cpp.obj
 0001:00028f10       ??1ComApartment@ith@@QEAA@XZ 0000000140029f10 f i AdQueryTool.cpp.obj
 0001:00028f30       ??1ToolView@ith@@UEAA@XZ   0000000140029f30 f i AdQueryTool.cpp.obj
 0001:00028fb0       ??1thread@std@@QEAA@XZ     0000000140029fb0 f i AdQueryTool.cpp.obj
 0001:00028fd0       ??4?$vector@UInfoPair@ith@@V?$allocator@UInfoPair@ith@@@std@@@std@@QEAAAEAV01@AEBV01@@Z 0000000140029fd0 f i AdQueryTool.cpp.obj
 0001:00029010       ??4?$vector@UNamedEntry@ith@@V?$allocator@UNamedEntry@ith@@@std@@@std@@QEAAAEAV01@AEBV01@@Z 000000014002a010 f i AdQueryTool.cpp.obj
 0001:00029070       ??4InfoPair@ith@@QEAAAEAU01@AEBU01@@Z 000000014002a070 f i AdQueryTool.cpp.obj
 0001:000290e0       ??4NamedEntry@ith@@QEAAAEAU01@AEBU01@@Z 000000014002a0e0 f i AdQueryTool.cpp.obj
 0001:00029130       ??A?$vector@UNamedEntry@ith@@V?$allocator@UNamedEntry@ith@@@std@@@std@@QEBAAEBUNamedEntry@ith@@_K@Z 000000014002a130 f i AdQueryTool.cpp.obj
 0001:00029140       ??B?$unique_ptr@UAdResult@ith@@U?$default_delete@UAdResult@ith@@@std@@@std@@QEBA_NXZ 000000014002a140 f i AdQueryTool.cpp.obj
 0001:00029560       ??R?$default_delete@V?$tuple@P6AXPEAUHWND__@@IUAdQueryRequest@ith@@@ZPEAU1@IU23@@std@@@std@@QEBAXPEAV?$tuple@P6AXPEAUHWND__@@IUAdQueryRequest@ith@@@ZPEAU1@IU23@@1@@Z 000000014002a560 f i AdQueryTool.cpp.obj
 0001:000295a0       ??R?$default_delete@VAdQueryView@ith@@@std@@QEBAXPEAVAdQueryView@ith@@@Z 000000014002a5a0 f i AdQueryTool.cpp.obj
 0001:000295c0       ??Y?$basic_string@_WU?$char_traits@_W@std@@V?$allocator@_W@2@@std@@QEAAAEAV01@AEBV01@@Z 000000014002a5c0 f i AdQueryTool.cpp.obj
 0001:000295f0       ??_G?$tuple@P6AXPEAUHWND__@@IUAdQueryRequest@ith@@@ZPEAU1@IU23@@std@@QEAAPEAXI@Z 000000014002a5f0 f i AdQueryTool.cpp.obj
 0001:00029650       ??_EAdQueryView@ith@@UEAAPEAXI@Z 000000014002a650 f i AdQueryTool.cpp.obj
 0001:00029650       ??_GAdQueryView@ith@@UEAAPEAXI@Z 000000014002a650 f i AdQueryTool.cpp.obj
 0001:000296a0       ??_EToolView@ith@@UEAAPEAXI@Z 000000014002a6a0 f i AdQueryTool.cpp.obj
 0001:000296a0       ??_GToolView@ith@@UEAAPEAXI@Z 000000014002a6a0 f i AdQueryTool.cpp.obj
 0001:000296d0       ?BeginSearch@AdQueryView@ith@@AEAAXXZ 000000014002a6d0 f   AdQueryTool.cpp.obj
 0001:00029ca0       ?ComboType@AdQueryView@ith@@AEBA?AW4ObjectType@2@XZ 000000014002aca0 f   AdQueryTool.cpp.obj
 0001:00029cf0       ?CopySelected@AdQueryView@ith@@AEAAXPEAUHWND__@@H@Z 000000014002acf0 f   AdQueryTool.cpp.obj
 0001:0002a370       ?CopyTextToClipboard@AdQueryView@ith@@AEAAXAEBV?$basic_string@_WU?$char_traits@_W@std@@V?$allocator@_W@2@@std@@@Z 000000014002b370 f   AdQueryTool.cpp.obj
 0001:0002a450       ?CreateControls@AdQueryView@ith@@AEAAXXZ 000000014002b450 f   AdQueryTool.cpp.obj
 0001:0002aaf0       ?CreateView@AdQueryTool@ith@@UEAA?AV?$unique_ptr@VToolView@ith@@U?$default_delete@VToolView@ith@@@std@@@std@@PEAUHWND__@@PEAUHFONT__@@@Z 000000014002baf0 f   AdQueryTool.cpp.obj
 0001:0002ac20       ?EnsureClasses@AdQueryView@ith@@CAXPEAUHINSTANCE__@@@Z 000000014002bc20 f   AdQueryTool.cpp.obj
 0001:0002ad10       ?FillInfo@AdQueryView@ith@@AEAAXAEBV?$vector@UInfoPair@ith@@V?$allocator@UInfoPair@ith@@@std@@@std@@@Z 000000014002bd10 f   AdQueryTool.cpp.obj
 0001:0002ae50       ?FillNamedList@AdQueryView@ith@@AEAAXPEAUHWND__@@AEBV?$vector@UNamedEntry@ith@@V?$allocator@UNamedEntry@ith@@@std@@@std@@@Z 000000014002be50 f   AdQueryTool.cpp.obj
 0001:0002b020       ?Handle@AdQueryView@ith@@UEBAPEAUHWND__@@XZ 000000014002c020 f i AdQueryTool.cpp.obj
 0001:0002b030       ?LayoutResults@AdQueryView@ith@@AEAAXXZ 000000014002c030 f   AdQueryTool.cpp.obj
 0001:0002b6a0       ?LayoutTop@AdQueryView@ith@@AEAAXH@Z 000000014002c6a0 f   AdQueryTool.cpp.obj
 0001:0002bae0       ?ListPreferredHeight@AdQueryView@ith@@AEBAHPEAUHWND__@@_K_N@Z 000000014002cae0 f   AdQueryTool.cpp.obj
 0001:0002be50       ?OnListContextMenu@AdQueryView@ith@@AEAAXPEAUHWND__@@HUtagPOINT@@@Z 000000014002ce50 f   AdQueryTool.cpp.obj
 0001:0002c3d0       ?OnResult@AdQueryView@ith@@AEAAXV?$unique_ptr@UAdResult@ith@@U?$default_delete@UAdResult@ith@@@std@@@std@@@Z 000000014002d3d0 f   AdQueryTool.cpp.obj
 0001:0002c760       ?ResultsProc@AdQueryView@ith@@QEAA_JPEAUHWND__@@I_K_J@Z 000000014002d760 f   AdQueryTool.cpp.obj
 0001:0002ce00       ?RootProc@AdQueryView@ith@@QEAA_JPEAUHWND__@@I_K_J@Z 000000014002de00 f   AdQueryTool.cpp.obj
 0001:0002d040       ?SetBounds@AdQueryView@ith@@UEAAXAEBUtagRECT@@@Z 000000014002e040 f   AdQueryTool.cpp.obj
 0001:0002d090       ?SetBusy@AdQueryView@ith@@AEAAX_N@Z 000000014002e090 f   AdQueryTool.cpp.obj
 0001:0002d110       ?SetComboType@AdQueryView@ith@@AEAAXW4ObjectType@2@@Z 000000014002e110 f   AdQueryTool.cpp.obj
 0001:0002d130       ?Show@AdQueryView@ith@@UEAAX_N@Z 000000014002e130 f   AdQueryTool.cpp.obj
 0001:0002d150       ?StartCrossSearch@AdQueryView@ith@@QEAAXAEBV?$basic_string@_WU?$char_traits@_W@std@@V?$allocator@_W@2@@std@@W4ObjectType@2@@Z 000000014002e150 f   AdQueryTool.cpp.obj
 0001:0002d3c0       ?_Buy_raw@?$vector@UInfoPair@ith@@V?$allocator@UInfoPair@ith@@@std@@@std@@AEAAX_K@Z 000000014002e3c0 f i AdQueryTool.cpp.obj
 0001:0002d440       ?_Buy_raw@?$vector@UNamedEntry@ith@@V?$allocator@UNamedEntry@ith@@@std@@@std@@AEAAX_K@Z 000000014002e440 f i AdQueryTool.cpp.obj
 0001:0002d600       ?_Clamp_suffix_size@?$_String_val@U?$_Simple_types@_W@std@@@std@@QEBA_K_K0@Z 000000014002e600 f i AdQueryTool.cpp.obj
 0001:0002d620       ?_Clear_and_reserve_geometric@?$vector@UInfoPair@ith@@V?$allocator@UInfoPair@ith@@@std@@@std@@AEAAX_K@Z 000000014002e620 f i AdQueryTool.cpp.obj
 0001:0002d7b0       ?_Clear_and_reserve_geometric@?$vector@UNamedEntry@ith@@V?$allocator@UNamedEntry@ith@@@std@@@std@@AEAAX_K@Z 000000014002e7b0 f i AdQueryTool.cpp.obj
 0001:0002d990       ?_Get_first@?$_Compressed_pair@U?$default_delete@V?$tuple@P6AXPEAUHWND__@@IUAdQueryRequest@ith@@@ZPEAU1@IU23@@std@@@std@@PEAV?$tuple@P6AXPEAUHWND__@@IUAdQueryRequest@ith@@@ZPEAU1@IU23@@2@$00@std@@QEAAAEAU?$default_delete@V?$tuple@P6AXPEAUHWND__@@IUAdQueryRequest@ith@@@ZPEAU1@IU23@@std@@@2@XZ 000000014002e990 f i AdQueryTool.cpp.obj
 0001:0002d9a0       ?_Get_first@?$_Compressed_pair@U?$default_delete@VAdQueryView@ith@@@std@@PEAVAdQueryView@ith@@$00@std@@QEAAAEAU?$default_delete@VAdQueryView@ith@@@2@XZ 000000014002e9a0 f i AdQueryTool.cpp.obj
 0001:0002d9f0       ?_Mark@?$_String_bitmap@_W$0A@@std@@QEAA_NPEB_WQEB_W@Z 000000014002e9f0 f i AdQueryTool.cpp.obj
 0001:0002da30       ?_Match@?$_String_bitmap@_W$0A@@std@@QEBA_N_W@Z 000000014002ea30 f i AdQueryTool.cpp.obj
 0001:0002db20       ?_Unchecked_begin@?$vector@UInfoPair@ith@@V?$allocator@UInfoPair@ith@@@std@@@std@@QEBAPEBUInfoPair@ith@@XZ 000000014002eb20 f i AdQueryTool.cpp.obj
 0001:0002db30       ?_Unchecked_begin@?$vector@UNamedEntry@ith@@V?$allocator@UNamedEntry@ith@@@std@@@std@@QEBAPEBUNamedEntry@ith@@XZ 000000014002eb30 f i AdQueryTool.cpp.obj
 0001:0002db50       ?_Unchecked_end@?$vector@UInfoPair@ith@@V?$allocator@UInfoPair@ith@@@std@@@std@@QEBAPEBUInfoPair@ith@@XZ 000000014002eb50 f i AdQueryTool.cpp.obj
 0001:0002db60       ?_Unchecked_end@?$vector@UNamedEntry@ith@@V?$allocator@UNamedEntry@ith@@@std@@@std@@QEBAPEBUNamedEntry@ith@@XZ 000000014002eb60 f i AdQueryTool.cpp.obj
 0001:0002dc00       ?begin@?$initializer_list@PEAUHWND__@@@std@@QEBAPEBQEAUHWND__@@XZ 000000014002ec00 f i AdQueryTool.cpp.obj
 0001:0002dc40       ?clear@?$basic_string@_WU?$char_traits@_W@std@@V?$allocator@_W@2@@std@@QEAAXXZ 000000014002ec40 f i AdQueryTool.cpp.obj
 0001:0002dc70       ?clear@?$vector@UInfoPair@ith@@V?$allocator@UInfoPair@ith@@@std@@@std@@QEAAXXZ 000000014002ec70 f i AdQueryTool.cpp.obj
 0001:0002dce0       ?clear@?$vector@UNamedEntry@ith@@V?$allocator@UNamedEntry@ith@@@std@@@std@@QEAAXXZ 000000014002ece0 f i AdQueryTool.cpp.obj
 0001:0002dda0       ?detach@thread@std@@QEAAXXZ 000000014002eda0 f i AdQueryTool.cpp.obj
 0001:0002ddf0       ?empty@?$vector@UInfoPair@ith@@V?$allocator@UInfoPair@ith@@@std@@@std@@QEBA_NXZ 000000014002edf0 f i AdQueryTool.cpp.obj
 0001:0002de00       ?end@?$initializer_list@PEAUHWND__@@@std@@QEBAPEBQEAUHWND__@@XZ 000000014002ee00 f i AdQueryTool.cpp.obj
 0001:0002de10       ?find@?$_WChar_traits@_W@std@@SAPEB_WPEB_W_KAEB_W@Z 000000014002ee10 f i AdQueryTool.cpp.obj
 0001:0002de30       ?find_first_not_of@?$basic_string@_WU?$char_traits@_W@std@@V?$allocator@_W@2@@std@@QEBA_KQEB_W_K@Z 000000014002ee30 f i AdQueryTool.cpp.obj
 0001:0002dfd0       ?find_last_not_of@?$basic_string@_WU?$char_traits@_W@std@@V?$allocator@_W@2@@std@@QEBA_KQEB_W_K@Z 000000014002efd0 f i AdQueryTool.cpp.obj
 0001:0002e180       ?get@?$unique_ptr@V?$tuple@P6AXPEAUHWND__@@IUAdQueryRequest@ith@@@ZPEAU1@IU23@@std@@U?$default_delete@V?$tuple@P6AXPEAUHWND__@@IUAdQueryRequest@ith@@@ZPEAU1@IU23@@std@@@2@@std@@QEBAPEAV?$tuple@P6AXPEAUHWND__@@IUAdQueryRequest@ith@@@ZPEAU1@IU23@@2@XZ 000000014002f180 f i AdQueryTool.cpp.obj
 0001:0002e190       ?get_deleter@?$unique_ptr@VAdQueryView@ith@@U?$default_delete@VAdQueryView@ith@@@std@@@std@@QEAAAEAU?$default_delete@VAdQueryView@ith@@@2@XZ 000000014002f190 f i AdQueryTool.cpp.obj
 0001:0002e1a0       ?joinable@thread@std@@QEBA_NXZ 000000014002f1a0 f i AdQueryTool.cpp.obj
 0001:0002e1d0       ?ok@ComApartment@ith@@QEBA_NXZ 000000014002f1d0 f i AdQueryTool.cpp.obj
 0001:0002e220       ?release@?$unique_ptr@V?$tuple@P6AXPEAUHWND__@@IUAdQueryRequest@ith@@@ZPEAU1@IU23@@std@@U?$default_delete@V?$tuple@P6AXPEAUHWND__@@IUAdQueryRequest@ith@@@ZPEAU1@IU23@@std@@@2@@std@@QEAAPEAV?$tuple@P6AXPEAUHWND__@@IUAdQueryRequest@ith@@@ZPEAU1@IU23@@2@XZ 000000014002f220 f i AdQueryTool.cpp.obj
 0001:0002e230       ?release@?$unique_ptr@VAdQueryView@ith@@U?$default_delete@VAdQueryView@ith@@@std@@@std@@QEAAPEAVAdQueryView@ith@@XZ 000000014002f230 f i AdQueryTool.cpp.obj
 0001:0002e240       ?reset@?$unique_ptr@UAdResult@ith@@U?$default_delete@UAdResult@ith@@@std@@@std@@QEAAXPEAUAdResult@ith@@@Z 000000014002f240 f i AdQueryTool.cpp.obj
 0001:0002e2b0       ?size@?$vector@UInfoPair@ith@@V?$allocator@UInfoPair@ith@@@std@@@std@@QEBA_KXZ 000000014002f2b0 f i AdQueryTool.cpp.obj
 0001:0002e2c0       ?size@?$vector@UNamedEntry@ith@@V?$allocator@UNamedEntry@ith@@@std@@@std@@QEBA_KXZ 000000014002f2c0 f i AdQueryTool.cpp.obj
 0001:0002e2f0       ?substr@?$basic_string@_WU?$char_traits@_W@std@@V?$allocator@_W@2@@std@@QEBA?AV12@_K0@Z 000000014002f2f0 f i AdQueryTool.cpp.obj
 0001:0002e360       wmemchr                    000000014002f360 f i AdQueryTool.cpp.obj
 0001:0002e509       ADsOpenObject              000000014002f509 f   activeds:ACTIVEDS.dll
 0001:0002e50f       InitCommonControlsEx       000000014002f50f f   comctl32:COMCTL32.dll
 0001:0002e515       SetWindowSubclass          000000014002f515 f   comctl32:COMCTL32.dll
 0001:0002e51b       RemoveWindowSubclass       000000014002f51b f   comctl32:COMCTL32.dll
 0001:0002e521       DefSubclassProc            000000014002f521 f   comctl32:COMCTL32.dll
 0001:0002e527       CoUninitialize             000000014002f527 f   ole32:ole32.dll
 0001:0002e52d       CoInitializeEx             000000014002f52d f   ole32:ole32.dll
 0001:0002e533       SysAllocString             000000014002f533 f   oleaut32:OLEAUT32.dll
 0001:0002e539       SysFreeString              000000014002f539 f   oleaut32:OLEAUT32.dll
 0001:0002e53f       VariantInit                000000014002f53f f   oleaut32:OLEAUT32.dll
 0001:0002e545       VariantClear               000000014002f545 f   oleaut32:OLEAUT32.dll
 0001:0002e54b       GetMessageW                000000014002f54b f   user32:USER32.dll
 0001:0002e551       TranslateMessage           000000014002f551 f   user32:USER32.dll
 0001:0002e557       DispatchMessageW           000000014002f557 f   user32:USER32.dll
 0001:0002e55d       MessageBoxW                000000014002f55d f   user32:USER32.dll
 0001:0002e563       SendMessageW               000000014002f563 f   user32:USER32.dll
 0001:0002e569       DefWindowProcW             000000014002f569 f   user32:USER32.dll
 0001:0002e56f       PostQuitMessage            000000014002f56f f   user32:USER32.dll
 0001:0002e575       RegisterClassExW           000000014002f575 f   user32:USER32.dll
 0001:0002e57b       CreateWindowExW            000000014002f57b f   user32:USER32.dll
 0001:0002e581       ShowWindow                 000000014002f581 f   user32:USER32.dll
 0001:0002e587       MoveWindow                 000000014002f587 f   user32:USER32.dll
 0001:0002e58d       SetWindowPos               000000014002f58d f   user32:USER32.dll
 0001:0002e593       UpdateWindow               000000014002f593 f   user32:USER32.dll
 0001:0002e599       GetClientRect              000000014002f599 f   user32:USER32.dll
 0001:0002e59f       GetWindowLongPtrW          000000014002f59f f   user32:USER32.dll
 0001:0002e5a5       SetWindowLongPtrW          000000014002f5a5 f   user32:USER32.dll
 0001:0002e5ab       LoadCursorW                000000014002f5ab f   user32:USER32.dll
 0001:0002e5b1       LoadIconW                  000000014002f5b1 f   user32:USER32.dll
 0001:0002e5b7       SystemParametersInfoForDpi 000000014002f5b7 f   user32:USER32.dll
 0001:0002e5bd       GetDpiForWindow            000000014002f5bd f   user32:USER32.dll
 0001:0002e5c3       PostMessageW               000000014002f5c3 f   user32:USER32.dll
 0001:0002e5c9       DestroyWindow              000000014002f5c9 f   user32:USER32.dll
 0001:0002e5cf       GetDlgItem                 000000014002f5cf f   user32:USER32.dll
 0001:0002e5d5       OpenClipboard              000000014002f5d5 f   user32:USER32.dll
 0001:0002e5db       CloseClipboard             000000014002f5db f   user32:USER32.dll
 0001:0002e5e1       SetClipboardData           000000014002f5e1 f   user32:USER32.dll
 0001:0002e5e7       EmptyClipboard             000000014002f5e7 f   user32:USER32.dll
 0001:0002e5ed       GetKeyState                000000014002f5ed f   user32:USER32.dll
 0001:0002e5f3       EnableWindow               000000014002f5f3 f   user32:USER32.dll
 0001:0002e5f9       CreatePopupMenu            000000014002f5f9 f   user32:USER32.dll
 0001:0002e5ff       DestroyMenu                000000014002f5ff f   user32:USER32.dll
 0001:0002e605       AppendMenuW                000000014002f605 f   user32:USER32.dll
 0001:0002e60b       TrackPopupMenu             000000014002f60b f   user32:USER32.dll
 0001:0002e611       InvalidateRect             000000014002f611 f   user32:USER32.dll
 0001:0002e617       ScrollWindowEx             000000014002f617 f   user32:USER32.dll
 0001:0002e61d       SetScrollPos               000000014002f61d f   user32:USER32.dll
 0001:0002e623       SetWindowTextW             000000014002f623 f   user32:USER32.dll
 0001:0002e629       GetWindowTextW             000000014002f629 f   user32:USER32.dll
 0001:0002e62f       GetWindowRect              000000014002f62f f   user32:USER32.dll
 0001:0002e635       GetCursorPos               000000014002f635 f   user32:USER32.dll
 0001:0002e63b       GetSysColor                000000014002f63b f   user32:USER32.dll
 0001:0002e641       GetSysColorBrush           000000014002f641 f   user32:USER32.dll
 0001:0002e647       GetParent                  000000014002f647 f   user32:USER32.dll
 0001:0002e64d       SetScrollInfo              000000014002f64d f   user32:USER32.dll
 0001:0002e653       GetScrollInfo              000000014002f653 f   user32:USER32.dll
 0001:0002e659       CreateFontIndirectW        000000014002f659 f   gdi32:GDI32.dll
 0001:0002e65f       DeleteObject               000000014002f65f f   gdi32:GDI32.dll
 0001:0002e665       SetBkColor                 000000014002f665 f   gdi32:GDI32.dll
 0001:0002e66b       SetBkMode                  000000014002f66b f   gdi32:GDI32.dll
 0001:0002e671       SetUnhandledExceptionFilter 000000014002f671 f   kernel32:KERNEL32.dll
 0001:0002e677       GetModuleFileNameW         000000014002f677 f   kernel32:KERNEL32.dll
 0001:0002e67d       GetModuleHandleExW         000000014002f67d f   kernel32:KERNEL32.dll
 0001:0002e683       MulDiv                     000000014002f683 f   kernel32:KERNEL32.dll
 0001:0002e689       FileTimeToLocalFileTime    000000014002f689 f   kernel32:KERNEL32.dll
 0001:0002e68f       LocalFree                  000000014002f68f f   kernel32:KERNEL32.dll
 0001:0002e695       FormatMessageW             000000014002f695 f   kernel32:KERNEL32.dll
 0001:0002e69b       FileTimeToSystemTime       000000014002f69b f   kernel32:KERNEL32.dll
 0001:0002e6a1       CompareStringOrdinal       000000014002f6a1 f   kernel32:KERNEL32.dll
 0001:0002e6a7       GlobalAlloc                000000014002f6a7 f   kernel32:KERNEL32.dll
 0001:0002e6ad       GlobalUnlock               000000014002f6ad f   kernel32:KERNEL32.dll
 0001:0002e6b3       GlobalLock                 000000014002f6b3 f   kernel32:KERNEL32.dll
 0001:0002e6b9       GlobalFree                 000000014002f6b9 f   kernel32:KERNEL32.dll
 0001:000645a0       __check_arch_support       00000001400655a0 f i libcpmt:vector_algorithms.obj
 0001:000645c0       __std_adjacent_find_1      00000001400655c0 f   libcpmt:vector_algorithms.obj
 0001:000645d0       __std_adjacent_find_2      00000001400655d0 f   libcpmt:vector_algorithms.obj
 0001:000645e0       __std_adjacent_find_4      00000001400655e0 f   libcpmt:vector_algorithms.obj
 0001:000645f0       __std_adjacent_find_8      00000001400655f0 f   libcpmt:vector_algorithms.obj
 0001:00064600       __std_bitset_from_string_1 0000000140065600 f   libcpmt:vector_algorithms.obj
 0001:000647b0       __std_bitset_from_string_2 00000001400657b0 f   libcpmt:vector_algorithms.obj
 0001:00064970       __std_bitset_to_string_1   0000000140065970 f   libcpmt:vector_algorithms.obj
 0001:00064990       __std_bitset_to_string_2   0000000140065990 f   libcpmt:vector_algorithms.obj
 0001:000649b0       __std_count_trivial_1      00000001400659b0 f   libcpmt:vector_algorithms.obj
 0001:000649c0       __std_count_trivial_2      00000001400659c0 f   libcpmt:vector_algorithms.obj
 0001:000649d0       __std_count_trivial_4      00000001400659d0 f   libcpmt:vector_algorithms.obj
 0001:000649e0       __std_count_trivial_8      00000001400659e0 f   libcpmt:vector_algorithms.obj
 0001:000649f0       __std_find_end_1           00000001400659f0 f   libcpmt:vector_algorithms.obj
 0001:00064a00       __std_find_end_2           0000000140065a00 f   libcpmt:vector_algorithms.obj
 0001:00064a10       __std_find_end_4           0000000140065a10 f   libcpmt:vector_algorithms.obj
 0001:00064af0       __std_find_end_8           0000000140065af0 f   libcpmt:vector_algorithms.obj
 0001:00064bd0       __std_find_first_not_of_trivial_pos_1 0000000140065bd0 f   libcpmt:vector_algorithms.obj
 0001:00064be0       __std_find_first_not_of_trivial_pos_2 0000000140065be0 f   libcpmt:vector_algorithms.obj
 0001:00064d40       __std_find_first_of_trivial_1 0000000140065d40 f   libcpmt:vector_algorithms.obj
 0001:00064da0       __std_find_first_of_trivial_2 0000000140065da0 f   libcpmt:vector_algorithms.obj
 0001:00064e00       __std_find_first_of_trivial_4 0000000140065e00 f   libcpmt:vector_algorithms.obj
 0001:00064e60       __std_find_first_of_trivial_8 0000000140065e60 f   libcpmt:vector_algorithms.obj
 0001:00064ec0       __std_find_first_of_trivial_pos_1 0000000140065ec0 f   libcpmt:vector_algorithms.obj
 0001:00064ed0       __std_find_first_of_trivial_pos_2 0000000140065ed0 f   libcpmt:vector_algorithms.obj
 0001:00065030       __std_find_first_of_trivial_pos_4 0000000140066030 f   libcpmt:vector_algorithms.obj
 0001:00065180       __std_find_first_of_trivial_pos_8 0000000140066180 f   libcpmt:vector_algorithms.obj
 0001:000652d0       __std_find_last_not_ch_pos_1 00000001400662d0 f   libcpmt:vector_algorithms.obj
 0001:00065320       __std_find_last_not_ch_pos_2 0000000140066320 f   libcpmt:vector_algorithms.obj
 0001:00065370       __std_find_last_not_ch_pos_4 0000000140066370 f   libcpmt:vector_algorithms.obj
 0001:000653c0       __std_find_last_not_ch_pos_8 00000001400663c0 f   libcpmt:vector_algorithms.obj
 0001:00065410       __std_find_last_not_of_trivial_pos_1 0000000140066410 f   libcpmt:vector_algorithms.obj
 0001:000655e0       __std_find_last_not_of_trivial_pos_2 00000001400665e0 f   libcpmt:vector_algorithms.obj
 0001:000655f0       __std_find_last_of_trivial_pos_1 00000001400665f0 f   libcpmt:vector_algorithms.obj
 0001:000657c0       __std_find_last_of_trivial_pos_2 00000001400667c0 f   libcpmt:vector_algorithms.obj
 0001:000657d0       __std_find_last_trivial_1  00000001400667d0 f   libcpmt:vector_algorithms.obj
 0001:000657e0       __std_find_last_trivial_2  00000001400667e0 f   libcpmt:vector_algorithms.obj
 0001:000657f0       __std_find_last_trivial_4  00000001400667f0 f   libcpmt:vector_algorithms.obj
 0001:00065800       __std_find_last_trivial_8  0000000140066800 f   libcpmt:vector_algorithms.obj
 0001:00065810       __std_find_not_ch_1        0000000140066810 f   libcpmt:vector_algorithms.obj
 0001:00065820       __std_find_not_ch_2        0000000140066820 f   libcpmt:vector_algorithms.obj
 0001:00065830       __std_find_not_ch_4        0000000140066830 f   libcpmt:vector_algorithms.obj
 0001:00065840       __std_find_not_ch_8        0000000140066840 f   libcpmt:vector_algorithms.obj
 0001:00065850       __std_find_trivial_1       0000000140066850 f   libcpmt:vector_algorithms.obj
 0001:00065860       __std_find_trivial_2       0000000140066860 f   libcpmt:vector_algorithms.obj
 0001:00065870       __std_find_trivial_4       0000000140066870 f   libcpmt:vector_algorithms.obj
 0001:00065880       __std_find_trivial_8       0000000140066880 f   libcpmt:vector_algorithms.obj
 0001:00065890       __std_find_trivial_unsized_1 0000000140066890 f   libcpmt:vector_algorithms.obj
 0001:000658b0       __std_find_trivial_unsized_2 00000001400668b0 f   libcpmt:vector_algorithms.obj
 0001:000658d0       __std_find_trivial_unsized_4 00000001400668d0 f   libcpmt:vector_algorithms.obj
 0001:000658f0       __std_find_trivial_unsized_8 00000001400668f0 f   libcpmt:vector_algorithms.obj
 0001:00065910       __std_includes_less_1i     0000000140066910 f   libcpmt:vector_algorithms.obj
 0001:00065920       __std_includes_less_1u     0000000140066920 f   libcpmt:vector_algorithms.obj
 0001:00065930       __std_includes_less_2i     0000000140066930 f   libcpmt:vector_algorithms.obj
 0001:00065940       __std_includes_less_2u     0000000140066940 f   libcpmt:vector_algorithms.obj
 0001:000659c0       __std_includes_less_4i     00000001400669c0 f   libcpmt:vector_algorithms.obj
 0001:000659d0       __std_includes_less_4u     00000001400669d0 f   libcpmt:vector_algorithms.obj
 0001:000659e0       __std_includes_less_8i     00000001400669e0 f   libcpmt:vector_algorithms.obj
 0001:000659f0       __std_includes_less_8u     00000001400669f0 f   libcpmt:vector_algorithms.obj
 0001:00065a00       __std_is_sorted_until_1i   0000000140066a00 f   libcpmt:vector_algorithms.obj
 0001:00065a10       __std_is_sorted_until_1u   0000000140066a10 f   libcpmt:vector_algorithms.obj
 0001:00065a20       __std_is_sorted_until_2i   0000000140066a20 f   libcpmt:vector_algorithms.obj
 0001:00065a30       __std_is_sorted_until_2u   0000000140066a30 f   libcpmt:vector_algorithms.obj
 0001:00065a40       __std_is_sorted_until_4i   0000000140066a40 f   libcpmt:vector_algorithms.obj
 0001:00065a50       __std_is_sorted_until_4u   0000000140066a50 f   libcpmt:vector_algorithms.obj
 0001:00065a60       __std_is_sorted_until_8i   0000000140066a60 f   libcpmt:vector_algorithms.obj
 0001:00065a70       __std_is_sorted_until_8u   0000000140066a70 f   libcpmt:vector_algorithms.obj
 0001:00065a80       __std_is_sorted_until_d    0000000140066a80 f   libcpmt:vector_algorithms.obj
 0001:00065a90       __std_is_sorted_until_f    0000000140066a90 f   libcpmt:vector_algorithms.obj
 0001:00065aa0       __std_max_1i               0000000140066aa0 f   libcpmt:vector_algorithms.obj
 0001:00065ab0       __std_max_1u               0000000140066ab0 f   libcpmt:vector_algorithms.obj
 0001:00065ac0       __std_max_2i               0000000140066ac0 f   libcpmt:vector_algorithms.obj
 0001:00065ad0       __std_max_2u               0000000140066ad0 f   libcpmt:vector_algorithms.obj
 0001:00065ae0       __std_max_4i               0000000140066ae0 f   libcpmt:vector_algorithms.obj
 0001:00065af0       __std_max_4u               0000000140066af0 f   libcpmt:vector_algorithms.obj
 0001:00065b00       __std_max_8i               0000000140066b00 f   libcpmt:vector_algorithms.obj
 0001:00065b10       __std_max_8u               0000000140066b10 f   libcpmt:vector_algorithms.obj
 0001:00065b20       __std_max_d                0000000140066b20 f   libcpmt:vector_algorithms.obj
 0001:00065b30       __std_max_element_1        0000000140066b30 f   libcpmt:vector_algorithms.obj
 0001:00065c40       __std_max_element_1i       0000000140066c40 f   libcpmt:vector_algorithms.obj
 0001:00065ce0       __std_max_element_1u       0000000140066ce0 f   libcpmt:vector_algorithms.obj
 0001:00065d80       __std_max_element_2        0000000140066d80 f   libcpmt:vector_algorithms.obj
 0001:00065e90       __std_max_element_2i       0000000140066e90 f   libcpmt:vector_algorithms.obj
 0001:00065f30       __std_max_element_2u       0000000140066f30 f   libcpmt:vector_algorithms.obj
 0001:00065fd0       __std_max_element_4        0000000140066fd0 f   libcpmt:vector_algorithms.obj
 0001:000660e0       __std_max_element_4i       00000001400670e0 f   libcpmt:vector_algorithms.obj
 0001:00066170       __std_max_element_4u       0000000140067170 f   libcpmt:vector_algorithms.obj
 0001:00066200       __std_max_element_8        0000000140067200 f   libcpmt:vector_algorithms.obj
 0001:00066310       __std_max_element_8i       0000000140067310 f   libcpmt:vector_algorithms.obj
 0001:000663a0       __std_max_element_8u       00000001400673a0 f   libcpmt:vector_algorithms.obj
 0001:00066430       __std_max_element_d        0000000140067430 f   libcpmt:vector_algorithms.obj
 0001:000664c0       __std_max_element_d_       00000001400674c0 f   libcpmt:vector_algorithms.obj
 0001:00066550       __std_max_element_f        0000000140067550 f   libcpmt:vector_algorithms.obj
 0001:000665e0       __std_max_element_f_       00000001400675e0 f   libcpmt:vector_algorithms.obj
 0001:00066670       __std_max_f                0000000140067670 f   libcpmt:vector_algorithms.obj
 0001:00066680       __std_min_1i               0000000140067680 f   libcpmt:vector_algorithms.obj
 0001:00066690       __std_min_1u               0000000140067690 f   libcpmt:vector_algorithms.obj
 0001:000666a0       __std_min_2i               00000001400676a0 f   libcpmt:vector_algorithms.obj
 0001:000666b0       __std_min_2u               00000001400676b0 f   libcpmt:vector_algorithms.obj
 0001:000666c0       __std_min_4i               00000001400676c0 f   libcpmt:vector_algorithms.obj
 0001:000666d0       __std_min_4u               00000001400676d0 f   libcpmt:vector_algorithms.obj
 0001:000666e0       __std_min_8i               00000001400676e0 f   libcpmt:vector_algorithms.obj
 0001:000666f0       __std_min_8u               00000001400676f0 f   libcpmt:vector_algorithms.obj
 0001:00066700       __std_min_d                0000000140067700 f   libcpmt:vector_algorithms.obj
 0001:00066710       __std_min_element_1        0000000140067710 f   libcpmt:vector_algorithms.obj
 0001:00066820       __std_min_element_1i       0000000140067820 f   libcpmt:vector_algorithms.obj
 0001:000668c0       __std_min_element_1u       00000001400678c0 f   libcpmt:vector_algorithms.obj
 0001:00066960       __std_min_element_2        0000000140067960 f   libcpmt:vector_algorithms.obj
 0001:00066a70       __std_min_element_2i       0000000140067a70 f   libcpmt:vector_algorithms.obj
 0001:00066b10       __std_min_element_2u       0000000140067b10 f   libcpmt:vector_algorithms.obj
 0001:00066bb0       __std_min_element_4        0000000140067bb0 f   libcpmt:vector_algorithms.obj
 0001:00066cc0       __std_min_element_4i       0000000140067cc0 f   libcpmt:vector_algorithms.obj
 0001:00066d50       __std_min_element_4u       0000000140067d50 f   libcpmt:vector_algorithms.obj
 0001:00066de0       __std_min_element_8        0000000140067de0 f   libcpmt:vector_algorithms.obj
 0001:00066ef0       __std_min_element_8i       0000000140067ef0 f   libcpmt:vector_algorithms.obj
 0001:00066f80       __std_min_element_8u       0000000140067f80 f   libcpmt:vector_algorithms.obj
 0001:00067010       __std_min_element_d        0000000140068010 f   libcpmt:vector_algorithms.obj
 0001:000670a0       __std_min_element_d_       00000001400680a0 f   libcpmt:vector_algorithms.obj
 0001:00067130       __std_min_element_f        0000000140068130 f   libcpmt:vector_algorithms.obj
 0001:000671c0       __std_min_element_f_       00000001400681c0 f   libcpmt:vector_algorithms.obj
 0001:00067250       __std_min_f                0000000140068250 f   libcpmt:vector_algorithms.obj
 0001:00067260       __std_minmax_1i            0000000140068260 f   libcpmt:vector_algorithms.obj
 0001:00067310       __std_minmax_1u            0000000140068310 f   libcpmt:vector_algorithms.obj
 0001:000673c0       __std_minmax_2i            00000001400683c0 f   libcpmt:vector_algorithms.obj
 0001:00067470       __std_minmax_2u            0000000140068470 f   libcpmt:vector_algorithms.obj
 0001:00067520       __std_minmax_4i            0000000140068520 f   libcpmt:vector_algorithms.obj
 0001:00067530       __std_minmax_4u            0000000140068530 f   libcpmt:vector_algorithms.obj
 0001:00067540       __std_minmax_8i            0000000140068540 f   libcpmt:vector_algorithms.obj
 0001:00067560       __std_minmax_8u            0000000140068560 f   libcpmt:vector_algorithms.obj
 0001:00067580       __std_minmax_d             0000000140068580 f   libcpmt:vector_algorithms.obj
 0001:000676c0       __std_minmax_element_1     00000001400686c0 f   libcpmt:vector_algorithms.obj
 0001:000678a0       __std_minmax_element_1i    00000001400688a0 f   libcpmt:vector_algorithms.obj
 0001:000679a0       __std_minmax_element_1u    00000001400689a0 f   libcpmt:vector_algorithms.obj
 0001:00067aa0       __std_minmax_element_2     0000000140068aa0 f   libcpmt:vector_algorithms.obj
 0001:00067c80       __std_minmax_element_2i    0000000140068c80 f   libcpmt:vector_algorithms.obj
 0001:00067d70       __std_minmax_element_2u    0000000140068d70 f   libcpmt:vector_algorithms.obj
 0001:00067e60       __std_minmax_element_4     0000000140068e60 f   libcpmt:vector_algorithms.obj
 0001:00068020       __std_minmax_element_4i    0000000140069020 f   libcpmt:vector_algorithms.obj
 0001:00068100       __std_minmax_element_4u    0000000140069100 f   libcpmt:vector_algorithms.obj
 0001:000681e0       __std_minmax_element_8     00000001400691e0 f   libcpmt:vector_algorithms.obj
 0001:000683a0       __std_minmax_element_8i    00000001400693a0 f   libcpmt:vector_algorithms.obj
 0001:000684a0       __std_minmax_element_8u    00000001400694a0 f   libcpmt:vector_algorithms.obj
 0001:00068580       __std_minmax_element_d     0000000140069580 f   libcpmt:vector_algorithms.obj
 0001:00068650       __std_minmax_element_d_    0000000140069650 f   libcpmt:vector_algorithms.obj
 0001:00068720       __std_minmax_element_f     0000000140069720 f   libcpmt:vector_algorithms.obj
 0001:000687f0       __std_minmax_element_f_    00000001400697f0 f   libcpmt:vector_algorithms.obj
 0001:000688c0       __std_minmax_f             00000001400698c0 f   libcpmt:vector_algorithms.obj
 0001:000688d0       __std_mismatch_1           00000001400698d0 f   libcpmt:vector_algorithms.obj
 0001:000688e0       __std_mismatch_2           00000001400698e0 f   libcpmt:vector_algorithms.obj
 0001:000688f0       __std_mismatch_4           00000001400698f0 f   libcpmt:vector_algorithms.obj
 0001:00068900       __std_mismatch_8           0000000140069900 f   libcpmt:vector_algorithms.obj
 0001:00068910       __std_remove_1             0000000140069910 f   libcpmt:vector_algorithms.obj
 0001:000689f0       __std_remove_2             00000001400699f0 f   libcpmt:vector_algorithms.obj
 0001:00068af0       __std_remove_4             0000000140069af0 f   libcpmt:vector_algorithms.obj
 0001:00068c40       __std_remove_8             0000000140069c40 f   libcpmt:vector_algorithms.obj
 0001:00068d90       __std_remove_copy_1        0000000140069d90 f   libcpmt:vector_algorithms.obj
 0001:00068f50       __std_remove_copy_2        0000000140069f50 f   libcpmt:vector_algorithms.obj
 0001:00069120       __std_remove_copy_4        000000014006a120 f   libcpmt:vector_algorithms.obj
 0001:000693c0       __std_remove_copy_8        000000014006a3c0 f   libcpmt:vector_algorithms.obj
 0001:00069660       __std_replace_4            000000014006a660 f   libcpmt:vector_algorithms.obj
 0001:00069710       __std_replace_8            000000014006a710 f   libcpmt:vector_algorithms.obj
 0001:000697c0       __std_replace_copy_1       000000014006a7c0 f   libcpmt:vector_algorithms.obj
 0001:000697e0       __std_replace_copy_2       000000014006a7e0 f   libcpmt:vector_algorithms.obj
 0001:00069800       __std_replace_copy_4       000000014006a800 f   libcpmt:vector_algorithms.obj
 0001:00069810       __std_replace_copy_8       000000014006a810 f   libcpmt:vector_algorithms.obj
 0001:00069820       __std_reverse_copy_trivially_copyable_1 000000014006a820 f   libcpmt:vector_algorithms.obj
 0001:00069830       __std_reverse_copy_trivially_copyable_2 000000014006a830 f   libcpmt:vector_algorithms.obj
 0001:00069840       __std_reverse_copy_trivially_copyable_4 000000014006a840 f   libcpmt:vector_algorithms.obj
 0001:00069940       __std_reverse_copy_trivially_copyable_8 000000014006a940 f   libcpmt:vector_algorithms.obj
 0001:00069a30       __std_reverse_trivially_swappable_1 000000014006aa30 f   libcpmt:vector_algorithms.obj
 0001:00069a40       __std_reverse_trivially_swappable_2 000000014006aa40 f   libcpmt:vector_algorithms.obj
 0001:00069a50       __std_reverse_trivially_swappable_4 000000014006aa50 f   libcpmt:vector_algorithms.obj
 0001:00069b70       __std_reverse_trivially_swappable_8 000000014006ab70 f   libcpmt:vector_algorithms.obj
 0001:00069c80       __std_rotate               000000014006ac80 f   libcpmt:vector_algorithms.obj
 0001:00069e70       __std_search_1             000000014006ae70 f   libcpmt:vector_algorithms.obj
 0001:00069e80       __std_search_2             000000014006ae80 f   libcpmt:vector_algorithms.obj
 0001:00069e90       __std_search_4             000000014006ae90 f   libcpmt:vector_algorithms.obj
 0001:00069fa0       __std_search_8             000000014006afa0 f   libcpmt:vector_algorithms.obj
 0001:0006a0b0       __std_search_n_1           000000014006b0b0 f   libcpmt:vector_algorithms.obj
 0001:0006a0c0       __std_search_n_2           000000014006b0c0 f   libcpmt:vector_algorithms.obj
 0001:0006a0d0       __std_search_n_4           000000014006b0d0 f   libcpmt:vector_algorithms.obj
 0001:0006a0e0       __std_search_n_8           000000014006b0e0 f   libcpmt:vector_algorithms.obj
 0001:0006a0f0       __std_swap_ranges_trivially_swappable 000000014006b0f0 f   libcpmt:vector_algorithms.obj
 0001:0006a140       __std_swap_ranges_trivially_swappable_noalias 000000014006b140 f   libcpmt:vector_algorithms.obj
 0001:0006a250       __std_unique_1             000000014006b250 f   libcpmt:vector_algorithms.obj
 0001:0006a330       __std_unique_2             000000014006b330 f   libcpmt:vector_algorithms.obj
 0001:0006a430       __std_unique_4             000000014006b430 f   libcpmt:vector_algorithms.obj
 0001:0006a5a0       __std_unique_8             000000014006b5a0 f   libcpmt:vector_algorithms.obj
 0001:0006a710       __std_unique_copy_1        000000014006b710 f   libcpmt:vector_algorithms.obj
 0001:0006a8d0       __std_unique_copy_2        000000014006b8d0 f   libcpmt:vector_algorithms.obj
 0001:0006aab0       __std_unique_copy_4        000000014006bab0 f   libcpmt:vector_algorithms.obj
 0001:0006ad70       __std_unique_copy_8        000000014006bd70 f   libcpmt:vector_algorithms.obj
 0001:0006b040       ??0bad_alloc@std@@QEAA@XZ  000000014006c040 f i libcpmt:xthrow.obj
 0001:0006b070       ??0bad_function_call@std@@QEAA@AEBV01@@Z 000000014006c070 f i libcpmt:xthrow.obj
 0001:0006b0c0       ??0bad_function_call@std@@QEAA@XZ 000000014006c0c0 f i libcpmt:xthrow.obj
 0001:0006b0e0       ??0exception@std@@QEAA@QEBD@Z 000000014006c0e0 f i libcpmt:xthrow.obj
 0001:0006b130       ??0exception@std@@QEAA@XZ  000000014006c130 f i libcpmt:xthrow.obj
 0001:0006b150       ??0invalid_argument@std@@QEAA@AEBV01@@Z 000000014006c150 f i libcpmt:xthrow.obj
 0001:0006b1a0       ??0invalid_argument@std@@QEAA@PEBD@Z 000000014006c1a0 f i libcpmt:xthrow.obj
 0001:0006b200       ??0length_error@std@@QEAA@AEBV01@@Z 000000014006c200 f i libcpmt:xthrow.obj
 0001:0006b250       ??0length_error@std@@QEAA@PEBD@Z 000000014006c250 f i libcpmt:xthrow.obj
 0001:0006b2b0       ??0logic_error@std@@QEAA@AEBV01@@Z 000000014006c2b0 f i libcpmt:xthrow.obj
 0001:0006b300       ??0logic_error@std@@QEAA@PEBD@Z 000000014006c300 f i libcpmt:xthrow.obj
 0001:0006b360       ??0out_of_range@std@@QEAA@AEBV01@@Z 000000014006c360 f i libcpmt:xthrow.obj
 0001:0006b3b0       ??0out_of_range@std@@QEAA@PEBD@Z 000000014006c3b0 f i libcpmt:xthrow.obj
 0001:0006b410       ??0overflow_error@std@@QEAA@AEBV01@@Z 000000014006c410 f i libcpmt:xthrow.obj
 0001:0006b460       ??0overflow_error@std@@QEAA@PEBD@Z 000000014006c460 f i libcpmt:xthrow.obj
 0001:0006b4c0       ??0regex_error@std@@QEAA@AEBV01@@Z 000000014006c4c0 f i libcpmt:xthrow.obj
 0001:0006b520       ??0regex_error@std@@QEAA@W4error_type@regex_constants@1@@Z 000000014006c520 f i libcpmt:xthrow.obj
 0001:0006b6b0       ??0runtime_error@std@@QEAA@AEBV01@@Z 000000014006c6b0 f i libcpmt:xthrow.obj
 0001:0006b700       ??0runtime_error@std@@QEAA@PEBD@Z 000000014006c700 f i libcpmt:xthrow.obj
 0001:0006b760       ??1bad_function_call@std@@UEAA@XZ 000000014006c760 f i libcpmt:xthrow.obj
 0001:0006b780       ??1invalid_argument@std@@UEAA@XZ 000000014006c780 f i libcpmt:xthrow.obj
 0001:0006b7a0       ??1length_error@std@@UEAA@XZ 000000014006c7a0 f i libcpmt:xthrow.obj
 0001:0006b7c0       ??1logic_error@std@@UEAA@XZ 000000014006c7c0 f i libcpmt:xthrow.obj
 0001:0006b7e0       ??1out_of_range@std@@UEAA@XZ 000000014006c7e0 f i libcpmt:xthrow.obj
 0001:0006b800       ??1overflow_error@std@@UEAA@XZ 000000014006c800 f i libcpmt:xthrow.obj
 0001:0006b820       ??1regex_error@std@@UEAA@XZ 000000014006c820 f i libcpmt:xthrow.obj
 0001:0006b840       ??1runtime_error@std@@UEAA@XZ 000000014006c840 f i libcpmt:xthrow.obj
 0001:0006b860       ??_Ebad_function_call@std@@UEAAPEAXI@Z 000000014006c860 f i libcpmt:xthrow.obj
 0001:0006b860       ??_Gbad_function_call@std@@UEAAPEAXI@Z 000000014006c860 f i libcpmt:xthrow.obj
 0001:0006b8c0       ??_Einvalid_argument@std@@UEAAPEAXI@Z 000000014006c8c0 f i libcpmt:xthrow.obj
 0001:0006b8c0       ??_Ginvalid_argument@std@@UEAAPEAXI@Z 000000014006c8c0 f i libcpmt:xthrow.obj
 0001:0006b920       ??_Elength_error@std@@UEAAPEAXI@Z 000000014006c920 f i libcpmt:xthrow.obj
 0001:0006b920       ??_Glength_error@std@@UEAAPEAXI@Z 000000014006c920 f i libcpmt:xthrow.obj
 0001:0006b980       ??_Elogic_error@std@@UEAAPEAXI@Z 000000014006c980 f i libcpmt:xthrow.obj
 0001:0006b980       ??_Glogic_error@std@@UEAAPEAXI@Z 000000014006c980 f i libcpmt:xthrow.obj
 0001:0006b9e0       ??_Eout_of_range@std@@UEAAPEAXI@Z 000000014006c9e0 f i libcpmt:xthrow.obj
 0001:0006b9e0       ??_Gout_of_range@std@@UEAAPEAXI@Z 000000014006c9e0 f i libcpmt:xthrow.obj
 0001:0006ba40       ??_Eoverflow_error@std@@UEAAPEAXI@Z 000000014006ca40 f i libcpmt:xthrow.obj
 0001:0006ba40       ??_Goverflow_error@std@@UEAAPEAXI@Z 000000014006ca40 f i libcpmt:xthrow.obj
 0001:0006baa0       ??_Eregex_error@std@@UEAAPEAXI@Z 000000014006caa0 f i libcpmt:xthrow.obj
 0001:0006baa0       ??_Gregex_error@std@@UEAAPEAXI@Z 000000014006caa0 f i libcpmt:xthrow.obj
 0001:0006bb00       ??_Eruntime_error@std@@UEAAPEAXI@Z 000000014006cb00 f i libcpmt:xthrow.obj
 0001:0006bb00       ??_Gruntime_error@std@@UEAAPEAXI@Z 000000014006cb00 f i libcpmt:xthrow.obj
 0001:0006bb60       ?_Stringify@regex_error@std@@CAPEBDW4error_type@regex_constants@2@@Z 000000014006cb60 f i libcpmt:xthrow.obj
 0001:0006bc80       ?_Xbad_alloc@std@@YAXXZ    000000014006cc80 f   libcpmt:xthrow.obj
 0001:0006bcb0       ?_Xbad_function_call@std@@YAXXZ 000000014006ccb0 f   libcpmt:xthrow.obj
 0001:0006bce0       ?_Xinvalid_argument@std@@YAXPEBD@Z 000000014006cce0 f   libcpmt:xthrow.obj
 0001:0006bd10       ?_Xlength_error@std@@YAXPEBD@Z 000000014006cd10 f   libcpmt:xthrow.obj
 0001:0006bd40       ?_Xout_of_range@std@@YAXPEBD@Z 000000014006cd40 f   libcpmt:xthrow.obj
 0001:0006bd70       ?_Xoverflow_error@std@@YAXPEBD@Z 000000014006cd70 f   libcpmt:xthrow.obj
 0001:0006bda0       ?_Xregex_error@std@@YAXW4error_type@regex_constants@1@@Z 000000014006cda0 f   libcpmt:xthrow.obj
 0001:0006bdd0       ?_Xruntime_error@std@@YAXPEBD@Z 000000014006cdd0 f   libcpmt:xthrow.obj
 0001:0006be00       ?what@bad_function_call@std@@UEBAPEBDXZ 000000014006ce00 f i libcpmt:xthrow.obj
 0001:0006be10       ??$?0$$V@?$_Compressed_pair@U?$default_delete@$$BY0A@E@std@@PEAE$00@std@@QEAA@U_Zero_then_variadic_args_t@1@@Z 000000014006ce10 f i libcpmt:cthread.obj
 0001:0006be20       ??$?0U?$default_delete@$$BY0A@E@std@@$0A@@?$unique_ptr@$$BY0A@EU?$default_delete@$$BY0A@E@std@@@std@@QEAA@XZ 000000014006ce20 f i libcpmt:cthread.obj
 0001:0006be30       ??$?RE$0A@@?$default_delete@$$BY0A@E@std@@QEBAXPEAE@Z 000000014006ce30 f i libcpmt:cthread.obj
 0001:0006be40       ??$_Checked_popcount@_K@std@@YAH_K@Z 000000014006ce40 f i libcpmt:cthread.obj
 0001:0006bed0       ??$_Popcount@_K$0A@@std@@YAH_K@Z 000000014006ced0 f i libcpmt:cthread.obj
 0001:0006bf60       ??$_Popcount_fallback@_K@std@@YAH_K@Z 000000014006cf60 f i libcpmt:cthread.obj
 0001:0006bfd0       ??$_Unchecked_popcount@_K@std@@YAH_K@Z 000000014006cfd0 f i libcpmt:cthread.obj
 0001:0006bfe0       ??$exchange@PEAEAEAPEAE@std@@YAPEAEAEAPEAE0@Z 000000014006cfe0 f i libcpmt:cthread.obj
 0001:0006bff0       ??$popcount@_K@std@@YAH_K@Z 000000014006cff0 f i libcpmt:cthread.obj
 0001:0006c080       ??$reset@PEAE$0A@@?$unique_ptr@$$BY0A@EU?$default_delete@$$BY0A@E@std@@@std@@QEAAXPEAE@Z 000000014006d080 f i libcpmt:cthread.obj
 0001:0006c0a0       ??1?$unique_ptr@$$BY0A@EU?$default_delete@$$BY0A@E@std@@@std@@QEAA@XZ 000000014006d0a0 f i libcpmt:cthread.obj
 0001:0006c0b0       ??B?$unique_ptr@$$BY0A@EU?$default_delete@$$BY0A@E@std@@@std@@QEBA_NXZ 000000014006d0b0 f i libcpmt:cthread.obj
 0001:0006c0c0       ?_Get_first@?$_Compressed_pair@U?$default_delete@$$BY0A@E@std@@PEAE$00@std@@QEAAAEAU?$default_delete@$$BY0A@E@2@XZ 000000014006d0c0 f i libcpmt:cthread.obj
 0001:0006c150       ?get@?$unique_ptr@$$BY0A@EU?$default_delete@$$BY0A@E@std@@@std@@QEBAPEAEXZ 000000014006d150 f i libcpmt:cthread.obj
 0001:0006c160       _Thrd_create               000000014006d160 f   libcpmt:cthread.obj
 0001:0006c2c0       _Thrd_current              000000014006d2c0 f   libcpmt:cthread.obj
 0001:0006c2f0       _Thrd_detach               000000014006d2f0 f   libcpmt:cthread.obj
 0001:0006c320       _Thrd_equal                000000014006d320 f   libcpmt:cthread.obj
 0001:0006c330       _Thrd_exit                 000000014006d330 f   libcpmt:cthread.obj
 0001:0006c340       _Thrd_hardware_concurrency 000000014006d340 f   libcpmt:cthread.obj
 0001:0006c5a0       _Thrd_id                   000000014006d5a0 f   libcpmt:cthread.obj
 0001:0006c5b0       _Thrd_join                 000000014006d5b0 f   libcpmt:cthread.obj
 0001:0006c650       _Thrd_sleep                000000014006d650 f   libcpmt:cthread.obj
 0001:0006c6e0       _Thrd_start                000000014006d6e0 f   libcpmt:cthread.obj
 0001:0006c740       _Thrd_yield                000000014006d740 f   libcpmt:cthread.obj
 0001:0006c750       ??0?$lock_guard@Vmutex@std@@@std@@QEAA@AEAVmutex@1@@Z 000000014006d750 f i libcpmt:xnotify.obj
 0001:0006c7c0       ??1?$lock_guard@Vmutex@std@@@std@@QEAA@XZ 000000014006d7c0 f i libcpmt:xnotify.obj
 0001:0006c7d0       ?_Mymtx@_Mutex_base@std@@AEAAPEAU_Mtx_internal_imp_t@@XZ 000000014006d7d0 f i libcpmt:xnotify.obj
 0001:0006c7e0       ?_Verify_ownership_levels@_Mutex_base@std@@IEAA_NXZ 000000014006d7e0 f i libcpmt:xnotify.obj
 0001:0006c800       ?lock@_Mutex_base@std@@QEAAXXZ 000000014006d800 f i libcpmt:xnotify.obj
 0001:0006c850       ?unlock@_Mutex_base@std@@QEAAXXZ 000000014006d850 f i libcpmt:xnotify.obj
 0001:0006c860       _Cnd_do_broadcast_at_thread_exit 000000014006d860 f   libcpmt:xnotify.obj
 0001:0006c980       _Cnd_register_at_thread_exit 000000014006d980 f   libcpmt:xnotify.obj
 0001:0006cab0       _Cnd_unregister_at_thread_exit 000000014006dab0 f   libcpmt:xnotify.obj
 0001:0006cb90       ??$?0$$V@?$_Compressed_pair@V?$allocator@D@std@@V?$_String_val@U?$_Simple_types@D@std@@@2@$00@std@@QEAA@U_Zero_then_variadic_args_t@1@@Z 000000014006db90 f i libcpmt:thread0.obj
 0001:0006cbb0       ??$?0V?$allocator@D@std@@$$V@?$_Compressed_pair@V?$allocator@D@std@@V?$_String_val@U?$_Simple_types@D@std@@@2@$00@std@@QEAA@U_One_then_variadic_args_t@1@$$QEAV?$allocator@D@1@@Z 000000014006dbb0 f i libcpmt:thread0.obj
 0001:0006cbd0       ??$_Allocate_at_least_helper@V?$allocator@D@std@@@std@@YAPEADAEAV?$allocator@D@0@AEA_K@Z 000000014006dbd0 f i libcpmt:thread0.obj
 0001:0006cc50       ??$_Allocate_for_capacity@$0A@@?$basic_string@DU?$char_traits@D@std@@V?$allocator@D@2@@std@@CAPEADAEAV?$allocator@D@1@AEA_K@Z 000000014006dc50 f i libcpmt:thread0.obj
 0001:0006cce0       ??$_Append@D@?$basic_string@DU?$char_traits@D@std@@V?$allocator@D@2@@std@@AEAAAEAV01@QEBD_K@Z 000000014006dce0 f i libcpmt:thread0.obj
 0001:0006ce00       ??$_Bit_cast@_KT_Addr_storage@error_category@std@@$0A@@std@@YA_KAEBT_Addr_storage@error_category@0@@Z 000000014006de00 f i libcpmt:thread0.obj
 0001:0006ce10       ??$_Construct@$00PEBD@?$basic_string@DU?$char_traits@D@std@@V?$allocator@D@2@@std@@AEAAXQEBD_K@Z 000000014006de10 f i libcpmt:thread0.obj
 0001:0006cfb0       ??$_Construct@$01PEBD@?$basic_string@DU?$char_traits@D@std@@V?$allocator@D@2@@std@@AEAAXQEBD_K@Z 000000014006dfb0 f i libcpmt:thread0.obj
 0001:0006d130       ??$_Construct_in_place@PEADAEAPEAD@std@@YAXAEAPEAD0@Z 000000014006e130 f i libcpmt:thread0.obj
 0001:0006d140       ??$_Construct_in_place@PEADAEBQEAD@std@@YAXAEAPEADAEBQEAD@Z 000000014006e140 f i libcpmt:thread0.obj
 0001:0006d150       ??$_Destroy_in_place@PEAD@std@@YAXAEAPEAD@Z 000000014006e150 f i libcpmt:thread0.obj
 0001:0006d160       ??$_Get_proxy_allocator@V?$allocator@D@std@@@std@@YA?AU_Fake_allocator@0@AEBV?$allocator@D@0@@Z 000000014006e160 f i libcpmt:thread0.obj
 0001:0006d170       ??$_Immortalize_memcpy_image@V_Generic_error_category@std@@@std@@YAAEBV_Generic_error_category@0@XZ 000000014006e170 f i libcpmt:thread0.obj
 0001:0006d180       ??$_Reallocate_grow_by@V<lambda_1>@?1???$_Append@D@?$basic_string@DU?$char_traits@D@std@@V?$allocator@D@2@@std@@AEAAAEAV23@QEBD_K@Z@PEBD_K@?$basic_string@DU?$char_traits@D@std@@V?$allocator@D@2@@std@@AEAAAEAV01@_KV<lambda_1>@?1???$_Append@D@01@AEAAAEAV01@QEBD0@Z@PEBD_K@Z 000000014006e180 f i libcpmt:thread0.obj
 0001:0006d430       ??$_Traits_copy_batch@U?$char_traits@D@std@@D@std@@YAXQEADQEBD_K@Z 000000014006e430 f i libcpmt:thread0.obj
 0001:0006d440       ??$_Traits_move_batch@U?$char_traits@D@std@@D@std@@YAXQEADQEBD_K@Z 000000014006e440 f i libcpmt:thread0.obj
 0001:0006d450       ??$_Unfancy@D@std@@YAPEADPEAD@Z 000000014006e450 f i libcpmt:thread0.obj
 0001:0006d460       ??$addressof@PEAD@std@@YAPEAPEADAEAPEAD@Z 000000014006e460 f i libcpmt:thread0.obj
 0001:0006d470       ??$construct_at@D$$V@std@@YAPEADQEAD@Z 000000014006e470 f i libcpmt:thread0.obj
 0001:0006d480       ??$construct_at@PEADAEAPEAD@std@@YAPEAPEADQEAPEADAEAPEAD@Z 000000014006e480 f i libcpmt:thread0.obj
 0001:0006d490       ??$construct_at@PEADAEBQEAD@std@@YAPEAPEADQEAPEADAEBQEAD@Z 000000014006e490 f i libcpmt:thread0.obj
 0001:0006d4a0       ??$forward@AEAPEAD@std@@YAAEAPEADAEAPEAD@Z 000000014006e4a0 f i libcpmt:thread0.obj
 0001:0006d4b0       ??$forward@AEBQEAD@std@@YAAEBQEADAEBQEAD@Z 000000014006e4b0 f i libcpmt:thread0.obj
 0001:0006d4c0       ??$forward@V?$allocator@D@std@@@std@@YA$$QEAV?$allocator@D@0@AEAV10@@Z 000000014006e4c0 f i libcpmt:thread0.obj
 0001:0006d4d0       ??$move@AEAV?$allocator@D@std@@@std@@YA$$QEAV?$allocator@D@0@AEAV10@@Z 000000014006e4d0 f i libcpmt:thread0.obj
 0001:0006d4e0       ??0?$_String_val@U?$_Simple_types@D@std@@@std@@QEAA@XZ 000000014006e4e0 f i libcpmt:thread0.obj
 0001:0006d500       ??0?$allocator@D@std@@QEAA@XZ 000000014006e500 f i libcpmt:thread0.obj
 0001:0006d510       ??0?$basic_string@DU?$char_traits@D@std@@V?$allocator@D@2@@std@@QEAA@$$QEAV01@@Z 000000014006e510 f i libcpmt:thread0.obj
 0001:0006d5a0       ??0?$basic_string@DU?$char_traits@D@std@@V?$allocator@D@2@@std@@QEAA@AEBV01@@Z 000000014006e5a0 f i libcpmt:thread0.obj
 0001:0006d760       ??0?$basic_string@DU?$char_traits@D@std@@V?$allocator@D@2@@std@@QEAA@QEBD@Z 000000014006e760 f i libcpmt:thread0.obj
 0001:0006d7b0       ??0_Bxty@?$_String_val@U?$_Simple_types@D@std@@@std@@QEAA@XZ 000000014006e7b0 f i libcpmt:thread0.obj
 0001:0006d7c0       ??0_System_error@std@@IEAA@Verror_code@1@AEBV?$basic_string@DU?$char_traits@D@std@@V?$allocator@D@2@@1@@Z 000000014006e7c0 f i libcpmt:thread0.obj
 0001:0006da30       ??0_System_error@std@@QEAA@AEBV01@@Z 000000014006ea30 f i libcpmt:thread0.obj
 0001:0006da90       ??0error_code@std@@QEAA@HAEBVerror_category@1@@Z 000000014006ea90 f i libcpmt:thread0.obj
 0001:0006daa0       ??0error_condition@std@@QEAA@HAEBVerror_category@1@@Z 000000014006eaa0 f i libcpmt:thread0.obj
 0001:0006dab0       ??0runtime_error@std@@QEAA@AEBV?$basic_string@DU?$char_traits@D@std@@V?$allocator@D@2@@1@@Z 000000014006eab0 f i libcpmt:thread0.obj
 0001:0006db20       ??0system_error@std@@QEAA@AEBV01@@Z 000000014006eb20 f i libcpmt:thread0.obj
 0001:0006db90       ??0system_error@std@@QEAA@HAEBVerror_category@1@PEBD@Z 000000014006eb90 f i libcpmt:thread0.obj
 0001:0006dd10       ??1?$_Compressed_pair@V?$allocator@D@std@@V?$_String_val@U?$_Simple_types@D@std@@@2@$00@std@@QEAA@XZ 000000014006ed10 f i libcpmt:thread0.obj
 0001:0006dd20       ??1?$_String_val@U?$_Simple_types@D@std@@@std@@QEAA@XZ 000000014006ed20 f i libcpmt:thread0.obj
 0001:0006dd30       ??1?$basic_string@DU?$char_traits@D@std@@V?$allocator@D@2@@std@@QEAA@XZ 000000014006ed30 f i libcpmt:thread0.obj
 0001:0006de10       ??1_Bxty@?$_String_val@U?$_Simple_types@D@std@@@std@@QEAA@XZ 000000014006ee10 f i libcpmt:thread0.obj
 0001:0006de20       ??1_Generic_error_category@std@@UEAA@XZ 000000014006ee20 f i libcpmt:thread0.obj
 0001:0006de30       ??1_System_error@std@@UEAA@XZ 000000014006ee30 f i libcpmt:thread0.obj
 0001:0006de50       ??1error_category@std@@UEAA@XZ 000000014006ee50 f i libcpmt:thread0.obj
 0001:0006de60       ??1system_error@std@@UEAA@XZ 000000014006ee60 f i libcpmt:thread0.obj
 0001:0006de80       ??8error_category@std@@QEBA_NAEBV01@@Z 000000014006ee80 f i libcpmt:thread0.obj
 0001:0006de90       ??8std@@YA_NAEBVerror_condition@0@0@Z 000000014006ee90 f i libcpmt:thread0.obj
 0001:0006dec0       ??R<lambda_1>@?1???$_Append@D@?$basic_string@DU?$char_traits@D@std@@V?$allocator@D@2@@std@@AEAAAEAV12@QEBD_K@Z@SA@QEAD0101@Z 000000014006eec0 f i libcpmt:thread0.obj
 0001:0006df20       ??_E_Generic_error_category@std@@UEAAPEAXI@Z 000000014006ef20 f i libcpmt:thread0.obj
 0001:0006df20       ??_G_Generic_error_category@std@@UEAAPEAXI@Z 000000014006ef20 f i libcpmt:thread0.obj
 0001:0006df50       ??_E_System_error@std@@UEAAPEAXI@Z 000000014006ef50 f i libcpmt:thread0.obj
 0001:0006df50       ??_G_System_error@std@@UEAAPEAXI@Z 000000014006ef50 f i libcpmt:thread0.obj
 0001:0006dfb0       ??_Esystem_error@std@@UEAAPEAXI@Z 000000014006efb0 f i libcpmt:thread0.obj
 0001:0006dfb0       ??_Gsystem_error@std@@UEAAPEAXI@Z 000000014006efb0 f i libcpmt:thread0.obj
 0001:0006e010       ?_Activate_SSO_buffer@?$_String_val@U?$_Simple_types@D@std@@@std@@QEAAXXZ 000000014006f010 f i libcpmt:thread0.obj
 0001:0006e020       ?_Apply_annotation@?$basic_string@DU?$char_traits@D@std@@V?$allocator@D@2@@std@@CAXQEBD_K11@Z 000000014006f020 f i libcpmt:thread0.obj
 0001:0006e080       ?_Calculate_growth@?$basic_string@DU?$char_traits@D@std@@V?$allocator@D@2@@std@@AEBA_K_K@Z 000000014006f080 f i libcpmt:thread0.obj
 0001:0006e0d0       ?_Calculate_growth@?$basic_string@DU?$char_traits@D@std@@V?$allocator@D@2@@std@@CA_K_K00@Z 000000014006f0d0 f i libcpmt:thread0.obj
 0001:0006e110       ?_Clamp_to_end@_Asan_aligned_pointers@std@@QEBAPEBXPEBX@Z 000000014006f110 f i libcpmt:thread0.obj
 0001:0006e120       ?_Create_annotation@?$basic_string@DU?$char_traits@D@std@@V?$allocator@D@2@@std@@AEBAXXZ 000000014006f120 f i libcpmt:thread0.obj
 0001:0006e190       ?_Deallocate_for_capacity@?$basic_string@DU?$char_traits@D@std@@V?$allocator@D@2@@std@@CAXAEAV?$allocator@D@2@QEAD_K@Z 000000014006f190 f i libcpmt:thread0.obj
 0001:0006e1e0       ?_Get_asan_aligned_after@std@@YAPEBXQEBX@Z 000000014006f1e0 f i libcpmt:thread0.obj
 0001:0006e1f0       ?_Get_first@?$_Compressed_pair@V?$allocator@D@std@@V?$_String_val@U?$_Simple_types@D@std@@@2@$00@std@@QEAAAEAV?$allocator@D@2@XZ 000000014006f1f0 f i libcpmt:thread0.obj
 0001:0006e200       ?_Get_first@?$_Compressed_pair@V?$allocator@D@std@@V?$_String_val@U?$_Simple_types@D@std@@@2@$00@std@@QEBAAEBV?$allocator@D@2@XZ 000000014006f200 f i libcpmt:thread0.obj
 0001:0006e210       ?_Getal@?$basic_string@DU?$char_traits@D@std@@V?$allocator@D@2@@std@@AEAAAEAV?$allocator@D@2@XZ 000000014006f210 f i libcpmt:thread0.obj
 0001:0006e220       ?_Getal@?$basic_string@DU?$char_traits@D@std@@V?$allocator@D@2@@std@@AEBAAEBV?$allocator@D@2@XZ 000000014006f220 f i libcpmt:thread0.obj
 0001:0006e230       ?_Large_mode_engaged@?$_String_val@U?$_Simple_types@D@std@@@std@@QEBA_NXZ 000000014006f230 f i libcpmt:thread0.obj
 0001:0006e240       ?_Makestr@_System_error@std@@CA?AV?$basic_string@DU?$char_traits@D@std@@V?$allocator@D@2@@2@Verror_code@2@V32@@Z 000000014006f240 f i libcpmt:thread0.obj
 0001:0006e390       ?_Modify_annotation@?$basic_string@DU?$char_traits@D@std@@V?$allocator@D@2@@std@@AEBAX_K0@Z 000000014006f390 f i libcpmt:thread0.obj
 0001:0006e400       ?_Myptr@?$_String_val@U?$_Simple_types@D@std@@@std@@QEAAPEADXZ 000000014006f400 f i libcpmt:thread0.obj
 0001:0006e420       ?_Myptr@?$_String_val@U?$_Simple_types@D@std@@@std@@QEBAPEBDXZ 000000014006f420 f i libcpmt:thread0.obj
 0001:0006e440       ?_Remove_annotation@?$basic_string@DU?$char_traits@D@std@@V?$allocator@D@2@@std@@AEBAXXZ 000000014006f440 f i libcpmt:thread0.obj
 0001:0006e4b0       ?_Swap_proxy_and_iterators@?$basic_string@DU?$char_traits@D@std@@V?$allocator@D@2@@std@@AEAAXAEAV12@@Z 000000014006f4b0 f i libcpmt:thread0.obj
 0001:0006e4c0       ?_Switch_to_buf@_Bxty@?$_String_val@U?$_Simple_types@D@std@@@std@@QEAAXXZ 000000014006f4c0 f i libcpmt:thread0.obj
 0001:0006e4d0       ?_Take_contents@?$basic_string@DU?$char_traits@D@std@@V?$allocator@D@2@@std@@AEAAXAEAV12@@Z 000000014006f4d0 f i libcpmt:thread0.obj
 0001:0006e540       ?_Throw_C_error@std@@YAXH@Z 000000014006f540 f   libcpmt:thread0.obj
 0001:0006e590       ?_Throw_Cpp_error@std@@YAXH@Z 000000014006f590 f   libcpmt:thread0.obj
 0001:0006e5f0       ?_Tidy_deallocate@?$basic_string@DU?$char_traits@D@std@@V?$allocator@D@2@@std@@AEAAXXZ 000000014006f5f0 f i libcpmt:thread0.obj
 0001:0006e6d0       ?allocate@?$allocator@D@std@@QEAAPEAD_K@Z 000000014006f6d0 f i libcpmt:thread0.obj
 0001:0006e740       ?append@?$basic_string@DU?$char_traits@D@std@@V?$allocator@D@2@@std@@QEAAAEAV12@AEBV12@@Z 000000014006f740 f i libcpmt:thread0.obj
 0001:0006e760       ?append@?$basic_string@DU?$char_traits@D@std@@V?$allocator@D@2@@std@@QEAAAEAV12@QEBD@Z 000000014006f760 f i libcpmt:thread0.obj
 0001:0006e790       ?assign@?$_Narrow_char_traits@DH@std@@SAXAEADAEBD@Z 000000014006f790 f i libcpmt:thread0.obj
 0001:0006e7a0       ?c_str@?$basic_string@DU?$char_traits@D@std@@V?$allocator@D@2@@std@@QEBAPEBDXZ 000000014006f7a0 f i libcpmt:thread0.obj
 0001:0006e7c0       ?category@error_code@std@@QEBAAEBVerror_category@2@XZ 000000014006f7c0 f i libcpmt:thread0.obj
 0001:0006e7d0       ?category@error_condition@std@@QEBAAEBVerror_category@2@XZ 000000014006f7d0 f i libcpmt:thread0.obj
 0001:0006e7e0       ?copy@?$_Char_traits@DH@std@@SAPEADQEADQEBD_K@Z 000000014006f7e0 f i libcpmt:thread0.obj
 0001:0006e800       ?deallocate@?$allocator@D@std@@QEAAXQEAD_K@Z 000000014006f800 f i libcpmt:thread0.obj
 0001:0006e850       ?default_error_condition@error_category@std@@UEBA?AVerror_condition@2@H@Z 000000014006f850 f i libcpmt:thread0.obj
 0001:0006e860       ?empty@?$basic_string@DU?$char_traits@D@std@@V?$allocator@D@2@@std@@QEBA_NXZ 000000014006f860 f i libcpmt:thread0.obj
 0001:0006e870       ?equivalent@error_category@std@@UEBA_NAEBVerror_code@2@H@Z 000000014006f870 f i libcpmt:thread0.obj
 0001:0006e890       ?equivalent@error_category@std@@UEBA_NHAEBVerror_condition@2@@Z 000000014006f890 f i libcpmt:thread0.obj
 0001:0006e8f0       ?generic_category@std@@YAAEBVerror_category@1@XZ 000000014006f8f0 f i libcpmt:thread0.obj
 0001:0006e900       ?length@?$_Narrow_char_traits@DH@std@@SA_KQEBD@Z 000000014006f900 f i libcpmt:thread0.obj
 0001:0006e920       ?max_size@?$_Default_allocator_traits@V?$allocator@D@std@@@std@@SA_KAEBV?$allocator@D@2@@Z 000000014006f920 f i libcpmt:thread0.obj
 0001:0006e930       ?max_size@?$basic_string@DU?$char_traits@D@std@@V?$allocator@D@2@@std@@QEBA_KXZ 000000014006f930 f i libcpmt:thread0.obj
 0001:0006e940       ?message@_Generic_error_category@std@@UEBA?AV?$basic_string@DU?$char_traits@D@std@@V?$allocator@D@2@@2@H@Z 000000014006f940 f i libcpmt:thread0.obj
 0001:0006e9b0       ?message@error_code@std@@QEBA?AV?$basic_string@DU?$char_traits@D@std@@V?$allocator@D@2@@2@XZ 000000014006f9b0 f i libcpmt:thread0.obj
 0001:0006e9e0       ?move@?$_Char_traits@DH@std@@SAPEADQEADQEBD_K@Z 000000014006f9e0 f i libcpmt:thread0.obj
 0001:0006ea00       ?name@_Generic_error_category@std@@UEBAPEBDXZ 000000014006fa00 f i libcpmt:thread0.obj
 0001:0006ea10       ?select_on_container_copy_construction@?$_Default_allocator_traits@V?$allocator@D@std@@@std@@SA?AV?$allocator@D@2@AEBV32@@Z 000000014006fa10 f i libcpmt:thread0.obj
 0001:0006ea20       ?value@error_code@std@@QEBAHXZ 000000014006fa20 f i libcpmt:thread0.obj
 0001:0006ea30       ?value@error_condition@std@@QEBAHXZ 000000014006fa30 f i libcpmt:thread0.obj
 0001:0006ea40       ??$_Atomic_address_as@_JU?$_Atomic_padded@_J@std@@@std@@YAPEC_JAEAU?$_Atomic_padded@_J@0@@Z 000000014006fa40 f i libcpmt:xtime.obj
 0001:0006ea50       ??$_Atomic_address_as@_JU?$_Atomic_padded@_J@std@@@std@@YAPED_JAEBU?$_Atomic_padded@_J@0@@Z 000000014006fa50 f i libcpmt:xtime.obj
 0001:0006ea60       ??$_Bit_cast@_J_J$0A@@std@@YA_JAEB_J@Z 000000014006fa60 f i libcpmt:xtime.obj
 0001:0006ea70       ?_Check_load_memory_order@std@@YAXW4memory_order@1@@Z 000000014006fa70 f i libcpmt:xtime.obj
 0001:0006ea80       ?_Check_store_memory_order@std@@YAXW4memory_order@1@@Z 000000014006fa80 f i libcpmt:xtime.obj
 0001:0006eba0       ?load@?$_Atomic_storage@_J$07@std@@QEBA_JW4memory_order@2@@Z 000000014006fba0 f i libcpmt:xtime.obj
 0001:0006ebb0       ?store@?$_Atomic_storage@_J$07@std@@QEAAX_J@Z 000000014006fbb0 f i libcpmt:xtime.obj
 0001:0006ebc0       ?store@?$_Atomic_storage@_J$07@std@@QEAAX_JW4memory_order@2@@Z 000000014006fbc0 f i libcpmt:xtime.obj
 0001:0006ebe0       _Query_perf_counter        000000014006fbe0 f   libcpmt:xtime.obj
 0001:0006ec00       _Query_perf_frequency      000000014006fc00 f   libcpmt:xtime.obj
 0001:0006ec40       _Timespec64_get_sys        000000014006fc40 f   libcpmt:xtime.obj
 0001:0006ecc0       _Xtime_diff_to_millis      000000014006fcc0 f   libcpmt:xtime.obj
 0001:0006ede0       _Xtime_diff_to_millis2     000000014006fde0 f   libcpmt:xtime.obj
 0001:0006eea0       _Xtime_get_ticks           000000014006fea0 f   libcpmt:xtime.obj
 0001:0006eee0       xtime_get                  000000014006fee0 f   libcpmt:xtime.obj
 0001:0006ef10       ??0_Stl_critical_section@@QEAA@XZ 000000014006ff10 f i libcpmt:mutex.obj
 0001:0006ef20       _Mtx_current_owns          000000014006ff20 f   libcpmt:mutex.obj
 0001:0006ef60       _Mtx_destroy               000000014006ff60 f   libcpmt:mutex.obj
 0001:0006ef70       _Mtx_destroy_in_situ       000000014006ff70 f   libcpmt:mutex.obj
 0001:0006ef80       _Mtx_getconcrtcs           000000014006ff80 f   libcpmt:mutex.obj
 0001:0006ef90       _Mtx_init                  000000014006ff90 f   libcpmt:mutex.obj
 0001:0006f020       _Mtx_init_in_situ          0000000140070020 f   libcpmt:mutex.obj
 0001:0006f040       _Mtx_lock                  0000000140070040 f   libcpmt:mutex.obj
 0001:0006f0f0       _Mtx_timedlock             00000001400700f0 f   libcpmt:mutex.obj
 0001:0006f110       _Mtx_trylock               0000000140070110 f   libcpmt:mutex.obj
 0001:0006f1d0       _Mtx_unlock                00000001400701d0 f   libcpmt:mutex.obj
 0001:0006f200       _Thrd_abort                0000000140070200 f   libcpmt:mutex.obj
 0001:0006f250       __set_stl_sync_api_mode    0000000140070250 f   libcpmt:mutex.obj
 0001:0006f400       ??0_Cnd_internal_imp_t@@QEAA@XZ 0000000140070400 f i libcpmt:cond.obj
 0001:0006f410       ?_Primitive_notify_all@@YAXQEAU_Cnd_internal_imp_t@@@Z 0000000140070410 f i libcpmt:cond.obj
 0001:0006f420       ?_Primitive_notify_one@@YAXQEAU_Cnd_internal_imp_t@@@Z 0000000140070420 f i libcpmt:cond.obj
 0001:0006f430       ?_Primitive_wait@@YAXQEAU_Cnd_internal_imp_t@@QEAU_Mtx_internal_imp_t@@@Z 0000000140070430 f i libcpmt:cond.obj
 0001:0006f470       ?_Primitive_wait_for@@YA_NQEAU_Cnd_internal_imp_t@@QEAU_Mtx_internal_imp_t@@I@Z 0000000140070470 f i libcpmt:cond.obj
 0001:0006f4a0       _Cnd_broadcast             00000001400704a0 f   libcpmt:cond.obj
 0001:0006f4c0       _Cnd_destroy               00000001400704c0 f   libcpmt:cond.obj
 0001:0006f4d0       _Cnd_destroy_in_situ       00000001400704d0 f   libcpmt:cond.obj
 0001:0006f4e0       _Cnd_init                  00000001400704e0 f   libcpmt:cond.obj
 0001:0006f540       _Cnd_init_in_situ          0000000140070540 f   libcpmt:cond.obj
 0001:0006f550       _Cnd_signal                0000000140070550 f   libcpmt:cond.obj
 0001:0006f570       _Cnd_timedwait             0000000140070570 f   libcpmt:cond.obj
 0001:0006f690       _Cnd_wait                  0000000140070690 f   libcpmt:cond.obj
 0001:0006f6f0       _Mtx_clear_owner           00000001400706f0 f   libcpmt:cond.obj
 0001:0006f700       _Mtx_reset_owner           0000000140070700 f   libcpmt:cond.obj
 0001:0006f730       ?_Syserror_map@std@@YAPEBDH@Z 0000000140070730 f   libcpmt:syserror.obj
 0001:0006f770       ?_Winerror_map@std@@YAHH@Z 0000000140070770 f   libcpmt:syserror.obj
 0001:0006f7a0       ?_Winerror_message@std@@YAKKPEADK@Z 00000001400707a0 f   libcpmt:syserror.obj
 0001:0006f800       __std_get_string_size_without_trailing_whitespace 0000000140070800 f   libcpmt:syserror_import_lib.obj
 0001:0006f830       __std_system_error_allocate_message 0000000140070830 f   libcpmt:syserror_import_lib.obj
 0001:0006f940       __std_system_error_deallocate_message 0000000140070940 f   libcpmt:syserror_import_lib.obj
 0001:0006fd70       __GSHandlerCheck           0000000140070d70 f   LIBCMT:gshandler.obj
 0001:0006fda0       __GSHandlerCheckCommon     0000000140070da0 f   LIBCMT:gshandler.obj
 0001:0006fff0       __security_check_cookie    0000000140070ff0 f   LIBCMT:amdsecgs.obj
 0001:00070020       ??2@YAPEAX_K@Z             0000000140071020 f   LIBCMT:new_scalar.obj
 0001:00070080       ??3@YAXPEAX_K@Z            0000000140071080 f   LIBCMT:delete_scalar_size.obj
 0001:00070090       __GSHandlerCheck_EH4       0000000140071090 f   LIBCMT:gshandlereh4.obj
 0001:00070120       ??1type_info@@UEAA@XZ      0000000140071120 f   LIBCMT:std_type_info_static.obj
 0001:00070130       ??_Etype_info@@UEAAPEAXI@Z 0000000140071130 f i LIBCMT:std_type_info_static.obj
 0001:00070130       ??_Gtype_info@@UEAAPEAXI@Z 0000000140071130 f i LIBCMT:std_type_info_static.obj
 0001:000704a0       ?configure_argv@__scrt_wide_argv_policy@@SAHXZ 00000001400714a0 f i LIBCMT:exe_wwinmain.obj
 0001:000704c0       ?initialize_environment@__scrt_wide_environment_policy@@SAHXZ 00000001400714c0 f i LIBCMT:exe_wwinmain.obj
 0001:00070510       ?set_app_type@__scrt_winmain_policy@@SAXXZ 0000000140071510 f i LIBCMT:exe_wwinmain.obj
 0001:00070520       ?set_commode@__scrt_file_policy@@SAXXZ 0000000140071520 f i LIBCMT:exe_wwinmain.obj
 0001:00070540       ?set_fmode@__scrt_file_policy@@SAXXZ 0000000140071540 f i LIBCMT:exe_wwinmain.obj
 0001:00070560       wWinMainCRTStartup         0000000140071560 f   LIBCMT:exe_wwinmain.obj
 0001:00070580       __isa_available_init       0000000140071580 f   LIBCMT:cpu_disp.obj
 0001:000708e0       ??_V@YAXPEAX@Z             00000001400718e0 f   LIBCMT:delete_array.obj
 0001:000708f0       ??_U@YAPEAX_KAEBUnothrow_t@std@@@Z 00000001400718f0 f   LIBCMT:new_array_nothrow.obj
 0001:00070910       _guard_check_icall_nop     0000000140071910 f i LIBCMT:guard_support.obj
 0001:00070920       ReadNoFence64              0000000140071920 f i LIBCMT:guard_support.obj
 0001:00070930       ReadPointerNoFence         0000000140071930 f i LIBCMT:guard_support.obj
 0001:00070940       __castguard_check_failure_debugbreak 0000000140071940 f i LIBCMT:guard_support.obj
 0001:00070970       __castguard_check_failure_fastfail 0000000140071970 f i LIBCMT:guard_support.obj
 0001:000709a0       __castguard_check_failure_nop 00000001400719a0 f i LIBCMT:guard_support.obj
 0001:000709b0       __castguard_check_failure_os_handled 00000001400719b0 f i LIBCMT:guard_support.obj
 0001:00070a10       __castguard_check_failure_user_handled 0000000140071a10 f i LIBCMT:guard_support.obj
 0001:00070aa0       __castguard_set_user_handler 0000000140071aa0 f i LIBCMT:guard_support.obj
 0001:00070ab0       __castguard_slow_path_check_debugbreak 0000000140071ab0 f i LIBCMT:guard_support.obj
 0001:00070b00       __castguard_slow_path_check_fastfail 0000000140071b00 f i LIBCMT:guard_support.obj
 0001:00070b50       __castguard_slow_path_check_nop 0000000140071b50 f i LIBCMT:guard_support.obj
 0001:00070b60       __castguard_slow_path_check_os_handled 0000000140071b60 f i LIBCMT:guard_support.obj
 0001:00070bc0       __castguard_slow_path_check_user_handled 0000000140071bc0 f i LIBCMT:guard_support.obj
 0001:00070c40       _guard_icall_checks_enforced 0000000140071c40 f i LIBCMT:guard_support.obj
 0001:00070c60       _guard_rf_checks_enforced  0000000140071c60 f i LIBCMT:guard_support.obj
 0001:00070c70       __report_gsfailure         0000000140071c70 f   LIBCMT:gs_report.obj
 0001:00070c80       __report_rangecheckfailure 0000000140071c80 f   LIBCMT:gs_report.obj
 0001:00070c90       __report_securityfailure   0000000140071c90 f   LIBCMT:gs_report.obj
 0001:00070ca0       __report_securityfailureEx 0000000140071ca0 f   LIBCMT:gs_report.obj
 0001:00070cb0       ?__scrt_throw_std_bad_alloc@@YAXXZ 0000000140071cb0 f   LIBCMT:throw_bad_alloc.obj
 0001:00070ce0       ?__scrt_throw_std_bad_array_new_length@@YAXXZ 0000000140071ce0 f   LIBCMT:throw_bad_alloc.obj
 0001:00070d10       ??3@YAXPEAX@Z              0000000140071d10 f   LIBCMT:delete_scalar.obj
 0001:00070d20       ?configure_argv@__scrt_narrow_argv_policy@@SAHXZ 0000000140071d20 f i LIBCMT:utility.obj
 0001:00070da0       ?initialize_environment@__scrt_narrow_environment_policy@@SAHXZ 0000000140071da0 f i LIBCMT:utility.obj
 0001:00070df0       NtCurrentTeb               0000000140071df0 f i LIBCMT:utility.obj
 0001:00070e00       __scrt_acquire_startup_lock 0000000140071e00 f   LIBCMT:utility.obj
 0001:00070e60       __scrt_dllmain_after_initialize_c 0000000140071e60 f   LIBCMT:utility.obj
 0001:00070eb0       __scrt_dllmain_before_initialize_c 0000000140071eb0 f   LIBCMT:utility.obj
 0001:00070f50       __scrt_dllmain_crt_thread_attach 0000000140071f50 f   LIBCMT:utility.obj
 0001:00070f90       __scrt_dllmain_crt_thread_detach 0000000140071f90 f   LIBCMT:utility.obj
 0001:00070fb0       __scrt_dllmain_exception_filter 0000000140071fb0 f   LIBCMT:utility.obj
 0001:00071010       __scrt_dllmain_uninitialize_c 0000000140072010 f   LIBCMT:utility.obj
 0001:00071060       __scrt_dllmain_uninitialize_critical 0000000140072060 f   LIBCMT:utility.obj
 0001:00071080       __scrt_initialize_crt      0000000140072080 f   LIBCMT:utility.obj
 0001:000710d0       __scrt_initialize_onexit_tables 00000001400720d0 f   LIBCMT:utility.obj
 0001:00071190       __scrt_is_nonwritable_in_current_image 0000000140072190 f   LIBCMT:utility.obj
 0001:00071250       __scrt_release_startup_lock 0000000140072250 f   LIBCMT:utility.obj
 0001:00071280       __scrt_uninitialize_crt    0000000140072280 f   LIBCMT:utility.obj
 0001:000712c0       _onexit                    00000001400722c0 f   LIBCMT:utility.obj
 0001:00071320       at_quick_exit              0000000140072320 f   LIBCMT:utility.obj
 0001:00071350       atexit                     0000000140072350 f   LIBCMT:utility.obj
 0001:00071440       __security_init_cookie     0000000140072440 f   LIBCMT:gs_support.obj
 0001:00071530       _matherr                   0000000140072530 f   LIBCMT:matherr.obj
 0001:00071540       _get_startup_argv_mode     0000000140072540 f   LIBCMT:argv_mode.obj
 0001:00071550       _get_startup_commit_mode   0000000140072550 f   LIBCMT:commit_mode.obj
 0001:00071560       _get_startup_file_mode     0000000140072560 f   LIBCMT:file_mode.obj
 0001:00071570       _get_startup_new_mode      0000000140072570 f   LIBCMT:new_mode.obj
 0001:00071580       _get_startup_thread_locale_mode 0000000140072580 f   LIBCMT:thread_locale.obj
 0001:00071590       ?__scrt_initialize_type_info@@YAXXZ 0000000140072590 f   LIBCMT:tncleanup.obj
 0001:000715b0       ?__scrt_uninitialize_type_info@@YAXXZ 00000001400725b0 f   LIBCMT:tncleanup.obj
 0001:000715c0       _should_initialize_environment 00000001400725c0 f   LIBCMT:env_mode.obj
 0001:000715d0       _initialize_invalid_parameter_handler 00000001400725d0 f   LIBCMT:invalid_parameter_handler.obj
 0001:000715e0       _initialize_denormal_control 00000001400725e0 f   LIBCMT:denormal_control.obj
 0001:000715f0       __local_stdio_scanf_options 00000001400725f0 f i LIBCMT:default_local_stdio_options.obj
 0001:00071600       __scrt_initialize_default_local_stdio_options 0000000140072600 f   LIBCMT:default_local_stdio_options.obj
 0001:00071630       __scrt_is_user_matherr_present 0000000140072630 f   LIBCMT:matherr_detection.obj
 0001:00071640       __scrt_get_dyn_tls_init_callback 0000000140072640 f   LIBCMT:dyn_tls_init.obj
 0001:00071650       __scrt_get_dyn_tls_dtor_callback 0000000140072650 f   LIBCMT:dyn_tls_dtor.obj
 0001:00071660       __crt_debugger_hook        0000000140072660 f   LIBCMT:utility_desktop.obj
 0001:00071670       __scrt_fastfail            0000000140072670 f   LIBCMT:utility_desktop.obj
 0001:00071680       __scrt_get_show_window_mode 0000000140072680 f   LIBCMT:utility_desktop.obj
 0001:000716f0       __scrt_initialize_mta      00000001400726f0 f   LIBCMT:utility_desktop.obj
 0001:00071700       __scrt_initialize_winrt    0000000140072700 f   LIBCMT:utility_desktop.obj
 0001:00071710       __scrt_is_managed_app      0000000140072710 f   LIBCMT:utility_desktop.obj
 0001:00071780       __scrt_set_unhandled_exception_filter 0000000140072780 f   LIBCMT:utility_desktop.obj
 0001:000717a0       __scrt_exe_initialize_mta  00000001400727a0 f   LIBCMT:utility_desktop.obj
 0001:000717a0       __scrt_stub_for_initialize_mta 00000001400727a0 f   LIBCMT:utility_desktop.obj
 0001:000717b0       __scrt_unhandled_exception_filter 00000001400727b0 f   LIBCMT:utility_desktop.obj
 0001:00071830       _RTC_Initialize            0000000140072830 f   LIBCMT:initsect.obj
 0001:00071890       _RTC_Terminate             0000000140072890 f   LIBCMT:initsect.obj
 0001:000718f0       ??_U@YAPEAX_K@Z            00000001400728f0 f   LIBCMT:new_array.obj
 0001:00071900       __scrt_is_ucrt_dll_in_use  0000000140072900 f   LIBCMT:ucrt_detection.obj
 0001:00071910       ??$?0AEAViterator@TryBlockMap4@FH4@@AEAV012@$0A@@?$pair@Viterator@TryBlockMap4@FH4@@V123@@std@@QEAA@AEAViterator@TryBlockMap4@FH4@@0@Z 0000000140072910 f i libvcruntime:risctrnsctrl.obj
 0001:00071930       ??$?0AEAViterator@TryBlockMap@__FrameHandler3@@AEAV012@$0A@@?$pair@Viterator@TryBlockMap@__FrameHandler3@@V123@@std@@QEAA@AEAViterator@TryBlockMap@__FrameHandler3@@0@Z 0000000140072930 f i libvcruntime:risctrnsctrl.obj
 0001:00071af0       ??$_CallSETranslator@V__FrameHandler3@@@@YAHPEAUEHExceptionRecord@@PEA_KPEAU_CONTEXT@@PEAU_xDISPATCHER_CONTEXT@@PEBU_s_FuncInfo@@K1H@Z 0000000140072af0 f i libvcruntime:risctrnsctrl.obj
 0001:00071b60       ??$_CallSETranslator@V__FrameHandler4@@@@YAHPEAUEHExceptionRecord@@PEA_KPEAU_CONTEXT@@PEAU_xDISPATCHER_CONTEXT@@PEAUFuncInfo4@FH4@@K1H@Z 0000000140072b60 f i libvcruntime:risctrnsctrl.obj
 0001:00071bd0       ??$forward@AEAViterator@TryBlockMap4@FH4@@@std@@YAAEAViterator@TryBlockMap4@FH4@@AEAV123@@Z 0000000140072bd0 f i libvcruntime:risctrnsctrl.obj
 0001:00071be0       ??$forward@AEAViterator@TryBlockMap@__FrameHandler3@@@std@@YAAEAViterator@TryBlockMap@__FrameHandler3@@AEAV123@@Z 0000000140072be0 f i libvcruntime:risctrnsctrl.obj
 0001:00071bf0       ??0FuncInfo4@FH4@@QEAA@XZ  0000000140072bf0 f i libvcruntime:risctrnsctrl.obj
 0001:00071c10       ??0FuncInfoHeader@FH4@@QEAA@XZ 0000000140072c10 f i libvcruntime:risctrnsctrl.obj
 0001:00071c20       ??0iterator@TryBlockMap4@FH4@@QEAA@AEAV12@I@Z 0000000140072c20 f i libvcruntime:risctrnsctrl.obj
 0001:00071c30       ??0iterator@TryBlockMap@__FrameHandler3@@QEAA@AEAV12@I@Z 0000000140072c30 f i libvcruntime:risctrnsctrl.obj
 0001:00071c40       ??4iterator@TryBlockMap4@FH4@@QEAAAEAV012@AEBV012@@Z 0000000140072c40 f i libvcruntime:risctrnsctrl.obj
 0001:00071c50       ??9iterator@TryBlockMap4@FH4@@QEBA_NAEBV012@@Z 0000000140072c50 f i libvcruntime:risctrnsctrl.obj
 0001:00071c60       ??Diterator@TryBlockMap4@FH4@@QEAA?AUTryBlockMapEntry4@2@XZ 0000000140072c60 f i libvcruntime:risctrnsctrl.obj
 0001:00071c80       ??Eiterator@TryBlockMap4@FH4@@QEAAAEAV012@XZ 0000000140072c80 f i libvcruntime:risctrnsctrl.obj
 0001:00071d50       ?CatchTryBlock@__FrameHandler3@@SAPEBU_s_TryBlockMapEntry@@PEBU_s_FuncInfo@@H@Z 0000000140072d50 f   libvcruntime:risctrnsctrl.obj
 0001:00071dc0       ?DecompFuncInfo@FH4@@YA_JPEAEAEAUFuncInfo4@1@_KH@Z 0000000140072dc0 f i libvcruntime:risctrnsctrl.obj
 0001:00071de0       ?DecompFuncInfo@FH4@@YA_JPEAEAEAUFuncInfo4@1@_KH_N@Z 0000000140072de0 f i libvcruntime:risctrnsctrl.obj
 0001:00071f40       ?DecompTryBlock@TryBlockMap4@FH4@@AEAAXXZ 0000000140072f40 f i libvcruntime:risctrnsctrl.obj
 0001:00072000       ?ExecutionInCatch@__FrameHandler3@@SA_NPEAU_xDISPATCHER_CONTEXT@@PEBU_s_FuncInfo@@@Z 0000000140073000 f   libvcruntime:risctrnsctrl.obj
 0001:00072080       ?ExecutionInCatch@__FrameHandler4@@SA_NPEAU_xDISPATCHER_CONTEXT@@PEAUFuncInfo4@FH4@@@Z 0000000140073080 f   libvcruntime:risctrnsctrl.obj
 0001:00072090       ?FrameUnwindToEmptyState@__FrameHandler3@@SAXPEA_KPEAU_xDISPATCHER_CONTEXT@@PEBU_s_FuncInfo@@@Z 0000000140073090 f   libvcruntime:risctrnsctrl.obj
 0001:00072210       ?FrameUnwindToEmptyState@__FrameHandler4@@SAXPEA_KPEAU_xDISPATCHER_CONTEXT@@PEAUFuncInfo4@FH4@@@Z 0000000140073210 f   libvcruntime:risctrnsctrl.obj
 0001:00072260       ?GetEstablisherFrame@__FrameHandler3@@SAPEA_KPEA_KPEAU_xDISPATCHER_CONTEXT@@PEBU_s_FuncInfo@@0@Z 0000000140073260 f   libvcruntime:risctrnsctrl.obj
 0001:00072390       ?GetEstablisherFrame@__FrameHandler4@@SAPEA_KPEA_KPEAU_xDISPATCHER_CONTEXT@@PEAUFuncInfo4@FH4@@0@Z 0000000140073390 f   libvcruntime:risctrnsctrl.obj
 0001:000723c0       ?GetRangeOfTrysToCheck@__FrameHandler3@@SA?AU?$pair@Viterator@TryBlockMap@__FrameHandler3@@V123@@std@@AEAVTryBlockMap@1@HPEAU_xDISPATCHER_CONTEXT@@PEBU_s_FuncInfo@@H@Z 00000001400733c0 f   libvcruntime:risctrnsctrl.obj
 0001:00072540       ?GetRangeOfTrysToCheck@__FrameHandler4@@SA?AU?$pair@Viterator@TryBlockMap4@FH4@@V123@@std@@AEAVTryBlockMap4@FH4@@HPEAU_xDISPATCHER_CONTEXT@@PEAUFuncInfo4@5@H@Z 0000000140073540 f   libvcruntime:risctrnsctrl.obj
 0001:00072720       ?ReadInt@FH4@@YAHPEAPEAE@Z 0000000140073720 f i libvcruntime:risctrnsctrl.obj
 0001:00072730       ?ReadUnsigned@FH4@@YAIPEAPEAE@Z 0000000140073730 f i libvcruntime:risctrnsctrl.obj
 0001:00072770       ?UnwindNestedFrames@__FrameHandler3@@SAXPEA_KPEAUEHExceptionRecord@@PEAU_CONTEXT@@0PEAXPEBU_s_FuncInfo@@HHPEBU_s_HandlerType@@PEAU_xDISPATCHER_CONTEXT@@E@Z 0000000140073770 f   libvcruntime:risctrnsctrl.obj
 0001:000728f0       ?UnwindNestedFrames@__FrameHandler4@@SAXPEA_KPEAUEHExceptionRecord@@PEAU_CONTEXT@@0PEAXPEAUFuncInfo4@FH4@@HHPEAUHandlerType4@5@PEAU_xDISPATCHER_CONTEXT@@E@Z 00000001400738f0 f   libvcruntime:risctrnsctrl.obj
 0001:00072ad0       ?begin@TryBlockMap4@FH4@@QEAA?AViterator@12@XZ 0000000140073ad0 f i libvcruntime:risctrnsctrl.obj
 0001:00072af0       ?end@TryBlockMap4@FH4@@QEAA?AViterator@12@XZ 0000000140073af0 f i libvcruntime:risctrnsctrl.obj
 0001:00072b00       ?imageRelToByteBuffer@FH4@@YAPEAE_KH@Z 0000000140073b00 f i libvcruntime:risctrnsctrl.obj
 0001:00072b10       ?incrementToSentinel@iterator@TryBlockMap4@FH4@@QEAAXXZ 0000000140073b10 f i libvcruntime:risctrnsctrl.obj
 0001:00072b20       ?setBuffer@TryBlockMap4@FH4@@QEAAXViterator@12@@Z 0000000140073b20 f i libvcruntime:risctrnsctrl.obj
 0001:00072d90       _CreateFrameInfo           0000000140073d90 f   libvcruntime:risctrnsctrl.obj
 0001:00072de0       _FindAndUnlinkFrame        0000000140073de0 f   libvcruntime:risctrnsctrl.obj
 0001:00072e50       _GetImageBase              0000000140073e50 f   libvcruntime:risctrnsctrl.obj
 0001:00072e70       _GetThrowImageBase         0000000140073e70 f   libvcruntime:risctrnsctrl.obj
 0001:00072e90       _SetImageBase              0000000140073e90 f   libvcruntime:risctrnsctrl.obj
 0001:00072eb0       _SetThrowImageBase         0000000140073eb0 f   libvcruntime:risctrnsctrl.obj
 0001:00072ed0       __CxxFrameHandler          0000000140073ed0 f   libvcruntime:risctrnsctrl.obj
 0001:00072ee0       __CxxFrameHandler2         0000000140073ee0 f   libvcruntime:risctrnsctrl.obj
 0001:00072ef0       __CxxFrameHandler3         0000000140073ef0 f   libvcruntime:risctrnsctrl.obj
 0001:00072f80       __CxxFrameHandler4         0000000140073f80 f   libvcruntime:risctrnsctrl.obj
 0001:00073070       ??$__crt_interlocked_exchange_pointer@$$A6AXXZP6AXXZ@@YAP6AXXZPEDS6AXXZQ6AXXZ@Z 0000000140074070 f i libvcruntime:purevirt.obj
 0001:00073080       ??$__crt_interlocked_read_pointer@$$A6AXXZ@@YAP6AXXZPEDS6AXXZ@Z 0000000140074080 f i libvcruntime:purevirt.obj
 0001:00073090       ?__crt_interlocked_read_64@@YA_JPED_J@Z 0000000140074090 f i libvcruntime:purevirt.obj
 0001:000730a0       _get_purecall_handler      00000001400740a0 f   libvcruntime:purevirt.obj
 0001:000730b0       _purecall                  00000001400740b0 f   libvcruntime:purevirt.obj
 0001:000730d0       _set_purecall_handler      00000001400740d0 f   libvcruntime:purevirt.obj
 0001:000730e0       ??$?RD@__crt_public_free_policy@@QEBAXQEBD@Z 00000001400740e0 f i libvcruntime:std_exception.obj
 0001:000730f0       ??0?$__crt_unique_heap_ptr@DU__crt_public_free_policy@@@@QEAA@QEAD@Z 00000001400740f0 f i libvcruntime:std_exception.obj
 0001:00073100       ??1?$__crt_unique_heap_ptr@DU__crt_public_free_policy@@@@QEAA@XZ 0000000140074100 f i libvcruntime:std_exception.obj
 0001:00073130       ??B?$__crt_unique_heap_ptr@DU__crt_public_free_policy@@@@QEBA_NXZ 0000000140074130 f i libvcruntime:std_exception.obj
 0001:00073140       ?detach@?$__crt_unique_heap_ptr@DU__crt_public_free_policy@@@@QEAAPEADXZ 0000000140074140 f i libvcruntime:std_exception.obj
 0001:00073150       ?get@?$__crt_unique_heap_ptr@DU__crt_public_free_policy@@@@QEBAPEADXZ 0000000140074150 f i libvcruntime:std_exception.obj
 0001:00073160       ?is_valid@?$__crt_unique_heap_ptr@DU__crt_public_free_policy@@@@QEBA_NXZ 0000000140074160 f i libvcruntime:std_exception.obj
 0001:00073170       ?release@?$__crt_unique_heap_ptr@DU__crt_public_free_policy@@@@QEAAXXZ 0000000140074170 f i libvcruntime:std_exception.obj
 0001:000731a0       __std_exception_copy       00000001400741a0 f   libvcruntime:std_exception.obj
 0001:00073260       __std_exception_destroy    0000000140074260 f   libvcruntime:std_exception.obj
 0001:000732b0       _CxxThrowException         00000001400742b0 f   libvcruntime:throw.obj
 0001:00073390       __DestructExceptionObject  0000000140074390 f   libvcruntime:ehhelpers.obj
 0001:00073420       ?_CallMemberFunction0@@YAXQEAX0@Z 0000000140074420 f i libvcruntime:ehhelpers.obj
 0001:000734a0       ?raw_name@type_info@@QEBAPEBDXZ 00000001400744a0 f i libvcruntime:ehhelpers.obj
 0001:000734b0       _IsExceptionObjectToBeDestroyed 00000001400744b0 f   libvcruntime:ehhelpers.obj
 0001:00073500       _SetWinRTOutOfMemoryExceptionCallback 0000000140074500 f   libvcruntime:ehhelpers.obj
 0001:00073510       __AdjustPointer            0000000140074510 f   libvcruntime:ehhelpers.obj
 0001:00073550       __FrameUnwindFilter        0000000140074550 f   libvcruntime:ehhelpers.obj
 0001:000735d0       __GetPlatformExceptionInfo 00000001400745d0 f   libvcruntime:ehhelpers.obj
 0001:00073710       __current_exception        0000000140074710 f   libvcruntime:ehhelpers.obj
 0001:00073730       __current_exception_context 0000000140074730 f   libvcruntime:ehhelpers.obj
 0001:00073750       __processing_throw         0000000140074750 f   libvcruntime:ehhelpers.obj
 0001:00073770       __std_terminate            0000000140074770 f   libvcruntime:ehhelpers.obj
 0001:00073780       _is_exception_typeof       0000000140074780 f   libvcruntime:ehhelpers.obj
 0001:000738a0       __C_specific_handler       00000001400748a0 f   libvcruntime:riscchandler.obj
 0001:00073b40       __vcrt_initialize          0000000140074b40 f   libvcruntime:initialization.obj
 0001:00073b80       __vcrt_thread_attach       0000000140074b80 f   libvcruntime:initialization.obj
 0001:00073ba0       __vcrt_thread_detach       0000000140074ba0 f   libvcruntime:initialization.obj
 0001:00073bc0       __vcrt_uninitialize        0000000140074bc0 f   libvcruntime:initialization.obj
 0001:00073be0       __vcrt_uninitialize_critical 0000000140074be0 f   libvcruntime:initialization.obj
 0001:00073c20       ??$?RD@__crt_internal_free_policy@@QEBAXQEBD@Z 0000000140074c20 f i libvcruntime:std_type_info.obj
 0001:00073c30       ??$?RX@__crt_internal_free_policy@@QEBAXQEBX@Z 0000000140074c30 f i libvcruntime:std_type_info.obj
 0001:00073c40       ??$__crt_interlocked_compare_exchange_pointer@$$CBDPEAD$$T@@YAPEBDPEDSEBDQEAD$$T@Z 0000000140074c40 f i libvcruntime:std_type_info.obj
 0001:00073c50       ??$__crt_interlocked_read_pointer@$$CBD@@YAPEBDPEDSEBD@Z 0000000140074c50 f i libvcruntime:std_type_info.obj
 0001:00073c60       ??0?$__crt_unique_heap_ptr@DU__crt_internal_free_policy@@@@QEAA@QEAD@Z 0000000140074c60 f i libvcruntime:std_type_info.obj
 0001:00073c70       ??0?$__crt_unique_heap_ptr@XU__crt_internal_free_policy@@@@QEAA@QEAX@Z 0000000140074c70 f i libvcruntime:std_type_info.obj
 0001:00073c80       ??1?$__crt_unique_heap_ptr@DU__crt_internal_free_policy@@@@QEAA@XZ 0000000140074c80 f i libvcruntime:std_type_info.obj
 0001:00073cb0       ??1?$__crt_unique_heap_ptr@XU__crt_internal_free_policy@@@@QEAA@XZ 0000000140074cb0 f i libvcruntime:std_type_info.obj
 0001:00073ce0       ??B?$__crt_unique_heap_ptr@DU__crt_internal_free_policy@@@@QEBA_NXZ 0000000140074ce0 f i libvcruntime:std_type_info.obj
 0001:00073cf0       ??B?$__crt_unique_heap_ptr@XU__crt_internal_free_policy@@@@QEBA_NXZ 0000000140074cf0 f i libvcruntime:std_type_info.obj
 0001:00073d20       ?detach@?$__crt_unique_heap_ptr@XU__crt_internal_free_policy@@@@QEAAPEAXXZ 0000000140074d20 f i libvcruntime:std_type_info.obj
 0001:00073d30       ?get@?$__crt_unique_heap_ptr@DU__crt_internal_free_policy@@@@QEBAPEADXZ 0000000140074d30 f i libvcruntime:std_type_info.obj
 0001:00073d40       ?get@?$__crt_unique_heap_ptr@XU__crt_internal_free_policy@@@@QEBAPEAXXZ 0000000140074d40 f i libvcruntime:std_type_info.obj
 0001:00073d50       ?is_valid@?$__crt_unique_heap_ptr@DU__crt_internal_free_policy@@@@QEBA_NXZ 0000000140074d50 f i libvcruntime:std_type_info.obj
 0001:00073d60       ?is_valid@?$__crt_unique_heap_ptr@XU__crt_internal_free_policy@@@@QEBA_NXZ 0000000140074d60 f i libvcruntime:std_type_info.obj
 0001:00073d70       ?release@?$__crt_unique_heap_ptr@DU__crt_internal_free_policy@@@@QEAAXXZ 0000000140074d70 f i libvcruntime:std_type_info.obj
 0001:00073da0       ?release@?$__crt_unique_heap_ptr@XU__crt_internal_free_policy@@@@QEAAXXZ 0000000140074da0 f i libvcruntime:std_type_info.obj
 0001:00073dd0       __std_type_info_compare    0000000140074dd0 f   libvcruntime:std_type_info.obj
 0001:00073e10       __std_type_info_destroy_list 0000000140074e10 f   libvcruntime:std_type_info.obj
 0001:00073e50       __std_type_info_hash       0000000140074e50 f   libvcruntime:std_type_info.obj
 0001:00073ea0       __std_type_info_name       0000000140074ea0 f   libvcruntime:std_type_info.obj
 0001:00074010       ??$?RU__vcrt_ptd@@@__crt_internal_free_policy@@QEBAXQEBU__vcrt_ptd@@@Z 0000000140075010 f i libvcruntime:per_thread_data.obj
 0001:00074020       ??0?$__crt_unique_heap_ptr@U__vcrt_ptd@@U__crt_internal_free_policy@@@@QEAA@QEAU__vcrt_ptd@@@Z 0000000140075020 f i libvcruntime:per_thread_data.obj
 0001:00074050       ??1?$__crt_unique_heap_ptr@U__vcrt_ptd@@U__crt_internal_free_policy@@@@QEAA@XZ 0000000140075050 f i libvcruntime:per_thread_data.obj
 0001:00074090       ??B?$__crt_unique_heap_ptr@U__vcrt_ptd@@U__crt_internal_free_policy@@@@QEBA_NXZ 0000000140075090 f i libvcruntime:per_thread_data.obj
 0001:000740a0       ?detach@?$__crt_unique_heap_ptr@U__vcrt_ptd@@U__crt_internal_free_policy@@@@QEAAPEAU__vcrt_ptd@@XZ 00000001400750a0 f i libvcruntime:per_thread_data.obj
 0001:000740b0       ?get@?$__crt_unique_heap_ptr@U__vcrt_ptd@@U__crt_internal_free_policy@@@@QEBAPEAU__vcrt_ptd@@XZ 00000001400750b0 f i libvcruntime:per_thread_data.obj
 0001:000740c0       ?is_valid@?$__crt_unique_heap_ptr@U__vcrt_ptd@@U__crt_internal_free_policy@@@@QEBA_NXZ 00000001400750c0 f i libvcruntime:per_thread_data.obj
 0001:000740d0       ?release@?$__crt_unique_heap_ptr@U__vcrt_ptd@@U__crt_internal_free_policy@@@@QEAAXXZ 00000001400750d0 f i libvcruntime:per_thread_data.obj
 0001:00074140       __vcrt_freefls             0000000140075140 f   libvcruntime:per_thread_data.obj
 0001:00074160       __vcrt_freeptd_for_this_thread 0000000140075160 f   libvcruntime:per_thread_data.obj
 0001:000741d0       __vcrt_getptd              00000001400751d0 f   libvcruntime:per_thread_data.obj
 0001:000742e0       __vcrt_getptd_noexit       00000001400752e0 f   libvcruntime:per_thread_data.obj
 0001:000743f0       __vcrt_getptd_noinit       00000001400753f0 f   libvcruntime:per_thread_data.obj
 0001:00074460       __vcrt_initialize_ptd      0000000140075460 f   libvcruntime:per_thread_data.obj
 0001:000744e0       __vcrt_uninitialize_ptd    00000001400754e0 f   libvcruntime:per_thread_data.obj
 0001:00074510       ?GetCurrentState@__FrameHandler3@@SAHPEA_KPEAU_xDISPATCHER_CONTEXT@@PEBU_s_FuncInfo@@@Z 0000000140075510 f   libvcruntime:ehstate.obj
 0001:000745c0       ?GetUnwindTryBlock@__FrameHandler3@@SAHPEA_KPEAU_xDISPATCHER_CONTEXT@@PEBU_s_FuncInfo@@@Z 00000001400755c0 f   libvcruntime:ehstate.obj
 0001:00074600       ?SetState@__FrameHandler3@@SAXPEA_KPEAU_xDISPATCHER_CONTEXT@@PEBU_s_FuncInfo@@H@Z 0000000140075600 f   libvcruntime:ehstate.obj
 0001:00074610       ?SetUnwindTryBlock@__FrameHandler3@@SAXPEA_KPEAU_xDISPATCHER_CONTEXT@@PEBU_s_FuncInfo@@H@Z 0000000140075610 f   libvcruntime:ehstate.obj
 0001:00074660       ?StateFromControlPc@__FrameHandler3@@SAHPEBU_s_FuncInfo@@PEAU_xDISPATCHER_CONTEXT@@@Z 0000000140075660 f   libvcruntime:ehstate.obj
 0001:000746f0       ?StateFromControlPc@__FrameHandler4@@SAHPEAUFuncInfo4@FH4@@PEAU_xDISPATCHER_CONTEXT@@@Z 00000001400756f0 f   libvcruntime:ehstate.obj
 0001:00074830       ?StateFromIp@__FrameHandler3@@SAHPEBU_s_FuncInfo@@PEAU_xDISPATCHER_CONTEXT@@_K@Z 0000000140075830 f   libvcruntime:ehstate.obj
 0001:000748c0       ?StateFromIp@__FrameHandler4@@SAHPEAUFuncInfo4@FH4@@PEAU_xDISPATCHER_CONTEXT@@_K@Z 00000001400758c0 f   libvcruntime:ehstate.obj
 0001:000749f0       ?__FuncRelToRealOffset@@YA_KPEAU_xDISPATCHER_CONTEXT@@I@Z 00000001400759f0 f i libvcruntime:ehstate.obj
 0001:00074a10       ?__RVAtoRealOffset@@YA_KPEAU_xDISPATCHER_CONTEXT@@H@Z 0000000140075a10 f i libvcruntime:ehstate.obj
 0001:00076860       ??$TypeMatchHelper@V__FrameHandler3@@@@YAHPEBU_s_HandlerType@@PEBU_s_CatchableType@@PEBU_s_ThrowInfo@@@Z 0000000140077860 f i libvcruntime:frame.obj
 0001:000769d0       ??$TypeMatchHelper@V__FrameHandler4@@@@YAHPEAUHandlerType4@FH4@@PEBU_s_CatchableType@@PEBU_s_ThrowInfo@@@Z 00000001400779d0 f i libvcruntime:frame.obj
 0001:00076b50       ??$__InternalCxxFrameHandler@V__FrameHandler3@@@@YA?AW4_EXCEPTION_DISPOSITION@@PEAUEHExceptionRecord@@PEA_KPEAU_CONTEXT@@PEAU_xDISPATCHER_CONTEXT@@PEBU_s_FuncInfo@@H1E@Z 0000000140077b50 f i libvcruntime:frame.obj
 0001:00076e10       ??$__InternalCxxFrameHandler@V__FrameHandler4@@@@YA?AW4_EXCEPTION_DISPOSITION@@PEAUEHExceptionRecord@@PEA_KPEAU_CONTEXT@@PEAU_xDISPATCHER_CONTEXT@@PEAUFuncInfo4@FH4@@H1E@Z 0000000140077e10 f i libvcruntime:frame.obj
 0001:00077100       ??$__InternalCxxFrameHandlerWrapper@V__FrameHandler3@@@@YA?AW4_EXCEPTION_DISPOSITION@@PEAUEHExceptionRecord@@PEA_KPEAU_CONTEXT@@PEAU_xDISPATCHER_CONTEXT@@PEBU_s_FuncInfo@@H1E@Z 0000000140078100 f i libvcruntime:frame.obj
 0001:00077120       ??$__InternalCxxFrameHandlerWrapper@V__FrameHandler4@@@@YA?AW4_EXCEPTION_DISPOSITION@@PEAUEHExceptionRecord@@PEA_KPEAU_CONTEXT@@PEAU_xDISPATCHER_CONTEXT@@PEAUFuncInfo4@FH4@@H1E@Z 0000000140078120 f i libvcruntime:frame.obj
 0001:00077190       ??0HandlerMap4@FH4@@QEAA@PEBUTryBlockMapEntry4@1@_KH@Z 0000000140078190 f i libvcruntime:frame.obj
 0001:00077240       ??0HandlerMap@__FrameHandler3@@QEAA@PEBU_s_TryBlockMapEntry@@_KI@Z 0000000140078240 f i libvcruntime:frame.obj
 0001:00077260       ??0HandlerType4@FH4@@QEAA@XZ 0000000140078260 f i libvcruntime:frame.obj
 0001:00077280       ??0TryBlockMap4@FH4@@QEAA@PEBUFuncInfo4@1@_K@Z 0000000140078280 f i libvcruntime:frame.obj
 0001:000773b0       ??0TryBlockMap@__FrameHandler3@@QEAA@PEBU_s_FuncInfo@@_K@Z 00000001400783b0 f i libvcruntime:frame.obj
 0001:000773c0       ??0UWMap4@FH4@@QEAA@PEBUFuncInfo4@1@_K@Z 00000001400783c0 f i libvcruntime:frame.obj
 0001:00077430       ??0bad_exception@std@@QEAA@AEBV01@@Z 0000000140078430 f i libvcruntime:frame.obj
 0001:00077480       ??0bad_exception@std@@QEAA@XZ 0000000140078480 f i libvcruntime:frame.obj
 0001:000774b0       ??0iterator@HandlerMap4@FH4@@QEAA@AEAV12@I@Z 00000001400784b0 f i libvcruntime:frame.obj
 0001:000774c0       ??0iterator@HandlerMap@__FrameHandler3@@QEAA@AEAV12@I@Z 00000001400784c0 f i libvcruntime:frame.obj
 0001:000774d0       ??0iterator@UWMap4@FH4@@QEAA@AEAV12@PEAE@Z 00000001400784d0 f i libvcruntime:frame.obj
 0001:000774e0       ??1bad_exception@std@@UEAA@XZ 00000001400784e0 f i libvcruntime:frame.obj
 0001:00077500       ??4iterator@UWMap4@FH4@@QEAAAEAV012@AEBV012@@Z 0000000140078500 f i libvcruntime:frame.obj
 0001:00077530       ??8iterator@HandlerMap4@FH4@@QEBA_NAEBV012@@Z 0000000140078530 f i libvcruntime:frame.obj
 0001:00077540       ??8iterator@HandlerMap@__FrameHandler3@@QEBA_NAEBV012@@Z 0000000140078540 f i libvcruntime:frame.obj
 0001:00077550       ??8type_info@@QEBA_NAEBV0@@Z 0000000140078550 f i libvcruntime:frame.obj
 0001:00077580       ??9iterator@HandlerMap4@FH4@@QEBA_NAEBV012@@Z 0000000140078580 f i libvcruntime:frame.obj
 0001:00077590       ??9iterator@HandlerMap@__FrameHandler3@@QEBA_NAEBV012@@Z 0000000140078590 f i libvcruntime:frame.obj
 0001:000775a0       ??Diterator@HandlerMap4@FH4@@QEAA?AUHandlerType4@2@XZ 00000001400785a0 f i libvcruntime:frame.obj
 0001:000775d0       ??Diterator@HandlerMap@__FrameHandler3@@QEAA?BU_s_HandlerType@@XZ 00000001400785d0 f i libvcruntime:frame.obj
 0001:00077600       ??Diterator@TryBlockMap@__FrameHandler3@@QEAA?BU_s_TryBlockMapEntry@@XZ 0000000140078600 f i libvcruntime:frame.obj
 0001:00077640       ??Diterator@UWMap4@FH4@@QEAA?AUUnwindMapEntry4@2@XZ 0000000140078640 f i libvcruntime:frame.obj
 0001:00077690       ??Eiterator@HandlerMap4@FH4@@QEAAAEAV012@XZ 0000000140078690 f i libvcruntime:frame.obj
 0001:000776c0       ??Eiterator@HandlerMap@__FrameHandler3@@QEAAAEAV012@XZ 00000001400786c0 f i libvcruntime:frame.obj
 0001:000776d0       ??Eiterator@TryBlockMap@__FrameHandler3@@QEAAAEAV012@XZ 00000001400786d0 f i libvcruntime:frame.obj
 0001:000776e0       ??Eiterator@UWMap4@FH4@@QEAAAEAV012@XZ 00000001400786e0 f i libvcruntime:frame.obj
 0001:00077710       ??Giterator@UWMap4@FH4@@QEBA_JAEBV012@@Z 0000000140078710 f i libvcruntime:frame.obj
 0001:00077720       ??Miterator@TryBlockMap4@FH4@@QEBA_NAEBV012@@Z 0000000140078720 f i libvcruntime:frame.obj
 0001:00077730       ??Miterator@TryBlockMap@__FrameHandler3@@QEBA_NAEBV012@@Z 0000000140078730 f i libvcruntime:frame.obj
 0001:00077740       ??Oiterator@UWMap4@FH4@@QEBA_NAEBV012@@Z 0000000140078740 f i libvcruntime:frame.obj
 0001:00077750       ??Piterator@UWMap4@FH4@@QEBA_NAEBV012@@Z 0000000140078750 f i libvcruntime:frame.obj
 0001:00077760       ??_Ebad_exception@std@@UEAAPEAXI@Z 0000000140078760 f i libvcruntime:frame.obj
 0001:00077760       ??_Gbad_exception@std@@UEAAPEAXI@Z 0000000140078760 f i libvcruntime:frame.obj
 0001:000777c0       ?BuildCatchObject@__FrameHandler3@@SAXPEAUEHExceptionRecord@@PEAXPEBU_s_HandlerType@@PEBU_s_CatchableType@@@Z 00000001400787c0 f   libvcruntime:frame.obj
 0001:000777d0       ?BuildCatchObject@__FrameHandler4@@SAXPEAUEHExceptionRecord@@PEAXPEAUHandlerType4@FH4@@PEBU_s_CatchableType@@@Z 00000001400787d0 f   libvcruntime:frame.obj
 0001:000777e0       ?BuildCatchObjectHelper@__FrameHandler3@@SAHPEAUEHExceptionRecord@@PEAXPEBU_s_HandlerType@@PEBU_s_CatchableType@@@Z 00000001400787e0 f   libvcruntime:frame.obj
 0001:000777f0       ?BuildCatchObjectHelper@__FrameHandler4@@SAHPEAUEHExceptionRecord@@PEAXPEAUHandlerType4@FH4@@PEBU_s_CatchableType@@@Z 00000001400787f0 f   libvcruntime:frame.obj
 0001:00077800       ?CxxCallCatchBlock@__FrameHandler3@@SAPEAXPEAU_EXCEPTION_RECORD@@@Z 0000000140078800 f   libvcruntime:frame.obj
 0001:00077a90       ?CxxCallCatchBlock@__FrameHandler4@@SAPEAXPEAU_EXCEPTION_RECORD@@@Z 0000000140078a90 f   libvcruntime:frame.obj
 0001:00077d80       ?DecompHandler@HandlerMap4@FH4@@AEAAXXZ 0000000140078d80 f i libvcruntime:frame.obj
 0001:00078070       ?FrameUnwindToState@__FrameHandler3@@SAXPEA_KPEAU_xDISPATCHER_CONTEXT@@PEBU_s_FuncInfo@@H@Z 0000000140079070 f   libvcruntime:frame.obj
 0001:00078290       ?FrameUnwindToState@__FrameHandler4@@SAXPEA_KPEAU_xDISPATCHER_CONTEXT@@PEAUFuncInfo4@FH4@@H@Z 0000000140079290 f   libvcruntime:frame.obj
 0001:00078770       ?GetHandlerSearchState@__FrameHandler3@@SAHPEA_KPEAU_xDISPATCHER_CONTEXT@@PEBU_s_FuncInfo@@@Z 0000000140079770 f i libvcruntime:frame.obj
 0001:00078820       ?GetHandlerSearchState@__FrameHandler4@@SAHPEA_KPEAU_xDISPATCHER_CONTEXT@@PEAUFuncInfo4@FH4@@@Z 0000000140079820 f i libvcruntime:frame.obj
 0001:000788b0       ?GetMaxState@__FrameHandler3@@SAHPEAU_xDISPATCHER_CONTEXT@@PEBU_s_FuncInfo@@@Z 00000001400798b0 f i libvcruntime:frame.obj
 0001:000788c0       ?GetMaxState@__FrameHandler4@@SAHPEAU_xDISPATCHER_CONTEXT@@PEAUFuncInfo4@FH4@@@Z 00000001400798c0 f i libvcruntime:frame.obj
 0001:00078b10       ?ReadEntry@UWMap4@FH4@@AEAAXPEAPEAE@Z 0000000140079b10 f i libvcruntime:frame.obj
 0001:00078be0       ?TypeMatch@__FrameHandler3@@SAHPEBU_s_HandlerType@@PEBU_s_CatchableType@@PEBU_s_ThrowInfo@@@Z 0000000140079be0 f   libvcruntime:frame.obj
 0001:00078bf0       ?TypeMatch@__FrameHandler4@@SAHPEAUHandlerType4@FH4@@PEBU_s_CatchableType@@PEBU_s_ThrowInfo@@@Z 0000000140079bf0 f   libvcruntime:frame.obj
 0001:00078c00       ?WalkBack@UWMap4@FH4@@AEAAXPEAPEAE@Z 0000000140079c00 f i libvcruntime:frame.obj
 0001:00078c50       ?WalkBack@iterator@UWMap4@FH4@@QEAAXXZ 0000000140079c50 f i libvcruntime:frame.obj
 0001:00078ca0       ?WalkForward@UWMap4@FH4@@AEAAXPEAPEAE@Z 0000000140079ca0 f i libvcruntime:frame.obj
 0001:00078cb0       ?_CallMemberFunction1@@YAXQEAX00@Z 0000000140079cb0 f i libvcruntime:frame.obj
 0001:00078cc0       ?_CallMemberFunction2@@YAXQEAX00H@Z 0000000140079cc0 f i libvcruntime:frame.obj
 0001:00078d00       ?begin@HandlerMap4@FH4@@QEAA?AViterator@12@XZ 0000000140079d00 f i libvcruntime:frame.obj
 0001:00078d20       ?begin@HandlerMap@__FrameHandler3@@QEAA?AViterator@12@XZ 0000000140079d20 f i libvcruntime:frame.obj
 0001:00078d40       ?begin@UWMap4@FH4@@QEAA?AViterator@12@XZ 0000000140079d40 f i libvcruntime:frame.obj
 0001:00078d60       ?end@HandlerMap4@FH4@@QEAA?AViterator@12@XZ 0000000140079d60 f i libvcruntime:frame.obj
 0001:00078d70       ?end@HandlerMap@__FrameHandler3@@QEAA?AViterator@12@XZ 0000000140079d70 f i libvcruntime:frame.obj
 0001:00078d80       ?getESTypes@__FrameHandler3@@SAPEBU_s_ESTypeList@@PEBU_s_FuncInfo@@@Z 0000000140079d80 f i libvcruntime:frame.obj
 0001:00078db0       ?getESTypes@__FrameHandler4@@SAPEBU_s_ESTypeList@@PEAUFuncInfo4@FH4@@@Z 0000000140079db0 f i libvcruntime:frame.obj
 0001:00078dc0       ?getLastEntry@HandlerMap4@FH4@@QEAAPEAUHandlerType4@2@XZ 0000000140079dc0 f i libvcruntime:frame.obj
 0001:00078df0       ?getLastEntry@HandlerMap@__FrameHandler3@@QEAAPEBU_s_HandlerType@@XZ 0000000140079df0 f i libvcruntime:frame.obj
 0001:00078e10       ?getMagicNum@__FrameHandler3@@SAIPEBU_s_FuncInfo@@@Z 0000000140079e10 f i libvcruntime:frame.obj
 0001:00078e20       ?getMagicNum@__FrameHandler4@@SAIPEAUFuncInfo4@FH4@@@Z 0000000140079e20 f i libvcruntime:frame.obj
 0001:00078e30       ?getNumTryBlocks@TryBlockMap4@FH4@@QEAAIXZ 0000000140079e30 f i libvcruntime:frame.obj
 0001:00078e40       ?getNumTryBlocks@TryBlockMap@__FrameHandler3@@QEAAIXZ 0000000140079e40 f i libvcruntime:frame.obj
 0001:00078e50       ?getStartStop@UWMap4@FH4@@QEAAXHHAEAViterator@12@0@Z 0000000140079e50 f i libvcruntime:frame.obj
 0001:00079010       ?getStateFromIterators@UWMap4@FH4@@SAHAEBViterator@12@H0H0@Z 000000014007a010 f i libvcruntime:frame.obj
 0001:00079120       ?isEHs@__FrameHandler3@@SA_NPEBU_s_FuncInfo@@@Z 000000014007a120 f i libvcruntime:frame.obj
 0001:00079130       ?isEHs@__FrameHandler4@@SA_NPEAUFuncInfo4@FH4@@@Z 000000014007a130 f i libvcruntime:frame.obj
 0001:00079140       ?isNoExcept@__FrameHandler3@@SA_NPEBU_s_FuncInfo@@@Z 000000014007a140 f i libvcruntime:frame.obj
 0001:00079150       ?isNoExcept@__FrameHandler4@@SA_NPEAUFuncInfo4@FH4@@@Z 000000014007a150 f i libvcruntime:frame.obj
 0001:00079160       ?reset@HandlerType4@FH4@@QEAAXXZ 000000014007a160 f i libvcruntime:frame.obj
 0001:00079180       ?resetBuffer@HandlerMap4@FH4@@QEAAXXZ 000000014007a180 f i libvcruntime:frame.obj
 0001:00079190       ?setBuffer@HandlerMap4@FH4@@QEAAXI@Z 000000014007a190 f i libvcruntime:frame.obj
 0001:000793f0       __BuildCatchObject         000000014007a3f0 f   libvcruntime:frame.obj
 0001:00079400       __BuildCatchObjectHelper   000000014007a400 f   libvcruntime:frame.obj
 0001:00079410       __TypeMatch                000000014007a410 f   libvcruntime:frame.obj
 0001:00079460       _NLG_Notify                000000014007a460 f   libvcruntime:notify.obj
 0001:00079490       __NLG_Dispatch2            000000014007a490 f   libvcruntime:notify.obj
 0001:000794a0       __NLG_Return2              000000014007a4a0 f   libvcruntime:notify.obj
 0001:000794c0       __except_validate_context_record 000000014007a4c0 f   libvcruntime:jbcxrval.obj
 0001:00079510       __except_validate_jump_buffer 000000014007a510 f   libvcruntime:jbcxrval.obj
 0001:00079570       __except_validate_jump_buffer_common 000000014007a570 f i libvcruntime:jbcxrval.obj
 0001:000795f0       __vcrt_initialize_locks    000000014007a5f0 f   libvcruntime:locks.obj
 0001:000796a0       __vcrt_lock                000000014007a6a0 f   libvcruntime:locks.obj
 0001:000796c0       __vcrt_uninitialize_locks  000000014007a6c0 f   libvcruntime:locks.obj
 0001:00079720       __vcrt_unlock              000000014007a720 f   libvcruntime:locks.obj
 0001:00079740       ??$?0$00@DName@@QEAA@PEAVUnDecorator@@PEBDU?$StringLifeSelector@$00@@@Z 000000014007a740 f i libvcruntime:undname.obj
 0001:000797b0       ??$?0$00@pcharNode@@QEAA@PEBDHU?$StringLifeSelector@$00@@AEAV_HeapManager@@@Z 000000014007a7b0 f i libvcruntime:undname.obj
 0001:000797d0       ??$?0$01@DName@@QEAA@PEAVUnDecorator@@PEBDU?$StringLifeSelector@$01@@@Z 000000014007a7d0 f i libvcruntime:undname.obj
 0001:00079840       ??$?0$01@pcharNode@@QEAA@PEBDHU?$StringLifeSelector@$01@@AEAV_HeapManager@@@Z 000000014007a840 f i libvcruntime:undname.obj
 0001:000798f0       ??$?0$0A@@DName@@QEAA@PEAVUnDecorator@@PEBDU?$StringLifeSelector@$0A@@@@Z 000000014007a8f0 f i libvcruntime:undname.obj
 0001:00079a70       ??$?0$0A@@pcharNode@@QEAA@PEBDHU?$StringLifeSelector@$0A@@@AEAV_HeapManager@@@Z 000000014007aa70 f i libvcruntime:undname.obj
 0001:00079b20       ??$append@VDNameNode@@@DName@@AEAAXPEBVDNameNode@@@Z 000000014007ab20 f i libvcruntime:undname.obj
 0001:00079bb0       ??$append@VDNameStatusNode@@@DName@@AEAAXPEBVDNameStatusNode@@@Z 000000014007abb0 f i libvcruntime:undname.obj
 0001:00079c40       ??$append@VcharNode@@@DName@@AEAAXPEBVcharNode@@@Z 000000014007ac40 f i libvcruntime:undname.obj
 0001:00079cd0       ??$append@VpDNameNode@@@DName@@AEAAXPEBVpDNameNode@@@Z 000000014007acd0 f i libvcruntime:undname.obj
 0001:00079d60       ??$append@VpcharNode@@@DName@@AEAAXPEBVpcharNode@@@Z 000000014007ad60 f i libvcruntime:undname.obj
 0001:00079df0       ??$doPchar@$00@DName@@AEAAXPEBDH@Z 000000014007adf0 f i libvcruntime:undname.obj
 0001:00079f00       ??$doPchar@$01@DName@@AEAAXPEBDH@Z 000000014007af00 f i libvcruntime:undname.obj
 0001:0007a080       ??$doPchar@$0A@@DName@@AEAAXPEBDH@Z 000000014007b080 f i libvcruntime:undname.obj
 0001:0007a3d0       ??0Block@_HeapManager@@QEAA@XZ 000000014007b3d0 f i libvcruntime:undname.obj
 0001:0007a3e0       ??0DName@@QEAA@AEBV0@@Z    000000014007b3e0 f i libvcruntime:undname.obj
 0001:0007a400       ??0DName@@QEAA@PEAVUnDecorator@@@Z 000000014007b400 f i libvcruntime:undname.obj
 0001:0007a420       ??0DName@@QEAA@PEAVUnDecorator@@AEAPEBDD@Z 000000014007b420 f   libvcruntime:undname.obj
 0001:0007a560       ??0DName@@QEAA@PEAVUnDecorator@@AEBUStringLiteral@@@Z 000000014007b560 f   libvcruntime:undname.obj
 0001:0007a5b0       ??0DName@@QEAA@PEAVUnDecorator@@D@Z 000000014007b5b0 f   libvcruntime:undname.obj
 0001:0007a650       ??0DName@@QEAA@PEAVUnDecorator@@PEAV0@@Z 000000014007b650 f   libvcruntime:undname.obj
 0001:0007a710       ??0DName@@QEAA@PEAVUnDecorator@@W4DNameStatus@@@Z 000000014007b710 f   libvcruntime:undname.obj
 0001:0007a760       ??0DName@@QEAA@PEAVUnDecorator@@_J@Z 000000014007b760 f   libvcruntime:undname.obj
 0001:0007a840       ??0DName@@QEAA@PEAVUnDecorator@@_K@Z 000000014007b840 f   libvcruntime:undname.obj
 0001:0007a900       ??0DNameNode@@IEAA@XZ      000000014007b900 f i libvcruntime:undname.obj
 0001:0007a920       ??0OptionalValue@UnDecorator@@QEAA@XZ 000000014007b920 f i libvcruntime:undname.obj
 0001:0007a940       ??0OptionalValue@UnDecorator@@QEAA@_K@Z 000000014007b940 f i libvcruntime:undname.obj
 0001:0007a950       ??0Replicator@@QEAA@PEAVUnDecorator@@@Z 000000014007b950 f i libvcruntime:undname.obj
 0001:0007a990       ??0UnDecorator@@QEAA@PEBDP6APEADJ@ZKP6APEAX_K@ZP6AXPEAX@Z@Z 000000014007b990 f i libvcruntime:undname.obj
 0001:0007aa80       ??0_HeapManager@@QEAA@P6APEAX_K@ZP6AXPEAX@Z@Z 000000014007ba80 f i libvcruntime:undname.obj
 0001:0007aaa0       ??0charNode@@QEAA@D@Z      000000014007baa0 f i libvcruntime:undname.obj
 0001:0007aac0       ??0pDNameNode@@QEAA@PEAVDName@@@Z 000000014007bac0 f   libvcruntime:undname.obj
 0001:0007ab00       ??0pairNode@@QEAA@PEBVDNameNode@@0@Z 000000014007bb00 f i libvcruntime:undname.obj
 0001:0007ab40       ??2@YAPEAX_KAEAV_HeapManager@@H@Z 000000014007bb40 f   libvcruntime:undname.obj
 0001:0007ac30       ??4DName@@QEAAAEAV0@AEBUStringLiteral@@@Z 000000014007bc30 f   libvcruntime:undname.obj
 0001:0007ac60       ??4DName@@QEAAAEAV0@AEBV0@@Z 000000014007bc60 f   libvcruntime:undname.obj
 0001:0007ac80       ??4DName@@QEAAAEAV0@D@Z    000000014007bc80 f i libvcruntime:undname.obj
 0001:0007ad20       ??4DName@@QEAAAEAV0@PEAV0@@Z 000000014007bd20 f   libvcruntime:undname.obj
 0001:0007add0       ??4DName@@QEAAAEAV0@W4DNameStatus@@@Z 000000014007bdd0 f   libvcruntime:undname.obj
 0001:0007ae00       ??AReplicator@@QEBA?AVDName@@H@Z 000000014007be00 f   libvcruntime:undname.obj
 0001:0007ae80       ??BOptionalValue@UnDecorator@@QEBA_NXZ 000000014007be80 f i libvcruntime:undname.obj
 0001:0007ae90       ??DOptionalValue@UnDecorator@@QEBA_KXZ 000000014007be90 f i libvcruntime:undname.obj
 0001:0007aea0       ??H@YA?AVDName@@AEBUStringLiteral@@AEBV0@@Z 000000014007bea0 f i libvcruntime:undname.obj
 0001:0007b0f0       ??H@YA?AVDName@@DAEBV0@@Z  000000014007c0f0 f i libvcruntime:undname.obj
 0001:0007b320       ??H@YA?AVDName@@W4DNameStatus@@AEBV0@@Z 000000014007c320 f i libvcruntime:undname.obj
 0001:0007b510       ??HDName@@QEBA?AV0@AEBUStringLiteral@@@Z 000000014007c510 f   libvcruntime:undname.obj
 0001:0007b550       ??HDName@@QEBA?AV0@AEBV0@@Z 000000014007c550 f   libvcruntime:undname.obj
 0001:0007b590       ??HDName@@QEBA?AV0@D@Z     000000014007c590 f   libvcruntime:undname.obj
 0001:0007b5d0       ??HDName@@QEBA?AV0@PEAV0@@Z 000000014007c5d0 f   libvcruntime:undname.obj
 0001:0007b610       ??HDName@@QEBA?AV0@W4DNameStatus@@@Z 000000014007c610 f   libvcruntime:undname.obj
 0001:0007b650       ??HStringLiteral@@QEBA?AU0@H@Z 000000014007c650 f i libvcruntime:undname.obj
 0001:0007b710       ??YDName@@QEAAAEAV0@AEBUStringLiteral@@@Z 000000014007c710 f   libvcruntime:undname.obj
 0001:0007b840       ??YDName@@QEAAAEAV0@AEBV0@@Z 000000014007c840 f   libvcruntime:undname.obj
 0001:0007ba20       ??YDName@@QEAAAEAV0@D@Z    000000014007ca20 f   libvcruntime:undname.obj
 0001:0007bb40       ??YDName@@QEAAAEAV0@PEAV0@@Z 000000014007cb40 f   libvcruntime:undname.obj
 0001:0007bd70       ??YDName@@QEAAAEAV0@W4DNameStatus@@@Z 000000014007cd70 f   libvcruntime:undname.obj
 0001:0007be90       ??YReplicator@@QEAAAEAV0@AEBVDName@@@Z 000000014007ce90 f   libvcruntime:undname.obj
 0001:0007bf10       ??_5DName@@QEAAAEAV0@AEBV0@@Z 000000014007cf10 f   libvcruntime:undname.obj
 0001:0007bf40       ??__K_l@@YA?AUStringLiteral@@PEBD_K@Z 000000014007cf40 f i libvcruntime:undname.obj
 0001:0007bf50       ?Destructor@UnDecorator@@QEAAXXZ 000000014007cf50 f i libvcruntime:undname.obj
 0001:0007bfc0       ?Destructor@_HeapManager@@QEAAXXZ 000000014007cfc0 f i libvcruntime:undname.obj
 0001:0007c040       ?UScore@UnDecorator@@QEAA?AUStringLiteral@@W4Tokens@@@Z 000000014007d040 f   libvcruntime:undname.obj
 0001:0007c090       ?composeDeclaration@UnDecorator@@AEAA?AVDName@@AEBV2@@Z 000000014007d090 f i libvcruntime:undname.obj
 0001:0007f6a0       ?doAccessSpecifiers@UnDecorator@@QEAAHXZ 00000001400806a0 f i libvcruntime:undname.obj
 0001:0007f6c0       ?doAllocationLanguage@UnDecorator@@QEAAHXZ 00000001400806c0 f i libvcruntime:undname.obj
 0001:0007f6e0       ?doAllocationModel@UnDecorator@@QEAAHXZ 00000001400806e0 f i libvcruntime:undname.obj
 0001:0007f700       ?doEcsu@UnDecorator@@QEAAHXZ 0000000140080700 f i libvcruntime:undname.obj
 0001:0007f720       ?doEllipsis@UnDecorator@@QEAAHXZ 0000000140080720 f i libvcruntime:undname.obj
 0001:0007f740       ?doFunctionReturns@UnDecorator@@QEAAHXZ 0000000140080740 f i libvcruntime:undname.obj
 0001:0007f760       ?doMSKeywords@UnDecorator@@QEAAHXZ 0000000140080760 f i libvcruntime:undname.obj
 0001:0007f780       ?doMemberTypes@UnDecorator@@QEAAHXZ 0000000140080780 f i libvcruntime:undname.obj
 0001:0007f7a0       ?doNameOnly@UnDecorator@@QEAAHXZ 00000001400807a0 f i libvcruntime:undname.obj
 0001:0007f7b0       ?doNoIdentCharCheck@UnDecorator@@QEAAHXZ 00000001400807b0 f i libvcruntime:undname.obj
 0001:0007f7c0       ?doPchar@DName@@AEAAXD@Z   00000001400807c0 f   libvcruntime:undname.obj
 0001:0007f840       ?doPtr64@UnDecorator@@QEAAHXZ 0000000140080840 f i libvcruntime:undname.obj
 0001:0007f860       ?doRestrictionSpec@UnDecorator@@QEAAHXZ 0000000140080860 f i libvcruntime:undname.obj
 0001:0007f880       ?doThisTypes@UnDecorator@@QEAAHXZ 0000000140080880 f i libvcruntime:undname.obj
 0001:0007f8a0       ?doThrowTypes@UnDecorator@@QEAAHXZ 00000001400808a0 f i libvcruntime:undname.obj
 0001:0007f8c0       ?doTypeOnly@UnDecorator@@QEAAHXZ 00000001400808c0 f i libvcruntime:undname.obj
 0001:0007f8d0       ?doUnderScore@UnDecorator@@QEAAHXZ 00000001400808d0 f i libvcruntime:undname.obj
 0001:0007f8e0       ?getAddressOf@UnDecorator@@AEAA?AVDName@@XZ 00000001400808e0 f   libvcruntime:undname.obj
 0001:0007fb90       ?getArgumentList@UnDecorator@@AEAA?AVDName@@XZ 0000000140080b90 f   libvcruntime:undname.obj
 0001:00080250       ?getArgumentTypes@UnDecorator@@AEAA?AVDName@@XZ 0000000140081250 f   libvcruntime:undname.obj
 0001:00080510       ?getArrayAccess@UnDecorator@@AEAA?AVDName@@XZ 0000000140081510 f   libvcruntime:undname.obj
 0001:00080a60       ?getArrayObject@UnDecorator@@AEAA?AVDName@@XZ 0000000140081a60 f   libvcruntime:undname.obj
 0001:000810e0       ?getArrayType@UnDecorator@@AEAA?AVDName@@AEBV2@@Z 00000001400820e0 f i libvcruntime:undname.obj
 0001:00081b00       ?getBasedType@UnDecorator@@AEAA?AVDName@@XZ 0000000140082b00 f   libvcruntime:undname.obj
 0001:000820e0       ?getBasicDataType@UnDecorator@@AEAA?AVDName@@AEBV2@@Z 00000001400830e0 f   libvcruntime:undname.obj
 0001:00083310       ?getCHPEName@UnDecorator@@QEAAPEADPEADH@Z 0000000140084310 f i libvcruntime:undname.obj
 0001:00083480       ?getCallIndex@UnDecorator@@AEAA?AVDName@@XZ 0000000140084480 f i libvcruntime:undname.obj
 0001:000834a0       ?getCallingConvention@UnDecorator@@AEAA?AVDName@@XZ 00000001400844a0 f   libvcruntime:undname.obj
 0001:00083d10       ?getDataIndirectType@UnDecorator@@AEAA?AVDName@@AEBV2@W4IndirectionKind@@0H@Z 0000000140084d10 f   libvcruntime:undname.obj
 0001:00085590       ?getDataIndirectType@UnDecorator@@AEAA?AVDName@@XZ 0000000140086590 f i libvcruntime:undname.obj
 0001:000855f0       ?getDataType@UnDecorator@@AEAA?AVDName@@PEAV2@@Z 00000001400865f0 f   libvcruntime:undname.obj
 0001:00085820       ?getDecoratedName@UnDecorator@@AEAA?AVDName@@XZ 0000000140086820 f   libvcruntime:undname.obj
 0001:00085cc0       ?getDimension@UnDecorator@@AEAA?AVDName@@_N@Z 0000000140086cc0 f   libvcruntime:undname.obj
 0001:00085ec0       ?getDispatchTarget@UnDecorator@@AEAA?AVDName@@XZ 0000000140086ec0 f   libvcruntime:undname.obj
 0001:00085f60       ?getDisplacement@UnDecorator@@AEAA?AVDName@@XZ 0000000140086f60 f i libvcruntime:undname.obj
 0001:00085f80       ?getECSUDataType@UnDecorator@@AEAA?AVDName@@XZ 0000000140086f80 f   libvcruntime:undname.obj
 0001:00086640       ?getECSUName@UnDecorator@@AEAA?AVDName@@XZ 0000000140087640 f i libvcruntime:undname.obj
 0001:00086660       ?getEnumEncoding@UnDecorator@@AEAA?AVDName@@XZ 0000000140087660 f   libvcruntime:undname.obj
 0001:00086bc0       ?getEnumType@UnDecorator@@AEAA?AVDName@@XZ 0000000140087bc0 f i libvcruntime:undname.obj
 0001:00086e90       ?getExtendedDataIndirectType@UnDecorator@@AEAA?AVDName@@AEAW4IndirectionKind@@AEA_NH@Z 0000000140087e90 f   libvcruntime:undname.obj
 0001:000875b0       ?getExternalDataType@UnDecorator@@AEAA?AVDName@@AEBV2@@Z 00000001400885b0 f i libvcruntime:undname.obj
 0001:000878f0       ?getFloatingPoint@UnDecorator@@AEAA?AVDName@@H@Z 00000001400888f0 f   libvcruntime:undname.obj
 0001:00087ba0       ?getFunctionIndirectType@UnDecorator@@AEAA?AVDName@@AEBV2@@Z 0000000140088ba0 f   libvcruntime:undname.obj
 0001:00088640       ?getGuardNumber@UnDecorator@@AEAA?AVDName@@XZ 0000000140089640 f i libvcruntime:undname.obj
 0001:00088660       ?getHeap@UnDecorator@@QEAAAEAV_HeapManager@@XZ 0000000140089660 f i libvcruntime:undname.obj
 0001:00088670       ?getLastChar@DName@@QEBADXZ 0000000140089670 f i libvcruntime:undname.obj
 0001:00088690       ?getLastChar@DNameStatusNode@@UEBADXZ 0000000140089690 f i libvcruntime:undname.obj
 0001:000886b0       ?getLastChar@charNode@@UEBADXZ 00000001400896b0 f i libvcruntime:undname.obj
 0001:000886c0       ?getLastChar@pDNameNode@@UEBADXZ 00000001400896c0 f i libvcruntime:undname.obj
 0001:000886f0       ?getLastChar@pairNode@@UEBADXZ 00000001400896f0 f i libvcruntime:undname.obj
 0001:00088740       ?getLastChar@pcharNode@@UEBADXZ 0000000140089740 f i libvcruntime:undname.obj
 0001:00088760       ?getLexicalFrame@UnDecorator@@AEAA?AVDName@@XZ 0000000140089760 f i libvcruntime:undname.obj
 0001:000887c0       ?getMemberAccess@UnDecorator@@AEAA?AVDName@@XZ 00000001400897c0 f   libvcruntime:undname.obj
 0001:00088bb0       ?getMemoryWithBuffer@_HeapManager@@QEAAPEAX_K@Z 0000000140089bb0 f   libvcruntime:undname.obj
 0001:00088c70       ?getMemoryWithoutBuffer@_HeapManager@@QEAAPEAX_K@Z 0000000140089c70 f   libvcruntime:undname.obj
 0001:00088c90       ?getModuleOwner@UnDecorator@@AEAA?AVDName@@AEBV2@@Z 0000000140089c90 f   libvcruntime:undname.obj
 0001:00088ea0       ?getNoexcept@UnDecorator@@AEAA?AVDName@@XZ 0000000140089ea0 f   libvcruntime:undname.obj
 0001:00088f20       ?getNumberOfDimensions@UnDecorator@@AEAAHXZ 0000000140089f20 f   libvcruntime:undname.obj
 0001:00088fb0       ?getOperatorName@UnDecorator@@AEAA?AVDName@@_NPEA_N@Z 0000000140089fb0 f i libvcruntime:undname.obj
 0001:0008b270       ?getPointerToMember@UnDecorator@@AEAA?AVDName@@XZ 000000014008c270 f   libvcruntime:undname.obj
 0001:0008b810       ?getPointerType@UnDecorator@@AEAA?AVDName@@AEBV2@0@Z 000000014008c810 f i libvcruntime:undname.obj
 0001:0008b840       ?getPointerTypeArray@UnDecorator@@AEAA?AVDName@@AEBV2@0@Z 000000014008c840 f i libvcruntime:undname.obj
 0001:0008b870       ?getPrimaryDataType@UnDecorator@@AEAA?AVDName@@AEBV2@@Z 000000014008c870 f   libvcruntime:undname.obj
 0001:0008c7a0       ?getPtrRefDataType@UnDecorator@@AEAA?AVDName@@AEBV2@H@Z 000000014008d7a0 f   libvcruntime:undname.obj
 0001:0008ca60       ?getPtrRefType@UnDecorator@@AEAA?AVDName@@AEBV2@0W4IndirectionKind@@@Z 000000014008da60 f   libvcruntime:undname.obj
 0001:0008d220       ?getReferenceType@UnDecorator@@AEAA?AVDName@@AEBV2@0W4IndirectionKind@@@Z 000000014008e220 f i libvcruntime:undname.obj
 0001:0008d250       ?getRestrictionSpec@UnDecorator@@AEAA?AVDName@@XZ 000000014008e250 f   libvcruntime:undname.obj
 0001:0008d780       ?getReturnType@UnDecorator@@AEAA?AVDName@@PEAV2@@Z 000000014008e780 f   libvcruntime:undname.obj
 0001:0008d8a0       ?getScope@UnDecorator@@AEAA?AVDName@@XZ 000000014008e8a0 f   libvcruntime:undname.obj
 0001:0008e930       ?getScopedName@UnDecorator@@AEAA?AVDName@@XZ 000000014008f930 f   libvcruntime:undname.obj
 0001:0008ece0       ?getSignedDimension@UnDecorator@@AEAA?AVDName@@XZ 000000014008fce0 f   libvcruntime:undname.obj
 0001:0008ed80       ?getStorageConvention@UnDecorator@@AEAA?AVDName@@XZ 000000014008fd80 f i libvcruntime:undname.obj
 0001:0008ede0       ?getString@DName@@QEBAPEADPEAD0@Z 000000014008fde0 f i libvcruntime:undname.obj
 0001:0008ee00       ?getString@DName@@QEBAPEADPEADH@Z 000000014008fe00 f i libvcruntime:undname.obj
 0001:0008eef0       ?getString@DNameStatusNode@@UEBAPEADPEAD0@Z 000000014008fef0 f i libvcruntime:undname.obj
 0001:0008ef50       ?getString@charNode@@UEBAPEADPEAD0@Z 000000014008ff50 f i libvcruntime:undname.obj
 0001:0008ef70       ?getString@pDNameNode@@UEBAPEADPEAD0@Z 000000014008ff70 f i libvcruntime:undname.obj
 0001:0008efb0       ?getString@pairNode@@UEBAPEADPEAD0@Z 000000014008ffb0 f i libvcruntime:undname.obj
 0001:0008f010       ?getString@pcharNode@@UEBAPEADPEAD0@Z 0000000140090010 f i libvcruntime:undname.obj
 0001:0008f060       ?getStringEncoding@UnDecorator@@AEAA?AVDName@@W4PrefixKind@@H@Z 0000000140090060 f   libvcruntime:undname.obj
 0001:0008f2a0       ?getStringHelper@@YAPEADPEADPEBD1H@Z 00000001400902a0 f i libvcruntime:undname.obj
 0001:0008f2f0       ?getStringObject@UnDecorator@@AEAA?AVDName@@XZ 00000001400902f0 f   libvcruntime:undname.obj
 0001:0008f410       ?getSymbolName@UnDecorator@@AEAA?AVDName@@XZ 0000000140090410 f i libvcruntime:undname.obj
 0001:0008f490       ?getTemplateArgumentList@UnDecorator@@AEAA?AVDName@@XZ 0000000140090490 f   libvcruntime:undname.obj
 0001:0008fa60       ?getTemplateName@UnDecorator@@AEAA?AVDName@@_N@Z 0000000140090a60 f   libvcruntime:undname.obj
 0001:00090240       ?getTemplateNonTypeArgument@UnDecorator@@AEAA?AVDName@@XZ 0000000140091240 f   libvcruntime:undname.obj
 0001:00091400       ?getTemplateTypeArgument@UnDecorator@@AEAA?AVDName@@XZ 0000000140092400 f   libvcruntime:undname.obj
 0001:000917c0       ?getThisType@UnDecorator@@AEAA?AVDName@@XZ 00000001400927c0 f i libvcruntime:undname.obj
 0001:00091820       ?getThrowTypes@UnDecorator@@AEAA?AVDName@@XZ 0000000140092820 f   libvcruntime:undname.obj
 0001:00091850       ?getTypeEncoding@UnDecorator@@AEAAHXZ 0000000140092850 f i libvcruntime:undname.obj
 0001:00091e90       ?getUndecoratedName@UnDecorator@@QEAAPEADPEADH@Z 0000000140092e90 f i libvcruntime:undname.obj
 0001:00092060       ?getUnionObject@UnDecorator@@AEAA?AVDName@@XZ 0000000140093060 f   libvcruntime:undname.obj
 0001:00092850       ?getVCallThunkType@UnDecorator@@AEAA?AVDName@@XZ 0000000140093850 f i libvcruntime:undname.obj
 0001:00092900       ?getValue@UnDecorator@@AEAA?AUOptionalValue@1@XZ 0000000140093900 f   libvcruntime:undname.obj
 0001:00092970       ?getValueObject@UnDecorator@@AEAA?AVDName@@XZ 0000000140093970 f   libvcruntime:undname.obj
 0001:00093590       ?getVbTableType@UnDecorator@@AEAA?AVDName@@AEBV2@@Z 0000000140094590 f i libvcruntime:undname.obj
 0001:000935b0       ?getVdispMapType@UnDecorator@@AEAA?AVDName@@AEBV2@@Z 00000001400945b0 f i libvcruntime:undname.obj
 0001:00093670       ?getVfTableType@UnDecorator@@AEAA?AVDName@@AEBV2@@Z 0000000140094670 f i libvcruntime:undname.obj
 0001:00093b00       ?getZName@UnDecorator@@AEAA?AVDName@@_N0@Z 0000000140094b00 f   libvcruntime:undname.obj
 0001:00093fe0       ?get_current_character_and_increment_buffer@UnDecorator@@AEAADXZ 0000000140094fe0 f i libvcruntime:undname.obj
 0001:00094000       ?haveTemplateParameters@UnDecorator@@QEAAHXZ 0000000140095000 f i libvcruntime:undname.obj
 0001:00094010       ?increment_buffer@UnDecorator@@AEAA_N_K@Z 0000000140095010 f i libvcruntime:undname.obj
 0001:00094060       ?increment_buffer_no_check@UnDecorator@@AEAAXXZ 0000000140095060 f i libvcruntime:undname.obj
 0001:00094070       ?increment_buffer_no_check@UnDecorator@@AEAAX_K@Z 0000000140095070 f i libvcruntime:undname.obj
 0001:00094080       ?isArray@DName@@QEBAHXZ    0000000140095080 f i libvcruntime:undname.obj
 0001:00094090       ?isComArray@DName@@QEBAHXZ 0000000140095090 f i libvcruntime:undname.obj
 0001:000940a0       ?isEmpty@DName@@QEBAHXZ    00000001400950a0 f i libvcruntime:undname.obj
 0001:000940b0       ?isFull@Replicator@@QEBAHXZ 00000001400950b0 f i libvcruntime:undname.obj
 0001:000940c0       ?isNoTE@DName@@QEBAHXZ     00000001400950c0 f i libvcruntime:undname.obj
 0001:000940d0       ?isPinPtr@DName@@QEBAHXZ   00000001400950d0 f i libvcruntime:undname.obj
 0001:000940e0       ?isPtrRef@DName@@QEBAHXZ   00000001400950e0 f i libvcruntime:undname.obj
 0001:000940f0       ?isUDC@DName@@QEBAHXZ      00000001400950f0 f i libvcruntime:undname.obj
 0001:00094110       ?isUDTThunk@DName@@QEBAHXZ 0000000140095110 f i libvcruntime:undname.obj
 0001:00094130       ?isVCallThunk@DName@@QEBAHXZ 0000000140095130 f i libvcruntime:undname.obj
 0001:00094140       ?isValid@DName@@QEBAHXZ    0000000140095140 f i libvcruntime:undname.obj
 0001:00094150       ?length@DName@@QEBAHXZ     0000000140095150 f i libvcruntime:undname.obj
 0001:00094170       ?length@DNameStatusNode@@UEBAHXZ 0000000140095170 f i libvcruntime:undname.obj
 0001:00094180       ?length@charNode@@UEBAHXZ  0000000140095180 f i libvcruntime:undname.obj
 0001:00094190       ?length@pDNameNode@@UEBAHXZ 0000000140095190 f i libvcruntime:undname.obj
 0001:000941c0       ?length@pairNode@@UEBAHXZ  00000001400951c0 f i libvcruntime:undname.obj
 0001:00094230       ?length@pcharNode@@UEBAHXZ 0000000140095230 f i libvcruntime:undname.obj
 0001:00094240       ?make@DNameStatusNode@@SAPEBV1@W4DNameStatus@@@Z 0000000140095240 f i libvcruntime:undname.obj
 0001:00094270       ?parseDecoratedName@UnDecorator@@AEAA?AVDName@@XZ 0000000140095270 f   libvcruntime:undname.obj
 0001:000943d0       ?raw_length@DNameStatusNode@@UEBAHXZ 00000001400953d0 f i libvcruntime:undname.obj
 0001:000943e0       ?raw_length@charNode@@UEBAHXZ 00000001400953e0 f i libvcruntime:undname.obj
 0001:000943f0       ?raw_length@pDNameNode@@UEBAHXZ 00000001400953f0 f i libvcruntime:undname.obj
 0001:00094400       ?raw_length@pairNode@@UEBAHXZ 0000000140095400 f i libvcruntime:undname.obj
 0001:00094410       ?raw_length@pcharNode@@UEBAHXZ 0000000140095410 f i libvcruntime:undname.obj
 0001:00094420       ?setIsArray@DName@@QEAAXXZ 0000000140095420 f i libvcruntime:undname.obj
 0001:00094430       ?setIsComArray@DName@@QEAAXXZ 0000000140095430 f i libvcruntime:undname.obj
 0001:00094440       ?setIsNoTE@DName@@QEAAXXZ  0000000140095440 f i libvcruntime:undname.obj
 0001:00094450       ?setIsPinPtr@DName@@QEAAXXZ 0000000140095450 f i libvcruntime:undname.obj
 0001:00094460       ?setIsUDC@DName@@QEAAXXZ   0000000140095460 f i libvcruntime:undname.obj
 0001:00094480       ?setIsVCallThunk@DName@@QEAAXXZ 0000000140095480 f i libvcruntime:undname.obj
 0001:00094490       ?setPtrRef@DName@@QEAAAEAV1@XZ 0000000140095490 f i libvcruntime:undname.obj
 0001:000944a0       ?status@DName@@QEBA?AW4DNameStatus@@XZ 00000001400954a0 f i libvcruntime:undname.obj
 0001:00094550       ?value_object@DName@@QEAAX_N@Z 0000000140095550 f i libvcruntime:undname.obj
 0001:00094570       ?value_object@DName@@QEBA_NXZ 0000000140095570 f i libvcruntime:undname.obj
 0001:00094580       __unDName                  0000000140095580 f   libvcruntime:undname.obj
 0001:000945c0       __unDNameEx                00000001400955c0 f   libvcruntime:undname.obj
 0001:00094690       _vsprintf_s_l              0000000140095690 f i libvcruntime:undname.obj
 0001:00094700       snprintf                   0000000140095700 f i libvcruntime:undname.obj
 0001:00094780       sprintf_s                  0000000140095780 f i libvcruntime:undname.obj
 0001:000947f0       unDNameGenerateCHPE        00000001400957f0 f   libvcruntime:undname.obj
 0001:00094bd0       vsnprintf                  0000000140095bd0 f i libvcruntime:undname.obj
 0001:00094c90       _CallSettingFrame          0000000140095c90 f   libvcruntime:handlers.obj
 0001:00094ce0       _CallSettingFrame_LookupContinuationIndex 0000000140095ce0 f   libvcruntime:handlers.obj
 0001:00094d20       _CallSettingFrame_NotifyContinuationAddr 0000000140095d20 f   libvcruntime:handlers.obj
 0001:00094d50       _CallSettingFrameEncoded   0000000140095d50 f   libvcruntime:handlers.obj
 0001:00094da8       ??$?0AEBV?$stream_output_adapter@D@__crt_stdio_output@@AEB_KAEBQEBDAEAV__crt_cached_ptd_host@@AEBQEAD@?$format_validation_base@DV?$stream_output_adapter@D@__crt_stdio_output@@@__crt_stdio_output@@IEAA@AEBV?$stream_output_adapter@D@1@AEB_KAEBQEBDAEAV__crt_cached_ptd_host@@AEBQEAD@Z 0000000140095da8 f i libucrt:output.obj
 0001:00094e34       ??$?0AEBV?$stream_output_adapter@D@__crt_stdio_output@@AEB_KAEBQEBDAEAV__crt_cached_ptd_host@@AEBQEAD@?$positional_parameter_base@DV?$stream_output_adapter@D@__crt_stdio_output@@@__crt_stdio_output@@IEAA@AEBV?$stream_output_adapter@D@1@AEB_KAEBQEBDAEAV__crt_cached_ptd_host@@AEBQEAD@Z 0000000140095e34 f i libucrt:output.obj
 0001:00094ee4       ??$?0AEBV?$stream_output_adapter@D@__crt_stdio_output@@AEB_KAEBQEBDAEAV__crt_cached_ptd_host@@AEBQEAD@?$standard_base@DV?$stream_output_adapter@D@__crt_stdio_output@@@__crt_stdio_output@@IEAA@AEBV?$stream_output_adapter@D@1@AEB_KAEBQEBDAEAV__crt_cached_ptd_host@@AEBQEAD@Z 0000000140095ee4 f i libucrt:output.obj
 0001:00094f70       ??$?0AEBV?$stream_output_adapter@_W@__crt_stdio_output@@AEB_KAEBQEB_WAEAV__crt_cached_ptd_host@@AEBQEAD@?$format_validation_base@_WV?$stream_output_adapter@_W@__crt_stdio_output@@@__crt_stdio_output@@IEAA@AEBV?$stream_output_adapter@_W@1@AEB_KAEBQEB_WAEAV__crt_cached_ptd_host@@AEBQEAD@Z 0000000140095f70 f i libucrt:output.obj
 0001:00095004       ??$?0AEBV?$stream_output_adapter@_W@__crt_stdio_output@@AEB_KAEBQEB_WAEAV__crt_cached_ptd_host@@AEBQEAD@?$positional_parameter_base@_WV?$stream_output_adapter@_W@__crt_stdio_output@@@__crt_stdio_output@@IEAA@AEBV?$stream_output_adapter@_W@1@AEB_KAEBQEB_WAEAV__crt_cached_ptd_host@@AEBQEAD@Z 0000000140096004 f i libucrt:output.obj
 0001:000950bc       ??$?0AEBV?$stream_output_adapter@_W@__crt_stdio_output@@AEB_KAEBQEB_WAEAV__crt_cached_ptd_host@@AEBQEAD@?$standard_base@_WV?$stream_output_adapter@_W@__crt_stdio_output@@@__crt_stdio_output@@IEAA@AEBV?$stream_output_adapter@_W@1@AEB_KAEBQEB_WAEAV__crt_cached_ptd_host@@AEBQEAD@Z 00000001400960bc f i libucrt:output.obj
 0001:00095150       ??$?0AEBV?$string_output_adapter@D@__crt_stdio_output@@AEB_KAEBQEBDAEAV__crt_cached_ptd_host@@AEBQEAD@?$format_validation_base@DV?$string_output_adapter@D@__crt_stdio_output@@@__crt_stdio_output@@IEAA@AEBV?$string_output_adapter@D@1@AEB_KAEBQEBDAEAV__crt_cached_ptd_host@@AEBQEAD@Z 0000000140096150 f i libucrt:output.obj
 0001:000951dc       ??$?0AEBV?$string_output_adapter@D@__crt_stdio_output@@AEB_KAEBQEBDAEAV__crt_cached_ptd_host@@AEBQEAD@?$positional_parameter_base@DV?$string_output_adapter@D@__crt_stdio_output@@@__crt_stdio_output@@IEAA@AEBV?$string_output_adapter@D@1@AEB_KAEBQEBDAEAV__crt_cached_ptd_host@@AEBQEAD@Z 00000001400961dc f i libucrt:output.obj
 0001:0009528c       ??$?0AEBV?$string_output_adapter@D@__crt_stdio_output@@AEB_KAEBQEBDAEAV__crt_cached_ptd_host@@AEBQEAD@?$standard_base@DV?$string_output_adapter@D@__crt_stdio_output@@@__crt_stdio_output@@IEAA@AEBV?$string_output_adapter@D@1@AEB_KAEBQEBDAEAV__crt_cached_ptd_host@@AEBQEAD@Z 000000014009628c f i libucrt:output.obj
 0001:00095318       ??$?0AEBV?$string_output_adapter@_W@__crt_stdio_output@@AEB_KAEBQEB_WAEAV__crt_cached_ptd_host@@AEBQEAD@?$format_validation_base@_WV?$string_output_adapter@_W@__crt_stdio_output@@@__crt_stdio_output@@IEAA@AEBV?$string_output_adapter@_W@1@AEB_KAEBQEB_WAEAV__crt_cached_ptd_host@@AEBQEAD@Z 0000000140096318 f i libucrt:output.obj
 0001:000953ac       ??$?0AEBV?$string_output_adapter@_W@__crt_stdio_output@@AEB_KAEBQEB_WAEAV__crt_cached_ptd_host@@AEBQEAD@?$positional_parameter_base@_WV?$string_output_adapter@_W@__crt_stdio_output@@@__crt_stdio_output@@IEAA@AEBV?$string_output_adapter@_W@1@AEB_KAEBQEB_WAEAV__crt_cached_ptd_host@@AEBQEAD@Z 00000001400963ac f i libucrt:output.obj
 0001:00095464       ??$?0AEBV?$string_output_adapter@_W@__crt_stdio_output@@AEB_KAEBQEB_WAEAV__crt_cached_ptd_host@@AEBQEAD@?$standard_base@_WV?$string_output_adapter@_W@__crt_stdio_output@@@__crt_stdio_output@@IEAA@AEBV?$string_output_adapter@_W@1@AEB_KAEBQEB_WAEAV__crt_cached_ptd_host@@AEBQEAD@Z 0000000140096464 f i libucrt:output.obj
 0001:000957f8       ??$__crt_interlocked_read@J@@YAJPEDJ@Z 00000001400967f8 f i libucrt:output.obj
 0001:000957fc       ??$_tcstol_internal@DPEAPEAD$0A@@@YAJAEAV__crt_cached_ptd_host@@QEBDQEAPEADH@Z 00000001400967fc f i libucrt:output.obj
 0001:00095838       ??$_tcstol_internal@_WPEAPEA_W$0A@@@YAJAEAV__crt_cached_ptd_host@@QEB_WQEAPEA_WH@Z 0000000140096838 f i libucrt:output.obj
 0001:00096dd4       ??$count@D@formatting_buffer@__crt_stdio_output@@QEBA_KXZ 0000000140097dd4 f i libucrt:output.obj
 0001:00096df8       ??$count@_W@formatting_buffer@__crt_stdio_output@@QEBA_KXZ 0000000140097df8 f i libucrt:output.obj
 0001:00096e1c       ??$data@D@formatting_buffer@__crt_stdio_output@@QEAAPEADXZ 0000000140097e1c f i libucrt:output.obj
 0001:00096e30       ??$data@_W@formatting_buffer@__crt_stdio_output@@QEAAPEA_WXZ 0000000140097e30 f i libucrt:output.obj
 0001:00096e44       ??$ensure_buffer_is_big_enough@D@formatting_buffer@__crt_stdio_output@@QEAA_N_KAEAV__crt_cached_ptd_host@@@Z 0000000140097e44 f i libucrt:output.obj
 0001:00096f18       ??$ensure_buffer_is_big_enough@_W@formatting_buffer@__crt_stdio_output@@QEAA_N_KAEAV__crt_cached_ptd_host@@@Z 0000000140097f18 f i libucrt:output.obj
 0001:00096ff0       ??$extract_argument_from_va_list@C_J@?$positional_parameter_base@DV?$stream_output_adapter@D@__crt_stdio_output@@@__crt_stdio_output@@IEAA_NAEA_J@Z 0000000140097ff0 f i libucrt:output.obj
 0001:0009713c       ??$extract_argument_from_va_list@C_J@?$positional_parameter_base@DV?$string_output_adapter@D@__crt_stdio_output@@@__crt_stdio_output@@IEAA_NAEA_J@Z 000000014009813c f i libucrt:output.obj
 0001:00097288       ??$extract_argument_from_va_list@C_J@?$positional_parameter_base@_WV?$stream_output_adapter@_W@__crt_stdio_output@@@__crt_stdio_output@@IEAA_NAEA_J@Z 0000000140098288 f i libucrt:output.obj
 0001:000973d8       ??$extract_argument_from_va_list@C_J@?$positional_parameter_base@_WV?$string_output_adapter@_W@__crt_stdio_output@@@__crt_stdio_output@@IEAA_NAEA_J@Z 00000001400983d8 f i libucrt:output.obj
 0001:00097528       ??$extract_argument_from_va_list@C_J@?$standard_base@DV?$stream_output_adapter@D@__crt_stdio_output@@@__crt_stdio_output@@IEAA_NAEA_J@Z 0000000140098528 f i libucrt:output.obj
 0001:00097544       ??$extract_argument_from_va_list@C_J@?$standard_base@DV?$string_output_adapter@D@__crt_stdio_output@@@__crt_stdio_output@@IEAA_NAEA_J@Z 0000000140098544 f i libucrt:output.obj
 0001:00097560       ??$extract_argument_from_va_list@C_J@?$standard_base@_WV?$stream_output_adapter@_W@__crt_stdio_output@@@__crt_stdio_output@@IEAA_NAEA_J@Z 0000000140098560 f i libucrt:output.obj
 0001:0009757c       ??$extract_argument_from_va_list@C_J@?$standard_base@_WV?$string_output_adapter@_W@__crt_stdio_output@@@__crt_stdio_output@@IEAA_NAEA_J@Z 000000014009857c f i libucrt:output.obj
 0001:00097598       ??$extract_argument_from_va_list@E_J@?$positional_parameter_base@DV?$stream_output_adapter@D@__crt_stdio_output@@@__crt_stdio_output@@IEAA_NAEA_J@Z 0000000140098598 f i libucrt:output.obj
 0001:000976e4       ??$extract_argument_from_va_list@E_J@?$positional_parameter_base@DV?$string_output_adapter@D@__crt_stdio_output@@@__crt_stdio_output@@IEAA_NAEA_J@Z 00000001400986e4 f i libucrt:output.obj
 0001:00097830       ??$extract_argument_from_va_list@E_J@?$positional_parameter_base@_WV?$stream_output_adapter@_W@__crt_stdio_output@@@__crt_stdio_output@@IEAA_NAEA_J@Z 0000000140098830 f i libucrt:output.obj
 0001:0009797c       ??$extract_argument_from_va_list@E_J@?$positional_parameter_base@_WV?$string_output_adapter@_W@__crt_stdio_output@@@__crt_stdio_output@@IEAA_NAEA_J@Z 000000014009897c f i libucrt:output.obj
 0001:00097ac8       ??$extract_argument_from_va_list@E_J@?$standard_base@DV?$stream_output_adapter@D@__crt_stdio_output@@@__crt_stdio_output@@IEAA_NAEA_J@Z 0000000140098ac8 f i libucrt:output.obj
 0001:00097ae4       ??$extract_argument_from_va_list@E_J@?$standard_base@DV?$string_output_adapter@D@__crt_stdio_output@@@__crt_stdio_output@@IEAA_NAEA_J@Z 0000000140098ae4 f i libucrt:output.obj
 0001:00097b00       ??$extract_argument_from_va_list@E_J@?$standard_base@_WV?$stream_output_adapter@_W@__crt_stdio_output@@@__crt_stdio_output@@IEAA_NAEA_J@Z 0000000140098b00 f i libucrt:output.obj
 0001:00097b1c       ??$extract_argument_from_va_list@E_J@?$standard_base@_WV?$string_output_adapter@_W@__crt_stdio_output@@@__crt_stdio_output@@IEAA_NAEA_J@Z 0000000140098b1c f i libucrt:output.obj
 0001:00097b38       ??$extract_argument_from_va_list@F_J@?$positional_parameter_base@DV?$stream_output_adapter@D@__crt_stdio_output@@@__crt_stdio_output@@IEAA_NAEA_J@Z 0000000140098b38 f i libucrt:output.obj
 0001:00097c84       ??$extract_argument_from_va_list@F_J@?$positional_parameter_base@DV?$string_output_adapter@D@__crt_stdio_output@@@__crt_stdio_output@@IEAA_NAEA_J@Z 0000000140098c84 f i libucrt:output.obj
 0001:00097dd0       ??$extract_argument_from_va_list@F_J@?$positional_parameter_base@_WV?$stream_output_adapter@_W@__crt_stdio_output@@@__crt_stdio_output@@IEAA_NAEA_J@Z 0000000140098dd0 f i libucrt:output.obj
 0001:00097f20       ??$extract_argument_from_va_list@F_J@?$positional_parameter_base@_WV?$string_output_adapter@_W@__crt_stdio_output@@@__crt_stdio_output@@IEAA_NAEA_J@Z 0000000140098f20 f i libucrt:output.obj
 0001:00098070       ??$extract_argument_from_va_list@F_J@?$standard_base@DV?$stream_output_adapter@D@__crt_stdio_output@@@__crt_stdio_output@@IEAA_NAEA_J@Z 0000000140099070 f i libucrt:output.obj
 0001:0009808c       ??$extract_argument_from_va_list@F_J@?$standard_base@DV?$string_output_adapter@D@__crt_stdio_output@@@__crt_stdio_output@@IEAA_NAEA_J@Z 000000014009908c f i libucrt:output.obj
 0001:000980a8       ??$extract_argument_from_va_list@F_J@?$standard_base@_WV?$stream_output_adapter@_W@__crt_stdio_output@@@__crt_stdio_output@@IEAA_NAEA_J@Z 00000001400990a8 f i libucrt:output.obj
 0001:000980c4       ??$extract_argument_from_va_list@F_J@?$standard_base@_WV?$string_output_adapter@_W@__crt_stdio_output@@@__crt_stdio_output@@IEAA_NAEA_J@Z 00000001400990c4 f i libucrt:output.obj
 0001:000980e0       ??$extract_argument_from_va_list@GD@?$positional_parameter_base@DV?$stream_output_adapter@D@__crt_stdio_output@@@__crt_stdio_output@@IEAA_NAEAD@Z 00000001400990e0 f i libucrt:output.obj
 0001:00098224       ??$extract_argument_from_va_list@GD@?$positional_parameter_base@DV?$string_output_adapter@D@__crt_stdio_output@@@__crt_stdio_output@@IEAA_NAEAD@Z 0000000140099224 f i libucrt:output.obj
 0001:00098368       ??$extract_argument_from_va_list@GD@?$standard_base@DV?$stream_output_adapter@D@__crt_stdio_output@@@__crt_stdio_output@@IEAA_NAEAD@Z 0000000140099368 f i libucrt:output.obj
 0001:00098384       ??$extract_argument_from_va_list@GD@?$standard_base@DV?$string_output_adapter@D@__crt_stdio_output@@@__crt_stdio_output@@IEAA_NAEAD@Z 0000000140099384 f i libucrt:output.obj
 0001:000983a0       ??$extract_argument_from_va_list@G_J@?$positional_parameter_base@DV?$stream_output_adapter@D@__crt_stdio_output@@@__crt_stdio_output@@IEAA_NAEA_J@Z 00000001400993a0 f i libucrt:output.obj
 0001:000984ec       ??$extract_argument_from_va_list@G_J@?$positional_parameter_base@DV?$string_output_adapter@D@__crt_stdio_output@@@__crt_stdio_output@@IEAA_NAEA_J@Z 00000001400994ec f i libucrt:output.obj
 0001:00098638       ??$extract_argument_from_va_list@G_J@?$positional_parameter_base@_WV?$stream_output_adapter@_W@__crt_stdio_output@@@__crt_stdio_output@@IEAA_NAEA_J@Z 0000000140099638 f i libucrt:output.obj
 0001:00098784       ??$extract_argument_from_va_list@G_J@?$positional_parameter_base@_WV?$string_output_adapter@_W@__crt_stdio_output@@@__crt_stdio_output@@IEAA_NAEA_J@Z 0000000140099784 f i libucrt:output.obj
 0001:000988d0       ??$extract_argument_from_va_list@G_J@?$standard_base@DV?$stream_output_adapter@D@__crt_stdio_output@@@__crt_stdio_output@@IEAA_NAEA_J@Z 00000001400998d0 f i libucrt:output.obj
 0001:000988ec       ??$extract_argument_from_va_list@G_J@?$standard_base@DV?$string_output_adapter@D@__crt_stdio_output@@@__crt_stdio_output@@IEAA_NAEA_J@Z 00000001400998ec f i libucrt:output.obj
 0001:00098908       ??$extract_argument_from_va_list@G_J@?$standard_base@_WV?$stream_output_adapter@_W@__crt_stdio_output@@@__crt_stdio_output@@IEAA_NAEA_J@Z 0000000140099908 f i libucrt:output.obj
 0001:00098924       ??$extract_argument_from_va_list@G_J@?$standard_base@_WV?$string_output_adapter@_W@__crt_stdio_output@@@__crt_stdio_output@@IEAA_NAEA_J@Z 0000000140099924 f i libucrt:output.obj
 0001:00098940       ??$extract_argument_from_va_list@H_J@?$positional_parameter_base@DV?$stream_output_adapter@D@__crt_stdio_output@@@__crt_stdio_output@@IEAA_NAEA_J@Z 0000000140099940 f i libucrt:output.obj
 0001:00098a88       ??$extract_argument_from_va_list@H_J@?$positional_parameter_base@DV?$string_output_adapter@D@__crt_stdio_output@@@__crt_stdio_output@@IEAA_NAEA_J@Z 0000000140099a88 f i libucrt:output.obj
 0001:00098bd0       ??$extract_argument_from_va_list@H_J@?$positional_parameter_base@_WV?$stream_output_adapter@_W@__crt_stdio_output@@@__crt_stdio_output@@IEAA_NAEA_J@Z 0000000140099bd0 f i libucrt:output.obj
 0001:00098d1c       ??$extract_argument_from_va_list@H_J@?$positional_parameter_base@_WV?$string_output_adapter@_W@__crt_stdio_output@@@__crt_stdio_output@@IEAA_NAEA_J@Z 0000000140099d1c f i libucrt:output.obj
 0001:00098e68       ??$extract_argument_from_va_list@H_J@?$standard_base@DV?$stream_output_adapter@D@__crt_stdio_output@@@__crt_stdio_output@@IEAA_NAEA_J@Z 0000000140099e68 f i libucrt:output.obj
 0001:00098e84       ??$extract_argument_from_va_list@H_J@?$standard_base@DV?$string_output_adapter@D@__crt_stdio_output@@@__crt_stdio_output@@IEAA_NAEA_J@Z 0000000140099e84 f i libucrt:output.obj
 0001:00098ea0       ??$extract_argument_from_va_list@H_J@?$standard_base@_WV?$stream_output_adapter@_W@__crt_stdio_output@@@__crt_stdio_output@@IEAA_NAEA_J@Z 0000000140099ea0 f i libucrt:output.obj
 0001:00098ebc       ??$extract_argument_from_va_list@H_J@?$standard_base@_WV?$string_output_adapter@_W@__crt_stdio_output@@@__crt_stdio_output@@IEAA_NAEA_J@Z 0000000140099ebc f i libucrt:output.obj
 0001:00098ed8       ??$extract_argument_from_va_list@I_J@?$positional_parameter_base@DV?$stream_output_adapter@D@__crt_stdio_output@@@__crt_stdio_output@@IEAA_NAEA_J@Z 0000000140099ed8 f i libucrt:output.obj
 0001:00099020       ??$extract_argument_from_va_list@I_J@?$positional_parameter_base@DV?$string_output_adapter@D@__crt_stdio_output@@@__crt_stdio_output@@IEAA_NAEA_J@Z 000000014009a020 f i libucrt:output.obj
 0001:00099168       ??$extract_argument_from_va_list@I_J@?$positional_parameter_base@_WV?$stream_output_adapter@_W@__crt_stdio_output@@@__crt_stdio_output@@IEAA_NAEA_J@Z 000000014009a168 f i libucrt:output.obj
 0001:000992b4       ??$extract_argument_from_va_list@I_J@?$positional_parameter_base@_WV?$string_output_adapter@_W@__crt_stdio_output@@@__crt_stdio_output@@IEAA_NAEA_J@Z 000000014009a2b4 f i libucrt:output.obj
 0001:00099400       ??$extract_argument_from_va_list@I_J@?$standard_base@DV?$stream_output_adapter@D@__crt_stdio_output@@@__crt_stdio_output@@IEAA_NAEA_J@Z 000000014009a400 f i libucrt:output.obj
 0001:0009941c       ??$extract_argument_from_va_list@I_J@?$standard_base@DV?$string_output_adapter@D@__crt_stdio_output@@@__crt_stdio_output@@IEAA_NAEA_J@Z 000000014009a41c f i libucrt:output.obj
 0001:00099438       ??$extract_argument_from_va_list@I_J@?$standard_base@_WV?$stream_output_adapter@_W@__crt_stdio_output@@@__crt_stdio_output@@IEAA_NAEA_J@Z 000000014009a438 f i libucrt:output.obj
 0001:00099454       ??$extract_argument_from_va_list@I_J@?$standard_base@_WV?$string_output_adapter@_W@__crt_stdio_output@@@__crt_stdio_output@@IEAA_NAEA_J@Z 000000014009a454 f i libucrt:output.obj
 0001:00099470       ??$extract_argument_from_va_list@PEADPEAD@?$positional_parameter_base@DV?$stream_output_adapter@D@__crt_stdio_output@@@__crt_stdio_output@@IEAA_NAEAPEAD@Z 000000014009a470 f i libucrt:output.obj
 0001:000995b8       ??$extract_argument_from_va_list@PEADPEAD@?$positional_parameter_base@DV?$string_output_adapter@D@__crt_stdio_output@@@__crt_stdio_output@@IEAA_NAEAPEAD@Z 000000014009a5b8 f i libucrt:output.obj
 0001:00099700       ??$extract_argument_from_va_list@PEADPEAD@?$positional_parameter_base@_WV?$stream_output_adapter@_W@__crt_stdio_output@@@__crt_stdio_output@@IEAA_NAEAPEAD@Z 000000014009a700 f i libucrt:output.obj
 0001:0009984c       ??$extract_argument_from_va_list@PEADPEAD@?$positional_parameter_base@_WV?$string_output_adapter@_W@__crt_stdio_output@@@__crt_stdio_output@@IEAA_NAEAPEAD@Z 000000014009a84c f i libucrt:output.obj
 0001:00099998       ??$extract_argument_from_va_list@PEADPEAD@?$standard_base@DV?$stream_output_adapter@D@__crt_stdio_output@@@__crt_stdio_output@@IEAA_NAEAPEAD@Z 000000014009a998 f i libucrt:output.obj
 0001:000999b4       ??$extract_argument_from_va_list@PEADPEAD@?$standard_base@DV?$string_output_adapter@D@__crt_stdio_output@@@__crt_stdio_output@@IEAA_NAEAPEAD@Z 000000014009a9b4 f i libucrt:output.obj
 0001:000999d0       ??$extract_argument_from_va_list@PEADPEAD@?$standard_base@_WV?$stream_output_adapter@_W@__crt_stdio_output@@@__crt_stdio_output@@IEAA_NAEAPEAD@Z 000000014009a9d0 f i libucrt:output.obj
 0001:000999ec       ??$extract_argument_from_va_list@PEADPEAD@?$standard_base@_WV?$string_output_adapter@_W@__crt_stdio_output@@@__crt_stdio_output@@IEAA_NAEAPEAD@Z 000000014009a9ec f i libucrt:output.obj
 0001:00099a08       ??$extract_argument_from_va_list@PEAUansi_string@?1??type_case_Z@?$output_processor@DV?$stream_output_adapter@D@__crt_stdio_output@@V?$format_validation_base@DV?$stream_output_adapter@D@__crt_stdio_output@@@2@@__crt_stdio_output@@AEAA_NXZ@PEAU1?1??234@AEAA_NXZ@@?$standard_base@DV?$stream_output_adapter@D@__crt_stdio_output@@@__crt_stdio_output@@IEAA_NAEAPEAUansi_string@?1??type_case_Z@?$output_processor@DV?$stream_output_adapter@D@__crt_stdio_output@@V?$format_validation_base@DV?$stream_output_adapter@D@__crt_stdio_output@@@2@@1@AEAA_NXZ@@Z 000000014009aa08 f i libucrt:output.obj
 0001:00099a24       ??$extract_argument_from_va_list@PEAUansi_string@?1??type_case_Z@?$output_processor@DV?$stream_output_adapter@D@__crt_stdio_output@@V?$positional_parameter_base@DV?$stream_output_adapter@D@__crt_stdio_output@@@2@@__crt_stdio_output@@AEAA_NXZ@PEAU1?1??234@AEAA_NXZ@@?$positional_parameter_base@DV?$stream_output_adapter@D@__crt_stdio_output@@@__crt_stdio_output@@IEAA_NAEAPEAUansi_string@?1??type_case_Z@?$output_processor@DV?$stream_output_adapter@D@__crt_stdio_output@@V?$positional_parameter_base@DV?$stream_output_adapter@D@__crt_stdio_output@@@2@@1@AEAA_NXZ@@Z 000000014009aa24 f i libucrt:output.obj
 0001:00099b6c       ??$extract_argument_from_va_list@PEAUansi_string@?1??type_case_Z@?$output_processor@DV?$stream_output_adapter@D@__crt_stdio_output@@V?$positional_parameter_base@DV?$stream_output_adapter@D@__crt_stdio_output@@@2@@__crt_stdio_output@@AEAA_NXZ@PEAU1?1??234@AEAA_NXZ@@?$standard_base@DV?$stream_output_adapter@D@__crt_stdio_output@@@__crt_stdio_output@@IEAA_NAEAPEAUansi_string@?1??type_case_Z@?$output_processor@DV?$stream_output_adapter@D@__crt_stdio_output@@V?$positional_parameter_base@DV?$stream_output_adapter@D@__crt_stdio_output@@@2@@1@AEAA_NXZ@@Z 000000014009ab6c f i libucrt:output.obj
 0001:00099b88       ??$extract_argument_from_va_list@PEAUansi_string@?1??type_case_Z@?$output_processor@DV?$stream_output_adapter@D@__crt_stdio_output@@V?$standard_base@DV?$stream_output_adapter@D@__crt_stdio_output@@@2@@__crt_stdio_output@@AEAA_NXZ@PEAU1?1??234@AEAA_NXZ@@?$standard_base@DV?$stream_output_adapter@D@__crt_stdio_output@@@__crt_stdio_output@@IEAA_NAEAPEAUansi_string@?1??type_case_Z@?$output_processor@DV?$stream_output_adapter@D@__crt_stdio_output@@V?$standard_base@DV?$stream_output_adapter@D@__crt_stdio_output@@@2@@1@AEAA_NXZ@@Z 000000014009ab88 f i libucrt:output.obj
 0001:00099ba4       ??$extract_argument_from_va_list@PEAUansi_string@?1??type_case_Z@?$output_processor@DV?$string_output_adapter@D@__crt_stdio_output@@V?$format_validation_base@DV?$string_output_adapter@D@__crt_stdio_output@@@2@@__crt_stdio_output@@AEAA_NXZ@PEAU1?1??234@AEAA_NXZ@@?$standard_base@DV?$string_output_adapter@D@__crt_stdio_output@@@__crt_stdio_output@@IEAA_NAEAPEAUansi_string@?1??type_case_Z@?$output_processor@DV?$string_output_adapter@D@__crt_stdio_output@@V?$format_validation_base@DV?$string_output_adapter@D@__crt_stdio_output@@@2@@1@AEAA_NXZ@@Z 000000014009aba4 f i libucrt:output.obj
 0001:00099bc0       ??$extract_argument_from_va_list@PEAUansi_string@?1??type_case_Z@?$output_processor@DV?$string_output_adapter@D@__crt_stdio_output@@V?$positional_parameter_base@DV?$string_output_adapter@D@__crt_stdio_output@@@2@@__crt_stdio_output@@AEAA_NXZ@PEAU1?1??234@AEAA_NXZ@@?$positional_parameter_base@DV?$string_output_adapter@D@__crt_stdio_output@@@__crt_stdio_output@@IEAA_NAEAPEAUansi_string@?1??type_case_Z@?$output_processor@DV?$string_output_adapter@D@__crt_stdio_output@@V?$positional_parameter_base@DV?$string_output_adapter@D@__crt_stdio_output@@@2@@1@AEAA_NXZ@@Z 000000014009abc0 f i libucrt:output.obj
 0001:00099d08       ??$extract_argument_from_va_list@PEAUansi_string@?1??type_case_Z@?$output_processor@DV?$string_output_adapter@D@__crt_stdio_output@@V?$positional_parameter_base@DV?$string_output_adapter@D@__crt_stdio_output@@@2@@__crt_stdio_output@@AEAA_NXZ@PEAU1?1??234@AEAA_NXZ@@?$standard_base@DV?$string_output_adapter@D@__crt_stdio_output@@@__crt_stdio_output@@IEAA_NAEAPEAUansi_string@?1??type_case_Z@?$output_processor@DV?$string_output_adapter@D@__crt_stdio_output@@V?$positional_parameter_base@DV?$string_output_adapter@D@__crt_stdio_output@@@2@@1@AEAA_NXZ@@Z 000000014009ad08 f i libucrt:output.obj
 0001:00099d24       ??$extract_argument_from_va_list@PEAUansi_string@?1??type_case_Z@?$output_processor@DV?$string_output_adapter@D@__crt_stdio_output@@V?$standard_base@DV?$string_output_adapter@D@__crt_stdio_output@@@2@@__crt_stdio_output@@AEAA_NXZ@PEAU1?1??234@AEAA_NXZ@@?$standard_base@DV?$string_output_adapter@D@__crt_stdio_output@@@__crt_stdio_output@@IEAA_NAEAPEAUansi_string@?1??type_case_Z@?$output_processor@DV?$string_output_adapter@D@__crt_stdio_output@@V?$standard_base@DV?$string_output_adapter@D@__crt_stdio_output@@@2@@1@AEAA_NXZ@@Z 000000014009ad24 f i libucrt:output.obj
 0001:00099d40       ??$extract_argument_from_va_list@PEAUansi_string@?1??type_case_Z@?$output_processor@_WV?$stream_output_adapter@_W@__crt_stdio_output@@V?$format_validation_base@_WV?$stream_output_adapter@_W@__crt_stdio_output@@@2@@__crt_stdio_output@@AEAA_NXZ@PEAU1?1??234@AEAA_NXZ@@?$standard_base@_WV?$stream_output_adapter@_W@__crt_stdio_output@@@__crt_stdio_output@@IEAA_NAEAPEAUansi_string@?1??type_case_Z@?$output_processor@_WV?$stream_output_adapter@_W@__crt_stdio_output@@V?$format_validation_base@_WV?$stream_output_adapter@_W@__crt_stdio_output@@@2@@1@AEAA_NXZ@@Z 000000014009ad40 f i libucrt:output.obj
 0001:00099d5c       ??$extract_argument_from_va_list@PEAUansi_string@?1??type_case_Z@?$output_processor@_WV?$stream_output_adapter@_W@__crt_stdio_output@@V?$positional_parameter_base@_WV?$stream_output_adapter@_W@__crt_stdio_output@@@2@@__crt_stdio_output@@AEAA_NXZ@PEAU1?1??234@AEAA_NXZ@@?$positional_parameter_base@_WV?$stream_output_adapter@_W@__crt_stdio_output@@@__crt_stdio_output@@IEAA_NAEAPEAUansi_string@?1??type_case_Z@?$output_processor@_WV?$stream_output_adapter@_W@__crt_stdio_output@@V?$positional_parameter_base@_WV?$stream_output_adapter@_W@__crt_stdio_output@@@2@@1@AEAA_NXZ@@Z 000000014009ad5c f i libucrt:output.obj
 0001:00099ea8       ??$extract_argument_from_va_list@PEAUansi_string@?1??type_case_Z@?$output_processor@_WV?$stream_output_adapter@_W@__crt_stdio_output@@V?$positional_parameter_base@_WV?$stream_output_adapter@_W@__crt_stdio_output@@@2@@__crt_stdio_output@@AEAA_NXZ@PEAU1?1??234@AEAA_NXZ@@?$standard_base@_WV?$stream_output_adapter@_W@__crt_stdio_output@@@__crt_stdio_output@@IEAA_NAEAPEAUansi_string@?1??type_case_Z@?$output_processor@_WV?$stream_output_adapter@_W@__crt_stdio_output@@V?$positional_parameter_base@_WV?$stream_output_adapter@_W@__crt_stdio_output@@@2@@1@AEAA_NXZ@@Z 000000014009aea8 f i libucrt:output.obj
 0001:00099ec4       ??$extract_argument_from_va_list@PEAUansi_string@?1??type_case_Z@?$output_processor@_WV?$stream_output_adapter@_W@__crt_stdio_output@@V?$standard_base@_WV?$stream_output_adapter@_W@__crt_stdio_output@@@2@@__crt_stdio_output@@AEAA_NXZ@PEAU1?1??234@AEAA_NXZ@@?$standard_base@_WV?$stream_output_adapter@_W@__crt_stdio_output@@@__crt_stdio_output@@IEAA_NAEAPEAUansi_string@?1??type_case_Z@?$output_processor@_WV?$stream_output_adapter@_W@__crt_stdio_output@@V?$standard_base@_WV?$stream_output_adapter@_W@__crt_stdio_output@@@2@@1@AEAA_NXZ@@Z 000000014009aec4 f i libucrt:output.obj
 0001:00099ee0       ??$extract_argument_from_va_list@PEAUansi_string@?1??type_case_Z@?$output_processor@_WV?$string_output_adapter@_W@__crt_stdio_output@@V?$format_validation_base@_WV?$string_output_adapter@_W@__crt_stdio_output@@@2@@__crt_stdio_output@@AEAA_NXZ@PEAU1?1??234@AEAA_NXZ@@?$standard_base@_WV?$string_output_adapter@_W@__crt_stdio_output@@@__crt_stdio_output@@IEAA_NAEAPEAUansi_string@?1??type_case_Z@?$output_processor@_WV?$string_output_adapter@_W@__crt_stdio_output@@V?$format_validation_base@_WV?$string_output_adapter@_W@__crt_stdio_output@@@2@@1@AEAA_NXZ@@Z 000000014009aee0 f i libucrt:output.obj
 0001:00099efc       ??$extract_argument_from_va_list@PEAUansi_string@?1??type_case_Z@?$output_processor@_WV?$string_output_adapter@_W@__crt_stdio_output@@V?$positional_parameter_base@_WV?$string_output_adapter@_W@__crt_stdio_output@@@2@@__crt_stdio_output@@AEAA_NXZ@PEAU1?1??234@AEAA_NXZ@@?$positional_parameter_base@_WV?$string_output_adapter@_W@__crt_stdio_output@@@__crt_stdio_output@@IEAA_NAEAPEAUansi_string@?1??type_case_Z@?$output_processor@_WV?$string_output_adapter@_W@__crt_stdio_output@@V?$positional_parameter_base@_WV?$string_output_adapter@_W@__crt_stdio_output@@@2@@1@AEAA_NXZ@@Z 000000014009aefc f i libucrt:output.obj
 0001:0009a048       ??$extract_argument_from_va_list@PEAUansi_string@?1??type_case_Z@?$output_processor@_WV?$string_output_adapter@_W@__crt_stdio_output@@V?$positional_parameter_base@_WV?$string_output_adapter@_W@__crt_stdio_output@@@2@@__crt_stdio_output@@AEAA_NXZ@PEAU1?1??234@AEAA_NXZ@@?$standard_base@_WV?$string_output_adapter@_W@__crt_stdio_output@@@__crt_stdio_output@@IEAA_NAEAPEAUansi_string@?1??type_case_Z@?$output_processor@_WV?$string_output_adapter@_W@__crt_stdio_output@@V?$positional_parameter_base@_WV?$string_output_adapter@_W@__crt_stdio_output@@@2@@1@AEAA_NXZ@@Z 000000014009b048 f i libucrt:output.obj
 0001:0009a064       ??$extract_argument_from_va_list@PEAUansi_string@?1??type_case_Z@?$output_processor@_WV?$string_output_adapter@_W@__crt_stdio_output@@V?$standard_base@_WV?$string_output_adapter@_W@__crt_stdio_output@@@2@@__crt_stdio_output@@AEAA_NXZ@PEAU1?1??234@AEAA_NXZ@@?$standard_base@_WV?$string_output_adapter@_W@__crt_stdio_output@@@__crt_stdio_output@@IEAA_NAEAPEAUansi_string@?1??type_case_Z@?$output_processor@_WV?$string_output_adapter@_W@__crt_stdio_output@@V?$standard_base@_WV?$string_output_adapter@_W@__crt_stdio_output@@@2@@1@AEAA_NXZ@@Z 000000014009b064 f i libucrt:output.obj
 0001:0009a080       ??$extract_argument_from_va_list@PEAXPEAX@?$positional_parameter_base@DV?$stream_output_adapter@D@__crt_stdio_output@@@__crt_stdio_output@@IEAA_NAEAPEAX@Z 000000014009b080 f i libucrt:output.obj
 0001:0009a1c8       ??$extract_argument_from_va_list@PEAXPEAX@?$positional_parameter_base@DV?$string_output_adapter@D@__crt_stdio_output@@@__crt_stdio_output@@IEAA_NAEAPEAX@Z 000000014009b1c8 f i libucrt:output.obj
 0001:0009a310       ??$extract_argument_from_va_list@PEAXPEAX@?$positional_parameter_base@_WV?$stream_output_adapter@_W@__crt_stdio_output@@@__crt_stdio_output@@IEAA_NAEAPEAX@Z 000000014009b310 f i libucrt:output.obj
 0001:0009a45c       ??$extract_argument_from_va_list@PEAXPEAX@?$positional_parameter_base@_WV?$string_output_adapter@_W@__crt_stdio_output@@@__crt_stdio_output@@IEAA_NAEAPEAX@Z 000000014009b45c f i libucrt:output.obj
 0001:0009a5a8       ??$extract_argument_from_va_list@PEAXPEAX@?$standard_base@DV?$stream_output_adapter@D@__crt_stdio_output@@@__crt_stdio_output@@IEAA_NAEAPEAX@Z 000000014009b5a8 f i libucrt:output.obj
 0001:0009a5c4       ??$extract_argument_from_va_list@PEAXPEAX@?$standard_base@DV?$string_output_adapter@D@__crt_stdio_output@@@__crt_stdio_output@@IEAA_NAEAPEAX@Z 000000014009b5c4 f i libucrt:output.obj
 0001:0009a5e0       ??$extract_argument_from_va_list@PEAXPEAX@?$standard_base@_WV?$stream_output_adapter@_W@__crt_stdio_output@@@__crt_stdio_output@@IEAA_NAEAPEAX@Z 000000014009b5e0 f i libucrt:output.obj
 0001:0009a5fc       ??$extract_argument_from_va_list@PEAXPEAX@?$standard_base@_WV?$string_output_adapter@_W@__crt_stdio_output@@@__crt_stdio_output@@IEAA_NAEAPEAX@Z 000000014009b5fc f i libucrt:output.obj
 0001:0009a618       ??$extract_argument_from_va_list@U_CRT_DOUBLE@@U1@@?$positional_parameter_base@DV?$stream_output_adapter@D@__crt_stdio_output@@@__crt_stdio_output@@IEAA_NAEAU_CRT_DOUBLE@@@Z 000000014009b618 f i libucrt:output.obj
 0001:0009a764       ??$extract_argument_from_va_list@U_CRT_DOUBLE@@U1@@?$positional_parameter_base@DV?$string_output_adapter@D@__crt_stdio_output@@@__crt_stdio_output@@IEAA_NAEAU_CRT_DOUBLE@@@Z 000000014009b764 f i libucrt:output.obj
 0001:0009a8b0       ??$extract_argument_from_va_list@U_CRT_DOUBLE@@U1@@?$positional_parameter_base@_WV?$stream_output_adapter@_W@__crt_stdio_output@@@__crt_stdio_output@@IEAA_NAEAU_CRT_DOUBLE@@@Z 000000014009b8b0 f i libucrt:output.obj
 0001:0009a9fc       ??$extract_argument_from_va_list@U_CRT_DOUBLE@@U1@@?$positional_parameter_base@_WV?$string_output_adapter@_W@__crt_stdio_output@@@__crt_stdio_output@@IEAA_NAEAU_CRT_DOUBLE@@@Z 000000014009b9fc f i libucrt:output.obj
 0001:0009ab48       ??$extract_argument_from_va_list@U_CRT_DOUBLE@@U1@@?$standard_base@DV?$stream_output_adapter@D@__crt_stdio_output@@@__crt_stdio_output@@IEAA_NAEAU_CRT_DOUBLE@@@Z 000000014009bb48 f i libucrt:output.obj
 0001:0009ab68       ??$extract_argument_from_va_list@U_CRT_DOUBLE@@U1@@?$standard_base@DV?$string_output_adapter@D@__crt_stdio_output@@@__crt_stdio_output@@IEAA_NAEAU_CRT_DOUBLE@@@Z 000000014009bb68 f i libucrt:output.obj
 0001:0009ab88       ??$extract_argument_from_va_list@U_CRT_DOUBLE@@U1@@?$standard_base@_WV?$stream_output_adapter@_W@__crt_stdio_output@@@__crt_stdio_output@@IEAA_NAEAU_CRT_DOUBLE@@@Z 000000014009bb88 f i libucrt:output.obj
 0001:0009aba8       ??$extract_argument_from_va_list@U_CRT_DOUBLE@@U1@@?$standard_base@_WV?$string_output_adapter@_W@__crt_stdio_output@@@__crt_stdio_output@@IEAA_NAEAU_CRT_DOUBLE@@@Z 000000014009bba8 f i libucrt:output.obj
 0001:0009abc8       ??$extract_argument_from_va_list@_J_J@?$positional_parameter_base@DV?$stream_output_adapter@D@__crt_stdio_output@@@__crt_stdio_output@@IEAA_NAEA_J@Z 000000014009bbc8 f i libucrt:output.obj
 0001:0009ad10       ??$extract_argument_from_va_list@_J_J@?$positional_parameter_base@DV?$string_output_adapter@D@__crt_stdio_output@@@__crt_stdio_output@@IEAA_NAEA_J@Z 000000014009bd10 f i libucrt:output.obj
 0001:0009ae58       ??$extract_argument_from_va_list@_J_J@?$positional_parameter_base@_WV?$stream_output_adapter@_W@__crt_stdio_output@@@__crt_stdio_output@@IEAA_NAEA_J@Z 000000014009be58 f i libucrt:output.obj
 0001:0009afa4       ??$extract_argument_from_va_list@_J_J@?$positional_parameter_base@_WV?$string_output_adapter@_W@__crt_stdio_output@@@__crt_stdio_output@@IEAA_NAEA_J@Z 000000014009bfa4 f i libucrt:output.obj
 0001:0009b0f0       ??$extract_argument_from_va_list@_J_J@?$standard_base@DV?$stream_output_adapter@D@__crt_stdio_output@@@__crt_stdio_output@@IEAA_NAEA_J@Z 000000014009c0f0 f i libucrt:output.obj
 0001:0009b10c       ??$extract_argument_from_va_list@_J_J@?$standard_base@DV?$string_output_adapter@D@__crt_stdio_output@@@__crt_stdio_output@@IEAA_NAEA_J@Z 000000014009c10c f i libucrt:output.obj
 0001:0009b128       ??$extract_argument_from_va_list@_J_J@?$standard_base@_WV?$stream_output_adapter@_W@__crt_stdio_output@@@__crt_stdio_output@@IEAA_NAEA_J@Z 000000014009c128 f i libucrt:output.obj
 0001:0009b144       ??$extract_argument_from_va_list@_J_J@?$standard_base@_WV?$string_output_adapter@_W@__crt_stdio_output@@@__crt_stdio_output@@IEAA_NAEA_J@Z 000000014009c144 f i libucrt:output.obj
 0001:0009b160       ??$extract_argument_from_va_list@_K_J@?$positional_parameter_base@DV?$stream_output_adapter@D@__crt_stdio_output@@@__crt_stdio_output@@IEAA_NAEA_J@Z 000000014009c160 f i libucrt:output.obj
 0001:0009b2a8       ??$extract_argument_from_va_list@_K_J@?$positional_parameter_base@DV?$string_output_adapter@D@__crt_stdio_output@@@__crt_stdio_output@@IEAA_NAEA_J@Z 000000014009c2a8 f i libucrt:output.obj
 0001:0009b3f0       ??$extract_argument_from_va_list@_K_J@?$positional_parameter_base@_WV?$stream_output_adapter@_W@__crt_stdio_output@@@__crt_stdio_output@@IEAA_NAEA_J@Z 000000014009c3f0 f i libucrt:output.obj
 0001:0009b53c       ??$extract_argument_from_va_list@_K_J@?$positional_parameter_base@_WV?$string_output_adapter@_W@__crt_stdio_output@@@__crt_stdio_output@@IEAA_NAEA_J@Z 000000014009c53c f i libucrt:output.obj
 0001:0009b688       ??$extract_argument_from_va_list@_K_J@?$standard_base@DV?$stream_output_adapter@D@__crt_stdio_output@@@__crt_stdio_output@@IEAA_NAEA_J@Z 000000014009c688 f i libucrt:output.obj
 0001:0009b6a4       ??$extract_argument_from_va_list@_K_J@?$standard_base@DV?$string_output_adapter@D@__crt_stdio_output@@@__crt_stdio_output@@IEAA_NAEA_J@Z 000000014009c6a4 f i libucrt:output.obj
 0001:0009b6c0       ??$extract_argument_from_va_list@_K_J@?$standard_base@_WV?$stream_output_adapter@_W@__crt_stdio_output@@@__crt_stdio_output@@IEAA_NAEA_J@Z 000000014009c6c0 f i libucrt:output.obj
 0001:0009b6dc       ??$extract_argument_from_va_list@_K_J@?$standard_base@_WV?$string_output_adapter@_W@__crt_stdio_output@@@__crt_stdio_output@@IEAA_NAEA_J@Z 000000014009c6dc f i libucrt:output.obj
 0001:0009b6f8       ??$extract_argument_from_va_list@_W_W@?$positional_parameter_base@DV?$stream_output_adapter@D@__crt_stdio_output@@@__crt_stdio_output@@IEAA_NAEA_W@Z 000000014009c6f8 f i libucrt:output.obj
 0001:0009b840       ??$extract_argument_from_va_list@_W_W@?$positional_parameter_base@DV?$string_output_adapter@D@__crt_stdio_output@@@__crt_stdio_output@@IEAA_NAEA_W@Z 000000014009c840 f i libucrt:output.obj
 0001:0009b988       ??$extract_argument_from_va_list@_W_W@?$positional_parameter_base@_WV?$stream_output_adapter@_W@__crt_stdio_output@@@__crt_stdio_output@@IEAA_NAEA_W@Z 000000014009c988 f i libucrt:output.obj
 0001:0009bad4       ??$extract_argument_from_va_list@_W_W@?$positional_parameter_base@_WV?$string_output_adapter@_W@__crt_stdio_output@@@__crt_stdio_output@@IEAA_NAEA_W@Z 000000014009cad4 f i libucrt:output.obj
 0001:0009bc20       ??$extract_argument_from_va_list@_W_W@?$standard_base@DV?$stream_output_adapter@D@__crt_stdio_output@@@__crt_stdio_output@@IEAA_NAEA_W@Z 000000014009cc20 f i libucrt:output.obj
 0001:0009bc3c       ??$extract_argument_from_va_list@_W_W@?$standard_base@DV?$string_output_adapter@D@__crt_stdio_output@@@__crt_stdio_output@@IEAA_NAEA_W@Z 000000014009cc3c f i libucrt:output.obj
 0001:0009bc58       ??$extract_argument_from_va_list@_W_W@?$standard_base@_WV?$stream_output_adapter@_W@__crt_stdio_output@@@__crt_stdio_output@@IEAA_NAEA_W@Z 000000014009cc58 f i libucrt:output.obj
 0001:0009bc74       ??$extract_argument_from_va_list@_W_W@?$standard_base@_WV?$string_output_adapter@_W@__crt_stdio_output@@@__crt_stdio_output@@IEAA_NAEA_W@Z 000000014009cc74 f i libucrt:output.obj
 0001:0009bc90       ??$get_parameter_type@D@?$positional_parameter_base@DV?$stream_output_adapter@D@__crt_stdio_output@@@__crt_stdio_output@@CA?AW4parameter_type@01@PEAD@Z 000000014009cc90 f i libucrt:output.obj
 0001:0009bc98       ??$get_parameter_type@D@?$positional_parameter_base@DV?$string_output_adapter@D@__crt_stdio_output@@@__crt_stdio_output@@CA?AW4parameter_type@01@PEAD@Z 000000014009cc98 f i libucrt:output.obj
 0001:0009bca0       ??$get_parameter_type@D@?$positional_parameter_base@_WV?$stream_output_adapter@_W@__crt_stdio_output@@@__crt_stdio_output@@CA?AW4parameter_type@01@PEAD@Z 000000014009cca0 f i libucrt:output.obj
 0001:0009bca8       ??$get_parameter_type@D@?$positional_parameter_base@_WV?$string_output_adapter@_W@__crt_stdio_output@@@__crt_stdio_output@@CA?AW4parameter_type@01@PEAD@Z 000000014009cca8 f i libucrt:output.obj
 0001:0009bcb0       ??$get_parameter_type@Uansi_string@?1??type_case_Z@?$output_processor@DV?$stream_output_adapter@D@__crt_stdio_output@@V?$positional_parameter_base@DV?$stream_output_adapter@D@__crt_stdio_output@@@2@@__crt_stdio_output@@AEAA_NXZ@@?$positional_parameter_base@DV?$stream_output_adapter@D@__crt_stdio_output@@@__crt_stdio_output@@CA?AW4parameter_type@01@PEAUansi_string@?1??type_case_Z@?$output_processor@DV?$stream_output_adapter@D@__crt_stdio_output@@V?$positional_parameter_base@DV?$stream_output_adapter@D@__crt_stdio_output@@@2@@1@AEAA_NXZ@@Z 000000014009ccb0 f i libucrt:output.obj
 0001:0009bcb8       ??$get_parameter_type@Uansi_string@?1??type_case_Z@?$output_processor@DV?$string_output_adapter@D@__crt_stdio_output@@V?$positional_parameter_base@DV?$string_output_adapter@D@__crt_stdio_output@@@2@@__crt_stdio_output@@AEAA_NXZ@@?$positional_parameter_base@DV?$string_output_adapter@D@__crt_stdio_output@@@__crt_stdio_output@@CA?AW4parameter_type@01@PEAUansi_string@?1??type_case_Z@?$output_processor@DV?$string_output_adapter@D@__crt_stdio_output@@V?$positional_parameter_base@DV?$string_output_adapter@D@__crt_stdio_output@@@2@@1@AEAA_NXZ@@Z 000000014009ccb8 f i libucrt:output.obj
 0001:0009bcc0       ??$get_parameter_type@Uansi_string@?1??type_case_Z@?$output_processor@_WV?$stream_output_adapter@_W@__crt_stdio_output@@V?$positional_parameter_base@_WV?$stream_output_adapter@_W@__crt_stdio_output@@@2@@__crt_stdio_output@@AEAA_NXZ@@?$positional_parameter_base@_WV?$stream_output_adapter@_W@__crt_stdio_output@@@__crt_stdio_output@@CA?AW4parameter_type@01@PEAUansi_string@?1??type_case_Z@?$output_processor@_WV?$stream_output_adapter@_W@__crt_stdio_output@@V?$positional_parameter_base@_WV?$stream_output_adapter@_W@__crt_stdio_output@@@2@@1@AEAA_NXZ@@Z 000000014009ccc0 f i libucrt:output.obj
 0001:0009bcc8       ??$get_parameter_type@Uansi_string@?1??type_case_Z@?$output_processor@_WV?$string_output_adapter@_W@__crt_stdio_output@@V?$positional_parameter_base@_WV?$string_output_adapter@_W@__crt_stdio_output@@@2@@__crt_stdio_output@@AEAA_NXZ@@?$positional_parameter_base@_WV?$string_output_adapter@_W@__crt_stdio_output@@@__crt_stdio_output@@CA?AW4parameter_type@01@PEAUansi_string@?1??type_case_Z@?$output_processor@_WV?$string_output_adapter@_W@__crt_stdio_output@@V?$positional_parameter_base@_WV?$string_output_adapter@_W@__crt_stdio_output@@@2@@1@AEAA_NXZ@@Z 000000014009ccc8 f i libucrt:output.obj
 0001:0009bcd0       ??$get_parameter_type@X@?$positional_parameter_base@DV?$stream_output_adapter@D@__crt_stdio_output@@@__crt_stdio_output@@CA?AW4parameter_type@01@PEAX@Z 000000014009ccd0 f i libucrt:output.obj
 0001:0009bcd8       ??$get_parameter_type@X@?$positional_parameter_base@DV?$string_output_adapter@D@__crt_stdio_output@@@__crt_stdio_output@@CA?AW4parameter_type@01@PEAX@Z 000000014009ccd8 f i libucrt:output.obj
 0001:0009bce0       ??$get_parameter_type@X@?$positional_parameter_base@_WV?$stream_output_adapter@_W@__crt_stdio_output@@@__crt_stdio_output@@CA?AW4parameter_type@01@PEAX@Z 000000014009cce0 f i libucrt:output.obj
 0001:0009bce8       ??$get_parameter_type@X@?$positional_parameter_base@_WV?$string_output_adapter@_W@__crt_stdio_output@@@__crt_stdio_output@@CA?AW4parameter_type@01@PEAX@Z 000000014009cce8 f i libucrt:output.obj
 0001:0009bcf0       ??$is_character_specifier@D@?$positional_parameter_base@DV?$stream_output_adapter@D@__crt_stdio_output@@@__crt_stdio_output@@CA_ND@Z 000000014009ccf0 f i libucrt:output.obj
 0001:0009bcfc       ??$is_character_specifier@D@?$positional_parameter_base@DV?$string_output_adapter@D@__crt_stdio_output@@@__crt_stdio_output@@CA_ND@Z 000000014009ccfc f i libucrt:output.obj
 0001:0009bd08       ??$is_character_specifier@_W@?$positional_parameter_base@_WV?$stream_output_adapter@_W@__crt_stdio_output@@@__crt_stdio_output@@CA_N_W@Z 000000014009cd08 f i libucrt:output.obj
 0001:0009bd1c       ??$is_character_specifier@_W@?$positional_parameter_base@_WV?$string_output_adapter@_W@__crt_stdio_output@@@__crt_stdio_output@@CA_N_W@Z 000000014009cd1c f i libucrt:output.obj
 0001:0009bd30       ??$is_integral_specifier@D@?$positional_parameter_base@DV?$stream_output_adapter@D@__crt_stdio_output@@@__crt_stdio_output@@CA_ND@Z 000000014009cd30 f i libucrt:output.obj
 0001:0009bd5c       ??$is_integral_specifier@D@?$positional_parameter_base@DV?$string_output_adapter@D@__crt_stdio_output@@@__crt_stdio_output@@CA_ND@Z 000000014009cd5c f i libucrt:output.obj
 0001:0009bd88       ??$is_integral_specifier@_W@?$positional_parameter_base@_WV?$stream_output_adapter@_W@__crt_stdio_output@@@__crt_stdio_output@@CA_N_W@Z 000000014009cd88 f i libucrt:output.obj
 0001:0009bdb8       ??$is_integral_specifier@_W@?$positional_parameter_base@_WV?$string_output_adapter@_W@__crt_stdio_output@@@__crt_stdio_output@@CA_N_W@Z 000000014009cdb8 f i libucrt:output.obj
 0001:0009bde8       ??$is_overflow_condition@K@__crt_strtox@@YA_NIK@Z 000000014009cde8 f i libucrt:output.obj
 0001:0009be18       ??$is_pointer_specifier@D@?$positional_parameter_base@DV?$stream_output_adapter@D@__crt_stdio_output@@@__crt_stdio_output@@CA_ND@Z 000000014009ce18 f i libucrt:output.obj
 0001:0009be20       ??$is_pointer_specifier@D@?$positional_parameter_base@DV?$string_output_adapter@D@__crt_stdio_output@@@__crt_stdio_output@@CA_ND@Z 000000014009ce20 f i libucrt:output.obj
 0001:0009be28       ??$is_pointer_specifier@_W@?$positional_parameter_base@_WV?$stream_output_adapter@_W@__crt_stdio_output@@@__crt_stdio_output@@CA_N_W@Z 000000014009ce28 f i libucrt:output.obj
 0001:0009be34       ??$is_pointer_specifier@_W@?$positional_parameter_base@_WV?$string_output_adapter@_W@__crt_stdio_output@@@__crt_stdio_output@@CA_N_W@Z 000000014009ce34 f i libucrt:output.obj
 0001:0009be40       ??$is_string_specifier@D@?$positional_parameter_base@DV?$stream_output_adapter@D@__crt_stdio_output@@@__crt_stdio_output@@CA_ND@Z 000000014009ce40 f i libucrt:output.obj
 0001:0009be4c       ??$is_string_specifier@D@?$positional_parameter_base@DV?$string_output_adapter@D@__crt_stdio_output@@@__crt_stdio_output@@CA_ND@Z 000000014009ce4c f i libucrt:output.obj
 0001:0009be58       ??$is_string_specifier@_W@?$positional_parameter_base@_WV?$stream_output_adapter@_W@__crt_stdio_output@@@__crt_stdio_output@@CA_N_W@Z 000000014009ce58 f i libucrt:output.obj
 0001:0009be6c       ??$is_string_specifier@_W@?$positional_parameter_base@_WV?$string_output_adapter@_W@__crt_stdio_output@@@__crt_stdio_output@@CA_N_W@Z 000000014009ce6c f i libucrt:output.obj
 0001:0009be80       ??$is_wide_character_specifier@D@__crt_stdio_output@@YA_N_KDW4length_modifier@0@@Z 000000014009ce80 f i libucrt:output.obj
 0001:0009beb4       ??$is_wide_character_specifier@_W@__crt_stdio_output@@YA_N_K_WW4length_modifier@0@@Z 000000014009ceb4 f i libucrt:output.obj
 0001:0009bf04       ??$make_c_string_character_source@DPEAPEAD@__crt_strtox@@YA?AV?$c_string_character_source@D@0@QEBDQEAPEAD@Z 000000014009cf04 f i libucrt:output.obj
 0001:0009bf1c       ??$make_c_string_character_source@_WPEAPEA_W@__crt_strtox@@YA?AV?$c_string_character_source@_W@0@QEB_WQEAPEA_W@Z 000000014009cf1c f i libucrt:output.obj
 0001:0009bf34       ??$parse_integer@KV?$c_string_character_source@D@__crt_strtox@@$0A@@__crt_strtox@@YAKAEAV__crt_cached_ptd_host@@V?$c_string_character_source@D@0@H_N@Z 000000014009cf34 f i libucrt:output.obj
 0001:0009c298       ??$parse_integer@KV?$c_string_character_source@_W@__crt_strtox@@$0A@@__crt_strtox@@YAKAEAV__crt_cached_ptd_host@@V?$c_string_character_source@_W@0@H_N@Z 000000014009d298 f i libucrt:output.obj
 0001:0009cbdc       ??$peek_va_arg@C@__crt_stdio_output@@YACPEAD@Z 000000014009dbdc f i libucrt:output.obj
 0001:0009cbe0       ??$peek_va_arg@E@__crt_stdio_output@@YAEPEAD@Z 000000014009dbe0 f i libucrt:output.obj
 0001:0009cbe4       ??$peek_va_arg@F@__crt_stdio_output@@YAFPEAD@Z 000000014009dbe4 f i libucrt:output.obj
 0001:0009cbe8       ??$peek_va_arg@G@__crt_stdio_output@@YAGPEAD@Z 000000014009dbe8 f i libucrt:output.obj
 0001:0009cbec       ??$peek_va_arg@H@__crt_stdio_output@@YAHPEAD@Z 000000014009dbec f i libucrt:output.obj
 0001:0009cbf0       ??$peek_va_arg@I@__crt_stdio_output@@YAIPEAD@Z 000000014009dbf0 f i libucrt:output.obj
 0001:0009cbf4       ??$peek_va_arg@PEAD@__crt_stdio_output@@YAPEADPEAD@Z 000000014009dbf4 f i libucrt:output.obj
 0001:0009cbf8       ??$peek_va_arg@PEAUansi_string@?1??type_case_Z@?$output_processor@DV?$stream_output_adapter@D@__crt_stdio_output@@V?$positional_parameter_base@DV?$stream_output_adapter@D@__crt_stdio_output@@@2@@__crt_stdio_output@@AEAA_NXZ@@__crt_stdio_output@@YAPEAUansi_string@?1??type_case_Z@?$output_processor@DV?$stream_output_adapter@D@__crt_stdio_output@@V?$positional_parameter_base@DV?$stream_output_adapter@D@__crt_stdio_output@@@2@@0@AEAA_NXZ@PEAD@Z 000000014009dbf8 f i libucrt:output.obj
 0001:0009cbfc       ??$peek_va_arg@PEAUansi_string@?1??type_case_Z@?$output_processor@DV?$string_output_adapter@D@__crt_stdio_output@@V?$positional_parameter_base@DV?$string_output_adapter@D@__crt_stdio_output@@@2@@__crt_stdio_output@@AEAA_NXZ@@__crt_stdio_output@@YAPEAUansi_string@?1??type_case_Z@?$output_processor@DV?$string_output_adapter@D@__crt_stdio_output@@V?$positional_parameter_base@DV?$string_output_adapter@D@__crt_stdio_output@@@2@@0@AEAA_NXZ@PEAD@Z 000000014009dbfc f i libucrt:output.obj
 0001:0009cc00       ??$peek_va_arg@PEAUansi_string@?1??type_case_Z@?$output_processor@_WV?$stream_output_adapter@_W@__crt_stdio_output@@V?$positional_parameter_base@_WV?$stream_output_adapter@_W@__crt_stdio_output@@@2@@__crt_stdio_output@@AEAA_NXZ@@__crt_stdio_output@@YAPEAUansi_string@?1??type_case_Z@?$output_processor@_WV?$stream_output_adapter@_W@__crt_stdio_output@@V?$positional_parameter_base@_WV?$stream_output_adapter@_W@__crt_stdio_output@@@2@@0@AEAA_NXZ@PEAD@Z 000000014009dc00 f i libucrt:output.obj
 0001:0009cc04       ??$peek_va_arg@PEAUansi_string@?1??type_case_Z@?$output_processor@_WV?$string_output_adapter@_W@__crt_stdio_output@@V?$positional_parameter_base@_WV?$string_output_adapter@_W@__crt_stdio_output@@@2@@__crt_stdio_output@@AEAA_NXZ@@__crt_stdio_output@@YAPEAUansi_string@?1??type_case_Z@?$output_processor@_WV?$string_output_adapter@_W@__crt_stdio_output@@V?$positional_parameter_base@_WV?$string_output_adapter@_W@__crt_stdio_output@@@2@@0@AEAA_NXZ@PEAD@Z 000000014009dc04 f i libucrt:output.obj
 0001:0009cc08       ??$peek_va_arg@PEAX@__crt_stdio_output@@YAPEAXPEAD@Z 000000014009dc08 f i libucrt:output.obj
 0001:0009cc0c       ??$peek_va_arg@U_CRT_DOUBLE@@@__crt_stdio_output@@YA?AU_CRT_DOUBLE@@PEAD@Z 000000014009dc0c f i libucrt:output.obj
 0001:0009cc10       ??$peek_va_arg@_J@__crt_stdio_output@@YA_JPEAD@Z 000000014009dc10 f i libucrt:output.obj
 0001:0009cc14       ??$peek_va_arg@_K@__crt_stdio_output@@YA_KPEAD@Z 000000014009dc14 f i libucrt:output.obj
 0001:0009cc18       ??$peek_va_arg@_W@__crt_stdio_output@@YA_WPEAD@Z 000000014009dc18 f i libucrt:output.obj
 0001:0009cc1c       ??$puttc_nolock_internal@AEBDPEAU_iobuf@@AEAV__crt_cached_ptd_host@@@?$__crt_char_traits@D@@SAHAEBD$$QEAPEAU_iobuf@@AEAV__crt_cached_ptd_host@@@Z 000000014009dc1c f i libucrt:output.obj
 0001:0009cc2c       ??$puttc_nolock_internal@AEB_WPEAU_iobuf@@AEAV__crt_cached_ptd_host@@@?$__crt_char_traits@_W@@SAGAEB_W$$QEAPEAU_iobuf@@AEAV__crt_cached_ptd_host@@@Z 000000014009dc2c f i libucrt:output.obj
 0001:0009cc3c       ??$read_va_arg@C@__crt_stdio_output@@YACAEAPEAD@Z 000000014009dc3c f i libucrt:output.obj
 0001:0009cc4c       ??$read_va_arg@E@__crt_stdio_output@@YAEAEAPEAD@Z 000000014009dc4c f i libucrt:output.obj
 0001:0009cc5c       ??$read_va_arg@F@__crt_stdio_output@@YAFAEAPEAD@Z 000000014009dc5c f i libucrt:output.obj
 0001:0009cc70       ??$read_va_arg@G@__crt_stdio_output@@YAGAEAPEAD@Z 000000014009dc70 f i libucrt:output.obj
 0001:0009cc84       ??$read_va_arg@H@__crt_stdio_output@@YAHAEAPEAD@Z 000000014009dc84 f i libucrt:output.obj
 0001:0009cc94       ??$read_va_arg@I@__crt_stdio_output@@YAIAEAPEAD@Z 000000014009dc94 f i libucrt:output.obj
 0001:0009cca4       ??$read_va_arg@PEAD@__crt_stdio_output@@YAPEADAEAPEAD@Z 000000014009dca4 f i libucrt:output.obj
 0001:0009ccb8       ??$read_va_arg@PEAUansi_string@?1??type_case_Z@?$output_processor@DV?$stream_output_adapter@D@__crt_stdio_output@@V?$format_validation_base@DV?$stream_output_adapter@D@__crt_stdio_output@@@2@@__crt_stdio_output@@AEAA_NXZ@@__crt_stdio_output@@YAPEAUansi_string@?1??type_case_Z@?$output_processor@DV?$stream_output_adapter@D@__crt_stdio_output@@V?$format_validation_base@DV?$stream_output_adapter@D@__crt_stdio_output@@@2@@0@AEAA_NXZ@AEAPEAD@Z 000000014009dcb8 f i libucrt:output.obj
 0001:0009cccc       ??$read_va_arg@PEAUansi_string@?1??type_case_Z@?$output_processor@DV?$stream_output_adapter@D@__crt_stdio_output@@V?$positional_parameter_base@DV?$stream_output_adapter@D@__crt_stdio_output@@@2@@__crt_stdio_output@@AEAA_NXZ@@__crt_stdio_output@@YAPEAUansi_string@?1??type_case_Z@?$output_processor@DV?$stream_output_adapter@D@__crt_stdio_output@@V?$positional_parameter_base@DV?$stream_output_adapter@D@__crt_stdio_output@@@2@@0@AEAA_NXZ@AEAPEAD@Z 000000014009dccc f i libucrt:output.obj
 0001:0009cce0       ??$read_va_arg@PEAUansi_string@?1??type_case_Z@?$output_processor@DV?$stream_output_adapter@D@__crt_stdio_output@@V?$standard_base@DV?$stream_output_adapter@D@__crt_stdio_output@@@2@@__crt_stdio_output@@AEAA_NXZ@@__crt_stdio_output@@YAPEAUansi_string@?1??type_case_Z@?$output_processor@DV?$stream_output_adapter@D@__crt_stdio_output@@V?$standard_base@DV?$stream_output_adapter@D@__crt_stdio_output@@@2@@0@AEAA_NXZ@AEAPEAD@Z 000000014009dce0 f i libucrt:output.obj
 0001:0009ccf4       ??$read_va_arg@PEAUansi_string@?1??type_case_Z@?$output_processor@DV?$string_output_adapter@D@__crt_stdio_output@@V?$format_validation_base@DV?$string_output_adapter@D@__crt_stdio_output@@@2@@__crt_stdio_output@@AEAA_NXZ@@__crt_stdio_output@@YAPEAUansi_string@?1??type_case_Z@?$output_processor@DV?$string_output_adapter@D@__crt_stdio_output@@V?$format_validation_base@DV?$string_output_adapter@D@__crt_stdio_output@@@2@@0@AEAA_NXZ@AEAPEAD@Z 000000014009dcf4 f i libucrt:output.obj
 0001:0009cd08       ??$read_va_arg@PEAUansi_string@?1??type_case_Z@?$output_processor@DV?$string_output_adapter@D@__crt_stdio_output@@V?$positional_parameter_base@DV?$string_output_adapter@D@__crt_stdio_output@@@2@@__crt_stdio_output@@AEAA_NXZ@@__crt_stdio_output@@YAPEAUansi_string@?1??type_case_Z@?$output_processor@DV?$string_output_adapter@D@__crt_stdio_output@@V?$positional_parameter_base@DV?$string_output_adapter@D@__crt_stdio_output@@@2@@0@AEAA_NXZ@AEAPEAD@Z 000000014009dd08 f i libucrt:output.obj
 0001:0009cd1c       ??$read_va_arg@PEAUansi_string@?1??type_case_Z@?$output_processor@DV?$string_output_adapter@D@__crt_stdio_output@@V?$standard_base@DV?$string_output_adapter@D@__crt_stdio_output@@@2@@__crt_stdio_output@@AEAA_NXZ@@__crt_stdio_output@@YAPEAUansi_string@?1??type_case_Z@?$output_processor@DV?$string_output_adapter@D@__crt_stdio_output@@V?$standard_base@DV?$string_output_adapter@D@__crt_stdio_output@@@2@@0@AEAA_NXZ@AEAPEAD@Z 000000014009dd1c f i libucrt:output.obj
 0001:0009cd30       ??$read_va_arg@PEAUansi_string@?1??type_case_Z@?$output_processor@_WV?$stream_output_adapter@_W@__crt_stdio_output@@V?$format_validation_base@_WV?$stream_output_adapter@_W@__crt_stdio_output@@@2@@__crt_stdio_output@@AEAA_NXZ@@__crt_stdio_output@@YAPEAUansi_string@?1??type_case_Z@?$output_processor@_WV?$stream_output_adapter@_W@__crt_stdio_output@@V?$format_validation_base@_WV?$stream_output_adapter@_W@__crt_stdio_output@@@2@@0@AEAA_NXZ@AEAPEAD@Z 000000014009dd30 f i libucrt:output.obj
 0001:0009cd44       ??$read_va_arg@PEAUansi_string@?1??type_case_Z@?$output_processor@_WV?$stream_output_adapter@_W@__crt_stdio_output@@V?$positional_parameter_base@_WV?$stream_output_adapter@_W@__crt_stdio_output@@@2@@__crt_stdio_output@@AEAA_NXZ@@__crt_stdio_output@@YAPEAUansi_string@?1??type_case_Z@?$output_processor@_WV?$stream_output_adapter@_W@__crt_stdio_output@@V?$positional_parameter_base@_WV?$stream_output_adapter@_W@__crt_stdio_output@@@2@@0@AEAA_NXZ@AEAPEAD@Z 000000014009dd44 f i libucrt:output.obj
 0001:0009cd58       ??$read_va_arg@PEAUansi_string@?1??type_case_Z@?$output_processor@_WV?$stream_output_adapter@_W@__crt_stdio_output@@V?$standard_base@_WV?$stream_output_adapter@_W@__crt_stdio_output@@@2@@__crt_stdio_output@@AEAA_NXZ@@__crt_stdio_output@@YAPEAUansi_string@?1??type_case_Z@?$output_processor@_WV?$stream_output_adapter@_W@__crt_stdio_output@@V?$standard_base@_WV?$stream_output_adapter@_W@__crt_stdio_output@@@2@@0@AEAA_NXZ@AEAPEAD@Z 000000014009dd58 f i libucrt:output.obj
 0001:0009cd6c       ??$read_va_arg@PEAUansi_string@?1??type_case_Z@?$output_processor@_WV?$string_output_adapter@_W@__crt_stdio_output@@V?$format_validation_base@_WV?$string_output_adapter@_W@__crt_stdio_output@@@2@@__crt_stdio_output@@AEAA_NXZ@@__crt_stdio_output@@YAPEAUansi_string@?1??type_case_Z@?$output_processor@_WV?$string_output_adapter@_W@__crt_stdio_output@@V?$format_validation_base@_WV?$string_output_adapter@_W@__crt_stdio_output@@@2@@0@AEAA_NXZ@AEAPEAD@Z 000000014009dd6c f i libucrt:output.obj
 0001:0009cd80       ??$read_va_arg@PEAUansi_string@?1??type_case_Z@?$output_processor@_WV?$string_output_adapter@_W@__crt_stdio_output@@V?$positional_parameter_base@_WV?$string_output_adapter@_W@__crt_stdio_output@@@2@@__crt_stdio_output@@AEAA_NXZ@@__crt_stdio_output@@YAPEAUansi_string@?1??type_case_Z@?$output_processor@_WV?$string_output_adapter@_W@__crt_stdio_output@@V?$positional_parameter_base@_WV?$string_output_adapter@_W@__crt_stdio_output@@@2@@0@AEAA_NXZ@AEAPEAD@Z 000000014009dd80 f i libucrt:output.obj
 0001:0009cd94       ??$read_va_arg@PEAUansi_string@?1??type_case_Z@?$output_processor@_WV?$string_output_adapter@_W@__crt_stdio_output@@V?$standard_base@_WV?$string_output_adapter@_W@__crt_stdio_output@@@2@@__crt_stdio_output@@AEAA_NXZ@@__crt_stdio_output@@YAPEAUansi_string@?1??type_case_Z@?$output_processor@_WV?$string_output_adapter@_W@__crt_stdio_output@@V?$standard_base@_WV?$string_output_adapter@_W@__crt_stdio_output@@@2@@0@AEAA_NXZ@AEAPEAD@Z 000000014009dd94 f i libucrt:output.obj
 0001:0009cda8       ??$read_va_arg@PEAX@__crt_stdio_output@@YAPEAXAEAPEAD@Z 000000014009dda8 f i libucrt:output.obj
 0001:0009cdbc       ??$read_va_arg@U_CRT_DOUBLE@@@__crt_stdio_output@@YA?AU_CRT_DOUBLE@@AEAPEAD@Z 000000014009ddbc f i libucrt:output.obj
 0001:0009cdd0       ??$read_va_arg@_J@__crt_stdio_output@@YA_JAEAPEAD@Z 000000014009ddd0 f i libucrt:output.obj
 0001:0009cde4       ??$read_va_arg@_K@__crt_stdio_output@@YA_KAEAPEAD@Z 000000014009dde4 f i libucrt:output.obj
 0001:0009cdf8       ??$read_va_arg@_W@__crt_stdio_output@@YA_WAEAPEAD@Z 000000014009ddf8 f i libucrt:output.obj
 0001:0009ce0c       ??$scratch_count@D@formatting_buffer@__crt_stdio_output@@QEBA_KXZ 000000014009de0c f i libucrt:output.obj
 0001:0009ce30       ??$scratch_data@D@formatting_buffer@__crt_stdio_output@@QEAAPEADXZ 000000014009de30 f i libucrt:output.obj
 0001:0009ce5c       ??$type_case_integer@$07@?$output_processor@DV?$stream_output_adapter@D@__crt_stdio_output@@V?$format_validation_base@DV?$stream_output_adapter@D@__crt_stdio_output@@@2@@__crt_stdio_output@@AEAA_N_N@Z 000000014009de5c f i libucrt:output.obj
 0001:0009d0e0       ??$type_case_integer@$07@?$output_processor@DV?$stream_output_adapter@D@__crt_stdio_output@@V?$positional_parameter_base@DV?$stream_output_adapter@D@__crt_stdio_output@@@2@@__crt_stdio_output@@AEAA_N_N@Z 000000014009e0e0 f i libucrt:output.obj
 0001:0009d3a4       ??$type_case_integer@$07@?$output_processor@DV?$stream_output_adapter@D@__crt_stdio_output@@V?$standard_base@DV?$stream_output_adapter@D@__crt_stdio_output@@@2@@__crt_stdio_output@@AEAA_N_N@Z 000000014009e3a4 f i libucrt:output.obj
 0001:0009d628       ??$type_case_integer@$07@?$output_processor@DV?$string_output_adapter@D@__crt_stdio_output@@V?$format_validation_base@DV?$string_output_adapter@D@__crt_stdio_output@@@2@@__crt_stdio_output@@AEAA_N_N@Z 000000014009e628 f i libucrt:output.obj
 0001:0009d8ac       ??$type_case_integer@$07@?$output_processor@DV?$string_output_adapter@D@__crt_stdio_output@@V?$positional_parameter_base@DV?$string_output_adapter@D@__crt_stdio_output@@@2@@__crt_stdio_output@@AEAA_N_N@Z 000000014009e8ac f i libucrt:output.obj
 0001:0009db70       ??$type_case_integer@$07@?$output_processor@DV?$string_output_adapter@D@__crt_stdio_output@@V?$standard_base@DV?$string_output_adapter@D@__crt_stdio_output@@@2@@__crt_stdio_output@@AEAA_N_N@Z 000000014009eb70 f i libucrt:output.obj
 0001:0009ddf4       ??$type_case_integer@$07@?$output_processor@_WV?$stream_output_adapter@_W@__crt_stdio_output@@V?$format_validation_base@_WV?$stream_output_adapter@_W@__crt_stdio_output@@@2@@__crt_stdio_output@@AEAA_N_N@Z 000000014009edf4 f i libucrt:output.obj
 0001:0009e080       ??$type_case_integer@$07@?$output_processor@_WV?$stream_output_adapter@_W@__crt_stdio_output@@V?$positional_parameter_base@_WV?$stream_output_adapter@_W@__crt_stdio_output@@@2@@__crt_stdio_output@@AEAA_N_N@Z 000000014009f080 f i libucrt:output.obj
 0001:0009e34c       ??$type_case_integer@$07@?$output_processor@_WV?$stream_output_adapter@_W@__crt_stdio_output@@V?$standard_base@_WV?$stream_output_adapter@_W@__crt_stdio_output@@@2@@__crt_stdio_output@@AEAA_N_N@Z 000000014009f34c f i libucrt:output.obj
 0001:0009e5d8       ??$type_case_integer@$07@?$output_processor@_WV?$string_output_adapter@_W@__crt_stdio_output@@V?$format_validation_base@_WV?$string_output_adapter@_W@__crt_stdio_output@@@2@@__crt_stdio_output@@AEAA_N_N@Z 000000014009f5d8 f i libucrt:output.obj
 0001:0009e864       ??$type_case_integer@$07@?$output_processor@_WV?$string_output_adapter@_W@__crt_stdio_output@@V?$positional_parameter_base@_WV?$string_output_adapter@_W@__crt_stdio_output@@@2@@__crt_stdio_output@@AEAA_N_N@Z 000000014009f864 f i libucrt:output.obj
 0001:0009eb30       ??$type_case_integer@$07@?$output_processor@_WV?$string_output_adapter@_W@__crt_stdio_output@@V?$standard_base@_WV?$string_output_adapter@_W@__crt_stdio_output@@@2@@__crt_stdio_output@@AEAA_N_N@Z 000000014009fb30 f i libucrt:output.obj
 0001:0009edbc       ??$type_case_integer@$09@?$output_processor@DV?$stream_output_adapter@D@__crt_stdio_output@@V?$format_validation_base@DV?$stream_output_adapter@D@__crt_stdio_output@@@2@@__crt_stdio_output@@AEAA_N_N@Z 000000014009fdbc f i libucrt:output.obj
 0001:0009f040       ??$type_case_integer@$09@?$output_processor@DV?$stream_output_adapter@D@__crt_stdio_output@@V?$positional_parameter_base@DV?$stream_output_adapter@D@__crt_stdio_output@@@2@@__crt_stdio_output@@AEAA_N_N@Z 00000001400a0040 f i libucrt:output.obj
 0001:0009f304       ??$type_case_integer@$09@?$output_processor@DV?$stream_output_adapter@D@__crt_stdio_output@@V?$standard_base@DV?$stream_output_adapter@D@__crt_stdio_output@@@2@@__crt_stdio_output@@AEAA_N_N@Z 00000001400a0304 f i libucrt:output.obj
 0001:0009f588       ??$type_case_integer@$09@?$output_processor@DV?$string_output_adapter@D@__crt_stdio_output@@V?$format_validation_base@DV?$string_output_adapter@D@__crt_stdio_output@@@2@@__crt_stdio_output@@AEAA_N_N@Z 00000001400a0588 f i libucrt:output.obj
 0001:0009f80c       ??$type_case_integer@$09@?$output_processor@DV?$string_output_adapter@D@__crt_stdio_output@@V?$positional_parameter_base@DV?$string_output_adapter@D@__crt_stdio_output@@@2@@__crt_stdio_output@@AEAA_N_N@Z 00000001400a080c f i libucrt:output.obj
 0001:0009fad0       ??$type_case_integer@$09@?$output_processor@DV?$string_output_adapter@D@__crt_stdio_output@@V?$standard_base@DV?$string_output_adapter@D@__crt_stdio_output@@@2@@__crt_stdio_output@@AEAA_N_N@Z 00000001400a0ad0 f i libucrt:output.obj
 0001:0009fd54       ??$type_case_integer@$09@?$output_processor@_WV?$stream_output_adapter@_W@__crt_stdio_output@@V?$format_validation_base@_WV?$stream_output_adapter@_W@__crt_stdio_output@@@2@@__crt_stdio_output@@AEAA_N_N@Z 00000001400a0d54 f i libucrt:output.obj
 0001:0009ffe0       ??$type_case_integer@$09@?$output_processor@_WV?$stream_output_adapter@_W@__crt_stdio_output@@V?$positional_parameter_base@_WV?$stream_output_adapter@_W@__crt_stdio_output@@@2@@__crt_stdio_output@@AEAA_N_N@Z 00000001400a0fe0 f i libucrt:output.obj
 0001:000a02ac       ??$type_case_integer@$09@?$output_processor@_WV?$stream_output_adapter@_W@__crt_stdio_output@@V?$standard_base@_WV?$stream_output_adapter@_W@__crt_stdio_output@@@2@@__crt_stdio_output@@AEAA_N_N@Z 00000001400a12ac f i libucrt:output.obj
 0001:000a0538       ??$type_case_integer@$09@?$output_processor@_WV?$string_output_adapter@_W@__crt_stdio_output@@V?$format_validation_base@_WV?$string_output_adapter@_W@__crt_stdio_output@@@2@@__crt_stdio_output@@AEAA_N_N@Z 00000001400a1538 f i libucrt:output.obj
 0001:000a07c4       ??$type_case_integer@$09@?$output_processor@_WV?$string_output_adapter@_W@__crt_stdio_output@@V?$positional_parameter_base@_WV?$string_output_adapter@_W@__crt_stdio_output@@@2@@__crt_stdio_output@@AEAA_N_N@Z 00000001400a17c4 f i libucrt:output.obj
 0001:000a0a90       ??$type_case_integer@$09@?$output_processor@_WV?$string_output_adapter@_W@__crt_stdio_output@@V?$standard_base@_WV?$string_output_adapter@_W@__crt_stdio_output@@@2@@__crt_stdio_output@@AEAA_N_N@Z 00000001400a1a90 f i libucrt:output.obj
 0001:000a0d1c       ??$type_case_integer@$0BA@@?$output_processor@DV?$stream_output_adapter@D@__crt_stdio_output@@V?$format_validation_base@DV?$stream_output_adapter@D@__crt_stdio_output@@@2@@__crt_stdio_output@@AEAA_N_N@Z 00000001400a1d1c f i libucrt:output.obj
 0001:000a0fa0       ??$type_case_integer@$0BA@@?$output_processor@DV?$stream_output_adapter@D@__crt_stdio_output@@V?$positional_parameter_base@DV?$stream_output_adapter@D@__crt_stdio_output@@@2@@__crt_stdio_output@@AEAA_N_N@Z 00000001400a1fa0 f i libucrt:output.obj
 0001:000a1264       ??$type_case_integer@$0BA@@?$output_processor@DV?$stream_output_adapter@D@__crt_stdio_output@@V?$standard_base@DV?$stream_output_adapter@D@__crt_stdio_output@@@2@@__crt_stdio_output@@AEAA_N_N@Z 00000001400a2264 f i libucrt:output.obj
 0001:000a14e8       ??$type_case_integer@$0BA@@?$output_processor@DV?$string_output_adapter@D@__crt_stdio_output@@V?$format_validation_base@DV?$string_output_adapter@D@__crt_stdio_output@@@2@@__crt_stdio_output@@AEAA_N_N@Z 00000001400a24e8 f i libucrt:output.obj
 0001:000a176c       ??$type_case_integer@$0BA@@?$output_processor@DV?$string_output_adapter@D@__crt_stdio_output@@V?$positional_parameter_base@DV?$string_output_adapter@D@__crt_stdio_output@@@2@@__crt_stdio_output@@AEAA_N_N@Z 00000001400a276c f i libucrt:output.obj
 0001:000a1a30       ??$type_case_integer@$0BA@@?$output_processor@DV?$string_output_adapter@D@__crt_stdio_output@@V?$standard_base@DV?$string_output_adapter@D@__crt_stdio_output@@@2@@__crt_stdio_output@@AEAA_N_N@Z 00000001400a2a30 f i libucrt:output.obj
 0001:000a1cb4       ??$type_case_integer@$0BA@@?$output_processor@_WV?$stream_output_adapter@_W@__crt_stdio_output@@V?$format_validation_base@_WV?$stream_output_adapter@_W@__crt_stdio_output@@@2@@__crt_stdio_output@@AEAA_N_N@Z 00000001400a2cb4 f i libucrt:output.obj
 0001:000a1f40       ??$type_case_integer@$0BA@@?$output_processor@_WV?$stream_output_adapter@_W@__crt_stdio_output@@V?$positional_parameter_base@_WV?$stream_output_adapter@_W@__crt_stdio_output@@@2@@__crt_stdio_output@@AEAA_N_N@Z 00000001400a2f40 f i libucrt:output.obj
 0001:000a220c       ??$type_case_integer@$0BA@@?$output_processor@_WV?$stream_output_adapter@_W@__crt_stdio_output@@V?$standard_base@_WV?$stream_output_adapter@_W@__crt_stdio_output@@@2@@__crt_stdio_output@@AEAA_N_N@Z 00000001400a320c f i libucrt:output.obj
 0001:000a2498       ??$type_case_integer@$0BA@@?$output_processor@_WV?$string_output_adapter@_W@__crt_stdio_output@@V?$format_validation_base@_WV?$string_output_adapter@_W@__crt_stdio_output@@@2@@__crt_stdio_output@@AEAA_N_N@Z 00000001400a3498 f i libucrt:output.obj
 0001:000a2724       ??$type_case_integer@$0BA@@?$output_processor@_WV?$string_output_adapter@_W@__crt_stdio_output@@V?$positional_parameter_base@_WV?$string_output_adapter@_W@__crt_stdio_output@@@2@@__crt_stdio_output@@AEAA_N_N@Z 00000001400a3724 f i libucrt:output.obj
 0001:000a29f0       ??$type_case_integer@$0BA@@?$output_processor@_WV?$string_output_adapter@_W@__crt_stdio_output@@V?$standard_base@_WV?$string_output_adapter@_W@__crt_stdio_output@@@2@@__crt_stdio_output@@AEAA_N_N@Z 00000001400a39f0 f i libucrt:output.obj
 0001:000a2c7c       ??$type_case_integer_parse_into_buffer@I$07@?$output_processor@DV?$stream_output_adapter@D@__crt_stdio_output@@V?$format_validation_base@DV?$stream_output_adapter@D@__crt_stdio_output@@@2@@__crt_stdio_output@@AEAAXI_N@Z 00000001400a3c7c f i libucrt:output.obj
 0001:000a2d04       ??$type_case_integer_parse_into_buffer@I$07@?$output_processor@DV?$stream_output_adapter@D@__crt_stdio_output@@V?$positional_parameter_base@DV?$stream_output_adapter@D@__crt_stdio_output@@@2@@__crt_stdio_output@@AEAAXI_N@Z 00000001400a3d04 f i libucrt:output.obj
 0001:000a2d8c       ??$type_case_integer_parse_into_buffer@I$07@?$output_processor@DV?$stream_output_adapter@D@__crt_stdio_output@@V?$standard_base@DV?$stream_output_adapter@D@__crt_stdio_output@@@2@@__crt_stdio_output@@AEAAXI_N@Z 00000001400a3d8c f i libucrt:output.obj
 0001:000a2e14       ??$type_case_integer_parse_into_buffer@I$07@?$output_processor@DV?$string_output_adapter@D@__crt_stdio_output@@V?$format_validation_base@DV?$string_output_adapter@D@__crt_stdio_output@@@2@@__crt_stdio_output@@AEAAXI_N@Z 00000001400a3e14 f i libucrt:output.obj
 0001:000a2e9c       ??$type_case_integer_parse_into_buffer@I$07@?$output_processor@DV?$string_output_adapter@D@__crt_stdio_output@@V?$positional_parameter_base@DV?$string_output_adapter@D@__crt_stdio_output@@@2@@__crt_stdio_output@@AEAAXI_N@Z 00000001400a3e9c f i libucrt:output.obj
 0001:000a2f24       ??$type_case_integer_parse_into_buffer@I$07@?$output_processor@DV?$string_output_adapter@D@__crt_stdio_output@@V?$standard_base@DV?$string_output_adapter@D@__crt_stdio_output@@@2@@__crt_stdio_output@@AEAAXI_N@Z 00000001400a3f24 f i libucrt:output.obj
 0001:000a2fac       ??$type_case_integer_parse_into_buffer@I$07@?$output_processor@_WV?$stream_output_adapter@_W@__crt_stdio_output@@V?$format_validation_base@_WV?$stream_output_adapter@_W@__crt_stdio_output@@@2@@__crt_stdio_output@@AEAAXI_N@Z 00000001400a3fac f i libucrt:output.obj
 0001:000a3054       ??$type_case_integer_parse_into_buffer@I$07@?$output_processor@_WV?$stream_output_adapter@_W@__crt_stdio_output@@V?$positional_parameter_base@_WV?$stream_output_adapter@_W@__crt_stdio_output@@@2@@__crt_stdio_output@@AEAAXI_N@Z 00000001400a4054 f i libucrt:output.obj
 0001:000a30fc       ??$type_case_integer_parse_into_buffer@I$07@?$output_processor@_WV?$stream_output_adapter@_W@__crt_stdio_output@@V?$standard_base@_WV?$stream_output_adapter@_W@__crt_stdio_output@@@2@@__crt_stdio_output@@AEAAXI_N@Z 00000001400a40fc f i libucrt:output.obj
 0001:000a31a4       ??$type_case_integer_parse_into_buffer@I$07@?$output_processor@_WV?$string_output_adapter@_W@__crt_stdio_output@@V?$format_validation_base@_WV?$string_output_adapter@_W@__crt_stdio_output@@@2@@__crt_stdio_output@@AEAAXI_N@Z 00000001400a41a4 f i libucrt:output.obj
 0001:000a324c       ??$type_case_integer_parse_into_buffer@I$07@?$output_processor@_WV?$string_output_adapter@_W@__crt_stdio_output@@V?$positional_parameter_base@_WV?$string_output_adapter@_W@__crt_stdio_output@@@2@@__crt_stdio_output@@AEAAXI_N@Z 00000001400a424c f i libucrt:output.obj
 0001:000a32f4       ??$type_case_integer_parse_into_buffer@I$07@?$output_processor@_WV?$string_output_adapter@_W@__crt_stdio_output@@V?$standard_base@_WV?$string_output_adapter@_W@__crt_stdio_output@@@2@@__crt_stdio_output@@AEAAXI_N@Z 00000001400a42f4 f i libucrt:output.obj
 0001:000a339c       ??$type_case_integer_parse_into_buffer@I$09@?$output_processor@DV?$stream_output_adapter@D@__crt_stdio_output@@V?$format_validation_base@DV?$stream_output_adapter@D@__crt_stdio_output@@@2@@__crt_stdio_output@@AEAAXI_N@Z 00000001400a439c f i libucrt:output.obj
 0001:000a3470       ??$type_case_integer_parse_into_buffer@I$09@?$output_processor@DV?$stream_output_adapter@D@__crt_stdio_output@@V?$positional_parameter_base@DV?$stream_output_adapter@D@__crt_stdio_output@@@2@@__crt_stdio_output@@AEAAXI_N@Z 00000001400a4470 f i libucrt:output.obj
 0001:000a3544       ??$type_case_integer_parse_into_buffer@I$09@?$output_processor@DV?$stream_output_adapter@D@__crt_stdio_output@@V?$standard_base@DV?$stream_output_adapter@D@__crt_stdio_output@@@2@@__crt_stdio_output@@AEAAXI_N@Z 00000001400a4544 f i libucrt:output.obj
 0001:000a3618       ??$type_case_integer_parse_into_buffer@I$09@?$output_processor@DV?$string_output_adapter@D@__crt_stdio_output@@V?$format_validation_base@DV?$string_output_adapter@D@__crt_stdio_output@@@2@@__crt_stdio_output@@AEAAXI_N@Z 00000001400a4618 f i libucrt:output.obj
 0001:000a36ec       ??$type_case_integer_parse_into_buffer@I$09@?$output_processor@DV?$string_output_adapter@D@__crt_stdio_output@@V?$positional_parameter_base@DV?$string_output_adapter@D@__crt_stdio_output@@@2@@__crt_stdio_output@@AEAAXI_N@Z 00000001400a46ec f i libucrt:output.obj
 0001:000a37c0       ??$type_case_integer_parse_into_buffer@I$09@?$output_processor@DV?$string_output_adapter@D@__crt_stdio_output@@V?$standard_base@DV?$string_output_adapter@D@__crt_stdio_output@@@2@@__crt_stdio_output@@AEAAXI_N@Z 00000001400a47c0 f i libucrt:output.obj
 0001:000a3894       ??$type_case_integer_parse_into_buffer@I$09@?$output_processor@_WV?$stream_output_adapter@_W@__crt_stdio_output@@V?$format_validation_base@_WV?$stream_output_adapter@_W@__crt_stdio_output@@@2@@__crt_stdio_output@@AEAAXI_N@Z 00000001400a4894 f i libucrt:output.obj
 0001:000a3980       ??$type_case_integer_parse_into_buffer@I$09@?$output_processor@_WV?$stream_output_adapter@_W@__crt_stdio_output@@V?$positional_parameter_base@_WV?$stream_output_adapter@_W@__crt_stdio_output@@@2@@__crt_stdio_output@@AEAAXI_N@Z 00000001400a4980 f i libucrt:output.obj
 0001:000a3a6c       ??$type_case_integer_parse_into_buffer@I$09@?$output_processor@_WV?$stream_output_adapter@_W@__crt_stdio_output@@V?$standard_base@_WV?$stream_output_adapter@_W@__crt_stdio_output@@@2@@__crt_stdio_output@@AEAAXI_N@Z 00000001400a4a6c f i libucrt:output.obj
 0001:000a3b58       ??$type_case_integer_parse_into_buffer@I$09@?$output_processor@_WV?$string_output_adapter@_W@__crt_stdio_output@@V?$format_validation_base@_WV?$string_output_adapter@_W@__crt_stdio_output@@@2@@__crt_stdio_output@@AEAAXI_N@Z 00000001400a4b58 f i libucrt:output.obj
 0001:000a3c44       ??$type_case_integer_parse_into_buffer@I$09@?$output_processor@_WV?$string_output_adapter@_W@__crt_stdio_output@@V?$positional_parameter_base@_WV?$string_output_adapter@_W@__crt_stdio_output@@@2@@__crt_stdio_output@@AEAAXI_N@Z 00000001400a4c44 f i libucrt:output.obj
 0001:000a3d30       ??$type_case_integer_parse_into_buffer@I$09@?$output_processor@_WV?$string_output_adapter@_W@__crt_stdio_output@@V?$standard_base@_WV?$string_output_adapter@_W@__crt_stdio_output@@@2@@__crt_stdio_output@@AEAAXI_N@Z 00000001400a4d30 f i libucrt:output.obj
 0001:000a3e1c       ??$type_case_integer_parse_into_buffer@I$0BA@@?$output_processor@DV?$stream_output_adapter@D@__crt_stdio_output@@V?$format_validation_base@DV?$stream_output_adapter@D@__crt_stdio_output@@@2@@__crt_stdio_output@@AEAAXI_N@Z 00000001400a4e1c f i libucrt:output.obj
 0001:000a3ec4       ??$type_case_integer_parse_into_buffer@I$0BA@@?$output_processor@DV?$stream_output_adapter@D@__crt_stdio_output@@V?$positional_parameter_base@DV?$stream_output_adapter@D@__crt_stdio_output@@@2@@__crt_stdio_output@@AEAAXI_N@Z 00000001400a4ec4 f i libucrt:output.obj
 0001:000a3f6c       ??$type_case_integer_parse_into_buffer@I$0BA@@?$output_processor@DV?$stream_output_adapter@D@__crt_stdio_output@@V?$standard_base@DV?$stream_output_adapter@D@__crt_stdio_output@@@2@@__crt_stdio_output@@AEAAXI_N@Z 00000001400a4f6c f i libucrt:output.obj
 0001:000a4014       ??$type_case_integer_parse_into_buffer@I$0BA@@?$output_processor@DV?$string_output_adapter@D@__crt_stdio_output@@V?$format_validation_base@DV?$string_output_adapter@D@__crt_stdio_output@@@2@@__crt_stdio_output@@AEAAXI_N@Z 00000001400a5014 f i libucrt:output.obj
 0001:000a40bc       ??$type_case_integer_parse_into_buffer@I$0BA@@?$output_processor@DV?$string_output_adapter@D@__crt_stdio_output@@V?$positional_parameter_base@DV?$string_output_adapter@D@__crt_stdio_output@@@2@@__crt_stdio_output@@AEAAXI_N@Z 00000001400a50bc f i libucrt:output.obj
 0001:000a4164       ??$type_case_integer_parse_into_buffer@I$0BA@@?$output_processor@DV?$string_output_adapter@D@__crt_stdio_output@@V?$standard_base@DV?$string_output_adapter@D@__crt_stdio_output@@@2@@__crt_stdio_output@@AEAAXI_N@Z 00000001400a5164 f i libucrt:output.obj
 0001:000a420c       ??$type_case_integer_parse_into_buffer@I$0BA@@?$output_processor@_WV?$stream_output_adapter@_W@__crt_stdio_output@@V?$format_validation_base@_WV?$stream_output_adapter@_W@__crt_stdio_output@@@2@@__crt_stdio_output@@AEAAXI_N@Z 00000001400a520c f i libucrt:output.obj
 0001:000a42d4       ??$type_case_integer_parse_into_buffer@I$0BA@@?$output_processor@_WV?$stream_output_adapter@_W@__crt_stdio_output@@V?$positional_parameter_base@_WV?$stream_output_adapter@_W@__crt_stdio_output@@@2@@__crt_stdio_output@@AEAAXI_N@Z 00000001400a52d4 f i libucrt:output.obj
 0001:000a439c       ??$type_case_integer_parse_into_buffer@I$0BA@@?$output_processor@_WV?$stream_output_adapter@_W@__crt_stdio_output@@V?$standard_base@_WV?$stream_output_adapter@_W@__crt_stdio_output@@@2@@__crt_stdio_output@@AEAAXI_N@Z 00000001400a539c f i libucrt:output.obj
 0001:000a4464       ??$type_case_integer_parse_into_buffer@I$0BA@@?$output_processor@_WV?$string_output_adapter@_W@__crt_stdio_output@@V?$format_validation_base@_WV?$string_output_adapter@_W@__crt_stdio_output@@@2@@__crt_stdio_output@@AEAAXI_N@Z 00000001400a5464 f i libucrt:output.obj
 0001:000a452c       ??$type_case_integer_parse_into_buffer@I$0BA@@?$output_processor@_WV?$string_output_adapter@_W@__crt_stdio_output@@V?$positional_parameter_base@_WV?$string_output_adapter@_W@__crt_stdio_output@@@2@@__crt_stdio_output@@AEAAXI_N@Z 00000001400a552c f i libucrt:output.obj
 0001:000a45f4       ??$type_case_integer_parse_into_buffer@I$0BA@@?$output_processor@_WV?$string_output_adapter@_W@__crt_stdio_output@@V?$standard_base@_WV?$string_output_adapter@_W@__crt_stdio_output@@@2@@__crt_stdio_output@@AEAAXI_N@Z 00000001400a55f4 f i libucrt:output.obj
 0001:000a46bc       ??$type_case_integer_parse_into_buffer@_K$07@?$output_processor@DV?$stream_output_adapter@D@__crt_stdio_output@@V?$format_validation_base@DV?$stream_output_adapter@D@__crt_stdio_output@@@2@@__crt_stdio_output@@AEAAX_K_N@Z 00000001400a56bc f i libucrt:output.obj
 0001:000a4744       ??$type_case_integer_parse_into_buffer@_K$07@?$output_processor@DV?$stream_output_adapter@D@__crt_stdio_output@@V?$positional_parameter_base@DV?$stream_output_adapter@D@__crt_stdio_output@@@2@@__crt_stdio_output@@AEAAX_K_N@Z 00000001400a5744 f i libucrt:output.obj
 0001:000a47cc       ??$type_case_integer_parse_into_buffer@_K$07@?$output_processor@DV?$stream_output_adapter@D@__crt_stdio_output@@V?$standard_base@DV?$stream_output_adapter@D@__crt_stdio_output@@@2@@__crt_stdio_output@@AEAAX_K_N@Z 00000001400a57cc f i libucrt:output.obj
 0001:000a4854       ??$type_case_integer_parse_into_buffer@_K$07@?$output_processor@DV?$string_output_adapter@D@__crt_stdio_output@@V?$format_validation_base@DV?$string_output_adapter@D@__crt_stdio_output@@@2@@__crt_stdio_output@@AEAAX_K_N@Z 00000001400a5854 f i libucrt:output.obj
 0001:000a48dc       ??$type_case_integer_parse_into_buffer@_K$07@?$output_processor@DV?$string_output_adapter@D@__crt_stdio_output@@V?$positional_parameter_base@DV?$string_output_adapter@D@__crt_stdio_output@@@2@@__crt_stdio_output@@AEAAX_K_N@Z 00000001400a58dc f i libucrt:output.obj
 0001:000a4964       ??$type_case_integer_parse_into_buffer@_K$07@?$output_processor@DV?$string_output_adapter@D@__crt_stdio_output@@V?$standard_base@DV?$string_output_adapter@D@__crt_stdio_output@@@2@@__crt_stdio_output@@AEAAX_K_N@Z 00000001400a5964 f i libucrt:output.obj
 0001:000a49ec       ??$type_case_integer_parse_into_buffer@_K$07@?$output_processor@_WV?$stream_output_adapter@_W@__crt_stdio_output@@V?$format_validation_base@_WV?$stream_output_adapter@_W@__crt_stdio_output@@@2@@__crt_stdio_output@@AEAAX_K_N@Z 00000001400a59ec f i libucrt:output.obj
 0001:000a4a94       ??$type_case_integer_parse_into_buffer@_K$07@?$output_processor@_WV?$stream_output_adapter@_W@__crt_stdio_output@@V?$positional_parameter_base@_WV?$stream_output_adapter@_W@__crt_stdio_output@@@2@@__crt_stdio_output@@AEAAX_K_N@Z 00000001400a5a94 f i libucrt:output.obj
 0001:000a4b3c       ??$type_case_integer_parse_into_buffer@_K$07@?$output_processor@_WV?$stream_output_adapter@_W@__crt_stdio_output@@V?$standard_base@_WV?$stream_output_adapter@_W@__crt_stdio_output@@@2@@__crt_stdio_output@@AEAAX_K_N@Z 00000001400a5b3c f i libucrt:output.obj
 0001:000a4be4       ??$type_case_integer_parse_into_buffer@_K$07@?$output_processor@_WV?$string_output_adapter@_W@__crt_stdio_output@@V?$format_validation_base@_WV?$string_output_adapter@_W@__crt_stdio_output@@@2@@__crt_stdio_output@@AEAAX_K_N@Z 00000001400a5be4 f i libucrt:output.obj
 0001:000a4c8c       ??$type_case_integer_parse_into_buffer@_K$07@?$output_processor@_WV?$string_output_adapter@_W@__crt_stdio_output@@V?$positional_parameter_base@_WV?$string_output_adapter@_W@__crt_stdio_output@@@2@@__crt_stdio_output@@AEAAX_K_N@Z 00000001400a5c8c f i libucrt:output.obj
 0001:000a4d34       ??$type_case_integer_parse_into_buffer@_K$07@?$output_processor@_WV?$string_output_adapter@_W@__crt_stdio_output@@V?$standard_base@_WV?$string_output_adapter@_W@__crt_stdio_output@@@2@@__crt_stdio_output@@AEAAX_K_N@Z 00000001400a5d34 f i libucrt:output.obj
 0001:000a4ddc       ??$type_case_integer_parse_into_buffer@_K$09@?$output_processor@DV?$stream_output_adapter@D@__crt_stdio_output@@V?$format_validation_base@DV?$stream_output_adapter@D@__crt_stdio_output@@@2@@__crt_stdio_output@@AEAAX_K_N@Z 00000001400a5ddc f i libucrt:output.obj
 0001:000a4eb8       ??$type_case_integer_parse_into_buffer@_K$09@?$output_processor@DV?$stream_output_adapter@D@__crt_stdio_output@@V?$positional_parameter_base@DV?$stream_output_adapter@D@__crt_stdio_output@@@2@@__crt_stdio_output@@AEAAX_K_N@Z 00000001400a5eb8 f i libucrt:output.obj
 0001:000a4f94       ??$type_case_integer_parse_into_buffer@_K$09@?$output_processor@DV?$stream_output_adapter@D@__crt_stdio_output@@V?$standard_base@DV?$stream_output_adapter@D@__crt_stdio_output@@@2@@__crt_stdio_output@@AEAAX_K_N@Z 00000001400a5f94 f i libucrt:output.obj
 0001:000a5070       ??$type_case_integer_parse_into_buffer@_K$09@?$output_processor@DV?$string_output_adapter@D@__crt_stdio_output@@V?$format_validation_base@DV?$string_output_adapter@D@__crt_stdio_output@@@2@@__crt_stdio_output@@AEAAX_K_N@Z 00000001400a6070 f i libucrt:output.obj
 0001:000a514c       ??$type_case_integer_parse_into_buffer@_K$09@?$output_processor@DV?$string_output_adapter@D@__crt_stdio_output@@V?$positional_parameter_base@DV?$string_output_adapter@D@__crt_stdio_output@@@2@@__crt_stdio_output@@AEAAX_K_N@Z 00000001400a614c f i libucrt:output.obj
 0001:000a5228       ??$type_case_integer_parse_into_buffer@_K$09@?$output_processor@DV?$string_output_adapter@D@__crt_stdio_output@@V?$standard_base@DV?$string_output_adapter@D@__crt_stdio_output@@@2@@__crt_stdio_output@@AEAAX_K_N@Z 00000001400a6228 f i libucrt:output.obj
 0001:000a5304       ??$type_case_integer_parse_into_buffer@_K$09@?$output_processor@_WV?$stream_output_adapter@_W@__crt_stdio_output@@V?$format_validation_base@_WV?$stream_output_adapter@_W@__crt_stdio_output@@@2@@__crt_stdio_output@@AEAAX_K_N@Z 00000001400a6304 f i libucrt:output.obj
 0001:000a53f8       ??$type_case_integer_parse_into_buffer@_K$09@?$output_processor@_WV?$stream_output_adapter@_W@__crt_stdio_output@@V?$positional_parameter_base@_WV?$stream_output_adapter@_W@__crt_stdio_output@@@2@@__crt_stdio_output@@AEAAX_K_N@Z 00000001400a63f8 f i libucrt:output.obj
 0001:000a54ec       ??$type_case_integer_parse_into_buffer@_K$09@?$output_processor@_WV?$stream_output_adapter@_W@__crt_stdio_output@@V?$standard_base@_WV?$stream_output_adapter@_W@__crt_stdio_output@@@2@@__crt_stdio_output@@AEAAX_K_N@Z 00000001400a64ec f i libucrt:output.obj
 0001:000a55e0       ??$type_case_integer_parse_into_buffer@_K$09@?$output_processor@_WV?$string_output_adapter@_W@__crt_stdio_output@@V?$format_validation_base@_WV?$string_output_adapter@_W@__crt_stdio_output@@@2@@__crt_stdio_output@@AEAAX_K_N@Z 00000001400a65e0 f i libucrt:output.obj
 0001:000a56d4       ??$type_case_integer_parse_into_buffer@_K$09@?$output_processor@_WV?$string_output_adapter@_W@__crt_stdio_output@@V?$positional_parameter_base@_WV?$string_output_adapter@_W@__crt_stdio_output@@@2@@__crt_stdio_output@@AEAAX_K_N@Z 00000001400a66d4 f i libucrt:output.obj
 0001:000a57c8       ??$type_case_integer_parse_into_buffer@_K$09@?$output_processor@_WV?$string_output_adapter@_W@__crt_stdio_output@@V?$standard_base@_WV?$string_output_adapter@_W@__crt_stdio_output@@@2@@__crt_stdio_output@@AEAAX_K_N@Z 00000001400a67c8 f i libucrt:output.obj
 0001:000a58bc       ??$type_case_integer_parse_into_buffer@_K$0BA@@?$output_processor@DV?$stream_output_adapter@D@__crt_stdio_output@@V?$format_validation_base@DV?$stream_output_adapter@D@__crt_stdio_output@@@2@@__crt_stdio_output@@AEAAX_K_N@Z 00000001400a68bc f i libucrt:output.obj
 0001:000a5964       ??$type_case_integer_parse_into_buffer@_K$0BA@@?$output_processor@DV?$stream_output_adapter@D@__crt_stdio_output@@V?$positional_parameter_base@DV?$stream_output_adapter@D@__crt_stdio_output@@@2@@__crt_stdio_output@@AEAAX_K_N@Z 00000001400a6964 f i libucrt:output.obj
 0001:000a5a0c       ??$type_case_integer_parse_into_buffer@_K$0BA@@?$output_processor@DV?$stream_output_adapter@D@__crt_stdio_output@@V?$standard_base@DV?$stream_output_adapter@D@__crt_stdio_output@@@2@@__crt_stdio_output@@AEAAX_K_N@Z 00000001400a6a0c f i libucrt:output.obj
 0001:000a5ab4       ??$type_case_integer_parse_into_buffer@_K$0BA@@?$output_processor@DV?$string_output_adapter@D@__crt_stdio_output@@V?$format_validation_base@DV?$string_output_adapter@D@__crt_stdio_output@@@2@@__crt_stdio_output@@AEAAX_K_N@Z 00000001400a6ab4 f i libucrt:output.obj
 0001:000a5b5c       ??$type_case_integer_parse_into_buffer@_K$0BA@@?$output_processor@DV?$string_output_adapter@D@__crt_stdio_output@@V?$positional_parameter_base@DV?$string_output_adapter@D@__crt_stdio_output@@@2@@__crt_stdio_output@@AEAAX_K_N@Z 00000001400a6b5c f i libucrt:output.obj
 0001:000a5c04       ??$type_case_integer_parse_into_buffer@_K$0BA@@?$output_processor@DV?$string_output_adapter@D@__crt_stdio_output@@V?$standard_base@DV?$string_output_adapter@D@__crt_stdio_output@@@2@@__crt_stdio_output@@AEAAX_K_N@Z 00000001400a6c04 f i libucrt:output.obj
 0001:000a5cac       ??$type_case_integer_parse_into_buffer@_K$0BA@@?$output_processor@_WV?$stream_output_adapter@_W@__crt_stdio_output@@V?$format_validation_base@_WV?$stream_output_adapter@_W@__crt_stdio_output@@@2@@__crt_stdio_output@@AEAAX_K_N@Z 00000001400a6cac f i libucrt:output.obj
 0001:000a5d74       ??$type_case_integer_parse_into_buffer@_K$0BA@@?$output_processor@_WV?$stream_output_adapter@_W@__crt_stdio_output@@V?$positional_parameter_base@_WV?$stream_output_adapter@_W@__crt_stdio_output@@@2@@__crt_stdio_output@@AEAAX_K_N@Z 00000001400a6d74 f i libucrt:output.obj
 0001:000a5e3c       ??$type_case_integer_parse_into_buffer@_K$0BA@@?$output_processor@_WV?$stream_output_adapter@_W@__crt_stdio_output@@V?$standard_base@_WV?$stream_output_adapter@_W@__crt_stdio_output@@@2@@__crt_stdio_output@@AEAAX_K_N@Z 00000001400a6e3c f i libucrt:output.obj
 0001:000a5f04       ??$type_case_integer_parse_into_buffer@_K$0BA@@?$output_processor@_WV?$string_output_adapter@_W@__crt_stdio_output@@V?$format_validation_base@_WV?$string_output_adapter@_W@__crt_stdio_output@@@2@@__crt_stdio_output@@AEAAX_K_N@Z 00000001400a6f04 f i libucrt:output.obj
 0001:000a5fcc       ??$type_case_integer_parse_into_buffer@_K$0BA@@?$output_processor@_WV?$string_output_adapter@_W@__crt_stdio_output@@V?$positional_parameter_base@_WV?$string_output_adapter@_W@__crt_stdio_output@@@2@@__crt_stdio_output@@AEAAX_K_N@Z 00000001400a6fcc f i libucrt:output.obj
 0001:000a6094       ??$type_case_integer_parse_into_buffer@_K$0BA@@?$output_processor@_WV?$string_output_adapter@_W@__crt_stdio_output@@V?$standard_base@_WV?$string_output_adapter@_W@__crt_stdio_output@@@2@@__crt_stdio_output@@AEAAX_K_N@Z 00000001400a7094 f i libucrt:output.obj
 0001:000a615c       ??$write_multiple_characters@V?$stream_output_adapter@D@__crt_stdio_output@@D@__crt_stdio_output@@YAXAEBV?$stream_output_adapter@D@0@DHQEAHAEAV__crt_cached_ptd_host@@@Z 00000001400a715c f i libucrt:output.obj
 0001:000a6214       ??$write_multiple_characters@V?$stream_output_adapter@_W@__crt_stdio_output@@D@__crt_stdio_output@@YAXAEBV?$stream_output_adapter@_W@0@DHQEAHAEAV__crt_cached_ptd_host@@@Z 00000001400a7214 f i libucrt:output.obj
 0001:000a62d0       ??$write_multiple_characters@V?$string_output_adapter@D@__crt_stdio_output@@D@__crt_stdio_output@@YAXAEBV?$string_output_adapter@D@0@DHQEAHAEAV__crt_cached_ptd_host@@@Z 00000001400a72d0 f i libucrt:output.obj
 0001:000a6364       ??$write_multiple_characters@V?$string_output_adapter@_W@__crt_stdio_output@@D@__crt_stdio_output@@YAXAEBV?$string_output_adapter@_W@0@DHQEAHAEAV__crt_cached_ptd_host@@@Z 00000001400a7364 f i libucrt:output.obj
 0001:000a6590       ??0?$c_string_character_source@D@__crt_strtox@@QEAA@QEBDQEAPEBD@Z 00000001400a7590 f i libucrt:output.obj
 0001:000a65a8       ??0?$c_string_character_source@_W@__crt_strtox@@QEAA@QEB_WQEAPEB_W@Z 00000001400a75a8 f i libucrt:output.obj
 0001:000a65c0       ??0?$cached@H@__crt_cached_ptd_host@@QEAA@XZ 00000001400a75c0 f i libucrt:output.obj
 0001:000a65cc       ??0?$cached@K@__crt_cached_ptd_host@@QEAA@XZ 00000001400a75cc f i libucrt:output.obj
 0001:000a65d8       ??0?$common_data@D@__crt_stdio_output@@IEAA@AEAV__crt_cached_ptd_host@@@Z 00000001400a75d8 f i libucrt:output.obj
 0001:000a6620       ??0?$common_data@_W@__crt_stdio_output@@IEAA@AEAV__crt_cached_ptd_host@@@Z 00000001400a7620 f i libucrt:output.obj
 0001:000a666c       ??0?$output_adapter_data@DV?$stream_output_adapter@D@__crt_stdio_output@@@__crt_stdio_output@@IEAA@AEBV?$stream_output_adapter@D@1@_KQEBDAEAV__crt_cached_ptd_host@@QEAD@Z 00000001400a766c f i libucrt:output.obj
 0001:000a66e4       ??0?$output_adapter_data@DV?$string_output_adapter@D@__crt_stdio_output@@@__crt_stdio_output@@IEAA@AEBV?$string_output_adapter@D@1@_KQEBDAEAV__crt_cached_ptd_host@@QEAD@Z 00000001400a76e4 f i libucrt:output.obj
 0001:000a675c       ??0?$output_adapter_data@_WV?$stream_output_adapter@_W@__crt_stdio_output@@@__crt_stdio_output@@IEAA@AEBV?$stream_output_adapter@_W@1@_KQEB_WAEAV__crt_cached_ptd_host@@QEAD@Z 00000001400a775c f i libucrt:output.obj
 0001:000a67dc       ??0?$output_adapter_data@_WV?$string_output_adapter@_W@__crt_stdio_output@@@__crt_stdio_output@@IEAA@AEBV?$string_output_adapter@_W@1@_KQEB_WAEAV__crt_cached_ptd_host@@QEAD@Z 00000001400a77dc f i libucrt:output.obj
 0001:000a685c       ??0?$output_processor@DV?$stream_output_adapter@D@__crt_stdio_output@@V?$format_validation_base@DV?$stream_output_adapter@D@__crt_stdio_output@@@2@@__crt_stdio_output@@QEAA@AEBV?$stream_output_adapter@D@1@_KQEBDAEAV__crt_cached_ptd_host@@QEAD@Z 00000001400a785c f i libucrt:output.obj
 0001:000a68dc       ??0?$output_processor@DV?$stream_output_adapter@D@__crt_stdio_output@@V?$positional_parameter_base@DV?$stream_output_adapter@D@__crt_stdio_output@@@2@@__crt_stdio_output@@QEAA@AEBV?$stream_output_adapter@D@1@_KQEBDAEAV__crt_cached_ptd_host@@QEAD@Z 00000001400a78dc f i libucrt:output.obj
 0001:000a6984       ??0?$output_processor@DV?$stream_output_adapter@D@__crt_stdio_output@@V?$standard_base@DV?$stream_output_adapter@D@__crt_stdio_output@@@2@@__crt_stdio_output@@QEAA@AEBV?$stream_output_adapter@D@1@_KQEBDAEAV__crt_cached_ptd_host@@QEAD@Z 00000001400a7984 f i libucrt:output.obj
 0001:000a6a04       ??0?$output_processor@DV?$string_output_adapter@D@__crt_stdio_output@@V?$format_validation_base@DV?$string_output_adapter@D@__crt_stdio_output@@@2@@__crt_stdio_output@@QEAA@AEBV?$string_output_adapter@D@1@_KQEBDAEAV__crt_cached_ptd_host@@QEAD@Z 00000001400a7a04 f i libucrt:output.obj
 0001:000a6a84       ??0?$output_processor@DV?$string_output_adapter@D@__crt_stdio_output@@V?$positional_parameter_base@DV?$string_output_adapter@D@__crt_stdio_output@@@2@@__crt_stdio_output@@QEAA@AEBV?$string_output_adapter@D@1@_KQEBDAEAV__crt_cached_ptd_host@@QEAD@Z 00000001400a7a84 f i libucrt:output.obj
 0001:000a6b2c       ??0?$output_processor@DV?$string_output_adapter@D@__crt_stdio_output@@V?$standard_base@DV?$string_output_adapter@D@__crt_stdio_output@@@2@@__crt_stdio_output@@QEAA@AEBV?$string_output_adapter@D@1@_KQEBDAEAV__crt_cached_ptd_host@@QEAD@Z 00000001400a7b2c f i libucrt:output.obj
 0001:000a6bac       ??0?$output_processor@_WV?$stream_output_adapter@_W@__crt_stdio_output@@V?$format_validation_base@_WV?$stream_output_adapter@_W@__crt_stdio_output@@@2@@__crt_stdio_output@@QEAA@AEBV?$stream_output_adapter@_W@1@_KQEB_WAEAV__crt_cached_ptd_host@@QEAD@Z 00000001400a7bac f i libucrt:output.obj
 0001:000a6c34       ??0?$output_processor@_WV?$stream_output_adapter@_W@__crt_stdio_output@@V?$positional_parameter_base@_WV?$stream_output_adapter@_W@__crt_stdio_output@@@2@@__crt_stdio_output@@QEAA@AEBV?$stream_output_adapter@_W@1@_KQEB_WAEAV__crt_cached_ptd_host@@QEAD@Z 00000001400a7c34 f i libucrt:output.obj
 0001:000a6ce0       ??0?$output_processor@_WV?$stream_output_adapter@_W@__crt_stdio_output@@V?$standard_base@_WV?$stream_output_adapter@_W@__crt_stdio_output@@@2@@__crt_stdio_output@@QEAA@AEBV?$stream_output_adapter@_W@1@_KQEB_WAEAV__crt_cached_ptd_host@@QEAD@Z 00000001400a7ce0 f i libucrt:output.obj
 0001:000a6d68       ??0?$output_processor@_WV?$string_output_adapter@_W@__crt_stdio_output@@V?$format_validation_base@_WV?$string_output_adapter@_W@__crt_stdio_output@@@2@@__crt_stdio_output@@QEAA@AEBV?$string_output_adapter@_W@1@_KQEB_WAEAV__crt_cached_ptd_host@@QEAD@Z 00000001400a7d68 f i libucrt:output.obj
 0001:000a6df0       ??0?$output_processor@_WV?$string_output_adapter@_W@__crt_stdio_output@@V?$positional_parameter_base@_WV?$string_output_adapter@_W@__crt_stdio_output@@@2@@__crt_stdio_output@@QEAA@AEBV?$string_output_adapter@_W@1@_KQEB_WAEAV__crt_cached_ptd_host@@QEAD@Z 00000001400a7df0 f i libucrt:output.obj
 0001:000a6e9c       ??0?$output_processor@_WV?$string_output_adapter@_W@__crt_stdio_output@@V?$standard_base@_WV?$string_output_adapter@_W@__crt_stdio_output@@@2@@__crt_stdio_output@@QEAA@AEBV?$string_output_adapter@_W@1@_KQEB_WAEAV__crt_cached_ptd_host@@QEAD@Z 00000001400a7e9c f i libucrt:output.obj
 0001:000a6f24       ??0?$stream_output_adapter@D@__crt_stdio_output@@QEAA@QEAU_iobuf@@@Z 00000001400a7f24 f i libucrt:output.obj
 0001:000a6f2c       ??0?$stream_output_adapter@_W@__crt_stdio_output@@QEAA@QEAU_iobuf@@@Z 00000001400a7f2c f i libucrt:output.obj
 0001:000a6f34       ??0?$string_output_adapter@D@__crt_stdio_output@@QEAA@QEAU?$string_output_adapter_context@D@1@@Z 00000001400a7f34 f i libucrt:output.obj
 0001:000a6f3c       ??0?$string_output_adapter@_W@__crt_stdio_output@@QEAA@QEAU?$string_output_adapter_context@_W@1@@Z 00000001400a7f3c f i libucrt:output.obj
 0001:000a6f44       ??0__acrt_stdio_temporary_buffering_guard@@QEAA@QEAU_iobuf@@AEAV__crt_cached_ptd_host@@@Z 00000001400a7f44 f i libucrt:output.obj
 0001:000a6f80       ??0__crt_cached_ptd_host@@QEAA@QEAU__crt_locale_pointers@@@Z 00000001400a7f80 f i libucrt:output.obj
 0001:000a6fd8       ??0__crt_scoped_get_last_error_reset@@QEAA@XZ 00000001400a7fd8 f i libucrt:output.obj
 0001:000a6ff8       ??0__crt_stdio_stream@@QEAA@QEAU_iobuf@@@Z 00000001400a7ff8 f i libucrt:output.obj
 0001:000a7000       ??0formatting_buffer@__crt_stdio_output@@QEAA@XZ 00000001400a8000 f i libucrt:output.obj
 0001:000a701c       ??0guard@?$cached@H@__crt_cached_ptd_host@@QEAA@AEAU12@@Z 00000001400a801c f i libucrt:output.obj
 0001:000a7034       ??1?$c_string_character_source@D@__crt_strtox@@QEAA@XZ 00000001400a8034 f i libucrt:output.obj
 0001:000a7048       ??1?$c_string_character_source@_W@__crt_strtox@@QEAA@XZ 00000001400a8048 f i libucrt:output.obj
 0001:000a705c       ??1?$common_data@D@__crt_stdio_output@@QEAA@XZ 00000001400a805c f i libucrt:output.obj
 0001:000a7088       ??1?$common_data@_W@__crt_stdio_output@@QEAA@XZ 00000001400a8088 f i libucrt:output.obj
 0001:000a70b4       ??1?$format_validation_base@DV?$stream_output_adapter@D@__crt_stdio_output@@@__crt_stdio_output@@QEAA@XZ 00000001400a80b4 f i libucrt:output.obj
 0001:000a70e0       ??1?$format_validation_base@DV?$string_output_adapter@D@__crt_stdio_output@@@__crt_stdio_output@@QEAA@XZ 00000001400a80e0 f i libucrt:output.obj
 0001:000a710c       ??1?$format_validation_base@_WV?$stream_output_adapter@_W@__crt_stdio_output@@@__crt_stdio_output@@QEAA@XZ 00000001400a810c f i libucrt:output.obj
 0001:000a7138       ??1?$format_validation_base@_WV?$string_output_adapter@_W@__crt_stdio_output@@@__crt_stdio_output@@QEAA@XZ 00000001400a8138 f i libucrt:output.obj
 0001:000a7164       ??1?$output_adapter_data@DV?$stream_output_adapter@D@__crt_stdio_output@@@__crt_stdio_output@@QEAA@XZ 00000001400a8164 f i libucrt:output.obj
 0001:000a7190       ??1?$output_adapter_data@DV?$string_output_adapter@D@__crt_stdio_output@@@__crt_stdio_output@@QEAA@XZ 00000001400a8190 f i libucrt:output.obj
 0001:000a71bc       ??1?$output_adapter_data@_WV?$stream_output_adapter@_W@__crt_stdio_output@@@__crt_stdio_output@@QEAA@XZ 00000001400a81bc f i libucrt:output.obj
 0001:000a71e8       ??1?$output_adapter_data@_WV?$string_output_adapter@_W@__crt_stdio_output@@@__crt_stdio_output@@QEAA@XZ 00000001400a81e8 f i libucrt:output.obj
 0001:000a7214       ??1?$output_processor@DV?$stream_output_adapter@D@__crt_stdio_output@@V?$format_validation_base@DV?$stream_output_adapter@D@__crt_stdio_output@@@2@@__crt_stdio_output@@QEAA@XZ 00000001400a8214 f i libucrt:output.obj
 0001:000a7240       ??1?$output_processor@DV?$stream_output_adapter@D@__crt_stdio_output@@V?$positional_parameter_base@DV?$stream_output_adapter@D@__crt_stdio_output@@@2@@__crt_stdio_output@@QEAA@XZ 00000001400a8240 f i libucrt:output.obj
 0001:000a726c       ??1?$output_processor@DV?$stream_output_adapter@D@__crt_stdio_output@@V?$standard_base@DV?$stream_output_adapter@D@__crt_stdio_output@@@2@@__crt_stdio_output@@QEAA@XZ 00000001400a826c f i libucrt:output.obj
 0001:000a7298       ??1?$output_processor@DV?$string_output_adapter@D@__crt_stdio_output@@V?$format_validation_base@DV?$string_output_adapter@D@__crt_stdio_output@@@2@@__crt_stdio_output@@QEAA@XZ 00000001400a8298 f i libucrt:output.obj
 0001:000a72c4       ??1?$output_processor@DV?$string_output_adapter@D@__crt_stdio_output@@V?$positional_parameter_base@DV?$string_output_adapter@D@__crt_stdio_output@@@2@@__crt_stdio_output@@QEAA@XZ 00000001400a82c4 f i libucrt:output.obj
 0001:000a72f0       ??1?$output_processor@DV?$string_output_adapter@D@__crt_stdio_output@@V?$standard_base@DV?$string_output_adapter@D@__crt_stdio_output@@@2@@__crt_stdio_output@@QEAA@XZ 00000001400a82f0 f i libucrt:output.obj
 0001:000a731c       ??1?$output_processor@_WV?$stream_output_adapter@_W@__crt_stdio_output@@V?$format_validation_base@_WV?$stream_output_adapter@_W@__crt_stdio_output@@@2@@__crt_stdio_output@@QEAA@XZ 00000001400a831c f i libucrt:output.obj
 0001:000a7348       ??1?$output_processor@_WV?$stream_output_adapter@_W@__crt_stdio_output@@V?$positional_parameter_base@_WV?$stream_output_adapter@_W@__crt_stdio_output@@@2@@__crt_stdio_output@@QEAA@XZ 00000001400a8348 f i libucrt:output.obj
 0001:000a7374       ??1?$output_processor@_WV?$stream_output_adapter@_W@__crt_stdio_output@@V?$standard_base@_WV?$stream_output_adapter@_W@__crt_stdio_output@@@2@@__crt_stdio_output@@QEAA@XZ 00000001400a8374 f i libucrt:output.obj
 0001:000a73a0       ??1?$output_processor@_WV?$string_output_adapter@_W@__crt_stdio_output@@V?$format_validation_base@_WV?$string_output_adapter@_W@__crt_stdio_output@@@2@@__crt_stdio_output@@QEAA@XZ 00000001400a83a0 f i libucrt:output.obj
 0001:000a73cc       ??1?$output_processor@_WV?$string_output_adapter@_W@__crt_stdio_output@@V?$positional_parameter_base@_WV?$string_output_adapter@_W@__crt_stdio_output@@@2@@__crt_stdio_output@@QEAA@XZ 00000001400a83cc f i libucrt:output.obj
 0001:000a73f8       ??1?$output_processor@_WV?$string_output_adapter@_W@__crt_stdio_output@@V?$standard_base@_WV?$string_output_adapter@_W@__crt_stdio_output@@@2@@__crt_stdio_output@@QEAA@XZ 00000001400a83f8 f i libucrt:output.obj
 0001:000a7424       ??1?$positional_parameter_base@DV?$stream_output_adapter@D@__crt_stdio_output@@@__crt_stdio_output@@QEAA@XZ 00000001400a8424 f i libucrt:output.obj
 0001:000a7450       ??1?$positional_parameter_base@DV?$string_output_adapter@D@__crt_stdio_output@@@__crt_stdio_output@@QEAA@XZ 00000001400a8450 f i libucrt:output.obj
 0001:000a747c       ??1?$positional_parameter_base@_WV?$stream_output_adapter@_W@__crt_stdio_output@@@__crt_stdio_output@@QEAA@XZ 00000001400a847c f i libucrt:output.obj
 0001:000a74a8       ??1?$positional_parameter_base@_WV?$string_output_adapter@_W@__crt_stdio_output@@@__crt_stdio_output@@QEAA@XZ 00000001400a84a8 f i libucrt:output.obj
 0001:000a74d4       ??1?$standard_base@DV?$stream_output_adapter@D@__crt_stdio_output@@@__crt_stdio_output@@QEAA@XZ 00000001400a84d4 f i libucrt:output.obj
 0001:000a7500       ??1?$standard_base@DV?$string_output_adapter@D@__crt_stdio_output@@@__crt_stdio_output@@QEAA@XZ 00000001400a8500 f i libucrt:output.obj
 0001:000a752c       ??1?$standard_base@_WV?$stream_output_adapter@_W@__crt_stdio_output@@@__crt_stdio_output@@QEAA@XZ 00000001400a852c f i libucrt:output.obj
 0001:000a7558       ??1?$standard_base@_WV?$string_output_adapter@_W@__crt_stdio_output@@@__crt_stdio_output@@QEAA@XZ 00000001400a8558 f i libucrt:output.obj
 0001:000a7584       ??1__acrt_stdio_temporary_buffering_guard@@QEAA@XZ 00000001400a8584 f i libucrt:output.obj
 0001:000a75a0       ??1__crt_cached_ptd_host@@QEAA@XZ 00000001400a85a0 f i libucrt:output.obj
 0001:000a7604       ??1__crt_scoped_get_last_error_reset@@QEAA@XZ 00000001400a8604 f i libucrt:output.obj
 0001:000a7610       ??1formatting_buffer@__crt_stdio_output@@QEAA@XZ 00000001400a8610 f i libucrt:output.obj
 0001:000a763c       ??1guard@?$cached@H@__crt_cached_ptd_host@@QEAA@XZ 00000001400a863c f i libucrt:output.obj
 0001:000a7654       ??4?$__crt_unique_heap_ptr@DU__crt_internal_free_policy@@@@QEAAAEAV0@$$QEAV0@@Z 00000001400a8654 f i libucrt:output.obj
 0001:000a7698       ??A?$spectre_mitigated_lookup_table@Ustate_transition_pair@__crt_stdio_output@@$0IA@@__crt_stdio_output@@QEBAAEBUstate_transition_pair@1@_K@Z 00000001400a8698 f i libucrt:output.obj
 0001:000a76a4       ??C__crt_stdio_stream@@QEBAPEAU__crt_stdio_stream_data@@XZ 00000001400a86a4 f i libucrt:output.obj
 0001:000a7fd8       ?__crt_interlocked_read_32@@YAHPEDH@Z 00000001400a8fd8 f i libucrt:output.obj
 0001:000a7fdc       ?adjust_hexit@?$output_processor@DV?$stream_output_adapter@D@__crt_stdio_output@@V?$format_validation_base@DV?$stream_output_adapter@D@__crt_stdio_output@@@2@@__crt_stdio_output@@CADH_N@Z 00000001400a8fdc f i libucrt:output.obj
 0001:000a7fec       ?adjust_hexit@?$output_processor@DV?$stream_output_adapter@D@__crt_stdio_output@@V?$positional_parameter_base@DV?$stream_output_adapter@D@__crt_stdio_output@@@2@@__crt_stdio_output@@CADH_N@Z 00000001400a8fec f i libucrt:output.obj
 0001:000a7ffc       ?adjust_hexit@?$output_processor@DV?$stream_output_adapter@D@__crt_stdio_output@@V?$standard_base@DV?$stream_output_adapter@D@__crt_stdio_output@@@2@@__crt_stdio_output@@CADH_N@Z 00000001400a8ffc f i libucrt:output.obj
 0001:000a800c       ?adjust_hexit@?$output_processor@DV?$string_output_adapter@D@__crt_stdio_output@@V?$format_validation_base@DV?$string_output_adapter@D@__crt_stdio_output@@@2@@__crt_stdio_output@@CADH_N@Z 00000001400a900c f i libucrt:output.obj
 0001:000a801c       ?adjust_hexit@?$output_processor@DV?$string_output_adapter@D@__crt_stdio_output@@V?$positional_parameter_base@DV?$string_output_adapter@D@__crt_stdio_output@@@2@@__crt_stdio_output@@CADH_N@Z 00000001400a901c f i libucrt:output.obj
 0001:000a802c       ?adjust_hexit@?$output_processor@DV?$string_output_adapter@D@__crt_stdio_output@@V?$standard_base@DV?$string_output_adapter@D@__crt_stdio_output@@@2@@__crt_stdio_output@@CADH_N@Z 00000001400a902c f i libucrt:output.obj
 0001:000a803c       ?adjust_hexit@?$output_processor@_WV?$stream_output_adapter@_W@__crt_stdio_output@@V?$format_validation_base@_WV?$stream_output_adapter@_W@__crt_stdio_output@@@2@@__crt_stdio_output@@CADH_N@Z 00000001400a903c f i libucrt:output.obj
 0001:000a804c       ?adjust_hexit@?$output_processor@_WV?$stream_output_adapter@_W@__crt_stdio_output@@V?$positional_parameter_base@_WV?$stream_output_adapter@_W@__crt_stdio_output@@@2@@__crt_stdio_output@@CADH_N@Z 00000001400a904c f i libucrt:output.obj
 0001:000a805c       ?adjust_hexit@?$output_processor@_WV?$stream_output_adapter@_W@__crt_stdio_output@@V?$standard_base@_WV?$stream_output_adapter@_W@__crt_stdio_output@@@2@@__crt_stdio_output@@CADH_N@Z 00000001400a905c f i libucrt:output.obj
 0001:000a806c       ?adjust_hexit@?$output_processor@_WV?$string_output_adapter@_W@__crt_stdio_output@@V?$format_validation_base@_WV?$string_output_adapter@_W@__crt_stdio_output@@@2@@__crt_stdio_output@@CADH_N@Z 00000001400a906c f i libucrt:output.obj
 0001:000a807c       ?adjust_hexit@?$output_processor@_WV?$string_output_adapter@_W@__crt_stdio_output@@V?$positional_parameter_base@_WV?$string_output_adapter@_W@__crt_stdio_output@@@2@@__crt_stdio_output@@CADH_N@Z 00000001400a907c f i libucrt:output.obj
 0001:000a808c       ?adjust_hexit@?$output_processor@_WV?$string_output_adapter@_W@__crt_stdio_output@@V?$standard_base@_WV?$string_output_adapter@_W@__crt_stdio_output@@@2@@__crt_stdio_output@@CADH_N@Z 00000001400a908c f i libucrt:output.obj
 0001:000a809c       ?advance_to_next_pass@?$positional_parameter_base@DV?$stream_output_adapter@D@__crt_stdio_output@@@__crt_stdio_output@@IEAA_NXZ 00000001400a909c f i libucrt:output.obj
 0001:000a8104       ?advance_to_next_pass@?$positional_parameter_base@DV?$string_output_adapter@D@__crt_stdio_output@@@__crt_stdio_output@@IEAA_NXZ 00000001400a9104 f i libucrt:output.obj
 0001:000a816c       ?advance_to_next_pass@?$positional_parameter_base@_WV?$stream_output_adapter@_W@__crt_stdio_output@@@__crt_stdio_output@@IEAA_NXZ 00000001400a916c f i libucrt:output.obj
 0001:000a81d4       ?advance_to_next_pass@?$positional_parameter_base@_WV?$string_output_adapter@_W@__crt_stdio_output@@@__crt_stdio_output@@IEAA_NXZ 00000001400a91d4 f i libucrt:output.obj
 0001:000a823c       ?advance_to_next_pass@?$standard_base@DV?$stream_output_adapter@D@__crt_stdio_output@@@__crt_stdio_output@@IEAA_NXZ 00000001400a923c f i libucrt:output.obj
 0001:000a8254       ?advance_to_next_pass@?$standard_base@DV?$string_output_adapter@D@__crt_stdio_output@@@__crt_stdio_output@@IEAA_NXZ 00000001400a9254 f i libucrt:output.obj
 0001:000a826c       ?advance_to_next_pass@?$standard_base@_WV?$stream_output_adapter@_W@__crt_stdio_output@@@__crt_stdio_output@@IEAA_NXZ 00000001400a926c f i libucrt:output.obj
 0001:000a8284       ?advance_to_next_pass@?$standard_base@_WV?$string_output_adapter@_W@__crt_stdio_output@@@__crt_stdio_output@@IEAA_NXZ 00000001400a9284 f i libucrt:output.obj
 0001:000a829c       ?check@?$cached@H@__crt_cached_ptd_host@@QEBA_NH@Z 00000001400a929c f i libucrt:output.obj
 0001:000a82b0       ?check_synchronize_global_state_index@__crt_cached_ptd_host@@AEAA_KAEBV__crt_scoped_get_last_error_reset@@@Z 00000001400a92b0 f i libucrt:output.obj
 0001:000a82d0       ?check_synchronize_per_thread_data@__crt_cached_ptd_host@@AEAAPEAU__acrt_ptd@@XZ 00000001400a92d0 f i libucrt:output.obj
 0001:000a8350       ?create_guard@?$cached@H@__crt_cached_ptd_host@@QEAA?AVguard@12@XZ 00000001400a9350 f i libucrt:output.obj
 0001:000a8368       ?crop_zeroes@__crt_stdio_output@@YAXPEADQEAU__crt_locale_pointers@@@Z 00000001400a9368 f i libucrt:output.obj
 0001:000a83ec       ?disable@guard@?$cached@H@__crt_cached_ptd_host@@QEAAXXZ 00000001400a93ec f i libucrt:output.obj
 0001:000a83f4       ?enable@guard@?$cached@H@__crt_cached_ptd_host@@QEAAXXZ 00000001400a93f4 f i libucrt:output.obj
 0001:000a83fc       ?find_next_state@?$output_processor@DV?$stream_output_adapter@D@__crt_stdio_output@@V?$format_validation_base@DV?$stream_output_adapter@D@__crt_stdio_output@@@2@@__crt_stdio_output@@AEBA?AW4state@2@DW432@@Z 00000001400a93fc f i libucrt:output.obj
 0001:000a8440       ?find_next_state@?$output_processor@DV?$stream_output_adapter@D@__crt_stdio_output@@V?$positional_parameter_base@DV?$stream_output_adapter@D@__crt_stdio_output@@@2@@__crt_stdio_output@@AEBA?AW4state@2@DW432@@Z 00000001400a9440 f i libucrt:output.obj
 0001:000a8484       ?find_next_state@?$output_processor@DV?$stream_output_adapter@D@__crt_stdio_output@@V?$standard_base@DV?$stream_output_adapter@D@__crt_stdio_output@@@2@@__crt_stdio_output@@AEBA?AW4state@2@DW432@@Z 00000001400a9484 f i libucrt:output.obj
 0001:000a84c8       ?find_next_state@?$output_processor@DV?$string_output_adapter@D@__crt_stdio_output@@V?$format_validation_base@DV?$string_output_adapter@D@__crt_stdio_output@@@2@@__crt_stdio_output@@AEBA?AW4state@2@DW432@@Z 00000001400a94c8 f i libucrt:output.obj
 0001:000a850c       ?find_next_state@?$output_processor@DV?$string_output_adapter@D@__crt_stdio_output@@V?$positional_parameter_base@DV?$string_output_adapter@D@__crt_stdio_output@@@2@@__crt_stdio_output@@AEBA?AW4state@2@DW432@@Z 00000001400a950c f i libucrt:output.obj
 0001:000a8550       ?find_next_state@?$output_processor@DV?$string_output_adapter@D@__crt_stdio_output@@V?$standard_base@DV?$string_output_adapter@D@__crt_stdio_output@@@2@@__crt_stdio_output@@AEBA?AW4state@2@DW432@@Z 00000001400a9550 f i libucrt:output.obj
 0001:000a8594       ?find_next_state@?$output_processor@_WV?$stream_output_adapter@_W@__crt_stdio_output@@V?$format_validation_base@_WV?$stream_output_adapter@_W@__crt_stdio_output@@@2@@__crt_stdio_output@@AEBA?AW4state@2@_WW432@@Z 00000001400a9594 f i libucrt:output.obj
 0001:000a85e4       ?find_next_state@?$output_processor@_WV?$stream_output_adapter@_W@__crt_stdio_output@@V?$positional_parameter_base@_WV?$stream_output_adapter@_W@__crt_stdio_output@@@2@@__crt_stdio_output@@AEBA?AW4state@2@_WW432@@Z 00000001400a95e4 f i libucrt:output.obj
 0001:000a8634       ?find_next_state@?$output_processor@_WV?$stream_output_adapter@_W@__crt_stdio_output@@V?$standard_base@_WV?$stream_output_adapter@_W@__crt_stdio_output@@@2@@__crt_stdio_output@@AEBA?AW4state@2@_WW432@@Z 00000001400a9634 f i libucrt:output.obj
 0001:000a8680       ?find_next_state@?$output_processor@_WV?$string_output_adapter@_W@__crt_stdio_output@@V?$format_validation_base@_WV?$string_output_adapter@_W@__crt_stdio_output@@@2@@__crt_stdio_output@@AEBA?AW4state@2@_WW432@@Z 00000001400a9680 f i libucrt:output.obj
 0001:000a86d0       ?find_next_state@?$output_processor@_WV?$string_output_adapter@_W@__crt_stdio_output@@V?$positional_parameter_base@_WV?$string_output_adapter@_W@__crt_stdio_output@@@2@@__crt_stdio_output@@AEBA?AW4state@2@_WW432@@Z 00000001400a96d0 f i libucrt:output.obj
 0001:000a8720       ?find_next_state@?$output_processor@_WV?$string_output_adapter@_W@__crt_stdio_output@@V?$standard_base@_WV?$string_output_adapter@_W@__crt_stdio_output@@@2@@__crt_stdio_output@@AEBA?AW4state@2@_WW432@@Z 00000001400a9720 f i libucrt:output.obj
 0001:000a876c       ?force_decimal_point@__crt_stdio_output@@YAXPEADQEAU__crt_locale_pointers@@@Z 00000001400a976c f i libucrt:output.obj
 0001:000a87f0       ?force_synchronize_global_state_index@__crt_cached_ptd_host@@AEAA_KAEBV__crt_scoped_get_last_error_reset@@@Z 00000001400a97f0 f i libucrt:output.obj
 0001:000a8810       ?force_synchronize_per_thread_data@__crt_cached_ptd_host@@AEAAPEAU__acrt_ptd@@XZ 00000001400a9810 f i libucrt:output.obj
 0001:000a887c       ?get@?$c_string_character_source@D@__crt_strtox@@QEAADXZ 00000001400a987c f i libucrt:output.obj
 0001:000a888c       ?get@?$c_string_character_source@_W@__crt_strtox@@QEAA_WXZ 00000001400a988c f i libucrt:output.obj
 0001:000a88a0       ?get_current_state_index@__crt_state_management@@YA_KAEBV__crt_scoped_get_last_error_reset@@@Z 00000001400a98a0 f i libucrt:output.obj
 0001:000a88b0       ?get_errno@__crt_cached_ptd_host@@QEAA@XZ 00000001400a98b0 f i libucrt:output.obj
 0001:000a88b8       ?get_flags@__crt_stdio_stream@@QEBAJXZ 00000001400a98b8 f i libucrt:output.obj
 0001:000a88d0       ?get_locale@__crt_cached_ptd_host@@QEAAPEAU__crt_locale_pointers@@XZ 00000001400a98d0 f i libucrt:output.obj
 0001:000a8904       ?get_parameter_type@?$positional_parameter_base@DV?$stream_output_adapter@D@__crt_stdio_output@@@__crt_stdio_output@@CA?AW4parameter_type@12@F@Z 00000001400a9904 f i libucrt:output.obj
 0001:000a890c       ?get_parameter_type@?$positional_parameter_base@DV?$stream_output_adapter@D@__crt_stdio_output@@@__crt_stdio_output@@CA?AW4parameter_type@12@G@Z 00000001400a990c f i libucrt:output.obj
 0001:000a8914       ?get_parameter_type@?$positional_parameter_base@DV?$stream_output_adapter@D@__crt_stdio_output@@@__crt_stdio_output@@CA?AW4parameter_type@12@H@Z 00000001400a9914 f i libucrt:output.obj
 0001:000a891c       ?get_parameter_type@?$positional_parameter_base@DV?$stream_output_adapter@D@__crt_stdio_output@@@__crt_stdio_output@@CA?AW4parameter_type@12@I@Z 00000001400a991c f i libucrt:output.obj
 0001:000a8924       ?get_parameter_type@?$positional_parameter_base@DV?$stream_output_adapter@D@__crt_stdio_output@@@__crt_stdio_output@@CA?AW4parameter_type@12@U_CRT_DOUBLE@@@Z 00000001400a9924 f i libucrt:output.obj
 0001:000a892c       ?get_parameter_type@?$positional_parameter_base@DV?$stream_output_adapter@D@__crt_stdio_output@@@__crt_stdio_output@@CA?AW4parameter_type@12@_J@Z 00000001400a992c f i libucrt:output.obj
 0001:000a8934       ?get_parameter_type@?$positional_parameter_base@DV?$stream_output_adapter@D@__crt_stdio_output@@@__crt_stdio_output@@CA?AW4parameter_type@12@_K@Z 00000001400a9934 f i libucrt:output.obj
 0001:000a893c       ?get_parameter_type@?$positional_parameter_base@DV?$stream_output_adapter@D@__crt_stdio_output@@@__crt_stdio_output@@CA?AW4parameter_type@12@_W@Z 00000001400a993c f i libucrt:output.obj
 0001:000a8944       ?get_parameter_type@?$positional_parameter_base@DV?$string_output_adapter@D@__crt_stdio_output@@@__crt_stdio_output@@CA?AW4parameter_type@12@F@Z 00000001400a9944 f i libucrt:output.obj
 0001:000a894c       ?get_parameter_type@?$positional_parameter_base@DV?$string_output_adapter@D@__crt_stdio_output@@@__crt_stdio_output@@CA?AW4parameter_type@12@G@Z 00000001400a994c f i libucrt:output.obj
 0001:000a8954       ?get_parameter_type@?$positional_parameter_base@DV?$string_output_adapter@D@__crt_stdio_output@@@__crt_stdio_output@@CA?AW4parameter_type@12@H@Z 00000001400a9954 f i libucrt:output.obj
 0001:000a895c       ?get_parameter_type@?$positional_parameter_base@DV?$string_output_adapter@D@__crt_stdio_output@@@__crt_stdio_output@@CA?AW4parameter_type@12@I@Z 00000001400a995c f i libucrt:output.obj
 0001:000a8964       ?get_parameter_type@?$positional_parameter_base@DV?$string_output_adapter@D@__crt_stdio_output@@@__crt_stdio_output@@CA?AW4parameter_type@12@U_CRT_DOUBLE@@@Z 00000001400a9964 f i libucrt:output.obj
 0001:000a896c       ?get_parameter_type@?$positional_parameter_base@DV?$string_output_adapter@D@__crt_stdio_output@@@__crt_stdio_output@@CA?AW4parameter_type@12@_J@Z 00000001400a996c f i libucrt:output.obj
 0001:000a8974       ?get_parameter_type@?$positional_parameter_base@DV?$string_output_adapter@D@__crt_stdio_output@@@__crt_stdio_output@@CA?AW4parameter_type@12@_K@Z 00000001400a9974 f i libucrt:output.obj
 0001:000a897c       ?get_parameter_type@?$positional_parameter_base@DV?$string_output_adapter@D@__crt_stdio_output@@@__crt_stdio_output@@CA?AW4parameter_type@12@_W@Z 00000001400a997c f i libucrt:output.obj
 0001:000a8984       ?get_parameter_type@?$positional_parameter_base@_WV?$stream_output_adapter@_W@__crt_stdio_output@@@__crt_stdio_output@@CA?AW4parameter_type@12@F@Z 00000001400a9984 f i libucrt:output.obj
 0001:000a898c       ?get_parameter_type@?$positional_parameter_base@_WV?$stream_output_adapter@_W@__crt_stdio_output@@@__crt_stdio_output@@CA?AW4parameter_type@12@G@Z 00000001400a998c f i libucrt:output.obj
 0001:000a8994       ?get_parameter_type@?$positional_parameter_base@_WV?$stream_output_adapter@_W@__crt_stdio_output@@@__crt_stdio_output@@CA?AW4parameter_type@12@H@Z 00000001400a9994 f i libucrt:output.obj
 0001:000a899c       ?get_parameter_type@?$positional_parameter_base@_WV?$stream_output_adapter@_W@__crt_stdio_output@@@__crt_stdio_output@@CA?AW4parameter_type@12@I@Z 00000001400a999c f i libucrt:output.obj
 0001:000a89a4       ?get_parameter_type@?$positional_parameter_base@_WV?$stream_output_adapter@_W@__crt_stdio_output@@@__crt_stdio_output@@CA?AW4parameter_type@12@U_CRT_DOUBLE@@@Z 00000001400a99a4 f i libucrt:output.obj
 0001:000a89ac       ?get_parameter_type@?$positional_parameter_base@_WV?$stream_output_adapter@_W@__crt_stdio_output@@@__crt_stdio_output@@CA?AW4parameter_type@12@_J@Z 00000001400a99ac f i libucrt:output.obj
 0001:000a89b4       ?get_parameter_type@?$positional_parameter_base@_WV?$stream_output_adapter@_W@__crt_stdio_output@@@__crt_stdio_output@@CA?AW4parameter_type@12@_K@Z 00000001400a99b4 f i libucrt:output.obj
 0001:000a89bc       ?get_parameter_type@?$positional_parameter_base@_WV?$stream_output_adapter@_W@__crt_stdio_output@@@__crt_stdio_output@@CA?AW4parameter_type@12@_W@Z 00000001400a99bc f i libucrt:output.obj
 0001:000a89c4       ?get_parameter_type@?$positional_parameter_base@_WV?$string_output_adapter@_W@__crt_stdio_output@@@__crt_stdio_output@@CA?AW4parameter_type@12@F@Z 00000001400a99c4 f i libucrt:output.obj
 0001:000a89cc       ?get_parameter_type@?$positional_parameter_base@_WV?$string_output_adapter@_W@__crt_stdio_output@@@__crt_stdio_output@@CA?AW4parameter_type@12@G@Z 00000001400a99cc f i libucrt:output.obj
 0001:000a89d4       ?get_parameter_type@?$positional_parameter_base@_WV?$string_output_adapter@_W@__crt_stdio_output@@@__crt_stdio_output@@CA?AW4parameter_type@12@H@Z 00000001400a99d4 f i libucrt:output.obj
 0001:000a89dc       ?get_parameter_type@?$positional_parameter_base@_WV?$string_output_adapter@_W@__crt_stdio_output@@@__crt_stdio_output@@CA?AW4parameter_type@12@I@Z 00000001400a99dc f i libucrt:output.obj
 0001:000a89e4       ?get_parameter_type@?$positional_parameter_base@_WV?$string_output_adapter@_W@__crt_stdio_output@@@__crt_stdio_output@@CA?AW4parameter_type@12@U_CRT_DOUBLE@@@Z 00000001400a99e4 f i libucrt:output.obj
 0001:000a89ec       ?get_parameter_type@?$positional_parameter_base@_WV?$string_output_adapter@_W@__crt_stdio_output@@@__crt_stdio_output@@CA?AW4parameter_type@12@_J@Z 00000001400a99ec f i libucrt:output.obj
