 ITHelper

 Timestamp is 6a34f909 (Fri Jun 19 11:08:41 2026)

 Preferred load address is 0000000140000000

 Start         Length     Name                   Class
 0001:00000000 0000e280H .text$di                CODE
 0001:0000e280 001afef0H .text$mn                CODE
 0001:001be170 00001070H .text$mn$00             CODE
 0001:001bf1e0 00002190H .text$mn$21             CODE
 0001:001c1370 000053c0H .text$x                 CODE
 0001:001c6730 0000101bH .text$yd                CODE
 0002:00000000 00000110H .CRT$XCA                DATA
 0002:00000110 00000110H .CRT$XCAA               DATA
 0002:00000220 00000110H .CRT$XCC                DATA
 0002:00000330 00000110H .CRT$XCZ                DATA
 0002:00000440 00000110H .CRT$XIA                DATA
 0002:00000550 00000110H .CRT$XIAA               DATA
 0002:00000660 00000110H .CRT$XIAC               DATA
 0002:00000770 00000140H .CRT$XIC                DATA
 0002:000008b0 00000110H .CRT$XIZ                DATA
 0002:000009c0 00000110H .CRT$XPA                DATA
 0002:00000ad0 00000120H .CRT$XPX                DATA
 0002:00000bf0 00000110H .CRT$XPXA               DATA
 0002:00000d00 00000110H .CRT$XPZ                DATA
 0002:00000e10 00000110H .CRT$XTA                DATA
 0002:00000f20 00000120H .CRT$XTZ                DATA
 0002:00001040 0003a990H .rdata                  DATA
 0002:0003b9d0 000002b0H .rdata$00               DATA
 0002:0003bc80 00000200H .rdata$CastGuardVftablesA DATA
 0002:0003be80 000001a0H .rdata$CastGuardVftablesC DATA
 0002:0003c020 00001224H .rdata$r                DATA
 0002:0003d244 0000018cH .rdata$zzzdbg           DATA
 0002:0003d3d0 00000110H .rtc$IAA                DATA
 0002:0003d4e0 00000140H .rtc$IMZ                DATA
 0002:0003d620 00000110H .rtc$IZZ                DATA
 0002:0003d730 00000110H .rtc$TAA                DATA
 0002:0003d840 00000140H .rtc$TMZ                DATA
 0002:0003d980 00000110H .rtc$TZZ                DATA
 0002:0003da90 000130e8H .xdata                  DATA
 0002:00050b78 00000666H .xdata$x                DATA
 0002:000511de 00000000H .edata                  DATA
 0003:00000000 00000ff0H .data                   DATA
 0003:00000ff0 000005c0H .data$r                 DATA
 0003:000015b0 000005c0H .data$rs                DATA
 0003:00001b70 00001e81H .bss                    DATA
 0004:00000000 00014580H .pdata                  DATA
 0005:00000000 00000910H .idata$5                DATA
 0005:00000910 0000008cH .idata$2                DATA
 0005:0000099c 00000014H .idata$3                DATA
 0005:000009b0 00000910H .idata$4                DATA
 0005:000012c0 00000f1aH .idata$6                DATA
 0006:00000000 00000175H .00cfg                  DATA
 0007:00000000 00000233H .fptable                DATA
 0008:00000000 00000270H .rsrc$01                DATA
 0008:00000270 0000104cH .rsrc$02                DATA

  Address         Publics by Value              Rva+Base               Lib:Object

 0000:00000000       __AbsoluteZero             0000000000000000     <absolute>
 0000:00000000       ___safe_se_handler_count   0000000000000000     <absolute>
 0000:00000000       ___safe_se_handler_table   0000000000000000     <absolute>
 0000:00000000       __arm64x_extra_rfe_table   0000000000000000     <absolute>
 0000:00000000       __arm64x_extra_rfe_table_size 0000000000000000     <absolute>
 0000:00000000       __arm64x_native_entrypoint 0000000000000000     <absolute>
 0000:00000000       __arm64x_redirection_metadata 0000000000000000     <absolute>
 0000:00000000       __arm64x_redirection_metadata_count 0000000000000000     <absolute>
 0000:00000000       __dynamic_value_reloc_table 0000000000000000     <absolute>
 0000:00000000       __enclave_config           0000000000000000     <absolute>
 0000:00000000       __guard_check_icall_a64n_fptr 0000000000000000     <absolute>
 0000:00000000       __guard_eh_cont_count      0000000000000000     <absolute>
 0000:00000000       __guard_eh_cont_table      0000000000000000     <absolute>
 0000:00000000       __guard_fids_count         0000000000000000     <absolute>
 0000:00000000       __guard_fids_table         0000000000000000     <absolute>
 0000:00000000       __guard_iat_count          0000000000000000     <absolute>
 0000:00000000       __guard_iat_table          0000000000000000     <absolute>
 0000:00000000       __guard_longjmp_count      0000000000000000     <absolute>
 0000:00000000       __guard_longjmp_table      0000000000000000     <absolute>
 0000:00000000       __hybrid_auxiliary_delayload_iat 0000000000000000     <absolute>
 0000:00000000       __hybrid_auxiliary_delayload_iat_copy 0000000000000000     <absolute>
 0000:00000000       __hybrid_auxiliary_iat     0000000000000000     <absolute>
 0000:00000000       __hybrid_auxiliary_iat_copy 0000000000000000     <absolute>
 0000:00000000       __hybrid_code_map          0000000000000000     <absolute>
 0000:00000000       __hybrid_code_map_count    0000000000000000     <absolute>
 0000:00000000       __hybrid_image_info_bitfield 0000000000000000     <absolute>
 0000:00000000       __volatile_metadata        0000000000000000     <absolute>
 0000:00000000       __x64_code_ranges_to_entry_points 0000000000000000     <absolute>
 0000:00000000       __x64_code_ranges_to_entry_points_count 0000000000000000     <absolute>
 0000:00000100       __guard_flags              0000000000000100     <absolute>
 0000:00000000       __ImageBase                0000000140000000     <linker-defined>
 0001:0000e280       wWinMain                   000000014000f280 f   main.cpp.obj
 0001:0000e640       __local_stdio_printf_options 000000014000f640 f i main.cpp.obj
 0001:0000e650       _vswprintf_c_l             000000014000f650 f i main.cpp.obj
 0001:0000e6e0       swprintf                   000000014000f6e0 f i main.cpp.obj
 0001:0000e790       ??0Shell@ith@@QEAA@PEAUHINSTANCE__@@@Z 000000014000f790 f   Shell.cpp.obj
 0001:0000e870       ??1Shell@ith@@QEAA@XZ      000000014000f870 f   Shell.cpp.obj
 0001:0000e8d0       ?Create@Shell@ith@@QEAA_NXZ 000000014000f8d0 f   Shell.cpp.obj
 0001:0000ea90       ?Show@Shell@ith@@QEAAXH@Z  000000014000fa90 f   Shell.cpp.obj
 0001:0000ead0       ?WndProc@Shell@ith@@CA_JPEAUHWND__@@I_K_J@Z 000000014000fad0 f   Shell.cpp.obj
 0001:0000eba0       ?Handle@Shell@ith@@AEAA_JPEAUHWND__@@I_K_J@Z 000000014000fba0 f   Shell.cpp.obj
 0001:0000efb0       ?BuildTree@Shell@ith@@AEAAXXZ 000000014000ffb0 f   Shell.cpp.obj
 0001:0000f410       ?Layout@Shell@ith@@AEAAXXZ 0000000140010410 f   Shell.cpp.obj
 0001:0000f5b0       ?SelectTool@Shell@ith@@AEAAXPEAVITool@2@@Z 00000001400105b0 f   Shell.cpp.obj
 0001:0000f830       ?RecreateFont@Shell@ith@@AEAAXXZ 0000000140010830 f   Shell.cpp.obj
 0001:0000fe20       ??$?0$$V@?$_Compressed_pair@V?$allocator@U?$_Tree_node@U?$pair@$$CBV?$basic_string@_WU?$char_traits@_W@std@@V?$allocator@_W@2@@std@@PEAU_TREEITEM@@@std@@PEAX@std@@@std@@V?$_Tree_val@U?$_Tree_simple_types@U?$pair@$$CBV?$basic_string@_WU?$char_traits@_W@std@@V?$allocator@_W@2@@std@@PEAU_TREEITEM@@@std@@@std@@@2@$00@std@@QEAA@U_Zero_then_variadic_args_t@1@@Z 0000000140010e20 f i Shell.cpp.obj
 0001:0000fe60       ??$?0$$V@?$_Compressed_pair@V?$allocator@V?$unique_ptr@VITool@ith@@U?$default_delete@VITool@ith@@@std@@@std@@@std@@V?$_Vector_val@U?$_Simple_types@V?$unique_ptr@VITool@ith@@U?$default_delete@VITool@ith@@@std@@@std@@@std@@@2@$00@std@@QEAA@U_Zero_then_variadic_args_t@1@@Z 0000000140010e60 f i Shell.cpp.obj
 0001:0000fea0       ??$?0$$V@?$_Compressed_pair@V?$allocator@_W@std@@V?$_String_val@U?$_Simple_types@_W@std@@@2@$00@std@@QEAA@U_Zero_then_variadic_args_t@1@@Z 0000000140010ea0 f i Shell.cpp.obj
 0001:0000fee0       ??$?0AEAPEAVAdQueryTool@ith@@@?$_Compressed_pair@U?$default_delete@VAdQueryTool@ith@@@std@@PEAVAdQueryTool@ith@@$00@std@@QEAA@U_Zero_then_variadic_args_t@1@AEAPEAVAdQueryTool@ith@@@Z 0000000140010ee0 f i Shell.cpp.obj
 0001:0000ff10       ??$?0AEAPEAVITool@ith@@V?$unique_ptr@VToolView@ith@@U?$default_delete@VToolView@ith@@@std@@@std@@$0A@@?$pair@QEAVITool@ith@@V?$unique_ptr@VToolView@ith@@U?$default_delete@VToolView@ith@@@std@@@std@@@std@@QEAA@AEAPEAVITool@ith@@$$QEAV?$unique_ptr@VToolView@ith@@U?$default_delete@VToolView@ith@@@std@@@1@@Z 0000000140010f10 f i Shell.cpp.obj
 0001:0000ff70       ??$?0AEAPEAVITool@ith@@V?$unique_ptr@VToolView@ith@@U?$default_delete@VToolView@ith@@@std@@@std@@@?$_List_node_emplace_op2@V?$allocator@U?$_List_node@U?$pair@QEAVITool@ith@@V?$unique_ptr@VToolView@ith@@U?$default_delete@VToolView@ith@@@std@@@std@@@std@@PEAX@std@@@std@@@std@@QEAA@AEAV?$allocator@U?$_List_node@U?$pair@QEAVITool@ith@@V?$unique_ptr@VToolView@ith@@U?$default_delete@VToolView@ith@@@std@@@std@@@std@@PEAX@std@@@1@AEAPEAVITool@ith@@$$QEAV?$unique_ptr@VToolView@ith@@U?$default_delete@VToolView@ith@@@std@@@1@@Z 0000000140010f70 f i Shell.cpp.obj
 0001:00010010       ??$?0AEBQEAU?$_Tree_node@U?$pair@$$CBV?$basic_string@_WU?$char_traits@_W@std@@V?$allocator@_W@2@@std@@PEAU_TREEITEM@@@std@@PEAX@std@@_N$0A@@?$pair@PEAU?$_Tree_node@U?$pair@$$CBV?$basic_string@_WU?$char_traits@_W@std@@V?$allocator@_W@2@@std@@PEAU_TREEITEM@@@std@@PEAX@std@@_N@std@@QEAA@AEBQEAU?$_Tree_node@U?$pair@$$CBV?$basic_string@_WU?$char_traits@_W@std@@V?$allocator@_W@2@@std@@PEAU_TREEITEM@@@std@@PEAX@1@$$QEA_N@Z 0000000140011010 f i Shell.cpp.obj
 0001:00010060       ??$?0AEBU?$less@V?$basic_string@_WU?$char_traits@_W@std@@V?$allocator@_W@2@@std@@@std@@U_Zero_then_variadic_args_t@1@@?$_Compressed_pair@U?$less@V?$basic_string@_WU?$char_traits@_W@std@@V?$allocator@_W@2@@std@@@std@@V?$_Compressed_pair@V?$allocator@U?$_Tree_node@U?$pair@$$CBV?$basic_string@_WU?$char_traits@_W@std@@V?$allocator@_W@2@@std@@PEAU_TREEITEM@@@std@@PEAX@std@@@std@@V?$_Tree_val@U?$_Tree_simple_types@U?$pair@$$CBV?$basic_string@_WU?$char_traits@_W@std@@V?$allocator@_W@2@@std@@PEAU_TREEITEM@@@std@@@std@@@2@$00@2@$00@std@@QEAA@U_One_then_variadic_args_t@1@AEBU?$less@V?$basic_string@_WU?$char_traits@_W@std@@V?$allocator@_W@2@@std@@@1@$$QEAU_Zero_then_variadic_args_t@1@@Z 0000000140011060 f i Shell.cpp.obj
 0001:000100b0       ??$?0AEBUpiecewise_construct_t@std@@V?$tuple@AEBV?$basic_string@_WU?$char_traits@_W@std@@V?$allocator@_W@2@@std@@@1@V?$tuple@$$V@1@@?$_Tree_temp_node@V?$allocator@U?$_Tree_node@U?$pair@$$CBV?$basic_string@_WU?$char_traits@_W@std@@V?$allocator@_W@2@@std@@PEAU_TREEITEM@@@std@@PEAX@std@@@std@@@std@@QEAA@AEAV?$allocator@U?$_Tree_node@U?$pair@$$CBV?$basic_string@_WU?$char_traits@_W@std@@V?$allocator@_W@2@@std@@PEAU_TREEITEM@@@std@@PEAX@std@@@1@PEAU?$_Tree_node@U?$pair@$$CBV?$basic_string@_WU?$char_traits@_W@std@@V?$allocator@_W@2@@std@@PEAU_TREEITEM@@@std@@PEAX@1@AEBUpiecewise_construct_t@1@$$QEAV?$tuple@AEBV?$basic_string@_WU?$char_traits@_W@std@@V?$allocator@_W@2@@std@@@1@$$QEAV?$tuple@$$V@1@@Z 00000001400110b0 f i Shell.cpp.obj
 0001:000101d0       ??$?0AEBV?$allocator@U?$pair@QEAVITool@ith@@V?$unique_ptr@VToolView@ith@@U?$default_delete@VToolView@ith@@@std@@@std@@@std@@@std@@$$V@?$_Compressed_pair@V?$allocator@U?$_List_node@U?$pair@QEAVITool@ith@@V?$unique_ptr@VToolView@ith@@U?$default_delete@VToolView@ith@@@std@@@std@@@std@@PEAX@std@@@std@@V?$_List_val@U?$_List_simple_types@U?$pair@QEAVITool@ith@@V?$unique_ptr@VToolView@ith@@U?$default_delete@VToolView@ith@@@std@@@std@@@std@@@std@@@2@$00@std@@QEAA@U_One_then_variadic_args_t@1@AEBV?$allocator@U?$pair@QEAVITool@ith@@V?$unique_ptr@VToolView@ith@@U?$default_delete@VToolView@ith@@@std@@@std@@@std@@@1@@Z 00000001400111d0 f i Shell.cpp.obj
 0001:00010220       ??$?0AEBV?$allocator@U?$pair@QEAVITool@ith@@V?$unique_ptr@VToolView@ith@@U?$default_delete@VToolView@ith@@@std@@@std@@@std@@@std@@$$V@?$_Compressed_pair@V?$allocator@V?$_List_unchecked_iterator@V?$_List_val@U?$_List_simple_types@U?$pair@QEAVITool@ith@@V?$unique_ptr@VToolView@ith@@U?$default_delete@VToolView@ith@@@std@@@std@@@std@@@std@@@std@@@std@@@std@@V?$_Vector_val@U?$_Simple_types@V?$_List_unchecked_iterator@V?$_List_val@U?$_List_simple_types@U?$pair@QEAVITool@ith@@V?$unique_ptr@VToolView@ith@@U?$default_delete@VToolView@ith@@@std@@@std@@@std@@@std@@@std@@@std@@@std@@@2@$00@std@@QEAA@U_One_then_variadic_args_t@1@AEBV?$allocator@U?$pair@QEAVITool@ith@@V?$unique_ptr@VToolView@ith@@U?$default_delete@VToolView@ith@@@std@@@std@@@std@@@1@@Z 0000000140011220 f i Shell.cpp.obj
 0001:00010270       ??$?0AEBV?$allocator@U?$pair@QEAVITool@ith@@V?$unique_ptr@VToolView@ith@@U?$default_delete@VToolView@ith@@@std@@@std@@@std@@@std@@$0A@@?$_Hash_vec@V?$allocator@V?$_List_unchecked_iterator@V?$_List_val@U?$_List_simple_types@U?$pair@QEAVITool@ith@@V?$unique_ptr@VToolView@ith@@U?$default_delete@VToolView@ith@@@std@@@std@@@std@@@std@@@std@@@std@@@std@@@std@@QEAA@AEBV?$allocator@U?$pair@QEAVITool@ith@@V?$unique_ptr@VToolView@ith@@U?$default_delete@VToolView@ith@@@std@@@std@@@std@@@1@@Z 0000000140011270 f i Shell.cpp.obj
 0001:00010300       ??$?0AEBV?$basic_string@_WU?$char_traits@_W@std@@V?$allocator@_W@2@@std@@$$Z$$V@?$pair@$$CBV?$basic_string@_WU?$char_traits@_W@std@@V?$allocator@_W@2@@std@@PEAU_TREEITEM@@@std@@QEAA@Upiecewise_construct_t@1@V?$tuple@AEBV?$basic_string@_WU?$char_traits@_W@std@@V?$allocator@_W@2@@std@@@1@V?$tuple@$$V@1@@Z 0000000140011300 f i Shell.cpp.obj
 0001:00010390       ??$?0AEBV?$basic_string@_WU?$char_traits@_W@std@@V?$allocator@_W@2@@std@@$0A@@?$tuple@AEBV?$basic_string@_WU?$char_traits@_W@std@@V?$allocator@_W@2@@std@@@std@@QEAA@AEBV?$basic_string@_WU?$char_traits@_W@std@@V?$allocator@_W@2@@1@@Z 0000000140011390 f i Shell.cpp.obj
 0001:000103d0       ??$?0AEBV?$basic_string@_WU?$char_traits@_W@std@@V?$allocator@_W@2@@std@@@?$_Tuple_val@AEBV?$basic_string@_WU?$char_traits@_W@std@@V?$allocator@_W@2@@std@@@std@@QEAA@AEBV?$basic_string@_WU?$char_traits@_W@std@@V?$allocator@_W@2@@1@@Z 00000001400113d0 f i Shell.cpp.obj
 0001:00010400       ??$?0M@?$_Compressed_pair@U?$equal_to@PEAVITool@ith@@@std@@M$00@std@@QEAA@U_Zero_then_variadic_args_t@1@$$QEAM@Z 0000000140011400 f i Shell.cpp.obj
 0001:00010440       ??$?0PEAU?$_Tree_node@U?$pair@$$CBV?$basic_string@_WU?$char_traits@_W@std@@V?$allocator@_W@2@@std@@PEAU_TREEITEM@@@std@@PEAX@std@@_N$0A@@?$pair@PEAU?$_Tree_node@U?$pair@$$CBV?$basic_string@_WU?$char_traits@_W@std@@V?$allocator@_W@2@@std@@PEAU_TREEITEM@@@std@@PEAX@std@@_N@std@@QEAA@$$QEAPEAU?$_Tree_node@U?$pair@$$CBV?$basic_string@_WU?$char_traits@_W@std@@V?$allocator@_W@2@@std@@PEAU_TREEITEM@@@std@@PEAX@1@$$QEA_N@Z 0000000140011440 f i Shell.cpp.obj
 0001:00010490       ??$?0U?$_List_node@U?$pair@QEAVITool@ith@@V?$unique_ptr@VToolView@ith@@U?$default_delete@VToolView@ith@@@std@@@std@@@std@@PEAX@std@@@?$allocator@U_Container_proxy@std@@@std@@QEAA@AEBV?$allocator@U?$_List_node@U?$pair@QEAVITool@ith@@V?$unique_ptr@VToolView@ith@@U?$default_delete@VToolView@ith@@@std@@@std@@@std@@PEAX@std@@@1@@Z 0000000140011490 f i Shell.cpp.obj
 0001:000104b0       ??$?0U?$_Tree_node@U?$pair@$$CBV?$basic_string@_WU?$char_traits@_W@std@@V?$allocator@_W@2@@std@@PEAU_TREEITEM@@@std@@PEAX@std@@@?$allocator@U_Container_proxy@std@@@std@@QEAA@AEBV?$allocator@U?$_Tree_node@U?$pair@$$CBV?$basic_string@_WU?$char_traits@_W@std@@V?$allocator@_W@2@@std@@PEAU_TREEITEM@@@std@@PEAX@std@@@1@@Z 00000001400114b0 f i Shell.cpp.obj
 0001:000104d0       ??$?0U?$default_delete@VAdQueryTool@ith@@@std@@$0A@@?$unique_ptr@VAdQueryTool@ith@@U?$default_delete@VAdQueryTool@ith@@@std@@@std@@QEAA@PEAVAdQueryTool@ith@@@Z 00000001400114d0 f i Shell.cpp.obj
 0001:00010520       ??$?0U?$default_delete@VAdQueryTool@ith@@@std@@PEAVAdQueryTool@ith@@@?$_Compressed_pair@U?$default_delete@VITool@ith@@@std@@PEAVITool@ith@@$00@std@@QEAA@U_One_then_variadic_args_t@1@$$QEAU?$default_delete@VAdQueryTool@ith@@@1@$$QEAPEAVAdQueryTool@ith@@@Z 0000000140011520 f i Shell.cpp.obj
 0001:00010580       ??$?0U?$default_delete@VITool@ith@@@std@@$0A@@?$unique_ptr@VITool@ith@@U?$default_delete@VITool@ith@@@std@@@std@@QEAA@$$QEAV01@@Z 0000000140011580 f i Shell.cpp.obj
 0001:00010600       ??$?0U?$default_delete@VITool@ith@@@std@@PEAVITool@ith@@@?$_Compressed_pair@U?$default_delete@VITool@ith@@@std@@PEAVITool@ith@@$00@std@@QEAA@U_One_then_variadic_args_t@1@$$QEAU?$default_delete@VITool@ith@@@1@$$QEAPEAVITool@ith@@@Z 0000000140011600 f i Shell.cpp.obj
 0001:00010640       ??$?0U?$default_delete@VToolView@ith@@@std@@$0A@@?$unique_ptr@VToolView@ith@@U?$default_delete@VToolView@ith@@@std@@@std@@QEAA@$$QEAV01@@Z 0000000140011640 f i Shell.cpp.obj
 0001:000106c0       ??$?0U?$default_delete@VToolView@ith@@@std@@PEAVToolView@ith@@@?$_Compressed_pair@U?$default_delete@VToolView@ith@@@std@@PEAVToolView@ith@@$00@std@@QEAA@U_One_then_variadic_args_t@1@$$QEAU?$default_delete@VToolView@ith@@@1@$$QEAPEAVToolView@ith@@@Z 00000001400116c0 f i Shell.cpp.obj
 0001:00010700       ??$?0U?$pair@QEAVITool@ith@@V?$unique_ptr@VToolView@ith@@U?$default_delete@VToolView@ith@@@std@@@std@@@std@@@?$allocator@U?$_List_node@U?$pair@QEAVITool@ith@@V?$unique_ptr@VToolView@ith@@U?$default_delete@VToolView@ith@@@std@@@std@@@std@@PEAX@std@@@std@@QEAA@AEBV?$allocator@U?$pair@QEAVITool@ith@@V?$unique_ptr@VToolView@ith@@U?$default_delete@VToolView@ith@@@std@@@std@@@std@@@1@@Z 0000000140011700 f i Shell.cpp.obj
 0001:00010720       ??$?0U?$pair@QEAVITool@ith@@V?$unique_ptr@VToolView@ith@@U?$default_delete@VToolView@ith@@@std@@@std@@@std@@@?$allocator@V?$_List_unchecked_iterator@V?$_List_val@U?$_List_simple_types@U?$pair@QEAVITool@ith@@V?$unique_ptr@VToolView@ith@@U?$default_delete@VToolView@ith@@@std@@@std@@@std@@@std@@@std@@@std@@@std@@QEAA@AEBV?$allocator@U?$pair@QEAVITool@ith@@V?$unique_ptr@VToolView@ith@@U?$default_delete@VToolView@ith@@@std@@@std@@@std@@@1@@Z 0000000140011720 f i Shell.cpp.obj
 0001:00010740       ??$?0U_Exact_args_t@std@@$0A@@?$tuple@$$V@std@@QEAA@U_Exact_args_t@1@@Z 0000000140011740 f i Shell.cpp.obj
 0001:00010760       ??$?0U_Exact_args_t@std@@AEBV?$basic_string@_WU?$char_traits@_W@std@@V?$allocator@_W@2@@1@$$V$0A@@?$tuple@AEBV?$basic_string@_WU?$char_traits@_W@std@@V?$allocator@_W@2@@std@@@std@@QEAA@U_Exact_args_t@1@AEBV?$basic_string@_WU?$char_traits@_W@std@@V?$allocator@_W@2@@1@@Z 0000000140011760 f i Shell.cpp.obj
 0001:000107c0       ??$?0U_Zero_then_variadic_args_t@std@@M@?$_Compressed_pair@U?$hash@PEAVITool@ith@@@std@@V?$_Compressed_pair@U?$equal_to@PEAVITool@ith@@@std@@M$00@2@$00@std@@QEAA@U_Zero_then_variadic_args_t@1@$$QEAU21@$$QEAM@Z 00000001400117c0 f i Shell.cpp.obj
 0001:00010820       ??$?0V?$_List_iterator@V?$_List_val@U?$_List_simple_types@U?$pair@QEAVITool@ith@@V?$unique_ptr@VToolView@ith@@U?$default_delete@VToolView@ith@@@std@@@std@@@std@@@std@@@std@@@std@@_N$0A@@?$pair@V?$_List_iterator@V?$_List_val@U?$_List_simple_types@U?$pair@QEAVITool@ith@@V?$unique_ptr@VToolView@ith@@U?$default_delete@VToolView@ith@@@std@@@std@@@std@@@std@@@std@@@std@@_N@std@@QEAA@$$QEAV?$_List_iterator@V?$_List_val@U?$_List_simple_types@U?$pair@QEAVITool@ith@@V?$unique_ptr@VToolView@ith@@U?$default_delete@VToolView@ith@@@std@@@std@@@std@@@std@@@std@@@1@$$QEA_N@Z 0000000140011820 f i Shell.cpp.obj
 0001:00010880       ??$?0V?$_List_unchecked_iterator@V?$_List_val@U?$_List_simple_types@U?$pair@QEAVITool@ith@@V?$unique_ptr@VToolView@ith@@U?$default_delete@VToolView@ith@@@std@@@std@@@std@@@std@@@std@@@std@@@?$allocator@U_Container_proxy@std@@@std@@QEAA@AEBV?$allocator@V?$_List_unchecked_iterator@V?$_List_val@U?$_List_simple_types@U?$pair@QEAVITool@ith@@V?$unique_ptr@VToolView@ith@@U?$default_delete@VToolView@ith@@@std@@@std@@@std@@@std@@@std@@@std@@@1@@Z 0000000140011880 f i Shell.cpp.obj
 0001:000108a0       ??$?0V?$allocator@_W@std@@$$V@?$_Compressed_pair@V?$allocator@_W@std@@V?$_String_val@U?$_Simple_types@_W@std@@@2@$00@std@@QEAA@U_One_then_variadic_args_t@1@$$QEAV?$allocator@_W@1@@Z 00000001400118a0 f i Shell.cpp.obj
 0001:000108e0       ??$?0V?$tuple@AEBV?$basic_string@_WU?$char_traits@_W@std@@V?$allocator@_W@2@@std@@@std@@V?$tuple@$$V@1@$0A@$$Z$S@?$pair@$$CBV?$basic_string@_WU?$char_traits@_W@std@@V?$allocator@_W@2@@std@@PEAU_TREEITEM@@@std@@AEAA@AEAV?$tuple@AEBV?$basic_string@_WU?$char_traits@_W@std@@V?$allocator@_W@2@@std@@@1@AEAV?$tuple@$$V@1@U?$integer_sequence@_K$0A@@1@U?$integer_sequence@_K$S@1@@Z 00000001400118e0 f i Shell.cpp.obj
 0001:00010950       ??$?0V?$unique_ptr@VITool@ith@@U?$default_delete@VITool@ith@@@std@@@std@@@?$allocator@U_Container_proxy@std@@@std@@QEAA@AEBV?$allocator@V?$unique_ptr@VITool@ith@@U?$default_delete@VITool@ith@@@std@@@std@@@1@@Z 0000000140011950 f i Shell.cpp.obj
 0001:00010970       ??$?0VAdQueryTool@ith@@$0A@@?$default_delete@VITool@ith@@@std@@QEAA@AEBU?$default_delete@VAdQueryTool@ith@@@1@@Z 0000000140011970 f i Shell.cpp.obj
 0001:00010990       ??$?0VAdQueryTool@ith@@U?$default_delete@VAdQueryTool@ith@@@std@@$0A@@?$unique_ptr@VITool@ith@@U?$default_delete@VITool@ith@@@std@@@std@@QEAA@$$QEAV?$unique_ptr@VAdQueryTool@ith@@U?$default_delete@VAdQueryTool@ith@@@std@@@1@@Z 0000000140011990 f i Shell.cpp.obj
 0001:00010a10       ??$?0_W@?$allocator@U_Container_proxy@std@@@std@@QEAA@AEBV?$allocator@_W@1@@Z 0000000140011a10 f i Shell.cpp.obj
 0001:00010a30       ??$?RPEAVITool@ith@@@?$_Uhash_compare@PEAVITool@ith@@U?$hash@PEAVITool@ith@@@std@@U?$equal_to@PEAVITool@ith@@@4@@std@@QEBA_KAEBQEAVITool@ith@@@Z 0000000140011a30 f i Shell.cpp.obj
 0001:00010a70       ??$?RPEAVITool@ith@@PEAV01@@?$_Uhash_compare@PEAVITool@ith@@U?$hash@PEAVITool@ith@@@std@@U?$equal_to@PEAVITool@ith@@@4@@std@@QEBA_NAEBQEAVITool@ith@@0@Z 0000000140011a70 f i Shell.cpp.obj
 0001:00010af0       ??$?__M_WU?$char_traits@_W@std@@V?$allocator@_W@1@@std@@YA?AUstrong_ordering@0@AEBV?$basic_string@_WU?$char_traits@_W@std@@V?$allocator@_W@2@@0@0@Z 0000000140011af0 f i Shell.cpp.obj
 0001:00010ba0       ??$_Adl_verify_range@PEAV?$_List_unchecked_iterator@V?$_List_val@U?$_List_simple_types@U?$pair@QEAVITool@ith@@V?$unique_ptr@VToolView@ith@@U?$default_delete@VToolView@ith@@@std@@@std@@@std@@@std@@@std@@@std@@PEAV12@@std@@YAXAEBQEAV?$_List_unchecked_iterator@V?$_List_val@U?$_List_simple_types@U?$pair@QEAVITool@ith@@V?$unique_ptr@VToolView@ith@@U?$default_delete@VToolView@ith@@@std@@@std@@@std@@@std@@@std@@@0@0@Z 0000000140011ba0 f i Shell.cpp.obj
 0001:00010c30       ??$_Alloc_proxy@V?$allocator@U_Container_proxy@std@@@std@@@_Container_base12@std@@QEAAX$$QEAV?$allocator@U_Container_proxy@std@@@1@@Z 0000000140011c30 f i Shell.cpp.obj
 0001:00010cb0       ??$_Allocate@$0BA@U_Default_allocate_traits@std@@@std@@YAPEAX_K@Z 0000000140011cb0 f i Shell.cpp.obj
 0001:00010d20       ??$_Allocate_at_least_helper@V?$allocator@V?$unique_ptr@VITool@ith@@U?$default_delete@VITool@ith@@@std@@@std@@@std@@@std@@YAPEAV?$unique_ptr@VITool@ith@@U?$default_delete@VITool@ith@@@std@@@0@AEAV?$allocator@V?$unique_ptr@VITool@ith@@U?$default_delete@VITool@ith@@@std@@@std@@@0@AEA_K@Z 0000000140011d20 f i Shell.cpp.obj
 0001:00010d50       ??$_Allocate_at_least_helper@V?$allocator@_W@std@@@std@@YAPEA_WAEAV?$allocator@_W@0@AEA_K@Z 0000000140011d50 f i Shell.cpp.obj
 0001:00010d80       ??$_Allocate_for_capacity@$0A@@?$basic_string@_WU?$char_traits@_W@std@@V?$allocator@_W@2@@std@@CAPEA_WAEAV?$allocator@_W@1@AEA_K@Z 0000000140011d80 f i Shell.cpp.obj
 0001:00010e70       ??$_Allocate_manually_vector_aligned@U_Default_allocate_traits@std@@@std@@YAPEAX_K@Z 0000000140011e70 f i Shell.cpp.obj
 0001:00010f80       ??$_Buyheadnode@V?$allocator@U?$_Tree_node@U?$pair@$$CBV?$basic_string@_WU?$char_traits@_W@std@@V?$allocator@_W@2@@std@@PEAU_TREEITEM@@@std@@PEAX@std@@@std@@@?$_Tree_node@U?$pair@$$CBV?$basic_string@_WU?$char_traits@_W@std@@V?$allocator@_W@2@@std@@PEAU_TREEITEM@@@std@@PEAX@std@@SAPEAU01@AEAV?$allocator@U?$_Tree_node@U?$pair@$$CBV?$basic_string@_WU?$char_traits@_W@std@@V?$allocator@_W@2@@std@@PEAU_TREEITEM@@@std@@PEAX@std@@@1@@Z 0000000140011f80 f i Shell.cpp.obj
 0001:00011050       ??$_Construct@$00PEB_W@?$basic_string@_WU?$char_traits@_W@std@@V?$allocator@_W@2@@std@@AEAAXQEB_W_K@Z 0000000140012050 f i Shell.cpp.obj
 0001:00011310       ??$_Construct@$01PEB_W@?$basic_string@_WU?$char_traits@_W@std@@V?$allocator@_W@2@@std@@AEAAXQEB_W_K@Z 0000000140012310 f i Shell.cpp.obj
 0001:00011570       ??$_Construct_in_place@PEAU?$_List_node@U?$pair@QEAVITool@ith@@V?$unique_ptr@VToolView@ith@@U?$default_delete@VToolView@ith@@@std@@@std@@@std@@PEAX@std@@AEAPEAU12@@std@@YAXAEAPEAU?$_List_node@U?$pair@QEAVITool@ith@@V?$unique_ptr@VToolView@ith@@U?$default_delete@VToolView@ith@@@std@@@std@@@std@@PEAX@0@0@Z 0000000140012570 f i Shell.cpp.obj
 0001:000115f0       ??$_Construct_in_place@PEAU?$_List_node@U?$pair@QEAVITool@ith@@V?$unique_ptr@VToolView@ith@@U?$default_delete@VToolView@ith@@@std@@@std@@@std@@PEAX@std@@AEBQEAU12@@std@@YAXAEAPEAU?$_List_node@U?$pair@QEAVITool@ith@@V?$unique_ptr@VToolView@ith@@U?$default_delete@VToolView@ith@@@std@@@std@@@std@@PEAX@0@AEBQEAU10@@Z 00000001400125f0 f i Shell.cpp.obj
 0001:00011670       ??$_Construct_in_place@PEAU?$_Tree_node@U?$pair@$$CBV?$basic_string@_WU?$char_traits@_W@std@@V?$allocator@_W@2@@std@@PEAU_TREEITEM@@@std@@PEAX@std@@AEAPEAU12@@std@@YAXAEAPEAU?$_Tree_node@U?$pair@$$CBV?$basic_string@_WU?$char_traits@_W@std@@V?$allocator@_W@2@@std@@PEAU_TREEITEM@@@std@@PEAX@0@0@Z 0000000140012670 f i Shell.cpp.obj
 0001:000116f0       ??$_Construct_in_place@PEAU?$_Tree_node@U?$pair@$$CBV?$basic_string@_WU?$char_traits@_W@std@@V?$allocator@_W@2@@std@@PEAU_TREEITEM@@@std@@PEAX@std@@AEBQEAU12@@std@@YAXAEAPEAU?$_Tree_node@U?$pair@$$CBV?$basic_string@_WU?$char_traits@_W@std@@V?$allocator@_W@2@@std@@PEAU_TREEITEM@@@std@@PEAX@0@AEBQEAU10@@Z 00000001400126f0 f i Shell.cpp.obj
 0001:00011770       ??$_Construct_in_place@PEA_WAEBQEA_W@std@@YAXAEAPEA_WAEBQEA_W@Z 0000000140012770 f i Shell.cpp.obj
 0001:000117f0       ??$_Construct_in_place@U_Container_proxy@std@@PEAU_Container_base12@2@@std@@YAXAEAU_Container_proxy@0@$$QEAPEAU_Container_base12@0@@Z 00000001400127f0 f i Shell.cpp.obj
 0001:00011880       ??$_Construct_in_place@V?$_List_unchecked_iterator@V?$_List_val@U?$_List_simple_types@U?$pair@QEAVITool@ith@@V?$unique_ptr@VToolView@ith@@U?$default_delete@VToolView@ith@@@std@@@std@@@std@@@std@@@std@@@std@@AEBV12@@std@@YAXAEAV?$_List_unchecked_iterator@V?$_List_val@U?$_List_simple_types@U?$pair@QEAVITool@ith@@V?$unique_ptr@VToolView@ith@@U?$default_delete@VToolView@ith@@@std@@@std@@@std@@@std@@@std@@@0@AEBV10@@Z 0000000140012880 f i Shell.cpp.obj
 0001:00011900       ??$_Construct_in_place@V?$unique_ptr@VITool@ith@@U?$default_delete@VITool@ith@@@std@@@std@@V12@@std@@YAXAEAV?$unique_ptr@VITool@ith@@U?$default_delete@VITool@ith@@@std@@@0@$$QEAV10@@Z 0000000140012900 f i Shell.cpp.obj
 0001:00011980       ??$_Convert_size@_K_K@std@@YA_K_K@Z 0000000140012980 f i Shell.cpp.obj
 0001:00011990       ??$_Deallocate@$0BA@@std@@YAXPEAX_K@Z 0000000140012990 f i Shell.cpp.obj
 0001:00011a00       ??$_Deallocate_plain@V?$allocator@U_Container_proxy@std@@@std@@@std@@YAXAEAV?$allocator@U_Container_proxy@std@@@0@QEAU_Container_proxy@0@@Z 0000000140012a00 f i Shell.cpp.obj
 0001:00011a40       ??$_Debug_lt_pred@AEBU?$less@V?$basic_string@_WU?$char_traits@_W@std@@V?$allocator@_W@2@@std@@@std@@AEBV?$basic_string@_WU?$char_traits@_W@std@@V?$allocator@_W@2@@2@AEBV32@@std@@YA_NAEBU?$less@V?$basic_string@_WU?$char_traits@_W@std@@V?$allocator@_W@2@@std@@@0@AEBV?$basic_string@_WU?$char_traits@_W@std@@V?$allocator@_W@2@@0@1@Z 0000000140012a40 f i Shell.cpp.obj
 0001:00011b10       ??$_Delete_plain_internal@V?$allocator@U_Container_proxy@std@@@std@@@std@@YAXAEAV?$allocator@U_Container_proxy@std@@@0@QEAU_Container_proxy@0@@Z 0000000140012b10 f i Shell.cpp.obj
 0001:00011b40       ??$_Destroy_in_place@PEAU?$_List_node@U?$pair@QEAVITool@ith@@V?$unique_ptr@VToolView@ith@@U?$default_delete@VToolView@ith@@@std@@@std@@@std@@PEAX@std@@@std@@YAXAEAPEAU?$_List_node@U?$pair@QEAVITool@ith@@V?$unique_ptr@VToolView@ith@@U?$default_delete@VToolView@ith@@@std@@@std@@@std@@PEAX@0@@Z 0000000140012b40 f i Shell.cpp.obj
 0001:00011b50       ??$_Destroy_in_place@PEAU?$_Tree_node@U?$pair@$$CBV?$basic_string@_WU?$char_traits@_W@std@@V?$allocator@_W@2@@std@@PEAU_TREEITEM@@@std@@PEAX@std@@@std@@YAXAEAPEAU?$_Tree_node@U?$pair@$$CBV?$basic_string@_WU?$char_traits@_W@std@@V?$allocator@_W@2@@std@@PEAU_TREEITEM@@@std@@PEAX@0@@Z 0000000140012b50 f i Shell.cpp.obj
 0001:00011b60       ??$_Destroy_in_place@PEA_W@std@@YAXAEAPEA_W@Z 0000000140012b60 f i Shell.cpp.obj
 0001:00011b70       ??$_Destroy_in_place@V?$_List_unchecked_iterator@V?$_List_val@U?$_List_simple_types@U?$pair@QEAVITool@ith@@V?$unique_ptr@VToolView@ith@@U?$default_delete@VToolView@ith@@@std@@@std@@@std@@@std@@@std@@@std@@@std@@YAXAEAV?$_List_unchecked_iterator@V?$_List_val@U?$_List_simple_types@U?$pair@QEAVITool@ith@@V?$unique_ptr@VToolView@ith@@U?$default_delete@VToolView@ith@@@std@@@std@@@std@@@std@@@std@@@0@@Z 0000000140012b70 f i Shell.cpp.obj
 0001:00011b80       ??$_Destroy_range@PEAV?$_List_unchecked_iterator@V?$_List_val@U?$_List_simple_types@U?$pair@QEAVITool@ith@@V?$unique_ptr@VToolView@ith@@U?$default_delete@VToolView@ith@@@std@@@std@@@std@@@std@@@std@@@std@@PEAV12@@std@@YAXPEAV?$_List_unchecked_iterator@V?$_List_val@U?$_List_simple_types@U?$pair@QEAVITool@ith@@V?$unique_ptr@VToolView@ith@@U?$default_delete@VToolView@ith@@@std@@@std@@@std@@@std@@@std@@@0@QEAV10@@Z 0000000140012b80 f i Shell.cpp.obj
 0001:00011be0       ??$_Destroy_range@V?$allocator@V?$unique_ptr@VITool@ith@@U?$default_delete@VITool@ith@@@std@@@std@@@std@@@std@@YAXPEAV?$unique_ptr@VITool@ith@@U?$default_delete@VITool@ith@@@std@@@0@QEAV10@AEAV?$allocator@V?$unique_ptr@VITool@ith@@U?$default_delete@VITool@ith@@@std@@@std@@@0@@Z 0000000140012be0 f i Shell.cpp.obj
 0001:00011c50       ??$_Emplace_back@AEBV?$_List_unchecked_iterator@V?$_List_val@U?$_List_simple_types@U?$pair@QEAVITool@ith@@V?$unique_ptr@VToolView@ith@@U?$default_delete@VToolView@ith@@@std@@@std@@@std@@@std@@@std@@@std@@@?$_Uninitialized_backout@PEAV?$_List_unchecked_iterator@V?$_List_val@U?$_List_simple_types@U?$pair@QEAVITool@ith@@V?$unique_ptr@VToolView@ith@@U?$default_delete@VToolView@ith@@@std@@@std@@@std@@@std@@@std@@@std@@@std@@QEAAXAEBV?$_List_unchecked_iterator@V?$_List_val@U?$_List_simple_types@U?$pair@QEAVITool@ith@@V?$unique_ptr@VToolView@ith@@U?$default_delete@VToolView@ith@@@std@@@std@@@std@@@std@@@std@@@1@@Z 0000000140012c50 f i Shell.cpp.obj
 0001:00011ca0       ??$_Emplace_back@V?$unique_ptr@VITool@ith@@U?$default_delete@VITool@ith@@@std@@@std@@@?$_Uninitialized_backout_al@V?$allocator@V?$unique_ptr@VITool@ith@@U?$default_delete@VITool@ith@@@std@@@std@@@std@@@std@@QEAAX$$QEAV?$unique_ptr@VITool@ith@@U?$default_delete@VITool@ith@@@std@@@1@@Z 0000000140012ca0 f i Shell.cpp.obj
 0001:00011d20       ??$_Emplace_back_with_unused_capacity@V?$unique_ptr@VITool@ith@@U?$default_delete@VITool@ith@@@std@@@std@@@?$vector@V?$unique_ptr@VITool@ith@@U?$default_delete@VITool@ith@@@std@@@std@@V?$allocator@V?$unique_ptr@VITool@ith@@U?$default_delete@VITool@ith@@@std@@@std@@@2@@std@@AEAAAEAV?$unique_ptr@VITool@ith@@U?$default_delete@VITool@ith@@@std@@@1@$$QEAV21@@Z 0000000140012d20 f i Shell.cpp.obj
 0001:00011dc0       ??$_Emplace_one_at_back@V?$unique_ptr@VITool@ith@@U?$default_delete@VITool@ith@@@std@@@std@@@?$vector@V?$unique_ptr@VITool@ith@@U?$default_delete@VITool@ith@@@std@@@std@@V?$allocator@V?$unique_ptr@VITool@ith@@U?$default_delete@VITool@ith@@@std@@@std@@@2@@std@@AEAAAEAV?$unique_ptr@VITool@ith@@U?$default_delete@VITool@ith@@@std@@@1@$$QEAV21@@Z 0000000140012dc0 f i Shell.cpp.obj
 0001:00011e50       ??$_Emplace_reallocate@V?$unique_ptr@VITool@ith@@U?$default_delete@VITool@ith@@@std@@@std@@@?$vector@V?$unique_ptr@VITool@ith@@U?$default_delete@VITool@ith@@@std@@@std@@V?$allocator@V?$unique_ptr@VITool@ith@@U?$default_delete@VITool@ith@@@std@@@std@@@2@@std@@AEAAPEAV?$unique_ptr@VITool@ith@@U?$default_delete@VITool@ith@@@std@@@1@QEAV21@$$QEAV21@@Z 0000000140012e50 f i Shell.cpp.obj
 0001:000121b0       ??$_Erase_head@V?$allocator@U?$_Tree_node@U?$pair@$$CBV?$basic_string@_WU?$char_traits@_W@std@@V?$allocator@_W@2@@std@@PEAU_TREEITEM@@@std@@PEAX@std@@@std@@@?$_Tree_val@U?$_Tree_simple_types@U?$pair@$$CBV?$basic_string@_WU?$char_traits@_W@std@@V?$allocator@_W@2@@std@@PEAU_TREEITEM@@@std@@@std@@@std@@QEAAXAEAV?$allocator@U?$_Tree_node@U?$pair@$$CBV?$basic_string@_WU?$char_traits@_W@std@@V?$allocator@_W@2@@std@@PEAU_TREEITEM@@@std@@PEAX@std@@@1@@Z 00000001400131b0 f i Shell.cpp.obj
 0001:00012220       ??$_Erase_tree@V?$allocator@U?$_Tree_node@U?$pair@$$CBV?$basic_string@_WU?$char_traits@_W@std@@V?$allocator@_W@2@@std@@PEAU_TREEITEM@@@std@@PEAX@std@@@std@@@?$_Tree_val@U?$_Tree_simple_types@U?$pair@$$CBV?$basic_string@_WU?$char_traits@_W@std@@V?$allocator@_W@2@@std@@PEAU_TREEITEM@@@std@@@std@@@std@@QEAAXAEAV?$allocator@U?$_Tree_node@U?$pair@$$CBV?$basic_string@_WU?$char_traits@_W@std@@V?$allocator@_W@2@@std@@PEAU_TREEITEM@@@std@@PEAX@std@@@1@PEAU?$_Tree_node@U?$pair@$$CBV?$basic_string@_WU?$char_traits@_W@std@@V?$allocator@_W@2@@std@@PEAU_TREEITEM@@@std@@PEAX@1@@Z 0000000140013220 f i Shell.cpp.obj
 0001:000122a0       ??$_Find@PEAVITool@ith@@@?$_Hash@V?$_Umap_traits@PEAVITool@ith@@V?$unique_ptr@VToolView@ith@@U?$default_delete@VToolView@ith@@@std@@@std@@V?$_Uhash_compare@PEAVITool@ith@@U?$hash@PEAVITool@ith@@@std@@U?$equal_to@PEAVITool@ith@@@4@@4@V?$allocator@U?$pair@QEAVITool@ith@@V?$unique_ptr@VToolView@ith@@U?$default_delete@VToolView@ith@@@std@@@std@@@std@@@4@$0A@@std@@@std@@AEBAPEAU?$_List_node@U?$pair@QEAVITool@ith@@V?$unique_ptr@VToolView@ith@@U?$default_delete@VToolView@ith@@@std@@@std@@@std@@PEAX@1@AEBQEAVITool@ith@@_K@Z 00000001400132a0 f i Shell.cpp.obj
 0001:00012310       ??$_Find@V?$basic_string@_WU?$char_traits@_W@std@@V?$allocator@_W@2@@std@@@?$_Tree@V?$_Tmap_traits@V?$basic_string@_WU?$char_traits@_W@std@@V?$allocator@_W@2@@std@@PEAU_TREEITEM@@U?$less@V?$basic_string@_WU?$char_traits@_W@std@@V?$allocator@_W@2@@std@@@2@V?$allocator@U?$pair@$$CBV?$basic_string@_WU?$char_traits@_W@std@@V?$allocator@_W@2@@std@@PEAU_TREEITEM@@@std@@@2@$0A@@std@@@std@@AEBAPEAU?$_Tree_node@U?$pair@$$CBV?$basic_string@_WU?$char_traits@_W@std@@V?$allocator@_W@2@@std@@PEAU_TREEITEM@@@std@@PEAX@1@AEBV?$basic_string@_WU?$char_traits@_W@std@@V?$allocator@_W@2@@1@@Z 0000000140013310 f i Shell.cpp.obj
 0001:000123c0       ??$_Find_last@PEAVITool@ith@@@?$_Hash@V?$_Umap_traits@PEAVITool@ith@@V?$unique_ptr@VToolView@ith@@U?$default_delete@VToolView@ith@@@std@@@std@@V?$_Uhash_compare@PEAVITool@ith@@U?$hash@PEAVITool@ith@@@std@@U?$equal_to@PEAVITool@ith@@@4@@4@V?$allocator@U?$pair@QEAVITool@ith@@V?$unique_ptr@VToolView@ith@@U?$default_delete@VToolView@ith@@@std@@@std@@@std@@@4@$0A@@std@@@std@@IEBA?AU?$_Hash_find_last_result@PEAU?$_List_node@U?$pair@QEAVITool@ith@@V?$unique_ptr@VToolView@ith@@U?$default_delete@VToolView@ith@@@std@@@std@@@std@@PEAX@std@@@1@AEBQEAVITool@ith@@_K@Z 00000001400133c0 f i Shell.cpp.obj
 0001:00012560       ??$_Find_lower_bound@V?$basic_string@_WU?$char_traits@_W@std@@V?$allocator@_W@2@@std@@@?$_Tree@V?$_Tmap_traits@V?$basic_string@_WU?$char_traits@_W@std@@V?$allocator@_W@2@@std@@PEAU_TREEITEM@@U?$less@V?$basic_string@_WU?$char_traits@_W@std@@V?$allocator@_W@2@@std@@@2@V?$allocator@U?$pair@$$CBV?$basic_string@_WU?$char_traits@_W@std@@V?$allocator@_W@2@@std@@PEAU_TREEITEM@@@std@@@2@$0A@@std@@@std@@IEBA?AU?$_Tree_find_result@PEAU?$_Tree_node@U?$pair@$$CBV?$basic_string@_WU?$char_traits@_W@std@@V?$allocator@_W@2@@std@@PEAU_TREEITEM@@@std@@PEAX@std@@@1@AEBV?$basic_string@_WU?$char_traits@_W@std@@V?$allocator@_W@2@@1@@Z 0000000140013560 f i Shell.cpp.obj
 0001:00012720       ??$_Fnv1a_append_value@PEAVITool@ith@@@std@@YA_K_KAEBQEAVITool@ith@@@Z 0000000140013720 f i Shell.cpp.obj
 0001:00012760       ??$_Free_non_head@V?$allocator@U?$_List_node@U?$pair@QEAVITool@ith@@V?$unique_ptr@VToolView@ith@@U?$default_delete@VToolView@ith@@@std@@@std@@@std@@PEAX@std@@@std@@@?$_List_node@U?$pair@QEAVITool@ith@@V?$unique_ptr@VToolView@ith@@U?$default_delete@VToolView@ith@@@std@@@std@@@std@@PEAX@std@@SAXAEAV?$allocator@U?$_List_node@U?$pair@QEAVITool@ith@@V?$unique_ptr@VToolView@ith@@U?$default_delete@VToolView@ith@@@std@@@std@@@std@@PEAX@std@@@1@PEAU01@@Z 0000000140013760 f i Shell.cpp.obj
 0001:000127e0       ??$_Freenode0@V?$allocator@U?$_List_node@U?$pair@QEAVITool@ith@@V?$unique_ptr@VToolView@ith@@U?$default_delete@VToolView@ith@@@std@@@std@@@std@@PEAX@std@@@std@@@?$_List_node@U?$pair@QEAVITool@ith@@V?$unique_ptr@VToolView@ith@@U?$default_delete@VToolView@ith@@@std@@@std@@@std@@PEAX@std@@SAXAEAV?$allocator@U?$_List_node@U?$pair@QEAVITool@ith@@V?$unique_ptr@VToolView@ith@@U?$default_delete@VToolView@ith@@@std@@@std@@@std@@PEAX@std@@@1@PEAU01@@Z 00000001400137e0 f i Shell.cpp.obj
 0001:00012840       ??$_Freenode0@V?$allocator@U?$_Tree_node@U?$pair@$$CBV?$basic_string@_WU?$char_traits@_W@std@@V?$allocator@_W@2@@std@@PEAU_TREEITEM@@@std@@PEAX@std@@@std@@@?$_Tree_node@U?$pair@$$CBV?$basic_string@_WU?$char_traits@_W@std@@V?$allocator@_W@2@@std@@PEAU_TREEITEM@@@std@@PEAX@std@@SAXAEAV?$allocator@U?$_Tree_node@U?$pair@$$CBV?$basic_string@_WU?$char_traits@_W@std@@V?$allocator@_W@2@@std@@PEAU_TREEITEM@@@std@@PEAX@std@@@1@PEAU01@@Z 0000000140013840 f i Shell.cpp.obj
 0001:000128b0       ??$_Freenode@V?$allocator@U?$_List_node@U?$pair@QEAVITool@ith@@V?$unique_ptr@VToolView@ith@@U?$default_delete@VToolView@ith@@@std@@@std@@@std@@PEAX@std@@@std@@@?$_List_node@U?$pair@QEAVITool@ith@@V?$unique_ptr@VToolView@ith@@U?$default_delete@VToolView@ith@@@std@@@std@@@std@@PEAX@std@@SAXAEAV?$allocator@U?$_List_node@U?$pair@QEAVITool@ith@@V?$unique_ptr@VToolView@ith@@U?$default_delete@VToolView@ith@@@std@@@std@@@std@@PEAX@std@@@1@PEAU01@@Z 00000001400138b0 f i Shell.cpp.obj
 0001:00012910       ??$_Freenode@V?$allocator@U?$_Tree_node@U?$pair@$$CBV?$basic_string@_WU?$char_traits@_W@std@@V?$allocator@_W@2@@std@@PEAU_TREEITEM@@@std@@PEAX@std@@@std@@@?$_Tree_node@U?$pair@$$CBV?$basic_string@_WU?$char_traits@_W@std@@V?$allocator@_W@2@@std@@PEAU_TREEITEM@@@std@@PEAX@std@@SAXAEAV?$allocator@U?$_Tree_node@U?$pair@$$CBV?$basic_string@_WU?$char_traits@_W@std@@V?$allocator@_W@2@@std@@PEAU_TREEITEM@@@std@@PEAX@std@@@1@PEAU01@@Z 0000000140013910 f i Shell.cpp.obj
 0001:00012970       ??$_Get_proxy_allocator@V?$allocator@U?$_List_node@U?$pair@QEAVITool@ith@@V?$unique_ptr@VToolView@ith@@U?$default_delete@VToolView@ith@@@std@@@std@@@std@@PEAX@std@@@std@@@std@@YA?AV?$allocator@U_Container_proxy@std@@@0@AEBV?$allocator@U?$_List_node@U?$pair@QEAVITool@ith@@V?$unique_ptr@VToolView@ith@@U?$default_delete@VToolView@ith@@@std@@@std@@@std@@PEAX@std@@@0@@Z 0000000140013970 f i Shell.cpp.obj
 0001:000129b0       ??$_Get_proxy_allocator@V?$allocator@U?$_Tree_node@U?$pair@$$CBV?$basic_string@_WU?$char_traits@_W@std@@V?$allocator@_W@2@@std@@PEAU_TREEITEM@@@std@@PEAX@std@@@std@@@std@@YA?AV?$allocator@U_Container_proxy@std@@@0@AEBV?$allocator@U?$_Tree_node@U?$pair@$$CBV?$basic_string@_WU?$char_traits@_W@std@@V?$allocator@_W@2@@std@@PEAU_TREEITEM@@@std@@PEAX@std@@@0@@Z 00000001400139b0 f i Shell.cpp.obj
 0001:000129f0       ??$_Get_proxy_allocator@V?$allocator@V?$_List_unchecked_iterator@V?$_List_val@U?$_List_simple_types@U?$pair@QEAVITool@ith@@V?$unique_ptr@VToolView@ith@@U?$default_delete@VToolView@ith@@@std@@@std@@@std@@@std@@@std@@@std@@@std@@@std@@YA?AV?$allocator@U_Container_proxy@std@@@0@AEBV?$allocator@V?$_List_unchecked_iterator@V?$_List_val@U?$_List_simple_types@U?$pair@QEAVITool@ith@@V?$unique_ptr@VToolView@ith@@U?$default_delete@VToolView@ith@@@std@@@std@@@std@@@std@@@std@@@std@@@0@@Z 00000001400139f0 f i Shell.cpp.obj
 0001:00012a30       ??$_Get_proxy_allocator@V?$allocator@V?$unique_ptr@VITool@ith@@U?$default_delete@VITool@ith@@@std@@@std@@@std@@@std@@YA?AV?$allocator@U_Container_proxy@std@@@0@AEBV?$allocator@V?$unique_ptr@VITool@ith@@U?$default_delete@VITool@ith@@@std@@@std@@@0@@Z 0000000140013a30 f i Shell.cpp.obj
 0001:00012a70       ??$_Get_proxy_allocator@V?$allocator@_W@std@@@std@@YA?AV?$allocator@U_Container_proxy@std@@@0@AEBV?$allocator@_W@0@@Z 0000000140013a70 f i Shell.cpp.obj
 0001:00012ab0       ??$_Get_size_of_n@$01@std@@YA_K_K@Z 0000000140013ab0 f i Shell.cpp.obj
 0001:00012b10       ??$_Get_size_of_n@$07@std@@YA_K_K@Z 0000000140013b10 f i Shell.cpp.obj
 0001:00012b70       ??$_Get_size_of_n@$0BA@@std@@YA_K_K@Z 0000000140013b70 f i Shell.cpp.obj
 0001:00012bd0       ??$_Get_size_of_n@$0CA@@std@@YA_K_K@Z 0000000140013bd0 f i Shell.cpp.obj
 0001:00012c30       ??$_Get_size_of_n@$0FA@@std@@YA_K_K@Z 0000000140013c30 f i Shell.cpp.obj
 0001:00012c90       ??$_Get_unwrapped@AEBQEAV?$_List_unchecked_iterator@V?$_List_val@U?$_List_simple_types@U?$pair@QEAVITool@ith@@V?$unique_ptr@VToolView@ith@@U?$default_delete@VToolView@ith@@@std@@@std@@@std@@@std@@@std@@@std@@@std@@YA?A_TAEBQEAV?$_List_unchecked_iterator@V?$_List_val@U?$_List_simple_types@U?$pair@QEAVITool@ith@@V?$unique_ptr@VToolView@ith@@U?$default_delete@VToolView@ith@@@std@@@std@@@std@@@std@@@std@@@0@@Z 0000000140013c90 f i Shell.cpp.obj
 0001:00012cb0       ??$_Get_unwrapped@AEBQEAV?$unique_ptr@VITool@ith@@U?$default_delete@VITool@ith@@@std@@@std@@@std@@YA?A_TAEBQEAV?$unique_ptr@VITool@ith@@U?$default_delete@VITool@ith@@@std@@@0@@Z 0000000140013cb0 f i Shell.cpp.obj
 0001:00012cd0       ??$_Hash_representation@PEAVITool@ith@@@std@@YA_KAEBQEAVITool@ith@@@Z 0000000140013cd0 f i Shell.cpp.obj
 0001:00012d00       ??$_Kfn@$$CBV?$basic_string@_WU?$char_traits@_W@std@@V?$allocator@_W@2@@std@@PEAU_TREEITEM@@@?$_Tmap_traits@V?$basic_string@_WU?$char_traits@_W@std@@V?$allocator@_W@2@@std@@PEAU_TREEITEM@@U?$less@V?$basic_string@_WU?$char_traits@_W@std@@V?$allocator@_W@2@@std@@@2@V?$allocator@U?$pair@$$CBV?$basic_string@_WU?$char_traits@_W@std@@V?$allocator@_W@2@@std@@PEAU_TREEITEM@@@std@@@2@$0A@@std@@SAAEBV?$basic_string@_WU?$char_traits@_W@std@@V?$allocator@_W@2@@1@AEBU?$pair@$$CBV?$basic_string@_WU?$char_traits@_W@std@@V?$allocator@_W@2@@std@@PEAU_TREEITEM@@@1@@Z 0000000140013d00 f i Shell.cpp.obj
 0001:00012d10       ??$_Kfn@QEAVITool@ith@@V?$unique_ptr@VToolView@ith@@U?$default_delete@VToolView@ith@@@std@@@std@@@?$_Umap_traits@PEAVITool@ith@@V?$unique_ptr@VToolView@ith@@U?$default_delete@VToolView@ith@@@std@@@std@@V?$_Uhash_compare@PEAVITool@ith@@U?$hash@PEAVITool@ith@@@std@@U?$equal_to@PEAVITool@ith@@@4@@4@V?$allocator@U?$pair@QEAVITool@ith@@V?$unique_ptr@VToolView@ith@@U?$default_delete@VToolView@ith@@@std@@@std@@@std@@@4@$0A@@std@@SAAEBQEAVITool@ith@@AEBU?$pair@QEAVITool@ith@@V?$unique_ptr@VToolView@ith@@U?$default_delete@VToolView@ith@@@std@@@std@@@1@@Z 0000000140013d10 f i Shell.cpp.obj
 0001:00012d20       ??$_Lower_bound_duplicate@V?$basic_string@_WU?$char_traits@_W@std@@V?$allocator@_W@2@@std@@@?$_Tree@V?$_Tmap_traits@V?$basic_string@_WU?$char_traits@_W@std@@V?$allocator@_W@2@@std@@PEAU_TREEITEM@@U?$less@V?$basic_string@_WU?$char_traits@_W@std@@V?$allocator@_W@2@@std@@@2@V?$allocator@U?$pair@$$CBV?$basic_string@_WU?$char_traits@_W@std@@V?$allocator@_W@2@@std@@PEAU_TREEITEM@@@std@@@2@$0A@@std@@@std@@IEBA_NQEAU?$_Tree_node@U?$pair@$$CBV?$basic_string@_WU?$char_traits@_W@std@@V?$allocator@_W@2@@std@@PEAU_TREEITEM@@@std@@PEAX@1@AEBV?$basic_string@_WU?$char_traits@_W@std@@V?$allocator@_W@2@@1@@Z 0000000140013d20 f i Shell.cpp.obj
 0001:00012dc0       ??$_Max_limit@_J@std@@YA_JXZ 0000000140013dc0 f i Shell.cpp.obj
 0001:00012df0       ??$_Mismatch_vectorized@$01@std@@YA_KQEBX0_K@Z 0000000140013df0 f i Shell.cpp.obj
 0001:00012e30       ??$_Pocma@V?$allocator@V?$unique_ptr@VITool@ith@@U?$default_delete@VITool@ith@@@std@@@std@@@std@@@std@@YAXAEAV?$allocator@V?$unique_ptr@VITool@ith@@U?$default_delete@VITool@ith@@@std@@@std@@@0@0@Z 0000000140013e30 f i Shell.cpp.obj
 0001:00012e40       ??$_Traits_compare@U?$char_traits@_W@std@@@std@@YAHQEB_W_K01@Z 0000000140013e40 f i Shell.cpp.obj
 0001:00012ee0       ??$_Traits_copy_batch@U?$char_traits@_W@std@@_W@std@@YAXQEA_WQEB_W_K@Z 0000000140013ee0 f i Shell.cpp.obj
 0001:00012f20       ??$_Try_emplace@AEBV?$basic_string@_WU?$char_traits@_W@std@@V?$allocator@_W@2@@std@@$$V@?$map@V?$basic_string@_WU?$char_traits@_W@std@@V?$allocator@_W@2@@std@@PEAU_TREEITEM@@U?$less@V?$basic_string@_WU?$char_traits@_W@std@@V?$allocator@_W@2@@std@@@2@V?$allocator@U?$pair@$$CBV?$basic_string@_WU?$char_traits@_W@std@@V?$allocator@_W@2@@std@@PEAU_TREEITEM@@@std@@@2@@std@@AEAA?AU?$pair@PEAU?$_Tree_node@U?$pair@$$CBV?$basic_string@_WU?$char_traits@_W@std@@V?$allocator@_W@2@@std@@PEAU_TREEITEM@@@std@@PEAX@std@@_N@1@AEBV?$basic_string@_WU?$char_traits@_W@std@@V?$allocator@_W@2@@1@@Z 0000000140013f20 f i Shell.cpp.obj
 0001:000131a0       ??$_Tuple_get@$0A@AEBV?$basic_string@_WU?$char_traits@_W@std@@V?$allocator@_W@2@@std@@@std@@YA$$QEA_P$$QEAV?$tuple@AEBV?$basic_string@_WU?$char_traits@_W@std@@V?$allocator@_W@2@@std@@@0@@Z 00000001400141a0 f i Shell.cpp.obj
 0001:000131c0       ??$_Unfancy@U_Container_proxy@std@@@std@@YAPEAU_Container_proxy@0@PEAU10@@Z 00000001400141c0 f i Shell.cpp.obj
 0001:000131d0       ??$_Unfancy@V?$unique_ptr@VITool@ith@@U?$default_delete@VITool@ith@@@std@@@std@@@std@@YAPEAV?$unique_ptr@VITool@ith@@U?$default_delete@VITool@ith@@@std@@@0@PEAV10@@Z 00000001400141d0 f i Shell.cpp.obj
 0001:000131e0       ??$_Unfancy@_W@std@@YAPEA_WPEA_W@Z 00000001400141e0 f i Shell.cpp.obj
 0001:000131f0       ??$_Unfancy_maybe_null@V?$unique_ptr@VITool@ith@@U?$default_delete@VITool@ith@@@std@@@std@@@std@@YAPEAV?$unique_ptr@VITool@ith@@U?$default_delete@VITool@ith@@@std@@@0@PEAV10@@Z 00000001400141f0 f i Shell.cpp.obj
 0001:00013200       ??$_Uninitialized_move@PEAV?$unique_ptr@VITool@ith@@U?$default_delete@VITool@ith@@@std@@@std@@V?$allocator@V?$unique_ptr@VITool@ith@@U?$default_delete@VITool@ith@@@std@@@std@@@2@@std@@YAPEAV?$unique_ptr@VITool@ith@@U?$default_delete@VITool@ith@@@std@@@0@QEAV10@0PEAV10@AEAV?$allocator@V?$unique_ptr@VITool@ith@@U?$default_delete@VITool@ith@@@std@@@std@@@0@@Z 0000000140014200 f i Shell.cpp.obj
 0001:00013310       ??$addressof@$$CBV?$_List_val@U?$_List_simple_types@U?$pair@QEAVITool@ith@@V?$unique_ptr@VToolView@ith@@U?$default_delete@VToolView@ith@@@std@@@std@@@std@@@std@@@std@@@std@@YAPEBV?$_List_val@U?$_List_simple_types@U?$pair@QEAVITool@ith@@V?$unique_ptr@VToolView@ith@@U?$default_delete@VToolView@ith@@@std@@@std@@@std@@@std@@@0@AEBV10@@Z 0000000140014310 f i Shell.cpp.obj
 0001:00013320       ??$addressof@$$CBV?$_Tree_val@U?$_Tree_simple_types@U?$pair@$$CBV?$basic_string@_WU?$char_traits@_W@std@@V?$allocator@_W@2@@std@@PEAU_TREEITEM@@@std@@@std@@@std@@@std@@YAPEBV?$_Tree_val@U?$_Tree_simple_types@U?$pair@$$CBV?$basic_string@_WU?$char_traits@_W@std@@V?$allocator@_W@2@@std@@PEAU_TREEITEM@@@std@@@std@@@0@AEBV10@@Z 0000000140014320 f i Shell.cpp.obj
 0001:00013330       ??$addressof@PEAU?$_List_node@U?$pair@QEAVITool@ith@@V?$unique_ptr@VToolView@ith@@U?$default_delete@VToolView@ith@@@std@@@std@@@std@@PEAX@std@@@std@@YAPEAPEAU?$_List_node@U?$pair@QEAVITool@ith@@V?$unique_ptr@VToolView@ith@@U?$default_delete@VToolView@ith@@@std@@@std@@@std@@PEAX@0@AEAPEAU10@@Z 0000000140014330 f i Shell.cpp.obj
 0001:00013340       ??$addressof@PEAU?$_Tree_node@U?$pair@$$CBV?$basic_string@_WU?$char_traits@_W@std@@V?$allocator@_W@2@@std@@PEAU_TREEITEM@@@std@@PEAX@std@@@std@@YAPEAPEAU?$_Tree_node@U?$pair@$$CBV?$basic_string@_WU?$char_traits@_W@std@@V?$allocator@_W@2@@std@@PEAU_TREEITEM@@@std@@PEAX@0@AEAPEAU10@@Z 0000000140014340 f i Shell.cpp.obj
 0001:00013350       ??$addressof@PEA_W@std@@YAPEAPEA_WAEAPEA_W@Z 0000000140014350 f i Shell.cpp.obj
 0001:00013360       ??$addressof@U?$pair@$$CBV?$basic_string@_WU?$char_traits@_W@std@@V?$allocator@_W@2@@std@@PEAU_TREEITEM@@@std@@@std@@YAPEAU?$pair@$$CBV?$basic_string@_WU?$char_traits@_W@std@@V?$allocator@_W@2@@std@@PEAU_TREEITEM@@@0@AEAU10@@Z 0000000140014360 f i Shell.cpp.obj
 0001:00013370       ??$addressof@U?$pair@QEAVITool@ith@@V?$unique_ptr@VToolView@ith@@U?$default_delete@VToolView@ith@@@std@@@std@@@std@@@std@@YAPEAU?$pair@QEAVITool@ith@@V?$unique_ptr@VToolView@ith@@U?$default_delete@VToolView@ith@@@std@@@std@@@0@AEAU10@@Z 0000000140014370 f i Shell.cpp.obj
 0001:00013380       ??$addressof@U_Container_base12@std@@@std@@YAPEAU_Container_base12@0@AEAU10@@Z 0000000140014380 f i Shell.cpp.obj
 0001:00013390       ??$addressof@U_Container_proxy@std@@@std@@YAPEAU_Container_proxy@0@AEAU10@@Z 0000000140014390 f i Shell.cpp.obj
 0001:000133a0       ??$addressof@V?$_List_unchecked_iterator@V?$_List_val@U?$_List_simple_types@U?$pair@QEAVITool@ith@@V?$unique_ptr@VToolView@ith@@U?$default_delete@VToolView@ith@@@std@@@std@@@std@@@std@@@std@@@std@@@std@@YAPEAV?$_List_unchecked_iterator@V?$_List_val@U?$_List_simple_types@U?$pair@QEAVITool@ith@@V?$unique_ptr@VToolView@ith@@U?$default_delete@VToolView@ith@@@std@@@std@@@std@@@std@@@std@@@0@AEAV10@@Z 00000001400143a0 f i Shell.cpp.obj
 0001:000133b0       ??$addressof@V?$_List_val@U?$_List_simple_types@U?$pair@QEAVITool@ith@@V?$unique_ptr@VToolView@ith@@U?$default_delete@VToolView@ith@@@std@@@std@@@std@@@std@@@std@@@std@@YAPEAV?$_List_val@U?$_List_simple_types@U?$pair@QEAVITool@ith@@V?$unique_ptr@VToolView@ith@@U?$default_delete@VToolView@ith@@@std@@@std@@@std@@@std@@@0@AEAV10@@Z 00000001400143b0 f i Shell.cpp.obj
 0001:000133c0       ??$addressof@V?$_Tree_val@U?$_Tree_simple_types@U?$pair@$$CBV?$basic_string@_WU?$char_traits@_W@std@@V?$allocator@_W@2@@std@@PEAU_TREEITEM@@@std@@@std@@@std@@@std@@YAPEAV?$_Tree_val@U?$_Tree_simple_types@U?$pair@$$CBV?$basic_string@_WU?$char_traits@_W@std@@V?$allocator@_W@2@@std@@PEAU_TREEITEM@@@std@@@std@@@0@AEAV10@@Z 00000001400143c0 f i Shell.cpp.obj
 0001:000133d0       ??$addressof@V?$unique_ptr@VITool@ith@@U?$default_delete@VITool@ith@@@std@@@std@@@std@@YAPEAV?$unique_ptr@VITool@ith@@U?$default_delete@VITool@ith@@@std@@@0@AEAV10@@Z 00000001400143d0 f i Shell.cpp.obj
 0001:000133e0       ??$addressof@V?$vector@V?$unique_ptr@VITool@ith@@U?$default_delete@VITool@ith@@@std@@@std@@V?$allocator@V?$unique_ptr@VITool@ith@@U?$default_delete@VITool@ith@@@std@@@std@@@2@@std@@@std@@YAPEAV?$vector@V?$unique_ptr@VITool@ith@@U?$default_delete@VITool@ith@@@std@@@std@@V?$allocator@V?$unique_ptr@VITool@ith@@U?$default_delete@VITool@ith@@@std@@@std@@@2@@0@AEAV10@@Z 00000001400143e0 f i Shell.cpp.obj
 0001:000133f0       ??$construct@U?$pair@$$CBV?$basic_string@_WU?$char_traits@_W@std@@V?$allocator@_W@2@@std@@PEAU_TREEITEM@@@std@@AEBUpiecewise_construct_t@2@V?$tuple@AEBV?$basic_string@_WU?$char_traits@_W@std@@V?$allocator@_W@2@@std@@@2@V?$tuple@$$V@2@@?$_Default_allocator_traits@V?$allocator@U?$_Tree_node@U?$pair@$$CBV?$basic_string@_WU?$char_traits@_W@std@@V?$allocator@_W@2@@std@@PEAU_TREEITEM@@@std@@PEAX@std@@@std@@@std@@SAXAEAV?$allocator@U?$_Tree_node@U?$pair@$$CBV?$basic_string@_WU?$char_traits@_W@std@@V?$allocator@_W@2@@std@@PEAU_TREEITEM@@@std@@PEAX@std@@@1@QEAU?$pair@$$CBV?$basic_string@_WU?$char_traits@_W@std@@V?$allocator@_W@2@@std@@PEAU_TREEITEM@@@1@AEBUpiecewise_construct_t@1@$$QEAV?$tuple@AEBV?$basic_string@_WU?$char_traits@_W@std@@V?$allocator@_W@2@@std@@@1@$$QEAV?$tuple@$$V@1@@Z 00000001400143f0 f i Shell.cpp.obj
 0001:00013440       ??$construct@U?$pair@QEAVITool@ith@@V?$unique_ptr@VToolView@ith@@U?$default_delete@VToolView@ith@@@std@@@std@@@std@@AEAPEAVITool@ith@@V?$unique_ptr@VToolView@ith@@U?$default_delete@VToolView@ith@@@std@@@2@@?$_Default_allocator_traits@V?$allocator@U?$_List_node@U?$pair@QEAVITool@ith@@V?$unique_ptr@VToolView@ith@@U?$default_delete@VToolView@ith@@@std@@@std@@@std@@PEAX@std@@@std@@@std@@SAXAEAV?$allocator@U?$_List_node@U?$pair@QEAVITool@ith@@V?$unique_ptr@VToolView@ith@@U?$default_delete@VToolView@ith@@@std@@@std@@@std@@PEAX@std@@@1@QEAU?$pair@QEAVITool@ith@@V?$unique_ptr@VToolView@ith@@U?$default_delete@VToolView@ith@@@std@@@std@@@1@AEAPEAVITool@ith@@$$QEAV?$unique_ptr@VToolView@ith@@U?$default_delete@VToolView@ith@@@std@@@1@@Z 0000000140014440 f i Shell.cpp.obj
 0001:00013490       ??$construct@V?$unique_ptr@VITool@ith@@U?$default_delete@VITool@ith@@@std@@@std@@V12@@?$_Default_allocator_traits@V?$allocator@V?$unique_ptr@VITool@ith@@U?$default_delete@VITool@ith@@@std@@@std@@@std@@@std@@SAXAEAV?$allocator@V?$unique_ptr@VITool@ith@@U?$default_delete@VITool@ith@@@std@@@std@@@1@QEAV?$unique_ptr@VITool@ith@@U?$default_delete@VITool@ith@@@std@@@1@$$QEAV31@@Z 0000000140014490 f i Shell.cpp.obj
 0001:000134d0       ??$construct_at@PEAU?$_List_node@U?$pair@QEAVITool@ith@@V?$unique_ptr@VToolView@ith@@U?$default_delete@VToolView@ith@@@std@@@std@@@std@@PEAX@std@@AEAPEAU12@@std@@YAPEAPEAU?$_List_node@U?$pair@QEAVITool@ith@@V?$unique_ptr@VToolView@ith@@U?$default_delete@VToolView@ith@@@std@@@std@@@std@@PEAX@0@QEAPEAU10@AEAPEAU10@@Z 00000001400144d0 f i Shell.cpp.obj
 0001:00013520       ??$construct_at@PEAU?$_List_node@U?$pair@QEAVITool@ith@@V?$unique_ptr@VToolView@ith@@U?$default_delete@VToolView@ith@@@std@@@std@@@std@@PEAX@std@@AEBQEAU12@@std@@YAPEAPEAU?$_List_node@U?$pair@QEAVITool@ith@@V?$unique_ptr@VToolView@ith@@U?$default_delete@VToolView@ith@@@std@@@std@@@std@@PEAX@0@QEAPEAU10@AEBQEAU10@@Z 0000000140014520 f i Shell.cpp.obj
 0001:00013570       ??$construct_at@PEAU?$_Tree_node@U?$pair@$$CBV?$basic_string@_WU?$char_traits@_W@std@@V?$allocator@_W@2@@std@@PEAU_TREEITEM@@@std@@PEAX@std@@AEAPEAU12@@std@@YAPEAPEAU?$_Tree_node@U?$pair@$$CBV?$basic_string@_WU?$char_traits@_W@std@@V?$allocator@_W@2@@std@@PEAU_TREEITEM@@@std@@PEAX@0@QEAPEAU10@AEAPEAU10@@Z 0000000140014570 f i Shell.cpp.obj
 0001:000135c0       ??$construct_at@PEAU?$_Tree_node@U?$pair@$$CBV?$basic_string@_WU?$char_traits@_W@std@@V?$allocator@_W@2@@std@@PEAU_TREEITEM@@@std@@PEAX@std@@AEBQEAU12@@std@@YAPEAPEAU?$_Tree_node@U?$pair@$$CBV?$basic_string@_WU?$char_traits@_W@std@@V?$allocator@_W@2@@std@@PEAU_TREEITEM@@@std@@PEAX@0@QEAPEAU10@AEBQEAU10@@Z 00000001400145c0 f i Shell.cpp.obj
 0001:00013610       ??$construct_at@PEA_WAEBQEA_W@std@@YAPEAPEA_WQEAPEA_WAEBQEA_W@Z 0000000140014610 f i Shell.cpp.obj
 0001:00013660       ??$construct_at@U?$pair@$$CBV?$basic_string@_WU?$char_traits@_W@std@@V?$allocator@_W@2@@std@@PEAU_TREEITEM@@@std@@AEBUpiecewise_construct_t@2@V?$tuple@AEBV?$basic_string@_WU?$char_traits@_W@std@@V?$allocator@_W@2@@std@@@2@V?$tuple@$$V@2@@std@@YAPEAU?$pair@$$CBV?$basic_string@_WU?$char_traits@_W@std@@V?$allocator@_W@2@@std@@PEAU_TREEITEM@@@0@QEAU10@AEBUpiecewise_construct_t@0@$$QEAV?$tuple@AEBV?$basic_string@_WU?$char_traits@_W@std@@V?$allocator@_W@2@@std@@@0@$$QEAV?$tuple@$$V@0@@Z 0000000140014660 f i Shell.cpp.obj
 0001:00013730       ??$construct_at@U?$pair@QEAVITool@ith@@V?$unique_ptr@VToolView@ith@@U?$default_delete@VToolView@ith@@@std@@@std@@@std@@AEAPEAVITool@ith@@V?$unique_ptr@VToolView@ith@@U?$default_delete@VToolView@ith@@@std@@@2@@std@@YAPEAU?$pair@QEAVITool@ith@@V?$unique_ptr@VToolView@ith@@U?$default_delete@VToolView@ith@@@std@@@std@@@0@QEAU10@AEAPEAVITool@ith@@$$QEAV?$unique_ptr@VToolView@ith@@U?$default_delete@VToolView@ith@@@std@@@0@@Z 0000000140014730 f i Shell.cpp.obj
 0001:00013790       ??$construct_at@U_Container_proxy@std@@PEAU_Container_base12@2@@std@@YAPEAU_Container_proxy@0@QEAU10@$$QEAPEAU_Container_base12@0@@Z 0000000140014790 f i Shell.cpp.obj
 0001:000137e0       ??$construct_at@V?$_List_unchecked_iterator@V?$_List_val@U?$_List_simple_types@U?$pair@QEAVITool@ith@@V?$unique_ptr@VToolView@ith@@U?$default_delete@VToolView@ith@@@std@@@std@@@std@@@std@@@std@@@std@@AEBV12@@std@@YAPEAV?$_List_unchecked_iterator@V?$_List_val@U?$_List_simple_types@U?$pair@QEAVITool@ith@@V?$unique_ptr@VToolView@ith@@U?$default_delete@VToolView@ith@@@std@@@std@@@std@@@std@@@std@@@0@QEAV10@AEBV10@@Z 00000001400147e0 f i Shell.cpp.obj
 0001:00013830       ??$construct_at@V?$unique_ptr@VITool@ith@@U?$default_delete@VITool@ith@@@std@@@std@@V12@@std@@YAPEAV?$unique_ptr@VITool@ith@@U?$default_delete@VITool@ith@@@std@@@0@QEAV10@$$QEAV10@@Z 0000000140014830 f i Shell.cpp.obj
 0001:00013880       ??$construct_at@_W$$V@std@@YAPEA_WQEA_W@Z 0000000140014880 f i Shell.cpp.obj
 0001:000138d0       ??$destroy@U?$pair@$$CBV?$basic_string@_WU?$char_traits@_W@std@@V?$allocator@_W@2@@std@@PEAU_TREEITEM@@@std@@@?$_Default_allocator_traits@V?$allocator@U?$_Tree_node@U?$pair@$$CBV?$basic_string@_WU?$char_traits@_W@std@@V?$allocator@_W@2@@std@@PEAU_TREEITEM@@@std@@PEAX@std@@@std@@@std@@SAXAEAV?$allocator@U?$_Tree_node@U?$pair@$$CBV?$basic_string@_WU?$char_traits@_W@std@@V?$allocator@_W@2@@std@@PEAU_TREEITEM@@@std@@PEAX@std@@@1@QEAU?$pair@$$CBV?$basic_string@_WU?$char_traits@_W@std@@V?$allocator@_W@2@@std@@PEAU_TREEITEM@@@1@@Z 00000001400148d0 f i Shell.cpp.obj
 0001:00013900       ??$destroy@U?$pair@QEAVITool@ith@@V?$unique_ptr@VToolView@ith@@U?$default_delete@VToolView@ith@@@std@@@std@@@std@@@?$_Default_allocator_traits@V?$allocator@U?$_List_node@U?$pair@QEAVITool@ith@@V?$unique_ptr@VToolView@ith@@U?$default_delete@VToolView@ith@@@std@@@std@@@std@@PEAX@std@@@std@@@std@@SAXAEAV?$allocator@U?$_List_node@U?$pair@QEAVITool@ith@@V?$unique_ptr@VToolView@ith@@U?$default_delete@VToolView@ith@@@std@@@std@@@std@@PEAX@std@@@1@QEAU?$pair@QEAVITool@ith@@V?$unique_ptr@VToolView@ith@@U?$default_delete@VToolView@ith@@@std@@@std@@@1@@Z 0000000140014900 f i Shell.cpp.obj
 0001:00013930       ??$destroy@V?$unique_ptr@VITool@ith@@U?$default_delete@VITool@ith@@@std@@@std@@@?$_Default_allocator_traits@V?$allocator@V?$unique_ptr@VITool@ith@@U?$default_delete@VITool@ith@@@std@@@std@@@std@@@std@@SAXAEAV?$allocator@V?$unique_ptr@VITool@ith@@U?$default_delete@VITool@ith@@@std@@@std@@@1@QEAV?$unique_ptr@VITool@ith@@U?$default_delete@VITool@ith@@@std@@@1@@Z 0000000140014930 f i Shell.cpp.obj
 0001:00013960       ??$destroy_at@U?$pair@$$CBV?$basic_string@_WU?$char_traits@_W@std@@V?$allocator@_W@2@@std@@PEAU_TREEITEM@@@std@@@std@@YAXQEAU?$pair@$$CBV?$basic_string@_WU?$char_traits@_W@std@@V?$allocator@_W@2@@std@@PEAU_TREEITEM@@@0@@Z 0000000140014960 f i Shell.cpp.obj
 0001:00013990       ??$destroy_at@U?$pair@QEAVITool@ith@@V?$unique_ptr@VToolView@ith@@U?$default_delete@VToolView@ith@@@std@@@std@@@std@@@std@@YAXQEAU?$pair@QEAVITool@ith@@V?$unique_ptr@VToolView@ith@@U?$default_delete@VToolView@ith@@@std@@@std@@@0@@Z 0000000140014990 f i Shell.cpp.obj
 0001:000139c0       ??$destroy_at@V?$unique_ptr@VITool@ith@@U?$default_delete@VITool@ith@@@std@@@std@@@std@@YAXQEAV?$unique_ptr@VITool@ith@@U?$default_delete@VITool@ith@@@std@@@0@@Z 00000001400149c0 f i Shell.cpp.obj
 0001:000139f0       ??$emplace@AEAPEAVITool@ith@@V?$unique_ptr@VToolView@ith@@U?$default_delete@VToolView@ith@@@std@@@std@@@?$_Hash@V?$_Umap_traits@PEAVITool@ith@@V?$unique_ptr@VToolView@ith@@U?$default_delete@VToolView@ith@@@std@@@std@@V?$_Uhash_compare@PEAVITool@ith@@U?$hash@PEAVITool@ith@@@std@@U?$equal_to@PEAVITool@ith@@@4@@4@V?$allocator@U?$pair@QEAVITool@ith@@V?$unique_ptr@VToolView@ith@@U?$default_delete@VToolView@ith@@@std@@@std@@@std@@@4@$0A@@std@@@std@@QEAA?AU?$pair@V?$_List_iterator@V?$_List_val@U?$_List_simple_types@U?$pair@QEAVITool@ith@@V?$unique_ptr@VToolView@ith@@U?$default_delete@VToolView@ith@@@std@@@std@@@std@@@std@@@std@@@std@@_N@1@AEAPEAVITool@ith@@$$QEAV?$unique_ptr@VToolView@ith@@U?$default_delete@VToolView@ith@@@std@@@1@@Z 00000001400149f0 f i Shell.cpp.obj
 0001:00013d70       ??$exchange@PEAU?$_List_node@U?$pair@QEAVITool@ith@@V?$unique_ptr@VToolView@ith@@U?$default_delete@VToolView@ith@@@std@@@std@@@std@@PEAX@std@@$$T@std@@YAPEAU?$_List_node@U?$pair@QEAVITool@ith@@V?$unique_ptr@VToolView@ith@@U?$default_delete@VToolView@ith@@@std@@@std@@@std@@PEAX@0@AEAPEAU10@$$QEA$$T@Z 0000000140014d70 f i Shell.cpp.obj
 0001:00013dc0       ??$exchange@PEAU?$_Tree_node@U?$pair@$$CBV?$basic_string@_WU?$char_traits@_W@std@@V?$allocator@_W@2@@std@@PEAU_TREEITEM@@@std@@PEAX@std@@$$T@std@@YAPEAU?$_Tree_node@U?$pair@$$CBV?$basic_string@_WU?$char_traits@_W@std@@V?$allocator@_W@2@@std@@PEAU_TREEITEM@@@std@@PEAX@0@AEAPEAU10@$$QEA$$T@Z 0000000140014dc0 f i Shell.cpp.obj
 0001:00013e10       ??$exchange@PEAU?$_Tree_node@U?$pair@$$CBV?$basic_string@_WU?$char_traits@_W@std@@V?$allocator@_W@2@@std@@PEAU_TREEITEM@@@std@@PEAX@std@@AEAPEAU12@@std@@YAPEAU?$_Tree_node@U?$pair@$$CBV?$basic_string@_WU?$char_traits@_W@std@@V?$allocator@_W@2@@std@@PEAU_TREEITEM@@@std@@PEAX@0@AEAPEAU10@0@Z 0000000140014e10 f i Shell.cpp.obj
 0001:00013e60       ??$exchange@PEAU_Container_proxy@std@@$$T@std@@YAPEAU_Container_proxy@0@AEAPEAU10@$$QEA$$T@Z 0000000140014e60 f i Shell.cpp.obj
 0001:00013eb0       ??$exchange@PEAU_Iterator_base12@std@@$$T@std@@YAPEAU_Iterator_base12@0@AEAPEAU10@$$QEA$$T@Z 0000000140014eb0 f i Shell.cpp.obj
 0001:00013f00       ??$exchange@PEAVAdQueryTool@ith@@$$T@std@@YAPEAVAdQueryTool@ith@@AEAPEAV12@$$QEA$$T@Z 0000000140014f00 f i Shell.cpp.obj
 0001:00013f50       ??$exchange@PEAVITool@ith@@$$T@std@@YAPEAVITool@ith@@AEAPEAV12@$$QEA$$T@Z 0000000140014f50 f i Shell.cpp.obj
 0001:00013fa0       ??$exchange@PEAVToolView@ith@@$$T@std@@YAPEAVToolView@ith@@AEAPEAV12@$$QEA$$T@Z 0000000140014fa0 f i Shell.cpp.obj
 0001:00013ff0       ??$fill@PEAV?$_List_unchecked_iterator@V?$_List_val@U?$_List_simple_types@U?$pair@QEAVITool@ith@@V?$unique_ptr@VToolView@ith@@U?$default_delete@VToolView@ith@@@std@@@std@@@std@@@std@@@std@@@std@@V12@@std@@YAXQEAV?$_List_unchecked_iterator@V?$_List_val@U?$_List_simple_types@U?$pair@QEAVITool@ith@@V?$unique_ptr@VToolView@ith@@U?$default_delete@VToolView@ith@@@std@@@std@@@std@@@std@@@std@@@0@0AEBV10@@Z 0000000140014ff0 f i Shell.cpp.obj
 0001:00014090       ??$forward_as_tuple@$$V@std@@YA?AV?$tuple@$$V@0@XZ 0000000140015090 f i Shell.cpp.obj
 0001:000140a0       ??$forward_as_tuple@AEBV?$basic_string@_WU?$char_traits@_W@std@@V?$allocator@_W@2@@std@@@std@@YA?AV?$tuple@AEBV?$basic_string@_WU?$char_traits@_W@std@@V?$allocator@_W@2@@std@@@0@AEBV?$basic_string@_WU?$char_traits@_W@std@@V?$allocator@_W@2@@0@@Z 00000001400150a0 f i Shell.cpp.obj
 0001:000140e0       ??$make_unique@VAdQueryTool@ith@@$$V$0A@@std@@YA?AV?$unique_ptr@VAdQueryTool@ith@@U?$default_delete@VAdQueryTool@ith@@@std@@@0@XZ 00000001400150e0 f i Shell.cpp.obj
 0001:00014180       ??$max@_K@std@@YAAEB_KAEB_K0@Z 0000000140015180 f i Shell.cpp.obj
 0001:000141e0       ??$min@_K@std@@YAAEB_KAEB_K0@Z 00000001400151e0 f i Shell.cpp.obj
 0001:00014240       ??$uninitialized_fill@PEAV?$_List_unchecked_iterator@V?$_List_val@U?$_List_simple_types@U?$pair@QEAVITool@ith@@V?$unique_ptr@VToolView@ith@@U?$default_delete@VToolView@ith@@@std@@@std@@@std@@@std@@@std@@@std@@V12@@std@@YAXQEAV?$_List_unchecked_iterator@V?$_List_val@U?$_List_simple_types@U?$pair@QEAVITool@ith@@V?$unique_ptr@VToolView@ith@@U?$default_delete@VToolView@ith@@@std@@@std@@@std@@@std@@@std@@@0@0AEBV10@@Z 0000000140015240 f i Shell.cpp.obj
 0001:00014320       ??$wcscpy_s@$0CA@@@YAHAEAY0CA@_WPEB_W@Z 0000000140015320 f i Shell.cpp.obj
 0001:00014360       ??0?$_Alloc_construct_ptr@V?$allocator@U?$_List_node@U?$pair@QEAVITool@ith@@V?$unique_ptr@VToolView@ith@@U?$default_delete@VToolView@ith@@@std@@@std@@@std@@PEAX@std@@@std@@@std@@QEAA@AEAV?$allocator@U?$_List_node@U?$pair@QEAVITool@ith@@V?$unique_ptr@VToolView@ith@@U?$default_delete@VToolView@ith@@@std@@@std@@@std@@PEAX@std@@@1@@Z 0000000140015360 f i Shell.cpp.obj
 0001:000143a0       ??0?$_Alloc_construct_ptr@V?$allocator@U?$_Tree_node@U?$pair@$$CBV?$basic_string@_WU?$char_traits@_W@std@@V?$allocator@_W@2@@std@@PEAU_TREEITEM@@@std@@PEAX@std@@@std@@@std@@QEAA@AEAV?$allocator@U?$_Tree_node@U?$pair@$$CBV?$basic_string@_WU?$char_traits@_W@std@@V?$allocator@_W@2@@std@@PEAU_TREEITEM@@@std@@PEAX@std@@@1@@Z 00000001400153a0 f i Shell.cpp.obj
 0001:000143e0       ??0?$_Container_proxy_ptr12@V?$allocator@U_Container_proxy@std@@@std@@@std@@QEAA@AEAV?$allocator@U_Container_proxy@std@@@1@AEAU_Container_base12@1@@Z 00000001400153e0 f i Shell.cpp.obj
 0001:00014490       ??0?$_Hash@V?$_Umap_traits@PEAVITool@ith@@V?$unique_ptr@VToolView@ith@@U?$default_delete@VToolView@ith@@@std@@@std@@V?$_Uhash_compare@PEAVITool@ith@@U?$hash@PEAVITool@ith@@@std@@U?$equal_to@PEAVITool@ith@@@4@@4@V?$allocator@U?$pair@QEAVITool@ith@@V?$unique_ptr@VToolView@ith@@U?$default_delete@VToolView@ith@@@std@@@std@@@std@@@4@$0A@@std@@@std@@IEAA@AEBV?$_Uhash_compare@PEAVITool@ith@@U?$hash@PEAVITool@ith@@@std@@U?$equal_to@PEAVITool@ith@@@4@@1@AEBV?$allocator@U?$pair@QEAVITool@ith@@V?$unique_ptr@VToolView@ith@@U?$default_delete@VToolView@ith@@@std@@@std@@@std@@@1@@Z 0000000140015490 f i Shell.cpp.obj
 0001:000145b0       ??0?$_List_const_iterator@V?$_List_val@U?$_List_simple_types@U?$pair@QEAVITool@ith@@V?$unique_ptr@VToolView@ith@@U?$default_delete@VToolView@ith@@@std@@@std@@@std@@@std@@@std@@@std@@QEAA@$$QEAV01@@Z 00000001400155b0 f i Shell.cpp.obj
 0001:000145f0       ??0?$_List_const_iterator@V?$_List_val@U?$_List_simple_types@U?$pair@QEAVITool@ith@@V?$unique_ptr@VToolView@ith@@U?$default_delete@VToolView@ith@@@std@@@std@@@std@@@std@@@std@@@std@@QEAA@PEAU?$_List_node@U?$pair@QEAVITool@ith@@V?$unique_ptr@VToolView@ith@@U?$default_delete@VToolView@ith@@@std@@@std@@@std@@PEAX@1@PEBV?$_List_val@U?$_List_simple_types@U?$pair@QEAVITool@ith@@V?$unique_ptr@VToolView@ith@@U?$default_delete@VToolView@ith@@@std@@@std@@@std@@@std@@@1@@Z 00000001400155f0 f i Shell.cpp.obj
 0001:00014640       ??0?$_List_iterator@V?$_List_val@U?$_List_simple_types@U?$pair@QEAVITool@ith@@V?$unique_ptr@VToolView@ith@@U?$default_delete@VToolView@ith@@@std@@@std@@@std@@@std@@@std@@@std@@QEAA@$$QEAV01@@Z 0000000140015640 f i Shell.cpp.obj
 0001:00014680       ??0?$_List_iterator@V?$_List_val@U?$_List_simple_types@U?$pair@QEAVITool@ith@@V?$unique_ptr@VToolView@ith@@U?$default_delete@VToolView@ith@@@std@@@std@@@std@@@std@@@std@@@std@@QEAA@PEAU?$_List_node@U?$pair@QEAVITool@ith@@V?$unique_ptr@VToolView@ith@@U?$default_delete@VToolView@ith@@@std@@@std@@@std@@PEAX@1@PEBV?$_List_val@U?$_List_simple_types@U?$pair@QEAVITool@ith@@V?$unique_ptr@VToolView@ith@@U?$default_delete@VToolView@ith@@@std@@@std@@@std@@@std@@@1@@Z 0000000140015680 f i Shell.cpp.obj
 0001:000146d0       ??0?$_List_unchecked_const_iterator@V?$_List_val@U?$_List_simple_types@U?$pair@QEAVITool@ith@@V?$unique_ptr@VToolView@ith@@U?$default_delete@VToolView@ith@@@std@@@std@@@std@@@std@@@std@@U_Iterator_base0@2@@std@@QEAA@PEAU?$_List_node@U?$pair@QEAVITool@ith@@V?$unique_ptr@VToolView@ith@@U?$default_delete@VToolView@ith@@@std@@@std@@@std@@PEAX@1@PEBV?$_List_val@U?$_List_simple_types@U?$pair@QEAVITool@ith@@V?$unique_ptr@VToolView@ith@@U?$default_delete@VToolView@ith@@@std@@@std@@@std@@@std@@@1@@Z 00000001400156d0 f i Shell.cpp.obj
 0001:00014720       ??0?$_List_unchecked_const_iterator@V?$_List_val@U?$_List_simple_types@U?$pair@QEAVITool@ith@@V?$unique_ptr@VToolView@ith@@U?$default_delete@VToolView@ith@@@std@@@std@@@std@@@std@@@std@@U_Iterator_base12@2@@std@@QEAA@$$QEAV01@@Z 0000000140015720 f i Shell.cpp.obj
 0001:00014770       ??0?$_List_unchecked_const_iterator@V?$_List_val@U?$_List_simple_types@U?$pair@QEAVITool@ith@@V?$unique_ptr@VToolView@ith@@U?$default_delete@VToolView@ith@@@std@@@std@@@std@@@std@@@std@@U_Iterator_base12@2@@std@@QEAA@PEAU?$_List_node@U?$pair@QEAVITool@ith@@V?$unique_ptr@VToolView@ith@@U?$default_delete@VToolView@ith@@@std@@@std@@@std@@PEAX@1@PEBV?$_List_val@U?$_List_simple_types@U?$pair@QEAVITool@ith@@V?$unique_ptr@VToolView@ith@@U?$default_delete@VToolView@ith@@@std@@@std@@@std@@@std@@@1@@Z 0000000140015770 f i Shell.cpp.obj
 0001:000147d0       ??0?$_List_unchecked_iterator@V?$_List_val@U?$_List_simple_types@U?$pair@QEAVITool@ith@@V?$unique_ptr@VToolView@ith@@U?$default_delete@VToolView@ith@@@std@@@std@@@std@@@std@@@std@@@std@@QEAA@PEAU?$_List_node@U?$pair@QEAVITool@ith@@V?$unique_ptr@VToolView@ith@@U?$default_delete@VToolView@ith@@@std@@@std@@@std@@PEAX@1@PEBV?$_List_val@U?$_List_simple_types@U?$pair@QEAVITool@ith@@V?$unique_ptr@VToolView@ith@@U?$default_delete@VToolView@ith@@@std@@@std@@@std@@@std@@@1@@Z 00000001400157d0 f i Shell.cpp.obj
 0001:00014820       ??0?$_List_val@U?$_List_simple_types@U?$pair@QEAVITool@ith@@V?$unique_ptr@VToolView@ith@@U?$default_delete@VToolView@ith@@@std@@@std@@@std@@@std@@@std@@QEAA@XZ 0000000140015820 f i Shell.cpp.obj
 0001:00014870       ??0?$_String_val@U?$_Simple_types@_W@std@@@std@@QEAA@XZ 0000000140015870 f i Shell.cpp.obj
 0001:000148d0       ??0?$_Tree@V?$_Tmap_traits@V?$basic_string@_WU?$char_traits@_W@std@@V?$allocator@_W@2@@std@@PEAU_TREEITEM@@U?$less@V?$basic_string@_WU?$char_traits@_W@std@@V?$allocator@_W@2@@std@@@2@V?$allocator@U?$pair@$$CBV?$basic_string@_WU?$char_traits@_W@std@@V?$allocator@_W@2@@std@@PEAU_TREEITEM@@@std@@@2@$0A@@std@@@std@@QEAA@AEBU?$less@V?$basic_string@_WU?$char_traits@_W@std@@V?$allocator@_W@2@@std@@@1@@Z 00000001400158d0 f i Shell.cpp.obj
 0001:00014930       ??0?$_Tree_const_iterator@V?$_Tree_val@U?$_Tree_simple_types@U?$pair@$$CBV?$basic_string@_WU?$char_traits@_W@std@@V?$allocator@_W@2@@std@@PEAU_TREEITEM@@@std@@@std@@@std@@@std@@QEAA@PEAU?$_Tree_node@U?$pair@$$CBV?$basic_string@_WU?$char_traits@_W@std@@V?$allocator@_W@2@@std@@PEAU_TREEITEM@@@std@@PEAX@1@PEBV?$_Tree_val@U?$_Tree_simple_types@U?$pair@$$CBV?$basic_string@_WU?$char_traits@_W@std@@V?$allocator@_W@2@@std@@PEAU_TREEITEM@@@std@@@std@@@1@@Z 0000000140015930 f i Shell.cpp.obj
 0001:00014980       ??0?$_Tree_iterator@V?$_Tree_val@U?$_Tree_simple_types@U?$pair@$$CBV?$basic_string@_WU?$char_traits@_W@std@@V?$allocator@_W@2@@std@@PEAU_TREEITEM@@@std@@@std@@@std@@@std@@QEAA@PEAU?$_Tree_node@U?$pair@$$CBV?$basic_string@_WU?$char_traits@_W@std@@V?$allocator@_W@2@@std@@PEAU_TREEITEM@@@std@@PEAX@1@PEBV?$_Tree_val@U?$_Tree_simple_types@U?$pair@$$CBV?$basic_string@_WU?$char_traits@_W@std@@V?$allocator@_W@2@@std@@PEAU_TREEITEM@@@std@@@std@@@1@@Z 0000000140015980 f i Shell.cpp.obj
 0001:000149d0       ??0?$_Tree_temp_node_alloc@V?$allocator@U?$_Tree_node@U?$pair@$$CBV?$basic_string@_WU?$char_traits@_W@std@@V?$allocator@_W@2@@std@@PEAU_TREEITEM@@@std@@PEAX@std@@@std@@@std@@QEAA@AEAV?$allocator@U?$_Tree_node@U?$pair@$$CBV?$basic_string@_WU?$char_traits@_W@std@@V?$allocator@_W@2@@std@@PEAU_TREEITEM@@@std@@PEAX@std@@@1@@Z 00000001400159d0 f i Shell.cpp.obj
 0001:00014a20       ??0?$_Tree_unchecked_const_iterator@V?$_Tree_val@U?$_Tree_simple_types@U?$pair@$$CBV?$basic_string@_WU?$char_traits@_W@std@@V?$allocator@_W@2@@std@@PEAU_TREEITEM@@@std@@@std@@@std@@U_Iterator_base0@2@@std@@QEAA@PEAU?$_Tree_node@U?$pair@$$CBV?$basic_string@_WU?$char_traits@_W@std@@V?$allocator@_W@2@@std@@PEAU_TREEITEM@@@std@@PEAX@1@PEBV?$_Tree_val@U?$_Tree_simple_types@U?$pair@$$CBV?$basic_string@_WU?$char_traits@_W@std@@V?$allocator@_W@2@@std@@PEAU_TREEITEM@@@std@@@std@@@1@@Z 0000000140015a20 f i Shell.cpp.obj
 0001:00014a70       ??0?$_Tree_unchecked_const_iterator@V?$_Tree_val@U?$_Tree_simple_types@U?$pair@$$CBV?$basic_string@_WU?$char_traits@_W@std@@V?$allocator@_W@2@@std@@PEAU_TREEITEM@@@std@@@std@@@std@@U_Iterator_base12@2@@std@@QEAA@PEAU?$_Tree_node@U?$pair@$$CBV?$basic_string@_WU?$char_traits@_W@std@@V?$allocator@_W@2@@std@@PEAU_TREEITEM@@@std@@PEAX@1@PEBV?$_Tree_val@U?$_Tree_simple_types@U?$pair@$$CBV?$basic_string@_WU?$char_traits@_W@std@@V?$allocator@_W@2@@std@@PEAU_TREEITEM@@@std@@@std@@@1@@Z 0000000140015a70 f i Shell.cpp.obj
 0001:00014ad0       ??0?$_Tree_unchecked_iterator@V?$_Tree_val@U?$_Tree_simple_types@U?$pair@$$CBV?$basic_string@_WU?$char_traits@_W@std@@V?$allocator@_W@2@@std@@PEAU_TREEITEM@@@std@@@std@@@std@@@std@@QEAA@PEAU?$_Tree_node@U?$pair@$$CBV?$basic_string@_WU?$char_traits@_W@std@@V?$allocator@_W@2@@std@@PEAU_TREEITEM@@@std@@PEAX@1@PEBV?$_Tree_val@U?$_Tree_simple_types@U?$pair@$$CBV?$basic_string@_WU?$char_traits@_W@std@@V?$allocator@_W@2@@std@@PEAU_TREEITEM@@@std@@@std@@@1@@Z 0000000140015ad0 f i Shell.cpp.obj
 0001:00014b20       ??0?$_Tree_val@U?$_Tree_simple_types@U?$pair@$$CBV?$basic_string@_WU?$char_traits@_W@std@@V?$allocator@_W@2@@std@@PEAU_TREEITEM@@@std@@@std@@@std@@QEAA@XZ 0000000140015b20 f i Shell.cpp.obj
 0001:00014b70       ??0?$_Uhash_compare@PEAVITool@ith@@U?$hash@PEAVITool@ith@@@std@@U?$equal_to@PEAVITool@ith@@@4@@std@@QEAA@XZ 0000000140015b70 f i Shell.cpp.obj
 0001:00014bd0       ??0?$_Umap_traits@PEAVITool@ith@@V?$unique_ptr@VToolView@ith@@U?$default_delete@VToolView@ith@@@std@@@std@@V?$_Uhash_compare@PEAVITool@ith@@U?$hash@PEAVITool@ith@@@std@@U?$equal_to@PEAVITool@ith@@@4@@4@V?$allocator@U?$pair@QEAVITool@ith@@V?$unique_ptr@VToolView@ith@@U?$default_delete@VToolView@ith@@@std@@@std@@@std@@@4@$0A@@std@@QEAA@AEBV?$_Uhash_compare@PEAVITool@ith@@U?$hash@PEAVITool@ith@@@std@@U?$equal_to@PEAVITool@ith@@@4@@1@@Z 0000000140015bd0 f i Shell.cpp.obj
 0001:00014c00       ??0?$_Uninitialized_backout@PEAV?$_List_unchecked_iterator@V?$_List_val@U?$_List_simple_types@U?$pair@QEAVITool@ith@@V?$unique_ptr@VToolView@ith@@U?$default_delete@VToolView@ith@@@std@@@std@@@std@@@std@@@std@@@std@@@std@@QEAA@PEAV?$_List_unchecked_iterator@V?$_List_val@U?$_List_simple_types@U?$pair@QEAVITool@ith@@V?$unique_ptr@VToolView@ith@@U?$default_delete@VToolView@ith@@@std@@@std@@@std@@@std@@@std@@@1@@Z 0000000140015c00 f i Shell.cpp.obj
 0001:00014c40       ??0?$_Uninitialized_backout_al@V?$allocator@V?$unique_ptr@VITool@ith@@U?$default_delete@VITool@ith@@@std@@@std@@@std@@@std@@QEAA@PEAV?$unique_ptr@VITool@ith@@U?$default_delete@VITool@ith@@@std@@@1@AEAV?$allocator@V?$unique_ptr@VITool@ith@@U?$default_delete@VITool@ith@@@std@@@std@@@1@@Z 0000000140015c40 f i Shell.cpp.obj
 0001:00014c90       ??0?$_Vector_val@U?$_Simple_types@V?$_List_unchecked_iterator@V?$_List_val@U?$_List_simple_types@U?$pair@QEAVITool@ith@@V?$unique_ptr@VToolView@ith@@U?$default_delete@VToolView@ith@@@std@@@std@@@std@@@std@@@std@@@std@@@std@@@std@@QEAA@XZ 0000000140015c90 f i Shell.cpp.obj
 0001:00014cf0       ??0?$_Vector_val@U?$_Simple_types@V?$unique_ptr@VITool@ith@@U?$default_delete@VITool@ith@@@std@@@std@@@std@@@std@@QEAA@XZ 0000000140015cf0 f i Shell.cpp.obj
 0001:00014d50       ??0?$allocator@U?$_Tree_node@U?$pair@$$CBV?$basic_string@_WU?$char_traits@_W@std@@V?$allocator@_W@2@@std@@PEAU_TREEITEM@@@std@@PEAX@std@@@std@@QEAA@XZ 0000000140015d50 f i Shell.cpp.obj
 0001:00014d60       ??0?$allocator@U?$pair@QEAVITool@ith@@V?$unique_ptr@VToolView@ith@@U?$default_delete@VToolView@ith@@@std@@@std@@@std@@@std@@QEAA@XZ 0000000140015d60 f i Shell.cpp.obj
 0001:00014d70       ??0?$allocator@V?$unique_ptr@VITool@ith@@U?$default_delete@VITool@ith@@@std@@@std@@@std@@QEAA@XZ 0000000140015d70 f i Shell.cpp.obj
 0001:00014d80       ??0?$allocator@_W@std@@QEAA@XZ 0000000140015d80 f i Shell.cpp.obj
 0001:00014d90       ??0?$basic_string@_WU?$char_traits@_W@std@@V?$allocator@_W@2@@std@@QEAA@AEBV01@@Z 0000000140015d90 f i Shell.cpp.obj
 0001:00014e50       ??0?$basic_string@_WU?$char_traits@_W@std@@V?$allocator@_W@2@@std@@QEAA@QEB_W@Z 0000000140015e50 f i Shell.cpp.obj
 0001:00014ec0       ??0?$list@U?$pair@QEAVITool@ith@@V?$unique_ptr@VToolView@ith@@U?$default_delete@VToolView@ith@@@std@@@std@@@std@@V?$allocator@U?$pair@QEAVITool@ith@@V?$unique_ptr@VToolView@ith@@U?$default_delete@VToolView@ith@@@std@@@std@@@std@@@2@@std@@QEAA@AEBV?$allocator@U?$pair@QEAVITool@ith@@V?$unique_ptr@VToolView@ith@@U?$default_delete@VToolView@ith@@@std@@@std@@@std@@@1@@Z 0000000140015ec0 f i Shell.cpp.obj
 0001:00014f20       ??0?$map@V?$basic_string@_WU?$char_traits@_W@std@@V?$allocator@_W@2@@std@@PEAU_TREEITEM@@U?$less@V?$basic_string@_WU?$char_traits@_W@std@@V?$allocator@_W@2@@std@@@2@V?$allocator@U?$pair@$$CBV?$basic_string@_WU?$char_traits@_W@std@@V?$allocator@_W@2@@std@@PEAU_TREEITEM@@@std@@@2@@std@@QEAA@XZ 0000000140015f20 f i Shell.cpp.obj
 0001:00014f50       ??0?$tuple@$$V@std@@QEAA@AEBV01@@Z 0000000140015f50 f i Shell.cpp.obj
 0001:00014f70       ??0?$tuple@AEBV?$basic_string@_WU?$char_traits@_W@std@@V?$allocator@_W@2@@std@@@std@@QEAA@$$QEAV01@@Z 0000000140015f70 f i Shell.cpp.obj
 0001:00014fc0       ??0?$unordered_map@PEAVITool@ith@@V?$unique_ptr@VToolView@ith@@U?$default_delete@VToolView@ith@@@std@@@std@@U?$hash@PEAVITool@ith@@@4@U?$equal_to@PEAVITool@ith@@@4@V?$allocator@U?$pair@QEAVITool@ith@@V?$unique_ptr@VToolView@ith@@U?$default_delete@VToolView@ith@@@std@@@std@@@std@@@4@@std@@QEAA@XZ 0000000140015fc0 f i Shell.cpp.obj
 0001:00015020       ??0?$vector@V?$unique_ptr@VITool@ith@@U?$default_delete@VITool@ith@@@std@@@std@@V?$allocator@V?$unique_ptr@VITool@ith@@U?$default_delete@VITool@ith@@@std@@@std@@@2@@std@@QEAA@XZ 0000000140016020 f i Shell.cpp.obj
 0001:000150a0       ??0AdQueryTool@ith@@QEAA@XZ 00000001400160a0 f i Shell.cpp.obj
 0001:000150e0       ??0ITool@ith@@QEAA@XZ      00000001400160e0 f i Shell.cpp.obj
 0001:00015110       ??0_Basic_container_proxy_ptr12@std@@IEAA@XZ 0000000140016110 f i Shell.cpp.obj
 0001:00015130       ??0_Bxty@?$_String_val@U?$_Simple_types@_W@std@@@std@@QEAA@XZ 0000000140016130 f i Shell.cpp.obj
 0001:00015160       ??0_Container_base12@std@@QEAA@XZ 0000000140016160 f i Shell.cpp.obj
 0001:00015180       ??0_Container_proxy@std@@QEAA@PEAU_Container_base12@1@@Z 0000000140016180 f i Shell.cpp.obj
 0001:000151c0       ??0_Iterator_base12@std@@QEAA@AEBU01@@Z 00000001400161c0 f i Shell.cpp.obj
 0001:00015220       ??0_Iterator_base12@std@@QEAA@XZ 0000000140016220 f i Shell.cpp.obj
 0001:00015250       ??0_Range_eraser@?$_Hash@V?$_Umap_traits@PEAVITool@ith@@V?$unique_ptr@VToolView@ith@@U?$default_delete@VToolView@ith@@@std@@@std@@V?$_Uhash_compare@PEAVITool@ith@@U?$hash@PEAVITool@ith@@@std@@U?$equal_to@PEAVITool@ith@@@4@@4@V?$allocator@U?$pair@QEAVITool@ith@@V?$unique_ptr@VToolView@ith@@U?$default_delete@VToolView@ith@@@std@@@std@@@std@@@4@$0A@@std@@@std@@QEAA@AEAV?$list@U?$pair@QEAVITool@ith@@V?$unique_ptr@VToolView@ith@@U?$default_delete@VToolView@ith@@@std@@@std@@@std@@V?$allocator@U?$pair@QEAVITool@ith@@V?$unique_ptr@VToolView@ith@@U?$default_delete@VToolView@ith@@@std@@@std@@@std@@@2@@2@QEAU?$_List_node@U?$pair@QEAVITool@ith@@V?$unique_ptr@VToolView@ith@@U?$default_delete@VToolView@ith@@@std@@@std@@@std@@PEAX@2@@Z 0000000140016250 f i Shell.cpp.obj
 0001:000152a0       ??0bad_alloc@std@@AEAA@QEBD@Z 00000001400162a0 f i Shell.cpp.obj
 0001:000152f0       ??0bad_alloc@std@@QEAA@AEBV01@@Z 00000001400162f0 f i Shell.cpp.obj
 0001:00015340       ??0bad_array_new_length@std@@QEAA@AEBV01@@Z 0000000140016340 f i Shell.cpp.obj
 0001:00015390       ??0bad_array_new_length@std@@QEAA@XZ 0000000140016390 f i Shell.cpp.obj
 0001:000153e0       ??0exception@std@@QEAA@AEBV01@@Z 00000001400163e0 f i Shell.cpp.obj
 0001:00015450       ??0exception@std@@QEAA@QEBDH@Z 0000000140016450 f i Shell.cpp.obj
 0001:000154b0       ??1?$_Alloc_construct_ptr@V?$allocator@U?$_List_node@U?$pair@QEAVITool@ith@@V?$unique_ptr@VToolView@ith@@U?$default_delete@VToolView@ith@@@std@@@std@@@std@@PEAX@std@@@std@@@std@@QEAA@XZ 00000001400164b0 f i Shell.cpp.obj
 0001:00015510       ??1?$_Alloc_construct_ptr@V?$allocator@U?$_Tree_node@U?$pair@$$CBV?$basic_string@_WU?$char_traits@_W@std@@V?$allocator@_W@2@@std@@PEAU_TREEITEM@@@std@@PEAX@std@@@std@@@std@@QEAA@XZ 0000000140016510 f i Shell.cpp.obj
 0001:00015570       ??1?$_Clear_guard@V?$_Hash@V?$_Umap_traits@PEAVITool@ith@@V?$unique_ptr@VToolView@ith@@U?$default_delete@VToolView@ith@@@std@@@std@@V?$_Uhash_compare@PEAVITool@ith@@U?$hash@PEAVITool@ith@@@std@@U?$equal_to@PEAVITool@ith@@@4@@4@V?$allocator@U?$pair@QEAVITool@ith@@V?$unique_ptr@VToolView@ith@@U?$default_delete@VToolView@ith@@@std@@@std@@@std@@@4@$0A@@std@@@std@@@std@@QEAA@XZ 0000000140016570 f i Shell.cpp.obj
 0001:000155b0       ??1?$_Compressed_pair@V?$allocator@_W@std@@V?$_String_val@U?$_Simple_types@_W@std@@@2@$00@std@@QEAA@XZ 00000001400165b0 f i Shell.cpp.obj
 0001:000155e0       ??1?$_Container_proxy_ptr12@V?$allocator@U_Container_proxy@std@@@std@@@std@@QEAA@XZ 00000001400165e0 f i Shell.cpp.obj
 0001:00015620       ??1?$_Hash@V?$_Umap_traits@PEAVITool@ith@@V?$unique_ptr@VToolView@ith@@U?$default_delete@VToolView@ith@@@std@@@std@@V?$_Uhash_compare@PEAVITool@ith@@U?$hash@PEAVITool@ith@@@std@@U?$equal_to@PEAVITool@ith@@@4@@4@V?$allocator@U?$pair@QEAVITool@ith@@V?$unique_ptr@VToolView@ith@@U?$default_delete@VToolView@ith@@@std@@@std@@@std@@@4@$0A@@std@@@std@@QEAA@XZ 0000000140016620 f i Shell.cpp.obj
 0001:00015660       ??1?$_Hash_vec@V?$allocator@V?$_List_unchecked_iterator@V?$_List_val@U?$_List_simple_types@U?$pair@QEAVITool@ith@@V?$unique_ptr@VToolView@ith@@U?$default_delete@VToolView@ith@@@std@@@std@@@std@@@std@@@std@@@std@@@std@@@std@@QEAA@XZ 0000000140016660 f i Shell.cpp.obj
 0001:00015710       ??1?$_List_const_iterator@V?$_List_val@U?$_List_simple_types@U?$pair@QEAVITool@ith@@V?$unique_ptr@VToolView@ith@@U?$default_delete@VToolView@ith@@@std@@@std@@@std@@@std@@@std@@@std@@QEAA@XZ 0000000140016710 f i Shell.cpp.obj
 0001:00015740       ??1?$_List_iterator@V?$_List_val@U?$_List_simple_types@U?$pair@QEAVITool@ith@@V?$unique_ptr@VToolView@ith@@U?$default_delete@VToolView@ith@@@std@@@std@@@std@@@std@@@std@@@std@@QEAA@XZ 0000000140016740 f i Shell.cpp.obj
 0001:00015770       ??1?$_List_node_emplace_op2@V?$allocator@U?$_List_node@U?$pair@QEAVITool@ith@@V?$unique_ptr@VToolView@ith@@U?$default_delete@VToolView@ith@@@std@@@std@@@std@@PEAX@std@@@std@@@std@@QEAA@XZ 0000000140016770 f i Shell.cpp.obj
 0001:000157f0       ??1?$_List_unchecked_const_iterator@V?$_List_val@U?$_List_simple_types@U?$pair@QEAVITool@ith@@V?$unique_ptr@VToolView@ith@@U?$default_delete@VToolView@ith@@@std@@@std@@@std@@@std@@@std@@U_Iterator_base12@2@@std@@QEAA@XZ 00000001400167f0 f i Shell.cpp.obj
 0001:00015820       ??1?$_String_val@U?$_Simple_types@_W@std@@@std@@QEAA@XZ 0000000140016820 f i Shell.cpp.obj
 0001:00015850       ??1?$_Tree@V?$_Tmap_traits@V?$basic_string@_WU?$char_traits@_W@std@@V?$allocator@_W@2@@std@@PEAU_TREEITEM@@U?$less@V?$basic_string@_WU?$char_traits@_W@std@@V?$allocator@_W@2@@std@@@2@V?$allocator@U?$pair@$$CBV?$basic_string@_WU?$char_traits@_W@std@@V?$allocator@_W@2@@std@@PEAU_TREEITEM@@@std@@@2@$0A@@std@@@std@@QEAA@XZ 0000000140016850 f i Shell.cpp.obj
 0001:00015900       ??1?$_Tree_const_iterator@V?$_Tree_val@U?$_Tree_simple_types@U?$pair@$$CBV?$basic_string@_WU?$char_traits@_W@std@@V?$allocator@_W@2@@std@@PEAU_TREEITEM@@@std@@@std@@@std@@@std@@QEAA@XZ 0000000140016900 f i Shell.cpp.obj
 0001:00015930       ??1?$_Tree_iterator@V?$_Tree_val@U?$_Tree_simple_types@U?$pair@$$CBV?$basic_string@_WU?$char_traits@_W@std@@V?$allocator@_W@2@@std@@PEAU_TREEITEM@@@std@@@std@@@std@@@std@@QEAA@XZ 0000000140016930 f i Shell.cpp.obj
 0001:00015960       ??1?$_Tree_temp_node@V?$allocator@U?$_Tree_node@U?$pair@$$CBV?$basic_string@_WU?$char_traits@_W@std@@V?$allocator@_W@2@@std@@PEAU_TREEITEM@@@std@@PEAX@std@@@std@@@std@@QEAA@XZ 0000000140016960 f i Shell.cpp.obj
 0001:00015a20       ??1?$_Tree_temp_node_alloc@V?$allocator@U?$_Tree_node@U?$pair@$$CBV?$basic_string@_WU?$char_traits@_W@std@@V?$allocator@_W@2@@std@@PEAU_TREEITEM@@@std@@PEAX@std@@@std@@@std@@QEAA@XZ 0000000140016a20 f i Shell.cpp.obj
 0001:00015a50       ??1?$_Tree_unchecked_const_iterator@V?$_Tree_val@U?$_Tree_simple_types@U?$pair@$$CBV?$basic_string@_WU?$char_traits@_W@std@@V?$allocator@_W@2@@std@@PEAU_TREEITEM@@@std@@@std@@@std@@U_Iterator_base12@2@@std@@QEAA@XZ 0000000140016a50 f i Shell.cpp.obj
 0001:00015a80       ??1?$_Uninitialized_backout@PEAV?$_List_unchecked_iterator@V?$_List_val@U?$_List_simple_types@U?$pair@QEAVITool@ith@@V?$unique_ptr@VToolView@ith@@U?$default_delete@VToolView@ith@@@std@@@std@@@std@@@std@@@std@@@std@@@std@@QEAA@XZ 0000000140016a80 f i Shell.cpp.obj
 0001:00015ab0       ??1?$_Uninitialized_backout_al@V?$allocator@V?$unique_ptr@VITool@ith@@U?$default_delete@VITool@ith@@@std@@@std@@@std@@@std@@QEAA@XZ 0000000140016ab0 f i Shell.cpp.obj
 0001:00015af0       ??1?$basic_string@_WU?$char_traits@_W@std@@V?$allocator@_W@2@@std@@QEAA@XZ 0000000140016af0 f i Shell.cpp.obj
 0001:00015ba0       ??1?$list@U?$pair@QEAVITool@ith@@V?$unique_ptr@VToolView@ith@@U?$default_delete@VToolView@ith@@@std@@@std@@@std@@V?$allocator@U?$pair@QEAVITool@ith@@V?$unique_ptr@VToolView@ith@@U?$default_delete@VToolView@ith@@@std@@@std@@@std@@@2@@std@@QEAA@XZ 0000000140016ba0 f i Shell.cpp.obj
 0001:00015c30       ??1?$map@V?$basic_string@_WU?$char_traits@_W@std@@V?$allocator@_W@2@@std@@PEAU_TREEITEM@@U?$less@V?$basic_string@_WU?$char_traits@_W@std@@V?$allocator@_W@2@@std@@@2@V?$allocator@U?$pair@$$CBV?$basic_string@_WU?$char_traits@_W@std@@V?$allocator@_W@2@@std@@PEAU_TREEITEM@@@std@@@2@@std@@QEAA@XZ 0000000140016c30 f i Shell.cpp.obj
 0001:00015c60       ??1?$pair@$$CBV?$basic_string@_WU?$char_traits@_W@std@@V?$allocator@_W@2@@std@@PEAU_TREEITEM@@@std@@QEAA@XZ 0000000140016c60 f i Shell.cpp.obj
 0001:00015c90       ??1?$pair@QEAVITool@ith@@V?$unique_ptr@VToolView@ith@@U?$default_delete@VToolView@ith@@@std@@@std@@@std@@QEAA@XZ 0000000140016c90 f i Shell.cpp.obj
 0001:00015cc0       ??1?$pair@V?$_List_iterator@V?$_List_val@U?$_List_simple_types@U?$pair@QEAVITool@ith@@V?$unique_ptr@VToolView@ith@@U?$default_delete@VToolView@ith@@@std@@@std@@@std@@@std@@@std@@@std@@_N@std@@QEAA@XZ 0000000140016cc0 f i Shell.cpp.obj
 0001:00015cf0       ??1?$unique_ptr@VAdQueryTool@ith@@U?$default_delete@VAdQueryTool@ith@@@std@@@std@@QEAA@XZ 0000000140016cf0 f i Shell.cpp.obj
 0001:00015d50       ??1?$unique_ptr@VITool@ith@@U?$default_delete@VITool@ith@@@std@@@std@@QEAA@XZ 0000000140016d50 f i Shell.cpp.obj
 0001:00015db0       ??1?$unique_ptr@VToolView@ith@@U?$default_delete@VToolView@ith@@@std@@@std@@QEAA@XZ 0000000140016db0 f i Shell.cpp.obj
 0001:00015e10       ??1?$unordered_map@PEAVITool@ith@@V?$unique_ptr@VToolView@ith@@U?$default_delete@VToolView@ith@@@std@@@std@@U?$hash@PEAVITool@ith@@@4@U?$equal_to@PEAVITool@ith@@@4@V?$allocator@U?$pair@QEAVITool@ith@@V?$unique_ptr@VToolView@ith@@U?$default_delete@VToolView@ith@@@std@@@std@@@std@@@4@@std@@QEAA@XZ 0000000140016e10 f i Shell.cpp.obj
 0001:00015e40       ??1?$vector@V?$unique_ptr@VITool@ith@@U?$default_delete@VITool@ith@@@std@@@std@@V?$allocator@V?$unique_ptr@VITool@ith@@U?$default_delete@VITool@ith@@@std@@@std@@@2@@std@@QEAA@XZ 0000000140016e40 f i Shell.cpp.obj
 0001:00015ee0       ??1AdQueryTool@ith@@UEAA@XZ 0000000140016ee0 f i Shell.cpp.obj
 0001:00015f10       ??1ITool@ith@@UEAA@XZ      0000000140016f10 f i Shell.cpp.obj
 0001:00015f20       ??1_Bxty@?$_String_val@U?$_Simple_types@_W@std@@@std@@QEAA@XZ 0000000140016f20 f i Shell.cpp.obj
 0001:00015f30       ??1_Iterator_base12@std@@QEAA@XZ 0000000140016f30 f i Shell.cpp.obj
 0001:00015f80       ??1_Range_eraser@?$_Hash@V?$_Umap_traits@PEAVITool@ith@@V?$unique_ptr@VToolView@ith@@U?$default_delete@VToolView@ith@@@std@@@std@@V?$_Uhash_compare@PEAVITool@ith@@U?$hash@PEAVITool@ith@@@std@@U?$equal_to@PEAVITool@ith@@@4@@4@V?$allocator@U?$pair@QEAVITool@ith@@V?$unique_ptr@VToolView@ith@@U?$default_delete@VToolView@ith@@@std@@@std@@@std@@@4@$0A@@std@@@std@@QEAA@XZ 0000000140016f80 f i Shell.cpp.obj
 0001:00015fd0       ??1_Reallocation_guard2@?$vector@V?$unique_ptr@VITool@ith@@U?$default_delete@VITool@ith@@@std@@@std@@V?$allocator@V?$unique_ptr@VITool@ith@@U?$default_delete@VITool@ith@@@std@@@std@@@2@@std@@QEAA@XZ 0000000140016fd0 f i Shell.cpp.obj
 0001:00016050       ??1bad_alloc@std@@UEAA@XZ  0000000140017050 f i Shell.cpp.obj
 0001:00016080       ??1bad_array_new_length@std@@UEAA@XZ 0000000140017080 f i Shell.cpp.obj
 0001:000160b0       ??1exception@std@@UEAA@XZ  00000001400170b0 f i Shell.cpp.obj
 0001:000160f0       ??2@YAPEAX_KPEAX@Z         00000001400170f0 f i Shell.cpp.obj
 0001:00016110       ??4?$_List_const_iterator@V?$_List_val@U?$_List_simple_types@U?$pair@QEAVITool@ith@@V?$unique_ptr@VToolView@ith@@U?$default_delete@VToolView@ith@@@std@@@std@@@std@@@std@@@std@@@std@@QEAAAEAV01@$$QEAV01@@Z 0000000140017110 f i Shell.cpp.obj
 0001:00016150       ??4?$_List_iterator@V?$_List_val@U?$_List_simple_types@U?$pair@QEAVITool@ith@@V?$unique_ptr@VToolView@ith@@U?$default_delete@VToolView@ith@@@std@@@std@@@std@@@std@@@std@@@std@@QEAAAEAV01@$$QEAV01@@Z 0000000140017150 f i Shell.cpp.obj
 0001:00016190       ??4?$_List_unchecked_const_iterator@V?$_List_val@U?$_List_simple_types@U?$pair@QEAVITool@ith@@V?$unique_ptr@VToolView@ith@@U?$default_delete@VToolView@ith@@@std@@@std@@@std@@@std@@@std@@U_Iterator_base12@2@@std@@QEAAAEAV01@$$QEAV01@@Z 0000000140017190 f i Shell.cpp.obj
 0001:000161e0       ??4?$vector@V?$unique_ptr@VITool@ith@@U?$default_delete@VITool@ith@@@std@@@std@@V?$allocator@V?$unique_ptr@VITool@ith@@U?$default_delete@VITool@ith@@@std@@@std@@@2@@std@@QEAAAEAV01@$$QEAV01@@Z 00000001400171e0 f i Shell.cpp.obj
 0001:000162a0       ??4_Iterator_base12@std@@QEAAAEAU01@AEBU01@@Z 00000001400172a0 f i Shell.cpp.obj
 0001:00016300       ??8?$_List_const_iterator@V?$_List_val@U?$_List_simple_types@U?$pair@QEAVITool@ith@@V?$unique_ptr@VToolView@ith@@U?$default_delete@VToolView@ith@@@std@@@std@@@std@@@std@@@std@@@std@@QEBA_NAEBV01@@Z 0000000140017300 f i Shell.cpp.obj
 0001:000163d0       ??8?$_List_unchecked_const_iterator@V?$_List_val@U?$_List_simple_types@U?$pair@QEAVITool@ith@@V?$unique_ptr@VToolView@ith@@U?$default_delete@VToolView@ith@@@std@@@std@@@std@@@std@@@std@@U_Iterator_base0@2@@std@@QEBA_NAEBV01@@Z 00000001400173d0 f i Shell.cpp.obj
 0001:00016420       ??8?$_Tree_const_iterator@V?$_Tree_val@U?$_Tree_simple_types@U?$pair@$$CBV?$basic_string@_WU?$char_traits@_W@std@@V?$allocator@_W@2@@std@@PEAU_TREEITEM@@@std@@@std@@@std@@@std@@QEBA_NAEBV01@@Z 0000000140017420 f i Shell.cpp.obj
 0001:000164f0       ??8?$_Tree_unchecked_const_iterator@V?$_Tree_val@U?$_Tree_simple_types@U?$pair@$$CBV?$basic_string@_WU?$char_traits@_W@std@@V?$allocator@_W@2@@std@@PEAU_TREEITEM@@@std@@@std@@@std@@U_Iterator_base0@2@@std@@QEBA_NU_Default_sentinel@1@@Z 00000001400174f0 f i Shell.cpp.obj
 0001:00016540       ??A?$map@V?$basic_string@_WU?$char_traits@_W@std@@V?$allocator@_W@2@@std@@PEAU_TREEITEM@@U?$less@V?$basic_string@_WU?$char_traits@_W@std@@V?$allocator@_W@2@@std@@@2@V?$allocator@U?$pair@$$CBV?$basic_string@_WU?$char_traits@_W@std@@V?$allocator@_W@2@@std@@PEAU_TREEITEM@@@std@@@2@@std@@QEAAAEAPEAU_TREEITEM@@AEBV?$basic_string@_WU?$char_traits@_W@std@@V?$allocator@_W@2@@1@@Z 0000000140017540 f i Shell.cpp.obj
 0001:00016580       ??C?$_List_iterator@V?$_List_val@U?$_List_simple_types@U?$pair@QEAVITool@ith@@V?$unique_ptr@VToolView@ith@@U?$default_delete@VToolView@ith@@@std@@@std@@@std@@@std@@@std@@@std@@QEBAPEAU?$pair@QEAVITool@ith@@V?$unique_ptr@VToolView@ith@@U?$default_delete@VToolView@ith@@@std@@@std@@@1@XZ 0000000140017580 f i Shell.cpp.obj
 0001:000165b0       ??C?$_Tree_iterator@V?$_Tree_val@U?$_Tree_simple_types@U?$pair@$$CBV?$basic_string@_WU?$char_traits@_W@std@@V?$allocator@_W@2@@std@@PEAU_TREEITEM@@@std@@@std@@@std@@@std@@QEBAPEAU?$pair@$$CBV?$basic_string@_WU?$char_traits@_W@std@@V?$allocator@_W@2@@std@@PEAU_TREEITEM@@@1@XZ 00000001400175b0 f i Shell.cpp.obj
 0001:000165e0       ??C?$unique_ptr@VITool@ith@@U?$default_delete@VITool@ith@@@std@@@std@@QEBAPEAVITool@ith@@XZ 00000001400175e0 f i Shell.cpp.obj
 0001:00016600       ??D?$_List_const_iterator@V?$_List_val@U?$_List_simple_types@U?$pair@QEAVITool@ith@@V?$unique_ptr@VToolView@ith@@U?$default_delete@VToolView@ith@@@std@@@std@@@std@@@std@@@std@@@std@@QEBAAEBU?$pair@QEAVITool@ith@@V?$unique_ptr@VToolView@ith@@U?$default_delete@VToolView@ith@@@std@@@std@@@1@XZ 0000000140017600 f i Shell.cpp.obj
 0001:00016700       ??D?$_List_iterator@V?$_List_val@U?$_List_simple_types@U?$pair@QEAVITool@ith@@V?$unique_ptr@VToolView@ith@@U?$default_delete@VToolView@ith@@@std@@@std@@@std@@@std@@@std@@@std@@QEBAAEAU?$pair@QEAVITool@ith@@V?$unique_ptr@VToolView@ith@@U?$default_delete@VToolView@ith@@@std@@@std@@@1@XZ 0000000140017700 f i Shell.cpp.obj
 0001:00016720       ??D?$_List_unchecked_const_iterator@V?$_List_val@U?$_List_simple_types@U?$pair@QEAVITool@ith@@V?$unique_ptr@VToolView@ith@@U?$default_delete@VToolView@ith@@@std@@@std@@@std@@@std@@@std@@U_Iterator_base0@2@@std@@QEBAAEBU?$pair@QEAVITool@ith@@V?$unique_ptr@VToolView@ith@@U?$default_delete@VToolView@ith@@@std@@@std@@@1@XZ 0000000140017720 f i Shell.cpp.obj
 0001:00016740       ??D?$_List_unchecked_iterator@V?$_List_val@U?$_List_simple_types@U?$pair@QEAVITool@ith@@V?$unique_ptr@VToolView@ith@@U?$default_delete@VToolView@ith@@@std@@@std@@@std@@@std@@@std@@@std@@QEBAAEAU?$pair@QEAVITool@ith@@V?$unique_ptr@VToolView@ith@@U?$default_delete@VToolView@ith@@@std@@@std@@@1@XZ 0000000140017740 f i Shell.cpp.obj
 0001:00016760       ??D?$_Tree_const_iterator@V?$_Tree_val@U?$_Tree_simple_types@U?$pair@$$CBV?$basic_string@_WU?$char_traits@_W@std@@V?$allocator@_W@2@@std@@PEAU_TREEITEM@@@std@@@std@@@std@@@std@@QEBAAEBU?$pair@$$CBV?$basic_string@_WU?$char_traits@_W@std@@V?$allocator@_W@2@@std@@PEAU_TREEITEM@@@1@XZ 0000000140017760 f i Shell.cpp.obj
 0001:00016860       ??D?$_Tree_iterator@V?$_Tree_val@U?$_Tree_simple_types@U?$pair@$$CBV?$basic_string@_WU?$char_traits@_W@std@@V?$allocator@_W@2@@std@@PEAU_TREEITEM@@@std@@@std@@@std@@@std@@QEBAAEAU?$pair@$$CBV?$basic_string@_WU?$char_traits@_W@std@@V?$allocator@_W@2@@std@@PEAU_TREEITEM@@@1@XZ 0000000140017860 f i Shell.cpp.obj
 0001:00016880       ??D?$_Tree_unchecked_const_iterator@V?$_Tree_val@U?$_Tree_simple_types@U?$pair@$$CBV?$basic_string@_WU?$char_traits@_W@std@@V?$allocator@_W@2@@std@@PEAU_TREEITEM@@@std@@@std@@@std@@U_Iterator_base0@2@@std@@QEBAAEBU?$pair@$$CBV?$basic_string@_WU?$char_traits@_W@std@@V?$allocator@_W@2@@std@@PEAU_TREEITEM@@@1@XZ 0000000140017880 f i Shell.cpp.obj
 0001:000168a0       ??D?$_Tree_unchecked_iterator@V?$_Tree_val@U?$_Tree_simple_types@U?$pair@$$CBV?$basic_string@_WU?$char_traits@_W@std@@V?$allocator@_W@2@@std@@PEAU_TREEITEM@@@std@@@std@@@std@@@std@@QEBAAEAU?$pair@$$CBV?$basic_string@_WU?$char_traits@_W@std@@V?$allocator@_W@2@@std@@PEAU_TREEITEM@@@1@XZ 00000001400178a0 f i Shell.cpp.obj
 0001:000168c0       ??E?$_List_unchecked_const_iterator@V?$_List_val@U?$_List_simple_types@U?$pair@QEAVITool@ith@@V?$unique_ptr@VToolView@ith@@U?$default_delete@VToolView@ith@@@std@@@std@@@std@@@std@@@std@@U_Iterator_base0@2@@std@@QEAAAEAV01@XZ 00000001400178c0 f i Shell.cpp.obj
 0001:000168f0       ??E?$_List_unchecked_iterator@V?$_List_val@U?$_List_simple_types@U?$pair@QEAVITool@ith@@V?$unique_ptr@VToolView@ith@@U?$default_delete@VToolView@ith@@@std@@@std@@@std@@@std@@@std@@@std@@QEAAAEAV01@XZ 00000001400178f0 f i Shell.cpp.obj
 0001:00016920       ??E?$_Tree_unchecked_const_iterator@V?$_Tree_val@U?$_Tree_simple_types@U?$pair@$$CBV?$basic_string@_WU?$char_traits@_W@std@@V?$allocator@_W@2@@std@@PEAU_TREEITEM@@@std@@@std@@@std@@U_Iterator_base0@2@@std@@QEAAAEAV01@XZ 0000000140017920 f i Shell.cpp.obj
 0001:000169e0       ??E?$_Tree_unchecked_iterator@V?$_Tree_val@U?$_Tree_simple_types@U?$pair@$$CBV?$basic_string@_WU?$char_traits@_W@std@@V?$allocator@_W@2@@std@@PEAU_TREEITEM@@@std@@@std@@@std@@@std@@QEAAAEAV01@XZ 00000001400179e0 f i Shell.cpp.obj
 0001:00016a10       ??F?$_List_unchecked_const_iterator@V?$_List_val@U?$_List_simple_types@U?$pair@QEAVITool@ith@@V?$unique_ptr@VToolView@ith@@U?$default_delete@VToolView@ith@@@std@@@std@@@std@@@std@@@std@@U_Iterator_base0@2@@std@@QEAAAEAV01@XZ 0000000140017a10 f i Shell.cpp.obj
 0001:00016a40       ??Mstd@@YA_NUstrong_ordering@0@U_Literal_zero@0@@Z 0000000140017a40 f i Shell.cpp.obj
 0001:00016a80       ??R?$_Conditionally_enabled_hash@PEAVITool@ith@@$00@std@@SA_KAEBQEAVITool@ith@@@Z 0000000140017a80 f i Shell.cpp.obj
 0001:00016aa0       ??R?$default_delete@VAdQueryTool@ith@@@std@@QEBAXPEAVAdQueryTool@ith@@@Z 0000000140017aa0 f i Shell.cpp.obj
 0001:00016b10       ??R?$default_delete@VITool@ith@@@std@@QEBAXPEAVITool@ith@@@Z 0000000140017b10 f i Shell.cpp.obj
 0001:00016b80       ??R?$default_delete@VToolView@ith@@@std@@QEBAXPEAVToolView@ith@@@Z 0000000140017b80 f i Shell.cpp.obj
 0001:00016bf0       ??R?$equal_to@PEAVITool@ith@@@std@@QEBA_NAEBQEAVITool@ith@@0@Z 0000000140017bf0 f i Shell.cpp.obj
 0001:00016c40       ??R?$less@V?$basic_string@_WU?$char_traits@_W@std@@V?$allocator@_W@2@@std@@@std@@QEBA_NAEBV?$basic_string@_WU?$char_traits@_W@std@@V?$allocator@_W@2@@1@0@Z 0000000140017c40 f i Shell.cpp.obj
 0001:00016cd0       ??_G?$pair@$$CBV?$basic_string@_WU?$char_traits@_W@std@@V?$allocator@_W@2@@std@@PEAU_TREEITEM@@@std@@QEAAPEAXI@Z 0000000140017cd0 f i Shell.cpp.obj
 0001:00016d20       ??_G?$pair@QEAVITool@ith@@V?$unique_ptr@VToolView@ith@@U?$default_delete@VToolView@ith@@@std@@@std@@@std@@QEAAPEAXI@Z 0000000140017d20 f i Shell.cpp.obj
 0001:00016d70       ??_G?$unique_ptr@VITool@ith@@U?$default_delete@VITool@ith@@@std@@@std@@QEAAPEAXI@Z 0000000140017d70 f i Shell.cpp.obj
 0001:00016dc0       ??_EAdQueryTool@ith@@UEAAPEAXI@Z 0000000140017dc0 f i Shell.cpp.obj
 0001:00016dc0       ??_GAdQueryTool@ith@@UEAAPEAXI@Z 0000000140017dc0 f i Shell.cpp.obj
 0001:00016e10       ??_EITool@ith@@UEAAPEAXI@Z 0000000140017e10 f i Shell.cpp.obj
 0001:00016e10       ??_GITool@ith@@UEAAPEAXI@Z 0000000140017e10 f i Shell.cpp.obj
 0001:00016e60       ??_Ebad_alloc@std@@UEAAPEAXI@Z 0000000140017e60 f i Shell.cpp.obj
 0001:00016e60       ??_Gbad_alloc@std@@UEAAPEAXI@Z 0000000140017e60 f i Shell.cpp.obj
 0001:00016eb0       ??_Ebad_array_new_length@std@@UEAAPEAXI@Z 0000000140017eb0 f i Shell.cpp.obj
 0001:00016eb0       ??_Gbad_array_new_length@std@@UEAAPEAXI@Z 0000000140017eb0 f i Shell.cpp.obj
 0001:00016f00       ??_Eexception@std@@UEAAPEAXI@Z 0000000140017f00 f i Shell.cpp.obj
 0001:00016f00       ??_Gexception@std@@UEAAPEAXI@Z 0000000140017f00 f i Shell.cpp.obj
 0001:00016f50       ?Category@AdQueryTool@ith@@UEBA?AV?$basic_string@_WU?$char_traits@_W@std@@V?$allocator@_W@2@@std@@XZ 0000000140017f50 f i Shell.cpp.obj
 0001:00016fa0       ?CreateTools@ToolRegistry@ith@@SA?AV?$vector@V?$unique_ptr@VITool@ith@@U?$default_delete@VITool@ith@@@std@@@std@@V?$allocator@V?$unique_ptr@VITool@ith@@U?$default_delete@VITool@ith@@@std@@@std@@@2@@std@@XZ 0000000140017fa0 f i Shell.cpp.obj
 0001:000170a0       ?Name@AdQueryTool@ith@@UEBA?AV?$basic_string@_WU?$char_traits@_W@std@@V?$allocator@_W@2@@std@@XZ 00000001400180a0 f i Shell.cpp.obj
 0001:000170f0       ?Scale@ith@@YAHHI@Z        00000001400180f0 f i Shell.cpp.obj
 0001:00017120       ?_Adjust_manually_vector_aligned@std@@YAXAEAPEAXAEA_K@Z 0000000140018120 f i Shell.cpp.obj
 0001:000172a0       ?_Adopt@_Iterator_base0@std@@QEAAXPEBX@Z 00000001400182a0 f i Shell.cpp.obj
 0001:000172b0       ?_Adopt@_Iterator_base12@std@@QEAAXPEBU_Container_base12@2@@Z 00000001400182b0 f i Shell.cpp.obj
 0001:00017310       ?_Adopt_locked@_Iterator_base12@std@@AEAAXPEBU_Container_base12@2@@Z 0000000140018310 f i Shell.cpp.obj
 0001:00017390       ?_Adopt_unlocked@_Iterator_base12@std@@AEAAXPEBU_Container_base12@2@@Z 0000000140018390 f i Shell.cpp.obj
 0001:00017440       ?_Alloc_sentinel_and_proxy@?$_Tree@V?$_Tmap_traits@V?$basic_string@_WU?$char_traits@_W@std@@V?$allocator@_W@2@@std@@PEAU_TREEITEM@@U?$less@V?$basic_string@_WU?$char_traits@_W@std@@V?$allocator@_W@2@@std@@@2@V?$allocator@U?$pair@$$CBV?$basic_string@_WU?$char_traits@_W@std@@V?$allocator@_W@2@@std@@PEAU_TREEITEM@@@std@@@2@$0A@@std@@@std@@IEAAXXZ 0000000140018440 f i Shell.cpp.obj
 0001:00017520       ?_Alloc_sentinel_and_proxy@?$list@U?$pair@QEAVITool@ith@@V?$unique_ptr@VToolView@ith@@U?$default_delete@VToolView@ith@@@std@@@std@@@std@@V?$allocator@U?$pair@QEAVITool@ith@@V?$unique_ptr@VToolView@ith@@U?$default_delete@VToolView@ith@@@std@@@std@@@std@@@2@@std@@AEAAXXZ 0000000140018520 f i Shell.cpp.obj
 0001:00017650       ?_Allocate@?$_Alloc_construct_ptr@V?$allocator@U?$_List_node@U?$pair@QEAVITool@ith@@V?$unique_ptr@VToolView@ith@@U?$default_delete@VToolView@ith@@@std@@@std@@@std@@PEAX@std@@@std@@@std@@QEAAXXZ 0000000140018650 f i Shell.cpp.obj
 0001:000176b0       ?_Allocate@?$_Alloc_construct_ptr@V?$allocator@U?$_Tree_node@U?$pair@$$CBV?$basic_string@_WU?$char_traits@_W@std@@V?$allocator@_W@2@@std@@PEAU_TREEITEM@@@std@@PEAX@std@@@std@@@std@@QEAAXXZ 00000001400186b0 f i Shell.cpp.obj
 0001:00017710       ?_Allocate@_Default_allocate_traits@std@@SAPEAX_K@Z 0000000140018710 f i Shell.cpp.obj
 0001:00017730       ?_Assign_grow@?$_Hash_vec@V?$allocator@V?$_List_unchecked_iterator@V?$_List_val@U?$_List_simple_types@U?$pair@QEAVITool@ith@@V?$unique_ptr@VToolView@ith@@U?$default_delete@VToolView@ith@@@std@@@std@@@std@@@std@@@std@@@std@@@std@@@std@@QEAAX_KV?$_List_unchecked_iterator@V?$_List_val@U?$_List_simple_types@U?$pair@QEAVITool@ith@@V?$unique_ptr@VToolView@ith@@U?$default_delete@VToolView@ith@@@std@@@std@@@std@@@std@@@std@@@2@@Z 0000000140018730 f i Shell.cpp.obj
 0001:00017890       ?_Assign_locked@_Iterator_base12@std@@AEAAXAEBU12@@Z 0000000140018890 f i Shell.cpp.obj
 0001:00017910       ?_Assign_unlocked@_Iterator_base12@std@@AEAAXAEBU12@@Z 0000000140018910 f i Shell.cpp.obj
 0001:00017980       ?_Bump_erased@_Range_eraser@?$_Hash@V?$_Umap_traits@PEAVITool@ith@@V?$unique_ptr@VToolView@ith@@U?$default_delete@VToolView@ith@@@std@@@std@@V?$_Uhash_compare@PEAVITool@ith@@U?$hash@PEAVITool@ith@@@std@@U?$equal_to@PEAVITool@ith@@@4@@4@V?$allocator@U?$pair@QEAVITool@ith@@V?$unique_ptr@VToolView@ith@@U?$default_delete@VToolView@ith@@@std@@@std@@@std@@@4@$0A@@std@@@std@@QEAAXXZ 0000000140018980 f i Shell.cpp.obj
 0001:000179b0       ?_Calculate_growth@?$basic_string@_WU?$char_traits@_W@std@@V?$allocator@_W@2@@std@@CA_K_K00@Z 00000001400189b0 f i Shell.cpp.obj
 0001:00017aa0       ?_Calculate_growth@?$vector@V?$unique_ptr@VITool@ith@@U?$default_delete@VITool@ith@@@std@@@std@@V?$allocator@V?$unique_ptr@VITool@ith@@U?$default_delete@VITool@ith@@@std@@@std@@@2@@std@@AEBA_K_K@Z 0000000140018aa0 f i Shell.cpp.obj
 0001:00017b70       ?_Ceiling_of_log_2@std@@YAK_K@Z 0000000140018b70 f i Shell.cpp.obj
 0001:00017ba0       ?_Change_array@?$vector@V?$unique_ptr@VITool@ith@@U?$default_delete@VITool@ith@@@std@@@std@@V?$allocator@V?$unique_ptr@VITool@ith@@U?$default_delete@VITool@ith@@@std@@@std@@@2@@std@@AEAAXQEAV?$unique_ptr@VITool@ith@@U?$default_delete@VITool@ith@@@std@@@2@_K1@Z 0000000140018ba0 f i Shell.cpp.obj
 0001:00017ce0       ?_Check_grow_by_1@?$_Tree@V?$_Tmap_traits@V?$basic_string@_WU?$char_traits@_W@std@@V?$allocator@_W@2@@std@@PEAU_TREEITEM@@U?$less@V?$basic_string@_WU?$char_traits@_W@std@@V?$allocator@_W@2@@std@@@2@V?$allocator@U?$pair@$$CBV?$basic_string@_WU?$char_traits@_W@std@@V?$allocator@_W@2@@std@@PEAU_TREEITEM@@@std@@@2@$0A@@std@@@std@@IEAAXXZ 0000000140018ce0 f i Shell.cpp.obj
 0001:00017d30       ?_Check_max_size@?$_Hash@V?$_Umap_traits@PEAVITool@ith@@V?$unique_ptr@VToolView@ith@@U?$default_delete@VToolView@ith@@@std@@@std@@V?$_Uhash_compare@PEAVITool@ith@@U?$hash@PEAVITool@ith@@@std@@U?$equal_to@PEAVITool@ith@@@4@@4@V?$allocator@U?$pair@QEAVITool@ith@@V?$unique_ptr@VToolView@ith@@U?$default_delete@VToolView@ith@@@std@@@std@@@std@@@4@$0A@@std@@@std@@IEBAXXZ 0000000140018d30 f i Shell.cpp.obj
 0001:00017d90       ?_Check_rehash_required_1@?$_Hash@V?$_Umap_traits@PEAVITool@ith@@V?$unique_ptr@VToolView@ith@@U?$default_delete@VToolView@ith@@@std@@@std@@V?$_Uhash_compare@PEAVITool@ith@@U?$hash@PEAVITool@ith@@@std@@U?$equal_to@PEAVITool@ith@@@4@@4@V?$allocator@U?$pair@QEAVITool@ith@@V?$unique_ptr@VToolView@ith@@U?$default_delete@VToolView@ith@@@std@@@std@@@std@@@4@$0A@@std@@@std@@IEBA_NXZ 0000000140018d90 f i Shell.cpp.obj
 0001:00017ea0       ?_Deallocate_for_capacity@?$basic_string@_WU?$char_traits@_W@std@@V?$allocator@_W@2@@std@@CAXAEAV?$allocator@_W@2@QEA_W_K@Z 0000000140018ea0 f i Shell.cpp.obj
 0001:00017ef0       ?_Desired_grow_bucket_count@?$_Hash@V?$_Umap_traits@PEAVITool@ith@@V?$unique_ptr@VToolView@ith@@U?$default_delete@VToolView@ith@@@std@@@std@@V?$_Uhash_compare@PEAVITool@ith@@U?$hash@PEAVITool@ith@@@std@@U?$equal_to@PEAVITool@ith@@@4@@4@V?$allocator@U?$pair@QEAVITool@ith@@V?$unique_ptr@VToolView@ith@@U?$default_delete@VToolView@ith@@@std@@@std@@@std@@@4@$0A@@std@@@std@@IEBA_K_K@Z 0000000140018ef0 f i Shell.cpp.obj
 0001:00017fb0       ?_Do_hash@?$hash@PEAVITool@ith@@@std@@SA_KAEBQEAVITool@ith@@@Z 0000000140018fb0 f i Shell.cpp.obj
 0001:00017fd0       ?_Extract@?$_In_place_key_extract_map_impl@PEAVITool@ith@@PEAV12@V?$unique_ptr@VToolView@ith@@U?$default_delete@VToolView@ith@@@std@@@std@@@std@@SAAEBQEAVITool@ith@@AEBQEAV34@AEBV?$unique_ptr@VToolView@ith@@U?$default_delete@VToolView@ith@@@std@@@2@@Z 0000000140018fd0 f i Shell.cpp.obj
 0001:00017ff0       ?_Floor_of_log_2@std@@YAK_K@Z 0000000140018ff0 f i Shell.cpp.obj
 0001:00018060       ?_Fnv1a_append_bytes@std@@YA_K_KQEBE_K@Z 0000000140019060 f i Shell.cpp.obj
 0001:00018100       ?_Forced_rehash@?$_Hash@V?$_Umap_traits@PEAVITool@ith@@V?$unique_ptr@VToolView@ith@@U?$default_delete@VToolView@ith@@@std@@@std@@V?$_Uhash_compare@PEAVITool@ith@@U?$hash@PEAVITool@ith@@@std@@U?$equal_to@PEAVITool@ith@@@4@@4@V?$allocator@U?$pair@QEAVITool@ith@@V?$unique_ptr@VToolView@ith@@U?$default_delete@VToolView@ith@@@std@@@std@@@std@@@4@$0A@@std@@@std@@IEAAX_K@Z 0000000140019100 f i Shell.cpp.obj
 0001:000185f0       ?_Get_first@?$_Compressed_pair@U?$default_delete@VAdQueryTool@ith@@@std@@PEAVAdQueryTool@ith@@$00@std@@QEAAAEAU?$default_delete@VAdQueryTool@ith@@@2@XZ 00000001400195f0 f i Shell.cpp.obj
 0001:00018600       ?_Get_first@?$_Compressed_pair@U?$default_delete@VITool@ith@@@std@@PEAVITool@ith@@$00@std@@QEAAAEAU?$default_delete@VITool@ith@@@2@XZ 0000000140019600 f i Shell.cpp.obj
 0001:00018610       ?_Get_first@?$_Compressed_pair@U?$default_delete@VToolView@ith@@@std@@PEAVToolView@ith@@$00@std@@QEAAAEAU?$default_delete@VToolView@ith@@@2@XZ 0000000140019610 f i Shell.cpp.obj
 0001:00018620       ?_Get_first@?$_Compressed_pair@U?$equal_to@PEAVITool@ith@@@std@@M$00@std@@QEBAAEBU?$equal_to@PEAVITool@ith@@@2@XZ 0000000140019620 f i Shell.cpp.obj
 0001:00018630       ?_Get_first@?$_Compressed_pair@U?$hash@PEAVITool@ith@@@std@@V?$_Compressed_pair@U?$equal_to@PEAVITool@ith@@@std@@M$00@2@$00@std@@QEBAAEBU?$hash@PEAVITool@ith@@@2@XZ 0000000140019630 f i Shell.cpp.obj
 0001:00018640       ?_Get_first@?$_Compressed_pair@U?$less@V?$basic_string@_WU?$char_traits@_W@std@@V?$allocator@_W@2@@std@@@std@@V?$_Compressed_pair@V?$allocator@U?$_Tree_node@U?$pair@$$CBV?$basic_string@_WU?$char_traits@_W@std@@V?$allocator@_W@2@@std@@PEAU_TREEITEM@@@std@@PEAX@std@@@std@@V?$_Tree_val@U?$_Tree_simple_types@U?$pair@$$CBV?$basic_string@_WU?$char_traits@_W@std@@V?$allocator@_W@2@@std@@PEAU_TREEITEM@@@std@@@std@@@2@$00@2@$00@std@@QEBAAEBU?$less@V?$basic_string@_WU?$char_traits@_W@std@@V?$allocator@_W@2@@std@@@2@XZ 0000000140019640 f i Shell.cpp.obj
 0001:00018650       ?_Get_first@?$_Compressed_pair@V?$allocator@U?$_List_node@U?$pair@QEAVITool@ith@@V?$unique_ptr@VToolView@ith@@U?$default_delete@VToolView@ith@@@std@@@std@@@std@@PEAX@std@@@std@@V?$_List_val@U?$_List_simple_types@U?$pair@QEAVITool@ith@@V?$unique_ptr@VToolView@ith@@U?$default_delete@VToolView@ith@@@std@@@std@@@std@@@std@@@2@$00@std@@QEAAAEAV?$allocator@U?$_List_node@U?$pair@QEAVITool@ith@@V?$unique_ptr@VToolView@ith@@U?$default_delete@VToolView@ith@@@std@@@std@@@std@@PEAX@std@@@2@XZ 0000000140019650 f i Shell.cpp.obj
 0001:00018660       ?_Get_first@?$_Compressed_pair@V?$allocator@U?$_List_node@U?$pair@QEAVITool@ith@@V?$unique_ptr@VToolView@ith@@U?$default_delete@VToolView@ith@@@std@@@std@@@std@@PEAX@std@@@std@@V?$_List_val@U?$_List_simple_types@U?$pair@QEAVITool@ith@@V?$unique_ptr@VToolView@ith@@U?$default_delete@VToolView@ith@@@std@@@std@@@std@@@std@@@2@$00@std@@QEBAAEBV?$allocator@U?$_List_node@U?$pair@QEAVITool@ith@@V?$unique_ptr@VToolView@ith@@U?$default_delete@VToolView@ith@@@std@@@std@@@std@@PEAX@std@@@2@XZ 0000000140019660 f i Shell.cpp.obj
 0001:00018670       ?_Get_first@?$_Compressed_pair@V?$allocator@U?$_Tree_node@U?$pair@$$CBV?$basic_string@_WU?$char_traits@_W@std@@V?$allocator@_W@2@@std@@PEAU_TREEITEM@@@std@@PEAX@std@@@std@@V?$_Tree_val@U?$_Tree_simple_types@U?$pair@$$CBV?$basic_string@_WU?$char_traits@_W@std@@V?$allocator@_W@2@@std@@PEAU_TREEITEM@@@std@@@std@@@2@$00@std@@QEAAAEAV?$allocator@U?$_Tree_node@U?$pair@$$CBV?$basic_string@_WU?$char_traits@_W@std@@V?$allocator@_W@2@@std@@PEAU_TREEITEM@@@std@@PEAX@std@@@2@XZ 0000000140019670 f i Shell.cpp.obj
 0001:00018680       ?_Get_first@?$_Compressed_pair@V?$allocator@U?$_Tree_node@U?$pair@$$CBV?$basic_string@_WU?$char_traits@_W@std@@V?$allocator@_W@2@@std@@PEAU_TREEITEM@@@std@@PEAX@std@@@std@@V?$_Tree_val@U?$_Tree_simple_types@U?$pair@$$CBV?$basic_string@_WU?$char_traits@_W@std@@V?$allocator@_W@2@@std@@PEAU_TREEITEM@@@std@@@std@@@2@$00@std@@QEBAAEBV?$allocator@U?$_Tree_node@U?$pair@$$CBV?$basic_string@_WU?$char_traits@_W@std@@V?$allocator@_W@2@@std@@PEAU_TREEITEM@@@std@@PEAX@std@@@2@XZ 0000000140019680 f i Shell.cpp.obj
 0001:00018690       ?_Get_first@?$_Compressed_pair@V?$allocator@V?$_List_unchecked_iterator@V?$_List_val@U?$_List_simple_types@U?$pair@QEAVITool@ith@@V?$unique_ptr@VToolView@ith@@U?$default_delete@VToolView@ith@@@std@@@std@@@std@@@std@@@std@@@std@@@std@@V?$_Vector_val@U?$_Simple_types@V?$_List_unchecked_iterator@V?$_List_val@U?$_List_simple_types@U?$pair@QEAVITool@ith@@V?$unique_ptr@VToolView@ith@@U?$default_delete@VToolView@ith@@@std@@@std@@@std@@@std@@@std@@@std@@@std@@@2@$00@std@@QEAAAEAV?$allocator@V?$_List_unchecked_iterator@V?$_List_val@U?$_List_simple_types@U?$pair@QEAVITool@ith@@V?$unique_ptr@VToolView@ith@@U?$default_delete@VToolView@ith@@@std@@@std@@@std@@@std@@@std@@@std@@@2@XZ 0000000140019690 f i Shell.cpp.obj
 0001:000186a0       ?_Get_first@?$_Compressed_pair@V?$allocator@V?$_List_unchecked_iterator@V?$_List_val@U?$_List_simple_types@U?$pair@QEAVITool@ith@@V?$unique_ptr@VToolView@ith@@U?$default_delete@VToolView@ith@@@std@@@std@@@std@@@std@@@std@@@std@@@std@@V?$_Vector_val@U?$_Simple_types@V?$_List_unchecked_iterator@V?$_List_val@U?$_List_simple_types@U?$pair@QEAVITool@ith@@V?$unique_ptr@VToolView@ith@@U?$default_delete@VToolView@ith@@@std@@@std@@@std@@@std@@@std@@@std@@@std@@@2@$00@std@@QEBAAEBV?$allocator@V?$_List_unchecked_iterator@V?$_List_val@U?$_List_simple_types@U?$pair@QEAVITool@ith@@V?$unique_ptr@VToolView@ith@@U?$default_delete@VToolView@ith@@@std@@@std@@@std@@@std@@@std@@@std@@@2@XZ 00000001400196a0 f i Shell.cpp.obj
 0001:000186b0       ?_Get_first@?$_Compressed_pair@V?$allocator@V?$unique_ptr@VITool@ith@@U?$default_delete@VITool@ith@@@std@@@std@@@std@@V?$_Vector_val@U?$_Simple_types@V?$unique_ptr@VITool@ith@@U?$default_delete@VITool@ith@@@std@@@std@@@std@@@2@$00@std@@QEAAAEAV?$allocator@V?$unique_ptr@VITool@ith@@U?$default_delete@VITool@ith@@@std@@@std@@@2@XZ 00000001400196b0 f i Shell.cpp.obj
 0001:000186c0       ?_Get_first@?$_Compressed_pair@V?$allocator@V?$unique_ptr@VITool@ith@@U?$default_delete@VITool@ith@@@std@@@std@@@std@@V?$_Vector_val@U?$_Simple_types@V?$unique_ptr@VITool@ith@@U?$default_delete@VITool@ith@@@std@@@std@@@std@@@2@$00@std@@QEBAAEBV?$allocator@V?$unique_ptr@VITool@ith@@U?$default_delete@VITool@ith@@@std@@@std@@@2@XZ 00000001400196c0 f i Shell.cpp.obj
 0001:000186d0       ?_Get_first@?$_Compressed_pair@V?$allocator@_W@std@@V?$_String_val@U?$_Simple_types@_W@std@@@2@$00@std@@QEAAAEAV?$allocator@_W@2@XZ 00000001400196d0 f i Shell.cpp.obj
 0001:000186e0       ?_Get_first@?$_Compressed_pair@V?$allocator@_W@std@@V?$_String_val@U?$_Simple_types@_W@std@@@2@$00@std@@QEBAAEBV?$allocator@_W@2@XZ 00000001400196e0 f i Shell.cpp.obj
 0001:000186f0       ?_Get_max_bucket_size@?$_Uhash_compare@PEAVITool@ith@@U?$hash@PEAVITool@ith@@@std@@U?$equal_to@PEAVITool@ith@@@4@@std@@QEAAAEAMXZ 00000001400196f0 f i Shell.cpp.obj
 0001:00018700       ?_Get_max_bucket_size@?$_Uhash_compare@PEAVITool@ith@@U?$hash@PEAVITool@ith@@@std@@U?$equal_to@PEAVITool@ith@@@4@@std@@QEBAAEBMXZ 0000000140019700 f i Shell.cpp.obj
 0001:00018710       ?_Get_scary@?$_Tree@V?$_Tmap_traits@V?$basic_string@_WU?$char_traits@_W@std@@V?$allocator@_W@2@@std@@PEAU_TREEITEM@@U?$less@V?$basic_string@_WU?$char_traits@_W@std@@V?$allocator@_W@2@@std@@@2@V?$allocator@U?$pair@$$CBV?$basic_string@_WU?$char_traits@_W@std@@V?$allocator@_W@2@@std@@PEAU_TREEITEM@@@std@@@2@$0A@@std@@@std@@IEAAPEAV?$_Tree_val@U?$_Tree_simple_types@U?$pair@$$CBV?$basic_string@_WU?$char_traits@_W@std@@V?$allocator@_W@2@@std@@PEAU_TREEITEM@@@std@@@std@@@2@XZ 0000000140019710 f i Shell.cpp.obj
 0001:00018740       ?_Get_scary@?$_Tree@V?$_Tmap_traits@V?$basic_string@_WU?$char_traits@_W@std@@V?$allocator@_W@2@@std@@PEAU_TREEITEM@@U?$less@V?$basic_string@_WU?$char_traits@_W@std@@V?$allocator@_W@2@@std@@@2@V?$allocator@U?$pair@$$CBV?$basic_string@_WU?$char_traits@_W@std@@V?$allocator@_W@2@@std@@PEAU_TREEITEM@@@std@@@2@$0A@@std@@@std@@IEBAPEBV?$_Tree_val@U?$_Tree_simple_types@U?$pair@$$CBV?$basic_string@_WU?$char_traits@_W@std@@V?$allocator@_W@2@@std@@PEAU_TREEITEM@@@std@@@std@@@2@XZ 0000000140019740 f i Shell.cpp.obj
 0001:00018770       ?_Getal@?$_Tree@V?$_Tmap_traits@V?$basic_string@_WU?$char_traits@_W@std@@V?$allocator@_W@2@@std@@PEAU_TREEITEM@@U?$less@V?$basic_string@_WU?$char_traits@_W@std@@V?$allocator@_W@2@@std@@@2@V?$allocator@U?$pair@$$CBV?$basic_string@_WU?$char_traits@_W@std@@V?$allocator@_W@2@@std@@PEAU_TREEITEM@@@std@@@2@$0A@@std@@@std@@IEAAAEAV?$allocator@U?$_Tree_node@U?$pair@$$CBV?$basic_string@_WU?$char_traits@_W@std@@V?$allocator@_W@2@@std@@PEAU_TREEITEM@@@std@@PEAX@std@@@2@XZ 0000000140019770 f i Shell.cpp.obj
 0001:000187a0       ?_Getal@?$_Tree@V?$_Tmap_traits@V?$basic_string@_WU?$char_traits@_W@std@@V?$allocator@_W@2@@std@@PEAU_TREEITEM@@U?$less@V?$basic_string@_WU?$char_traits@_W@std@@V?$allocator@_W@2@@std@@@2@V?$allocator@U?$pair@$$CBV?$basic_string@_WU?$char_traits@_W@std@@V?$allocator@_W@2@@std@@PEAU_TREEITEM@@@std@@@2@$0A@@std@@@std@@IEBAAEBV?$allocator@U?$_Tree_node@U?$pair@$$CBV?$basic_string@_WU?$char_traits@_W@std@@V?$allocator@_W@2@@std@@PEAU_TREEITEM@@@std@@PEAX@std@@@2@XZ 00000001400197a0 f i Shell.cpp.obj
 0001:000187d0       ?_Getal@?$basic_string@_WU?$char_traits@_W@std@@V?$allocator@_W@2@@std@@AEAAAEAV?$allocator@_W@2@XZ 00000001400197d0 f i Shell.cpp.obj
 0001:00018800       ?_Getal@?$basic_string@_WU?$char_traits@_W@std@@V?$allocator@_W@2@@std@@AEBAAEBV?$allocator@_W@2@XZ 0000000140019800 f i Shell.cpp.obj
 0001:00018830       ?_Getal@?$list@U?$pair@QEAVITool@ith@@V?$unique_ptr@VToolView@ith@@U?$default_delete@VToolView@ith@@@std@@@std@@@std@@V?$allocator@U?$pair@QEAVITool@ith@@V?$unique_ptr@VToolView@ith@@U?$default_delete@VToolView@ith@@@std@@@std@@@std@@@2@@std@@AEAAAEAV?$allocator@U?$_List_node@U?$pair@QEAVITool@ith@@V?$unique_ptr@VToolView@ith@@U?$default_delete@VToolView@ith@@@std@@@std@@@std@@PEAX@std@@@2@XZ 0000000140019830 f i Shell.cpp.obj
 0001:00018860       ?_Getal@?$list@U?$pair@QEAVITool@ith@@V?$unique_ptr@VToolView@ith@@U?$default_delete@VToolView@ith@@@std@@@std@@@std@@V?$allocator@U?$pair@QEAVITool@ith@@V?$unique_ptr@VToolView@ith@@U?$default_delete@VToolView@ith@@@std@@@std@@@std@@@2@@std@@AEBAAEBV?$allocator@U?$_List_node@U?$pair@QEAVITool@ith@@V?$unique_ptr@VToolView@ith@@U?$default_delete@VToolView@ith@@@std@@@std@@@std@@PEAX@std@@@2@XZ 0000000140019860 f i Shell.cpp.obj
 0001:00018890       ?_Getal@?$vector@V?$unique_ptr@VITool@ith@@U?$default_delete@VITool@ith@@@std@@@std@@V?$allocator@V?$unique_ptr@VITool@ith@@U?$default_delete@VITool@ith@@@std@@@std@@@2@@std@@AEAAAEAV?$allocator@V?$unique_ptr@VITool@ith@@U?$default_delete@VITool@ith@@@std@@@std@@@2@XZ 0000000140019890 f i Shell.cpp.obj
 0001:000188c0       ?_Getal@?$vector@V?$unique_ptr@VITool@ith@@U?$default_delete@VITool@ith@@@std@@@std@@V?$allocator@V?$unique_ptr@VITool@ith@@U?$default_delete@VITool@ith@@@std@@@std@@@2@@std@@AEBAAEBV?$allocator@V?$unique_ptr@VITool@ith@@U?$default_delete@VITool@ith@@@std@@@std@@@2@XZ 00000001400198c0 f i Shell.cpp.obj
 0001:000188f0       ?_Getcomp@?$_Tree@V?$_Tmap_traits@V?$basic_string@_WU?$char_traits@_W@std@@V?$allocator@_W@2@@std@@PEAU_TREEITEM@@U?$less@V?$basic_string@_WU?$char_traits@_W@std@@V?$allocator@_W@2@@std@@@2@V?$allocator@U?$pair@$$CBV?$basic_string@_WU?$char_traits@_W@std@@V?$allocator@_W@2@@std@@PEAU_TREEITEM@@@std@@@2@$0A@@std@@@std@@IEBAAEBU?$less@V?$basic_string@_WU?$char_traits@_W@std@@V?$allocator@_W@2@@std@@@2@XZ 00000001400198f0 f i Shell.cpp.obj
 0001:00018920       ?_Getcont@_Iterator_base12@std@@QEBAPEBU_Container_base12@2@XZ 0000000140019920 f i Shell.cpp.obj
 0001:00018970       ?_Insert_new_node_before@?$_Hash@V?$_Umap_traits@PEAVITool@ith@@V?$unique_ptr@VToolView@ith@@U?$default_delete@VToolView@ith@@@std@@@std@@V?$_Uhash_compare@PEAVITool@ith@@U?$hash@PEAVITool@ith@@@std@@U?$equal_to@PEAVITool@ith@@@4@@4@V?$allocator@U?$pair@QEAVITool@ith@@V?$unique_ptr@VToolView@ith@@U?$default_delete@VToolView@ith@@@std@@@std@@@std@@@4@$0A@@std@@@std@@IEAAPEAU?$_List_node@U?$pair@QEAVITool@ith@@V?$unique_ptr@VToolView@ith@@U?$default_delete@VToolView@ith@@@std@@@std@@@std@@PEAX@2@_KQEAU32@1@Z 0000000140019970 f i Shell.cpp.obj
 0001:00018b80       ?_Insert_node@?$_Tree_val@U?$_Tree_simple_types@U?$pair@$$CBV?$basic_string@_WU?$char_traits@_W@std@@V?$allocator@_W@2@@std@@PEAU_TREEITEM@@@std@@@std@@@std@@QEAAPEAU?$_Tree_node@U?$pair@$$CBV?$basic_string@_WU?$char_traits@_W@std@@V?$allocator@_W@2@@std@@PEAU_TREEITEM@@@std@@PEAX@2@U?$_Tree_id@PEAU?$_Tree_node@U?$pair@$$CBV?$basic_string@_WU?$char_traits@_W@std@@V?$allocator@_W@2@@std@@PEAU_TREEITEM@@@std@@PEAX@std@@@2@QEAU32@@Z 0000000140019b80 f i Shell.cpp.obj
 0001:00018f30       ?_Is_constant_evaluated@std@@YA_NXZ 0000000140019f30 f i Shell.cpp.obj
 0001:00018f40       ?_Large_mode_engaged@?$_String_val@U?$_Simple_types@_W@std@@@std@@QEBA_NXZ 0000000140019f40 f i Shell.cpp.obj
 0001:00018f80       ?_Lrotate@?$_Tree_val@U?$_Tree_simple_types@U?$pair@$$CBV?$basic_string@_WU?$char_traits@_W@std@@V?$allocator@_W@2@@std@@PEAU_TREEITEM@@@std@@@std@@@std@@QEAAXPEAU?$_Tree_node@U?$pair@$$CBV?$basic_string@_WU?$char_traits@_W@std@@V?$allocator@_W@2@@std@@PEAU_TREEITEM@@@std@@PEAX@2@@Z 0000000140019f80 f i Shell.cpp.obj
 0001:00019090       ?_Make_iter@?$list@U?$pair@QEAVITool@ith@@V?$unique_ptr@VToolView@ith@@U?$default_delete@VToolView@ith@@@std@@@std@@@std@@V?$allocator@U?$pair@QEAVITool@ith@@V?$unique_ptr@VToolView@ith@@U?$default_delete@VToolView@ith@@@std@@@std@@@std@@@2@@std@@QEBA?AV?$_List_iterator@V?$_List_val@U?$_List_simple_types@U?$pair@QEAVITool@ith@@V?$unique_ptr@VToolView@ith@@U?$default_delete@VToolView@ith@@@std@@@std@@@std@@@std@@@std@@@2@PEAU?$_List_node@U?$pair@QEAVITool@ith@@V?$unique_ptr@VToolView@ith@@U?$default_delete@VToolView@ith@@@std@@@std@@@std@@PEAX@2@@Z 000000014001a090 f i Shell.cpp.obj
 0001:000190e0       ?_Max_bucket_size@?$_Hash@V?$_Umap_traits@PEAVITool@ith@@V?$unique_ptr@VToolView@ith@@U?$default_delete@VToolView@ith@@@std@@@std@@V?$_Uhash_compare@PEAVITool@ith@@U?$hash@PEAVITool@ith@@@std@@U?$equal_to@PEAVITool@ith@@@4@@4@V?$allocator@U?$pair@QEAVITool@ith@@V?$unique_ptr@VToolView@ith@@U?$default_delete@VToolView@ith@@@std@@@std@@@std@@@4@$0A@@std@@@std@@IEAAAEAMXZ 000000014001a0e0 f i Shell.cpp.obj
 0001:00019110       ?_Max_bucket_size@?$_Hash@V?$_Umap_traits@PEAVITool@ith@@V?$unique_ptr@VToolView@ith@@U?$default_delete@VToolView@ith@@@std@@@std@@V?$_Uhash_compare@PEAVITool@ith@@U?$hash@PEAVITool@ith@@@std@@U?$equal_to@PEAVITool@ith@@@4@@4@V?$allocator@U?$pair@QEAVITool@ith@@V?$unique_ptr@VToolView@ith@@U?$default_delete@VToolView@ith@@@std@@@std@@@std@@@4@$0A@@std@@@std@@IEBAAEBMXZ 000000014001a110 f i Shell.cpp.obj
 0001:00019140       ?_Min@?$_Tree_val@U?$_Tree_simple_types@U?$pair@$$CBV?$basic_string@_WU?$char_traits@_W@std@@V?$allocator@_W@2@@std@@PEAU_TREEITEM@@@std@@@std@@@std@@SAPEAU?$_Tree_node@U?$pair@$$CBV?$basic_string@_WU?$char_traits@_W@std@@V?$allocator@_W@2@@std@@PEAU_TREEITEM@@@std@@PEAX@2@PEAU32@@Z 000000014001a140 f i Shell.cpp.obj
 0001:00019180       ?_Min_load_factor_buckets@?$_Hash@V?$_Umap_traits@PEAVITool@ith@@V?$unique_ptr@VToolView@ith@@U?$default_delete@VToolView@ith@@@std@@@std@@V?$_Uhash_compare@PEAVITool@ith@@U?$hash@PEAVITool@ith@@@std@@U?$equal_to@PEAVITool@ith@@@4@@4@V?$allocator@U?$pair@QEAVITool@ith@@V?$unique_ptr@VToolView@ith@@U?$default_delete@VToolView@ith@@@std@@@std@@@std@@@4@$0A@@std@@@std@@IEBA_K_K@Z 000000014001a180 f i Shell.cpp.obj
 0001:00019250       ?_Myptr@?$_String_val@U?$_Simple_types@_W@std@@@std@@QEBAPEB_WXZ 000000014001a250 f i Shell.cpp.obj
 0001:000192b0       ?_Orphan_all@_Container_base12@std@@QEAAXXZ 000000014001a2b0 f i Shell.cpp.obj
 0001:00019300       ?_Orphan_all_locked_v3@_Container_base12@std@@AEAAXXZ 000000014001a300 f i Shell.cpp.obj
 0001:00019370       ?_Orphan_all_unlocked_v3@_Container_base12@std@@AEAAXXZ 000000014001a370 f i Shell.cpp.obj
 0001:00019400       ?_Orphan_me_locked_v3@_Iterator_base12@std@@AEAAXXZ 000000014001a400 f i Shell.cpp.obj
 0001:00019470       ?_Orphan_me_unlocked_v3@_Iterator_base12@std@@AEAAXXZ 000000014001a470 f i Shell.cpp.obj
 0001:00019570       ?_Orphan_non_end@?$_List_val@U?$_List_simple_types@U?$pair@QEAVITool@ith@@V?$unique_ptr@VToolView@ith@@U?$default_delete@VToolView@ith@@@std@@@std@@@std@@@std@@@std@@QEAAXXZ 000000014001a570 f i Shell.cpp.obj
 0001:00019670       ?_Orphan_range@?$vector@V?$unique_ptr@VITool@ith@@U?$default_delete@VITool@ith@@@std@@@std@@V?$allocator@V?$unique_ptr@VITool@ith@@U?$default_delete@VITool@ith@@@std@@@std@@@2@@std@@AEBAXPEAV?$unique_ptr@VITool@ith@@U?$default_delete@VITool@ith@@@std@@@2@0@Z 000000014001a670 f i Shell.cpp.obj
 0001:000196e0       ?_Orphan_range_locked@?$vector@V?$unique_ptr@VITool@ith@@U?$default_delete@VITool@ith@@@std@@@std@@V?$allocator@V?$unique_ptr@VITool@ith@@U?$default_delete@VITool@ith@@@std@@@std@@@2@@std@@AEBAXPEAV?$unique_ptr@VITool@ith@@U?$default_delete@VITool@ith@@@std@@@2@0@Z 000000014001a6e0 f i Shell.cpp.obj
 0001:00019770       ?_Orphan_range_unlocked@?$vector@V?$unique_ptr@VITool@ith@@U?$default_delete@VITool@ith@@@std@@@std@@V?$allocator@V?$unique_ptr@VITool@ith@@U?$default_delete@VITool@ith@@@std@@@std@@@2@@std@@AEBAXPEAV?$unique_ptr@VITool@ith@@U?$default_delete@VITool@ith@@@std@@@2@0@Z 000000014001a770 f i Shell.cpp.obj
 0001:00019830       ?_Rehash_for_1@?$_Hash@V?$_Umap_traits@PEAVITool@ith@@V?$unique_ptr@VToolView@ith@@U?$default_delete@VToolView@ith@@@std@@@std@@V?$_Uhash_compare@PEAVITool@ith@@U?$hash@PEAVITool@ith@@@std@@U?$equal_to@PEAVITool@ith@@@4@@4@V?$allocator@U?$pair@QEAVITool@ith@@V?$unique_ptr@VToolView@ith@@U?$default_delete@VToolView@ith@@@std@@@std@@@std@@@4@$0A@@std@@@std@@IEAAXXZ 000000014001a830 f i Shell.cpp.obj
 0001:00019890       ?_Release@?$_Alloc_construct_ptr@V?$allocator@U?$_List_node@U?$pair@QEAVITool@ith@@V?$unique_ptr@VToolView@ith@@U?$default_delete@VToolView@ith@@@std@@@std@@@std@@PEAX@std@@@std@@@std@@QEAAPEAU?$_List_node@U?$pair@QEAVITool@ith@@V?$unique_ptr@VToolView@ith@@U?$default_delete@VToolView@ith@@@std@@@std@@@std@@PEAX@2@XZ 000000014001a890 f i Shell.cpp.obj
 0001:000198d0       ?_Release@?$_Alloc_construct_ptr@V?$allocator@U?$_Tree_node@U?$pair@$$CBV?$basic_string@_WU?$char_traits@_W@std@@V?$allocator@_W@2@@std@@PEAU_TREEITEM@@@std@@PEAX@std@@@std@@@std@@QEAAPEAU?$_Tree_node@U?$pair@$$CBV?$basic_string@_WU?$char_traits@_W@std@@V?$allocator@_W@2@@std@@PEAU_TREEITEM@@@std@@PEAX@2@XZ 000000014001a8d0 f i Shell.cpp.obj
 0001:00019910       ?_Release@?$_Uninitialized_backout@PEAV?$_List_unchecked_iterator@V?$_List_val@U?$_List_simple_types@U?$pair@QEAVITool@ith@@V?$unique_ptr@VToolView@ith@@U?$default_delete@VToolView@ith@@@std@@@std@@@std@@@std@@@std@@@std@@@std@@QEAAPEAV?$_List_unchecked_iterator@V?$_List_val@U?$_List_simple_types@U?$pair@QEAVITool@ith@@V?$unique_ptr@VToolView@ith@@U?$default_delete@VToolView@ith@@@std@@@std@@@std@@@std@@@std@@@2@XZ 000000014001a910 f i Shell.cpp.obj
 0001:00019940       ?_Release@?$_Uninitialized_backout_al@V?$allocator@V?$unique_ptr@VITool@ith@@U?$default_delete@VITool@ith@@@std@@@std@@@std@@@std@@QEAAPEAV?$unique_ptr@VITool@ith@@U?$default_delete@VITool@ith@@@std@@@2@XZ 000000014001a940 f i Shell.cpp.obj
 0001:00019970       ?_Release@_Basic_container_proxy_ptr12@std@@QEAAXXZ 000000014001a970 f i Shell.cpp.obj
 0001:00019990       ?_Rrotate@?$_Tree_val@U?$_Tree_simple_types@U?$pair@$$CBV?$basic_string@_WU?$char_traits@_W@std@@V?$allocator@_W@2@@std@@PEAU_TREEITEM@@@std@@@std@@@std@@QEAAXPEAU?$_Tree_node@U?$pair@$$CBV?$basic_string@_WU?$char_traits@_W@std@@V?$allocator@_W@2@@std@@PEAU_TREEITEM@@@std@@PEAX@2@@Z 000000014001a990 f i Shell.cpp.obj
 0001:00019ab0       ?_Swap_proxy_and_iterators@_Container_base12@std@@QEAAXAEAU12@@Z 000000014001aab0 f i Shell.cpp.obj
 0001:00019b10       ?_Swap_proxy_and_iterators_locked@_Container_base12@std@@AEAAXAEAU12@@Z 000000014001ab10 f i Shell.cpp.obj
 0001:00019b90       ?_Swap_proxy_and_iterators_unlocked@_Container_base12@std@@AEAAXAEAU12@@Z 000000014001ab90 f i Shell.cpp.obj
 0001:00019c20       ?_Switch_to_buf@_Bxty@?$_String_val@U?$_Simple_types@_W@std@@@std@@QEAAXXZ 000000014001ac20 f i Shell.cpp.obj
 0001:00019ca0       ?_Take_contents@?$_Vector_val@U?$_Simple_types@V?$unique_ptr@VITool@ith@@U?$default_delete@VITool@ith@@@std@@@std@@@std@@@std@@QEAAXAEAV12@@Z 000000014001aca0 f i Shell.cpp.obj
 0001:00019d50       ?_Throw_bad_array_new_length@std@@YAXXZ 000000014001ad50 f i Shell.cpp.obj
 0001:00019d90       ?_Throw_tree_length_error@std@@YAXXZ 000000014001ad90 f i Shell.cpp.obj
 0001:00019db0       ?_Tidy@?$_Hash_vec@V?$allocator@V?$_List_unchecked_iterator@V?$_List_val@U?$_List_simple_types@U?$pair@QEAVITool@ith@@V?$unique_ptr@VToolView@ith@@U?$default_delete@VToolView@ith@@@std@@@std@@@std@@@std@@@std@@@std@@@std@@@std@@QEAAXXZ 000000014001adb0 f i Shell.cpp.obj
 0001:00019e80       ?_Tidy@?$list@U?$pair@QEAVITool@ith@@V?$unique_ptr@VToolView@ith@@U?$default_delete@VToolView@ith@@@std@@@std@@@std@@V?$allocator@U?$pair@QEAVITool@ith@@V?$unique_ptr@VToolView@ith@@U?$default_delete@VToolView@ith@@@std@@@std@@@std@@@2@@std@@AEAAXXZ 000000014001ae80 f i Shell.cpp.obj
 0001:00019ef0       ?_Tidy@?$vector@V?$unique_ptr@VITool@ith@@U?$default_delete@VITool@ith@@@std@@@std@@V?$allocator@V?$unique_ptr@VITool@ith@@U?$default_delete@VITool@ith@@@std@@@std@@@2@@std@@AEAAXXZ 000000014001aef0 f i Shell.cpp.obj
 0001:0001a000       ?_Tidy_deallocate@?$basic_string@_WU?$char_traits@_W@std@@V?$allocator@_W@2@@std@@AEAAXXZ 000000014001b000 f i Shell.cpp.obj
 0001:0001a0f0       ?_Unchecked_begin@?$_Hash@V?$_Umap_traits@PEAVITool@ith@@V?$unique_ptr@VToolView@ith@@U?$default_delete@VToolView@ith@@@std@@@std@@V?$_Uhash_compare@PEAVITool@ith@@U?$hash@PEAVITool@ith@@@std@@U?$equal_to@PEAVITool@ith@@@4@@4@V?$allocator@U?$pair@QEAVITool@ith@@V?$unique_ptr@VToolView@ith@@U?$default_delete@VToolView@ith@@@std@@@std@@@std@@@4@$0A@@std@@@std@@QEAA?AV?$_List_unchecked_iterator@V?$_List_val@U?$_List_simple_types@U?$pair@QEAVITool@ith@@V?$unique_ptr@VToolView@ith@@U?$default_delete@VToolView@ith@@@std@@@std@@@std@@@std@@@std@@@2@XZ 000000014001b0f0 f i Shell.cpp.obj
 0001:0001a140       ?_Unchecked_begin@?$_Tree@V?$_Tmap_traits@V?$basic_string@_WU?$char_traits@_W@std@@V?$allocator@_W@2@@std@@PEAU_TREEITEM@@U?$less@V?$basic_string@_WU?$char_traits@_W@std@@V?$allocator@_W@2@@std@@@2@V?$allocator@U?$pair@$$CBV?$basic_string@_WU?$char_traits@_W@std@@V?$allocator@_W@2@@std@@PEAU_TREEITEM@@@std@@@2@$0A@@std@@@std@@QEAA?AV?$_Tree_unchecked_iterator@V?$_Tree_val@U?$_Tree_simple_types@U?$pair@$$CBV?$basic_string@_WU?$char_traits@_W@std@@V?$allocator@_W@2@@std@@PEAU_TREEITEM@@@std@@@std@@@std@@@2@XZ 000000014001b140 f i Shell.cpp.obj
 0001:0001a190       ?_Unchecked_begin@?$list@U?$pair@QEAVITool@ith@@V?$unique_ptr@VToolView@ith@@U?$default_delete@VToolView@ith@@@std@@@std@@@std@@V?$allocator@U?$pair@QEAVITool@ith@@V?$unique_ptr@VToolView@ith@@U?$default_delete@VToolView@ith@@@std@@@std@@@std@@@2@@std@@QEAA?AV?$_List_unchecked_iterator@V?$_List_val@U?$_List_simple_types@U?$pair@QEAVITool@ith@@V?$unique_ptr@VToolView@ith@@U?$default_delete@VToolView@ith@@@std@@@std@@@std@@@std@@@std@@@2@XZ 000000014001b190 f i Shell.cpp.obj
 0001:0001a1d0       ?_Unchecked_begin@?$vector@V?$unique_ptr@VITool@ith@@U?$default_delete@VITool@ith@@@std@@@std@@V?$allocator@V?$unique_ptr@VITool@ith@@U?$default_delete@VITool@ith@@@std@@@std@@@2@@std@@QEAAPEAV?$unique_ptr@VITool@ith@@U?$default_delete@VITool@ith@@@std@@@2@XZ 000000014001b1d0 f i Shell.cpp.obj
 0001:0001a200       ?_Unchecked_end@?$_Hash@V?$_Umap_traits@PEAVITool@ith@@V?$unique_ptr@VToolView@ith@@U?$default_delete@VToolView@ith@@@std@@@std@@V?$_Uhash_compare@PEAVITool@ith@@U?$hash@PEAVITool@ith@@@std@@U?$equal_to@PEAVITool@ith@@@4@@4@V?$allocator@U?$pair@QEAVITool@ith@@V?$unique_ptr@VToolView@ith@@U?$default_delete@VToolView@ith@@@std@@@std@@@std@@@4@$0A@@std@@@std@@QEAA?AV?$_List_unchecked_iterator@V?$_List_val@U?$_List_simple_types@U?$pair@QEAVITool@ith@@V?$unique_ptr@VToolView@ith@@U?$default_delete@VToolView@ith@@@std@@@std@@@std@@@std@@@std@@@2@XZ 000000014001b200 f i Shell.cpp.obj
 0001:0001a250       ?_Unchecked_end@?$_Tree@V?$_Tmap_traits@V?$basic_string@_WU?$char_traits@_W@std@@V?$allocator@_W@2@@std@@PEAU_TREEITEM@@U?$less@V?$basic_string@_WU?$char_traits@_W@std@@V?$allocator@_W@2@@std@@@2@V?$allocator@U?$pair@$$CBV?$basic_string@_WU?$char_traits@_W@std@@V?$allocator@_W@2@@std@@PEAU_TREEITEM@@@std@@@2@$0A@@std@@@std@@QEBA?AU_Default_sentinel@2@XZ 000000014001b250 f i Shell.cpp.obj
 0001:0001a280       ?_Unchecked_end@?$list@U?$pair@QEAVITool@ith@@V?$unique_ptr@VToolView@ith@@U?$default_delete@VToolView@ith@@@std@@@std@@@std@@V?$allocator@U?$pair@QEAVITool@ith@@V?$unique_ptr@VToolView@ith@@U?$default_delete@VToolView@ith@@@std@@@std@@@std@@@2@@std@@QEAA?AV?$_List_unchecked_iterator@V?$_List_val@U?$_List_simple_types@U?$pair@QEAVITool@ith@@V?$unique_ptr@VToolView@ith@@U?$default_delete@VToolView@ith@@@std@@@std@@@std@@@std@@@std@@@2@XZ 000000014001b280 f i Shell.cpp.obj
 0001:0001a2c0       ?_Unchecked_end@?$vector@V?$unique_ptr@VITool@ith@@U?$default_delete@VITool@ith@@@std@@@std@@V?$allocator@V?$unique_ptr@VITool@ith@@U?$default_delete@VITool@ith@@@std@@@std@@@2@@std@@QEAAPEAV?$unique_ptr@VITool@ith@@U?$default_delete@VITool@ith@@@std@@@2@XZ 000000014001b2c0 f i Shell.cpp.obj
 0001:0001a2f0       ?_Unchecked_erase@?$_Hash@V?$_Umap_traits@PEAVITool@ith@@V?$unique_ptr@VToolView@ith@@U?$default_delete@VToolView@ith@@@std@@@std@@V?$_Uhash_compare@PEAVITool@ith@@U?$hash@PEAVITool@ith@@@std@@U?$equal_to@PEAVITool@ith@@@4@@4@V?$allocator@U?$pair@QEAVITool@ith@@V?$unique_ptr@VToolView@ith@@U?$default_delete@VToolView@ith@@@std@@@std@@@std@@@4@$0A@@std@@@std@@AEAAPEAU?$_List_node@U?$pair@QEAVITool@ith@@V?$unique_ptr@VToolView@ith@@U?$default_delete@VToolView@ith@@@std@@@std@@@std@@PEAX@2@PEAU32@QEAU32@@Z 000000014001b2f0 f i Shell.cpp.obj
 0001:0001a750       ?_Unchecked_erase@?$list@U?$pair@QEAVITool@ith@@V?$unique_ptr@VToolView@ith@@U?$default_delete@VToolView@ith@@@std@@@std@@@std@@V?$allocator@U?$pair@QEAVITool@ith@@V?$unique_ptr@VToolView@ith@@U?$default_delete@VToolView@ith@@@std@@@std@@@std@@@2@@std@@AEAAPEAU?$_List_node@U?$pair@QEAVITool@ith@@V?$unique_ptr@VToolView@ith@@U?$default_delete@VToolView@ith@@@std@@@std@@@std@@PEAX@2@PEAU32@QEAU32@@Z 000000014001b750 f i Shell.cpp.obj
 0001:0001aa20       ?_Unchecked_splice@?$_List_val@U?$_List_simple_types@U?$pair@QEAVITool@ith@@V?$unique_ptr@VToolView@ith@@U?$default_delete@VToolView@ith@@@std@@@std@@@std@@@std@@@std@@SAPEAU?$_List_node@U?$pair@QEAVITool@ith@@V?$unique_ptr@VToolView@ith@@U?$default_delete@VToolView@ith@@@std@@@std@@@std@@PEAX@2@QEAU32@00@Z 000000014001ba20 f i Shell.cpp.obj
 0001:0001aae0       ?_Xlen_string@std@@YAXXZ   000000014001bae0 f i Shell.cpp.obj
 0001:0001ab00       ?_Xlength@?$vector@V?$unique_ptr@VITool@ith@@U?$default_delete@VITool@ith@@@std@@@std@@V?$allocator@V?$unique_ptr@VITool@ith@@U?$default_delete@VITool@ith@@@std@@@std@@@2@@std@@CAXXZ 000000014001bb00 f i Shell.cpp.obj
 0001:0001ab20       ?allocate@?$allocator@U?$_List_node@U?$pair@QEAVITool@ith@@V?$unique_ptr@VToolView@ith@@U?$default_delete@VToolView@ith@@@std@@@std@@@std@@PEAX@std@@@std@@QEAAPEAU?$_List_node@U?$pair@QEAVITool@ith@@V?$unique_ptr@VToolView@ith@@U?$default_delete@VToolView@ith@@@std@@@std@@@std@@PEAX@2@_K@Z 000000014001bb20 f i Shell.cpp.obj
 0001:0001ab50       ?allocate@?$allocator@U?$_Tree_node@U?$pair@$$CBV?$basic_string@_WU?$char_traits@_W@std@@V?$allocator@_W@2@@std@@PEAU_TREEITEM@@@std@@PEAX@std@@@std@@QEAAPEAU?$_Tree_node@U?$pair@$$CBV?$basic_string@_WU?$char_traits@_W@std@@V?$allocator@_W@2@@std@@PEAU_TREEITEM@@@std@@PEAX@2@_K@Z 000000014001bb50 f i Shell.cpp.obj
 0001:0001ab80       ?allocate@?$allocator@U_Container_proxy@std@@@std@@QEAAPEAU_Container_proxy@2@_K@Z 000000014001bb80 f i Shell.cpp.obj
 0001:0001abb0       ?allocate@?$allocator@V?$_List_unchecked_iterator@V?$_List_val@U?$_List_simple_types@U?$pair@QEAVITool@ith@@V?$unique_ptr@VToolView@ith@@U?$default_delete@VToolView@ith@@@std@@@std@@@std@@@std@@@std@@@std@@@std@@QEAAPEAV?$_List_unchecked_iterator@V?$_List_val@U?$_List_simple_types@U?$pair@QEAVITool@ith@@V?$unique_ptr@VToolView@ith@@U?$default_delete@VToolView@ith@@@std@@@std@@@std@@@std@@@std@@@2@_K@Z 000000014001bbb0 f i Shell.cpp.obj
 0001:0001abe0       ?allocate@?$allocator@V?$unique_ptr@VITool@ith@@U?$default_delete@VITool@ith@@@std@@@std@@@std@@QEAAPEAV?$unique_ptr@VITool@ith@@U?$default_delete@VITool@ith@@@std@@@2@_K@Z 000000014001bbe0 f i Shell.cpp.obj
 0001:0001ac10       ?allocate@?$allocator@_W@std@@QEAAPEA_W_K@Z 000000014001bc10 f i Shell.cpp.obj
 0001:0001ac40       ?assign@?$_WChar_traits@_W@std@@SAXAEA_WAEB_W@Z 000000014001bc40 f i Shell.cpp.obj
 0001:0001ac70       ?bucket@?$_Hash@V?$_Umap_traits@PEAVITool@ith@@V?$unique_ptr@VToolView@ith@@U?$default_delete@VToolView@ith@@@std@@@std@@V?$_Uhash_compare@PEAVITool@ith@@U?$hash@PEAVITool@ith@@@std@@U?$equal_to@PEAVITool@ith@@@4@@4@V?$allocator@U?$pair@QEAVITool@ith@@V?$unique_ptr@VToolView@ith@@U?$default_delete@VToolView@ith@@@std@@@std@@@std@@@4@$0A@@std@@@std@@QEBA_KAEBQEAVITool@ith@@@Z 000000014001bc70 f i Shell.cpp.obj
 0001:0001ace0       ?bucket_count@?$_Hash@V?$_Umap_traits@PEAVITool@ith@@V?$unique_ptr@VToolView@ith@@U?$default_delete@VToolView@ith@@@std@@@std@@V?$_Uhash_compare@PEAVITool@ith@@U?$hash@PEAVITool@ith@@@std@@U?$equal_to@PEAVITool@ith@@@4@@4@V?$allocator@U?$pair@QEAVITool@ith@@V?$unique_ptr@VToolView@ith@@U?$default_delete@VToolView@ith@@@std@@@std@@@std@@@4@$0A@@std@@@std@@QEBA_KXZ 000000014001bce0 f i Shell.cpp.obj
 0001:0001ad00       ?c_str@?$basic_string@_WU?$char_traits@_W@std@@V?$allocator@_W@2@@std@@QEBAPEB_WXZ 000000014001bd00 f i Shell.cpp.obj
 0001:0001ad30       ?capacity@?$_Hash_vec@V?$allocator@V?$_List_unchecked_iterator@V?$_List_val@U?$_List_simple_types@U?$pair@QEAVITool@ith@@V?$unique_ptr@VToolView@ith@@U?$default_delete@VToolView@ith@@@std@@@std@@@std@@@std@@@std@@@std@@@std@@@std@@QEBA_KXZ 000000014001bd30 f i Shell.cpp.obj
 0001:0001ad60       ?capacity@?$vector@V?$unique_ptr@VITool@ith@@U?$default_delete@VITool@ith@@@std@@@std@@V?$allocator@V?$unique_ptr@VITool@ith@@U?$default_delete@VITool@ith@@@std@@@std@@@2@@std@@QEBA_KXZ 000000014001bd60 f i Shell.cpp.obj
 0001:0001ada0       ?clear@?$_Hash@V?$_Umap_traits@PEAVITool@ith@@V?$unique_ptr@VToolView@ith@@U?$default_delete@VToolView@ith@@@std@@@std@@V?$_Uhash_compare@PEAVITool@ith@@U?$hash@PEAVITool@ith@@@std@@U?$equal_to@PEAVITool@ith@@@4@@4@V?$allocator@U?$pair@QEAVITool@ith@@V?$unique_ptr@VToolView@ith@@U?$default_delete@VToolView@ith@@@std@@@std@@@std@@@4@$0A@@std@@@std@@QEAAXXZ 000000014001bda0 f i Shell.cpp.obj
 0001:0001aea0       ?clear@?$list@U?$pair@QEAVITool@ith@@V?$unique_ptr@VToolView@ith@@U?$default_delete@VToolView@ith@@@std@@@std@@@std@@V?$allocator@U?$pair@QEAVITool@ith@@V?$unique_ptr@VToolView@ith@@U?$default_delete@VToolView@ith@@@std@@@std@@@std@@@2@@std@@QEAAXXZ 000000014001bea0 f i Shell.cpp.obj
 0001:0001af50       ?compare@?$_WChar_traits@_W@std@@SAHQEB_W0_K@Z 000000014001bf50 f i Shell.cpp.obj
 0001:0001b0b0       ?compare@?$basic_string@_WU?$char_traits@_W@std@@V?$allocator@_W@2@@std@@QEBAHAEBV12@@Z 000000014001c0b0 f i Shell.cpp.obj
 0001:0001b140       ?copy@?$_Char_traits@_WG@std@@SAPEA_WQEA_WQEB_W_K@Z 000000014001c140 f i Shell.cpp.obj
 0001:0001b200       ?deallocate@?$_Default_allocator_traits@V?$allocator@U?$_List_node@U?$pair@QEAVITool@ith@@V?$unique_ptr@VToolView@ith@@U?$default_delete@VToolView@ith@@@std@@@std@@@std@@PEAX@std@@@std@@@std@@SAXAEAV?$allocator@U?$_List_node@U?$pair@QEAVITool@ith@@V?$unique_ptr@VToolView@ith@@U?$default_delete@VToolView@ith@@@std@@@std@@@std@@PEAX@std@@@2@QEAU?$_List_node@U?$pair@QEAVITool@ith@@V?$unique_ptr@VToolView@ith@@U?$default_delete@VToolView@ith@@@std@@@std@@@std@@PEAX@2@_K@Z 000000014001c200 f i Shell.cpp.obj
 0001:0001b270       ?deallocate@?$_Default_allocator_traits@V?$allocator@U?$_Tree_node@U?$pair@$$CBV?$basic_string@_WU?$char_traits@_W@std@@V?$allocator@_W@2@@std@@PEAU_TREEITEM@@@std@@PEAX@std@@@std@@@std@@SAXAEAV?$allocator@U?$_Tree_node@U?$pair@$$CBV?$basic_string@_WU?$char_traits@_W@std@@V?$allocator@_W@2@@std@@PEAU_TREEITEM@@@std@@PEAX@std@@@2@QEAU?$_Tree_node@U?$pair@$$CBV?$basic_string@_WU?$char_traits@_W@std@@V?$allocator@_W@2@@std@@PEAU_TREEITEM@@@std@@PEAX@2@_K@Z 000000014001c270 f i Shell.cpp.obj
 0001:0001b2e0       ?deallocate@?$_Default_allocator_traits@V?$allocator@U_Container_proxy@std@@@std@@@std@@SAXAEAV?$allocator@U_Container_proxy@std@@@2@QEAU_Container_proxy@2@_K@Z 000000014001c2e0 f i Shell.cpp.obj
 0001:0001b350       ?deallocate@?$allocator@U?$_List_node@U?$pair@QEAVITool@ith@@V?$unique_ptr@VToolView@ith@@U?$default_delete@VToolView@ith@@@std@@@std@@@std@@PEAX@std@@@std@@QEAAXQEAU?$_List_node@U?$pair@QEAVITool@ith@@V?$unique_ptr@VToolView@ith@@U?$default_delete@VToolView@ith@@@std@@@std@@@std@@PEAX@2@_K@Z 000000014001c350 f i Shell.cpp.obj
 0001:0001b3f0       ?deallocate@?$allocator@U?$_Tree_node@U?$pair@$$CBV?$basic_string@_WU?$char_traits@_W@std@@V?$allocator@_W@2@@std@@PEAU_TREEITEM@@@std@@PEAX@std@@@std@@QEAAXQEAU?$_Tree_node@U?$pair@$$CBV?$basic_string@_WU?$char_traits@_W@std@@V?$allocator@_W@2@@std@@PEAU_TREEITEM@@@std@@PEAX@2@_K@Z 000000014001c3f0 f i Shell.cpp.obj
 0001:0001b490       ?deallocate@?$allocator@U_Container_proxy@std@@@std@@QEAAXQEAU_Container_proxy@2@_K@Z 000000014001c490 f i Shell.cpp.obj
 0001:0001b530       ?deallocate@?$allocator@V?$_List_unchecked_iterator@V?$_List_val@U?$_List_simple_types@U?$pair@QEAVITool@ith@@V?$unique_ptr@VToolView@ith@@U?$default_delete@VToolView@ith@@@std@@@std@@@std@@@std@@@std@@@std@@@std@@QEAAXQEAV?$_List_unchecked_iterator@V?$_List_val@U?$_List_simple_types@U?$pair@QEAVITool@ith@@V?$unique_ptr@VToolView@ith@@U?$default_delete@VToolView@ith@@@std@@@std@@@std@@@std@@@std@@@2@_K@Z 000000014001c530 f i Shell.cpp.obj
 0001:0001b5e0       ?deallocate@?$allocator@V?$unique_ptr@VITool@ith@@U?$default_delete@VITool@ith@@@std@@@std@@@std@@QEAAXQEAV?$unique_ptr@VITool@ith@@U?$default_delete@VITool@ith@@@std@@@2@_K@Z 000000014001c5e0 f i Shell.cpp.obj
 0001:0001b690       ?deallocate@?$allocator@_W@std@@QEAAXQEA_W_K@Z 000000014001c690 f i Shell.cpp.obj
 0001:0001b740       ?end@?$_Hash@V?$_Umap_traits@PEAVITool@ith@@V?$unique_ptr@VToolView@ith@@U?$default_delete@VToolView@ith@@@std@@@std@@V?$_Uhash_compare@PEAVITool@ith@@U?$hash@PEAVITool@ith@@@std@@U?$equal_to@PEAVITool@ith@@@4@@4@V?$allocator@U?$pair@QEAVITool@ith@@V?$unique_ptr@VToolView@ith@@U?$default_delete@VToolView@ith@@@std@@@std@@@std@@@4@$0A@@std@@@std@@QEAA?AV?$_List_iterator@V?$_List_val@U?$_List_simple_types@U?$pair@QEAVITool@ith@@V?$unique_ptr@VToolView@ith@@U?$default_delete@VToolView@ith@@@std@@@std@@@std@@@std@@@std@@@2@XZ 000000014001c740 f i Shell.cpp.obj
 0001:0001b790       ?end@?$_Tree@V?$_Tmap_traits@V?$basic_string@_WU?$char_traits@_W@std@@V?$allocator@_W@2@@std@@PEAU_TREEITEM@@U?$less@V?$basic_string@_WU?$char_traits@_W@std@@V?$allocator@_W@2@@std@@@2@V?$allocator@U?$pair@$$CBV?$basic_string@_WU?$char_traits@_W@std@@V?$allocator@_W@2@@std@@PEAU_TREEITEM@@@std@@@2@$0A@@std@@@std@@QEAA?AV?$_Tree_iterator@V?$_Tree_val@U?$_Tree_simple_types@U?$pair@$$CBV?$basic_string@_WU?$char_traits@_W@std@@V?$allocator@_W@2@@std@@PEAU_TREEITEM@@@std@@@std@@@std@@@2@XZ 000000014001c790 f i Shell.cpp.obj
 0001:0001b7f0       ?end@?$list@U?$pair@QEAVITool@ith@@V?$unique_ptr@VToolView@ith@@U?$default_delete@VToolView@ith@@@std@@@std@@@std@@V?$allocator@U?$pair@QEAVITool@ith@@V?$unique_ptr@VToolView@ith@@U?$default_delete@VToolView@ith@@@std@@@std@@@std@@@2@@std@@QEAA?AV?$_List_iterator@V?$_List_val@U?$_List_simple_types@U?$pair@QEAVITool@ith@@V?$unique_ptr@VToolView@ith@@U?$default_delete@VToolView@ith@@@std@@@std@@@std@@@std@@@std@@@2@XZ 000000014001c7f0 f i Shell.cpp.obj
 0001:0001b860       ?find@?$_Hash@V?$_Umap_traits@PEAVITool@ith@@V?$unique_ptr@VToolView@ith@@U?$default_delete@VToolView@ith@@@std@@@std@@V?$_Uhash_compare@PEAVITool@ith@@U?$hash@PEAVITool@ith@@@std@@U?$equal_to@PEAVITool@ith@@@4@@4@V?$allocator@U?$pair@QEAVITool@ith@@V?$unique_ptr@VToolView@ith@@U?$default_delete@VToolView@ith@@@std@@@std@@@std@@@4@$0A@@std@@@std@@QEAA?AV?$_List_iterator@V?$_List_val@U?$_List_simple_types@U?$pair@QEAVITool@ith@@V?$unique_ptr@VToolView@ith@@U?$default_delete@VToolView@ith@@@std@@@std@@@std@@@std@@@std@@@2@AEBQEAVITool@ith@@@Z 000000014001c860 f i Shell.cpp.obj
 0001:0001b900       ?find@?$_Tree@V?$_Tmap_traits@V?$basic_string@_WU?$char_traits@_W@std@@V?$allocator@_W@2@@std@@PEAU_TREEITEM@@U?$less@V?$basic_string@_WU?$char_traits@_W@std@@V?$allocator@_W@2@@std@@@2@V?$allocator@U?$pair@$$CBV?$basic_string@_WU?$char_traits@_W@std@@V?$allocator@_W@2@@std@@PEAU_TREEITEM@@@std@@@2@$0A@@std@@@std@@QEAA?AV?$_Tree_iterator@V?$_Tree_val@U?$_Tree_simple_types@U?$pair@$$CBV?$basic_string@_WU?$char_traits@_W@std@@V?$allocator@_W@2@@std@@PEAU_TREEITEM@@@std@@@std@@@std@@@2@AEBV?$basic_string@_WU?$char_traits@_W@std@@V?$allocator@_W@2@@2@@Z 000000014001c900 f i Shell.cpp.obj
 0001:0001b990       ?get@?$unique_ptr@VITool@ith@@U?$default_delete@VITool@ith@@@std@@@std@@QEBAPEAVITool@ith@@XZ 000000014001c990 f i Shell.cpp.obj
 0001:0001b9b0       ?get@?$unique_ptr@VToolView@ith@@U?$default_delete@VToolView@ith@@@std@@@std@@QEBAPEAVToolView@ith@@XZ 000000014001c9b0 f i Shell.cpp.obj
 0001:0001b9d0       ?get_deleter@?$unique_ptr@VAdQueryTool@ith@@U?$default_delete@VAdQueryTool@ith@@@std@@@std@@QEAAAEAU?$default_delete@VAdQueryTool@ith@@@2@XZ 000000014001c9d0 f i Shell.cpp.obj
 0001:0001ba00       ?get_deleter@?$unique_ptr@VITool@ith@@U?$default_delete@VITool@ith@@@std@@@std@@QEAAAEAU?$default_delete@VITool@ith@@@2@XZ 000000014001ca00 f i Shell.cpp.obj
 0001:0001ba30       ?get_deleter@?$unique_ptr@VToolView@ith@@U?$default_delete@VToolView@ith@@@std@@@std@@QEAAAEAU?$default_delete@VToolView@ith@@@2@XZ 000000014001ca30 f i Shell.cpp.obj
 0001:0001ba60       ?is_constant_evaluated@std@@YA_NXZ 000000014001ca60 f i Shell.cpp.obj
 0001:0001ba70       ?length@?$_WChar_traits@_W@std@@SA_KPEB_W@Z 000000014001ca70 f i Shell.cpp.obj
 0001:0001bab0       ?max_load_factor@?$_Hash@V?$_Umap_traits@PEAVITool@ith@@V?$unique_ptr@VToolView@ith@@U?$default_delete@VToolView@ith@@@std@@@std@@V?$_Uhash_compare@PEAVITool@ith@@U?$hash@PEAVITool@ith@@@std@@U?$equal_to@PEAVITool@ith@@@4@@4@V?$allocator@U?$pair@QEAVITool@ith@@V?$unique_ptr@VToolView@ith@@U?$default_delete@VToolView@ith@@@std@@@std@@@std@@@4@$0A@@std@@@std@@QEBAMXZ 000000014001cab0 f i Shell.cpp.obj
 0001:0001bae0       ?max_size@?$_Default_allocator_traits@V?$allocator@U?$_List_node@U?$pair@QEAVITool@ith@@V?$unique_ptr@VToolView@ith@@U?$default_delete@VToolView@ith@@@std@@@std@@@std@@PEAX@std@@@std@@@std@@SA_KAEBV?$allocator@U?$_List_node@U?$pair@QEAVITool@ith@@V?$unique_ptr@VToolView@ith@@U?$default_delete@VToolView@ith@@@std@@@std@@@std@@PEAX@std@@@2@@Z 000000014001cae0 f i Shell.cpp.obj
 0001:0001bb00       ?max_size@?$_Default_allocator_traits@V?$allocator@U?$_Tree_node@U?$pair@$$CBV?$basic_string@_WU?$char_traits@_W@std@@V?$allocator@_W@2@@std@@PEAU_TREEITEM@@@std@@PEAX@std@@@std@@@std@@SA_KAEBV?$allocator@U?$_Tree_node@U?$pair@$$CBV?$basic_string@_WU?$char_traits@_W@std@@V?$allocator@_W@2@@std@@PEAU_TREEITEM@@@std@@PEAX@std@@@2@@Z 000000014001cb00 f i Shell.cpp.obj
 0001:0001bb20       ?max_size@?$_Default_allocator_traits@V?$allocator@V?$_List_unchecked_iterator@V?$_List_val@U?$_List_simple_types@U?$pair@QEAVITool@ith@@V?$unique_ptr@VToolView@ith@@U?$default_delete@VToolView@ith@@@std@@@std@@@std@@@std@@@std@@@std@@@std@@@std@@SA_KAEBV?$allocator@V?$_List_unchecked_iterator@V?$_List_val@U?$_List_simple_types@U?$pair@QEAVITool@ith@@V?$unique_ptr@VToolView@ith@@U?$default_delete@VToolView@ith@@@std@@@std@@@std@@@std@@@std@@@std@@@2@@Z 000000014001cb20 f i Shell.cpp.obj
 0001:0001bb40       ?max_size@?$_Default_allocator_traits@V?$allocator@V?$unique_ptr@VITool@ith@@U?$default_delete@VITool@ith@@@std@@@std@@@std@@@std@@SA_KAEBV?$allocator@V?$unique_ptr@VITool@ith@@U?$default_delete@VITool@ith@@@std@@@std@@@2@@Z 000000014001cb40 f i Shell.cpp.obj
 0001:0001bb60       ?max_size@?$_Default_allocator_traits@V?$allocator@_W@std@@@std@@SA_KAEBV?$allocator@_W@2@@Z 000000014001cb60 f i Shell.cpp.obj
 0001:0001bb80       ?max_size@?$_Hash_vec@V?$allocator@V?$_List_unchecked_iterator@V?$_List_val@U?$_List_simple_types@U?$pair@QEAVITool@ith@@V?$unique_ptr@VToolView@ith@@U?$default_delete@VToolView@ith@@@std@@@std@@@std@@@std@@@std@@@std@@@std@@@std@@QEBA_KXZ 000000014001cb80 f i Shell.cpp.obj
 0001:0001bbe0       ?max_size@?$_Tree@V?$_Tmap_traits@V?$basic_string@_WU?$char_traits@_W@std@@V?$allocator@_W@2@@std@@PEAU_TREEITEM@@U?$less@V?$basic_string@_WU?$char_traits@_W@std@@V?$allocator@_W@2@@std@@@2@V?$allocator@U?$pair@$$CBV?$basic_string@_WU?$char_traits@_W@std@@V?$allocator@_W@2@@std@@PEAU_TREEITEM@@@std@@@2@$0A@@std@@@std@@QEBA_KXZ 000000014001cbe0 f i Shell.cpp.obj
 0001:0001bc40       ?max_size@?$basic_string@_WU?$char_traits@_W@std@@V?$allocator@_W@2@@std@@QEBA_KXZ 000000014001cc40 f i Shell.cpp.obj
 0001:0001bd10       ?max_size@?$list@U?$pair@QEAVITool@ith@@V?$unique_ptr@VToolView@ith@@U?$default_delete@VToolView@ith@@@std@@@std@@@std@@V?$allocator@U?$pair@QEAVITool@ith@@V?$unique_ptr@VToolView@ith@@U?$default_delete@VToolView@ith@@@std@@@std@@@std@@@2@@std@@QEBA_KXZ 000000014001cd10 f i Shell.cpp.obj
 0001:0001bd70       ?max_size@?$vector@V?$unique_ptr@VITool@ith@@U?$default_delete@VITool@ith@@@std@@@std@@V?$allocator@V?$unique_ptr@VITool@ith@@U?$default_delete@VITool@ith@@@std@@@std@@@2@@std@@QEBA_KXZ 000000014001cd70 f i Shell.cpp.obj
 0001:0001bdd0       ?pointer_to@?$pointer_traits@PEAU?$pair@$$CBV?$basic_string@_WU?$char_traits@_W@std@@V?$allocator@_W@2@@std@@PEAU_TREEITEM@@@std@@@std@@SAPEAU?$pair@$$CBV?$basic_string@_WU?$char_traits@_W@std@@V?$allocator@_W@2@@std@@PEAU_TREEITEM@@@2@AEAU32@@Z 000000014001cdd0 f i Shell.cpp.obj
 0001:0001bdf0       ?pointer_to@?$pointer_traits@PEAU?$pair@QEAVITool@ith@@V?$unique_ptr@VToolView@ith@@U?$default_delete@VToolView@ith@@@std@@@std@@@std@@@std@@SAPEAU?$pair@QEAVITool@ith@@V?$unique_ptr@VToolView@ith@@U?$default_delete@VToolView@ith@@@std@@@std@@@2@AEAU32@@Z 000000014001cdf0 f i Shell.cpp.obj
 0001:0001be10       ?push_back@?$vector@V?$unique_ptr@VITool@ith@@U?$default_delete@VITool@ith@@@std@@@std@@V?$allocator@V?$unique_ptr@VITool@ith@@U?$default_delete@VITool@ith@@@std@@@std@@@2@@std@@QEAAX$$QEAV?$unique_ptr@VITool@ith@@U?$default_delete@VITool@ith@@@std@@@2@@Z 000000014001ce10 f i Shell.cpp.obj
 0001:0001be40       ?release@?$unique_ptr@VAdQueryTool@ith@@U?$default_delete@VAdQueryTool@ith@@@std@@@std@@QEAAPEAVAdQueryTool@ith@@XZ 000000014001ce40 f i Shell.cpp.obj
 0001:0001be80       ?release@?$unique_ptr@VITool@ith@@U?$default_delete@VITool@ith@@@std@@@std@@QEAAPEAVITool@ith@@XZ 000000014001ce80 f i Shell.cpp.obj
 0001:0001bec0       ?release@?$unique_ptr@VToolView@ith@@U?$default_delete@VToolView@ith@@@std@@@std@@QEAAPEAVToolView@ith@@XZ 000000014001cec0 f i Shell.cpp.obj
 0001:0001bf00       ?select_on_container_copy_construction@?$_Default_allocator_traits@V?$allocator@_W@std@@@std@@SA?AV?$allocator@_W@2@AEBV32@@Z 000000014001cf00 f i Shell.cpp.obj
 0001:0001bf20       ?size@?$_Hash_vec@V?$allocator@V?$_List_unchecked_iterator@V?$_List_val@U?$_List_simple_types@U?$pair@QEAVITool@ith@@V?$unique_ptr@VToolView@ith@@U?$default_delete@VToolView@ith@@@std@@@std@@@std@@@std@@@std@@@std@@@std@@@std@@QEBA_KXZ 000000014001cf20 f i Shell.cpp.obj
 0001:0001bf50       ?what@exception@std@@UEBAPEBDXZ 000000014001cf50 f i Shell.cpp.obj
 0001:0001bfa0       ?RunAdQuery@ith@@YA?AV?$unique_ptr@UAdResult@ith@@U?$default_delete@UAdResult@ith@@@std@@@std@@AEBUAdQueryRequest@1@@Z 000000014001cfa0 f   AdQuery.cpp.obj
 0001:00022010       ??$?0$$V@?$_Compressed_pair@V?$allocator@E@std@@V?$_Vector_val@U?$_Simple_types@E@std@@@2@$00@std@@QEAA@U_Zero_then_variadic_args_t@1@@Z 0000000140023010 f i AdQuery.cpp.obj
 0001:00022050       ??$?0$$V@?$_Compressed_pair@V?$allocator@PEA_W@std@@V?$_Vector_val@U?$_Simple_types@PEA_W@std@@@2@$00@std@@QEAA@U_Zero_then_variadic_args_t@1@@Z 0000000140023050 f i AdQuery.cpp.obj
 0001:00022090       ??$?0$$V@?$_Compressed_pair@V?$allocator@UInfoPair@ith@@@std@@V?$_Vector_val@U?$_Simple_types@UInfoPair@ith@@@std@@@2@$00@std@@QEAA@U_Zero_then_variadic_args_t@1@@Z 0000000140023090 f i AdQuery.cpp.obj
 0001:000220d0       ??$?0$$V@?$_Compressed_pair@V?$allocator@UNamedEntry@ith@@@std@@V?$_Vector_val@U?$_Simple_types@UNamedEntry@ith@@@std@@@2@$00@std@@QEAA@U_Zero_then_variadic_args_t@1@@Z 00000001400230d0 f i AdQuery.cpp.obj
 0001:00022110       ??$?0$$V@?$_Compressed_pair@V?$allocator@V?$basic_string@_WU?$char_traits@_W@std@@V?$allocator@_W@2@@std@@@std@@V?$_Vector_val@U?$_Simple_types@V?$basic_string@_WU?$char_traits@_W@std@@V?$allocator@_W@2@@std@@@std@@@2@$00@std@@QEAA@U_Zero_then_variadic_args_t@1@@Z 0000000140023110 f i AdQuery.cpp.obj
 0001:00022150       ??$?0AEAPEAUAdResult@ith@@@?$_Compressed_pair@U?$default_delete@UAdResult@ith@@@std@@PEAUAdResult@ith@@$00@std@@QEAA@U_Zero_then_variadic_args_t@1@AEAPEAUAdResult@ith@@@Z 0000000140023150 f i AdQuery.cpp.obj
 0001:00022180       ??$?0AEAPEAUNamedEntry@ith@@AEAPEAU01@$0A@@?$pair@PEAUNamedEntry@ith@@PEAU12@@std@@QEAA@AEAPEAUNamedEntry@ith@@0@Z 0000000140023180 f i AdQuery.cpp.obj
 0001:00022280       ??$?0AEAV?$basic_string@_WU?$char_traits@_W@std@@V?$allocator@_W@2@@std@@$0A@@?$optional@V?$basic_string@_WU?$char_traits@_W@std@@V?$allocator@_W@2@@std@@@std@@QEAA@AEAV?$basic_string@_WU?$char_traits@_W@std@@V?$allocator@_W@2@@1@@Z 0000000140023280 f i AdQuery.cpp.obj
 0001:000222c0       ??$?0AEAV?$basic_string@_WU?$char_traits@_W@std@@V?$allocator@_W@2@@std@@@?$_Non_trivial_copy@U?$_Optional_construct_base@V?$basic_string@_WU?$char_traits@_W@std@@V?$allocator@_W@2@@std@@@std@@@std@@QEAA@Uin_place_t@1@AEAV?$basic_string@_WU?$char_traits@_W@std@@V?$allocator@_W@2@@1@@Z 00000001400232c0 f i AdQuery.cpp.obj
 0001:00022300       ??$?0AEAV?$basic_string@_WU?$char_traits@_W@std@@V?$allocator@_W@2@@std@@@?$_Non_trivial_copy_assign@U?$_Optional_construct_base@V?$basic_string@_WU?$char_traits@_W@std@@V?$allocator@_W@2@@std@@@std@@V?$basic_string@_WU?$char_traits@_W@std@@V?$allocator@_W@2@@2@@std@@QEAA@Uin_place_t@1@AEAV?$basic_string@_WU?$char_traits@_W@std@@V?$allocator@_W@2@@1@@Z 0000000140023300 f i AdQuery.cpp.obj
 0001:00022340       ??$?0AEAV?$basic_string@_WU?$char_traits@_W@std@@V?$allocator@_W@2@@std@@@?$_Non_trivial_move@U?$_Optional_construct_base@V?$basic_string@_WU?$char_traits@_W@std@@V?$allocator@_W@2@@std@@@std@@V?$basic_string@_WU?$char_traits@_W@std@@V?$allocator@_W@2@@2@@std@@QEAA@Uin_place_t@1@AEAV?$basic_string@_WU?$char_traits@_W@std@@V?$allocator@_W@2@@1@@Z 0000000140023340 f i AdQuery.cpp.obj
 0001:00022380       ??$?0AEAV?$basic_string@_WU?$char_traits@_W@std@@V?$allocator@_W@2@@std@@@?$_Non_trivial_move_assign@U?$_Optional_construct_base@V?$basic_string@_WU?$char_traits@_W@std@@V?$allocator@_W@2@@std@@@std@@V?$basic_string@_WU?$char_traits@_W@std@@V?$allocator@_W@2@@2@@std@@QEAA@Uin_place_t@1@AEAV?$basic_string@_WU?$char_traits@_W@std@@V?$allocator@_W@2@@1@@Z 0000000140023380 f i AdQuery.cpp.obj
 0001:000223c0       ??$?0AEAV?$basic_string@_WU?$char_traits@_W@std@@V?$allocator@_W@2@@std@@@?$_Optional_construct_base@V?$basic_string@_WU?$char_traits@_W@std@@V?$allocator@_W@2@@std@@@std@@QEAA@Uin_place_t@1@AEAV?$basic_string@_WU?$char_traits@_W@std@@V?$allocator@_W@2@@1@@Z 00000001400233c0 f i AdQuery.cpp.obj
 0001:00022400       ??$?0AEAV?$basic_string@_WU?$char_traits@_W@std@@V?$allocator@_W@2@@std@@@?$_Optional_destruct_base@V?$basic_string@_WU?$char_traits@_W@std@@V?$allocator@_W@2@@std@@$0A@@std@@QEAA@Uin_place_t@1@AEAV?$basic_string@_WU?$char_traits@_W@std@@V?$allocator@_W@2@@1@@Z 0000000140023400 f i AdQuery.cpp.obj
 0001:00022510       ??$?0AEBV?$allocator@E@std@@$$V@?$_Compressed_pair@V?$allocator@E@std@@V?$_Vector_val@U?$_Simple_types@E@std@@@2@$00@std@@QEAA@U_One_then_variadic_args_t@1@AEBV?$allocator@E@1@@Z 0000000140023510 f i AdQuery.cpp.obj
 0001:00022550       ??$?0AEBV?$allocator@PEB_W@std@@$$V@?$_Compressed_pair@V?$allocator@PEB_W@std@@V?$_Vector_val@U?$_Simple_types@PEB_W@std@@@2@$00@std@@QEAA@U_One_then_variadic_args_t@1@AEBV?$allocator@PEB_W@1@@Z 0000000140023550 f i AdQuery.cpp.obj
 0001:00022590       ??$?0E@?$allocator@U_Container_proxy@std@@@std@@QEAA@AEBV?$allocator@E@1@@Z 0000000140023590 f i AdQuery.cpp.obj
 0001:000225b0       ??$?0I$0A@@?$optional@I@std@@QEAA@$$QEAI@Z 00000001400235b0 f i AdQuery.cpp.obj
 0001:000225f0       ??$?0I@?$_Optional_construct_base@I@std@@QEAA@Uin_place_t@1@$$QEAI@Z 00000001400235f0 f i AdQuery.cpp.obj
 0001:00022630       ??$?0I@?$_Optional_destruct_base@I$00@std@@QEAA@Uin_place_t@1@$$QEAI@Z 0000000140023630 f i AdQuery.cpp.obj
 0001:00022670       ??$?0PEAE$0A@@?$vector@EV?$allocator@E@std@@@std@@QEAA@PEAE0AEBV?$allocator@E@1@@Z 0000000140023670 f i AdQuery.cpp.obj
 0001:000227b0       ??$?0PEA_W@?$allocator@U_Container_proxy@std@@@std@@QEAA@AEBV?$allocator@PEA_W@1@@Z 00000001400237b0 f i AdQuery.cpp.obj
 0001:000227d0       ??$?0PEB_W@?$allocator@U_Container_proxy@std@@@std@@QEAA@AEBV?$allocator@PEB_W@1@@Z 00000001400237d0 f i AdQuery.cpp.obj
 0001:000227f0       ??$?0U?$default_delete@UAdResult@ith@@@std@@$0A@@?$unique_ptr@UAdResult@ith@@U?$default_delete@UAdResult@ith@@@std@@@std@@QEAA@PEAUAdResult@ith@@@Z 00000001400237f0 f i AdQuery.cpp.obj
 0001:00022840       ??$?0UInfoPair@ith@@@?$allocator@U_Container_proxy@std@@@std@@QEAA@AEBV?$allocator@UInfoPair@ith@@@1@@Z 0000000140023840 f i AdQuery.cpp.obj
 0001:00022860       ??$?0UNamedEntry@ith@@@?$allocator@U_Container_proxy@std@@@std@@QEAA@AEBV?$allocator@UNamedEntry@ith@@@1@@Z 0000000140023860 f i AdQuery.cpp.obj
 0001:00022930       ??$?0V?$allocator@E@std@@$$V@?$_Compressed_pair@V?$allocator@E@std@@V?$_Vector_val@U?$_Simple_types@E@std@@@2@$00@std@@QEAA@U_One_then_variadic_args_t@1@$$QEAV?$allocator@E@1@@Z 0000000140023930 f i AdQuery.cpp.obj
 0001:00022970       ??$?0V?$allocator@E@std@@PEAEPEAEPEAE@?$_Compressed_pair@V?$allocator@E@std@@V?$_Vector_val@U?$_Simple_types@E@std@@@2@$00@std@@QEAA@U_One_then_variadic_args_t@1@$$QEAV?$allocator@E@1@$$QEAPEAE22@Z 0000000140023970 f i AdQuery.cpp.obj
 0001:000229e0       ??$?0V?$basic_string@_WU?$char_traits@_W@std@@V?$allocator@_W@2@@std@@@?$allocator@U_Container_proxy@std@@@std@@QEAA@AEBV?$allocator@V?$basic_string@_WU?$char_traits@_W@std@@V?$allocator@_W@2@@std@@@1@@Z 00000001400239e0 f i AdQuery.cpp.obj
 0001:00022a00       ??$?0V?$vector@EV?$allocator@E@std@@@std@@$0A@@?$optional@V?$vector@EV?$allocator@E@std@@@std@@@std@@QEAA@$$QEAV?$vector@EV?$allocator@E@std@@@1@@Z 0000000140023a00 f i AdQuery.cpp.obj
 0001:00022a40       ??$?0V?$vector@EV?$allocator@E@std@@@std@@@?$_Non_trivial_copy@U?$_Optional_construct_base@V?$vector@EV?$allocator@E@std@@@std@@@std@@@std@@QEAA@Uin_place_t@1@$$QEAV?$vector@EV?$allocator@E@std@@@1@@Z 0000000140023a40 f i AdQuery.cpp.obj
 0001:00022a80       ??$?0V?$vector@EV?$allocator@E@std@@@std@@@?$_Non_trivial_copy_assign@U?$_Optional_construct_base@V?$vector@EV?$allocator@E@std@@@std@@@std@@V?$vector@EV?$allocator@E@std@@@2@@std@@QEAA@Uin_place_t@1@$$QEAV?$vector@EV?$allocator@E@std@@@1@@Z 0000000140023a80 f i AdQuery.cpp.obj
 0001:00022ac0       ??$?0V?$vector@EV?$allocator@E@std@@@std@@@?$_Non_trivial_move@U?$_Optional_construct_base@V?$vector@EV?$allocator@E@std@@@std@@@std@@V?$vector@EV?$allocator@E@std@@@2@@std@@QEAA@Uin_place_t@1@$$QEAV?$vector@EV?$allocator@E@std@@@1@@Z 0000000140023ac0 f i AdQuery.cpp.obj
 0001:00022b00       ??$?0V?$vector@EV?$allocator@E@std@@@std@@@?$_Non_trivial_move_assign@U?$_Optional_construct_base@V?$vector@EV?$allocator@E@std@@@std@@@std@@V?$vector@EV?$allocator@E@std@@@2@@std@@QEAA@Uin_place_t@1@$$QEAV?$vector@EV?$allocator@E@std@@@1@@Z 0000000140023b00 f i AdQuery.cpp.obj
 0001:00022b40       ??$?0V?$vector@EV?$allocator@E@std@@@std@@@?$_Optional_construct_base@V?$vector@EV?$allocator@E@std@@@std@@@std@@QEAA@Uin_place_t@1@$$QEAV?$vector@EV?$allocator@E@std@@@1@@Z 0000000140023b40 f i AdQuery.cpp.obj
 0001:00022b80       ??$?0V?$vector@EV?$allocator@E@std@@@std@@@?$_Optional_destruct_base@V?$vector@EV?$allocator@E@std@@@std@@$0A@@std@@QEAA@Uin_place_t@1@$$QEAV?$vector@EV?$allocator@E@std@@@1@@Z 0000000140023b80 f i AdQuery.cpp.obj
 0001:00022bd0       ??$?0_J$0A@@?$optional@_J@std@@QEAA@$$QEA_J@Z 0000000140023bd0 f i AdQuery.cpp.obj
 0001:00022c10       ??$?0_J@?$_Optional_construct_base@_J@std@@QEAA@Uin_place_t@1@$$QEA_J@Z 0000000140023c10 f i AdQuery.cpp.obj
 0001:00022c50       ??$?0_J@?$_Optional_destruct_base@_J$00@std@@QEAA@Uin_place_t@1@$$QEA_J@Z 0000000140023c50 f i AdQuery.cpp.obj
 0001:00022c90       ??$?4AEBQEA_W$0A@@?$optional@V?$basic_string@_WU?$char_traits@_W@std@@V?$allocator@_W@2@@std@@@std@@QEAAAEAV01@AEBQEA_W@Z 0000000140023c90 f i AdQuery.cpp.obj
 0001:00022cd0       ??$?4V?$vector@EV?$allocator@E@std@@@std@@$0A@@?$optional@V?$vector@EV?$allocator@E@std@@@std@@@std@@QEAAAEAV01@$$QEAV?$vector@EV?$allocator@E@std@@@1@@Z 0000000140023cd0 f i AdQuery.cpp.obj
 0001:00022d10       ??$?H_WU?$char_traits@_W@std@@V?$allocator@_W@1@@std@@YA?AV?$basic_string@_WU?$char_traits@_W@std@@V?$allocator@_W@2@@0@$$QEAV10@AEBV10@@Z 0000000140023d10 f i AdQuery.cpp.obj
 0001:00022d80       ??$?H_WU?$char_traits@_W@std@@V?$allocator@_W@1@@std@@YA?AV?$basic_string@_WU?$char_traits@_W@std@@V?$allocator@_W@2@@0@$$QEAV10@QEB_W@Z 0000000140023d80 f i AdQuery.cpp.obj
 0001:00022df0       ??$?H_WU?$char_traits@_W@std@@V?$allocator@_W@1@@std@@YA?AV?$basic_string@_WU?$char_traits@_W@std@@V?$allocator@_W@2@@0@AEBV10@0@Z 0000000140023df0 f i AdQuery.cpp.obj
 0001:00022f20       ??$?H_WU?$char_traits@_W@std@@V?$allocator@_W@1@@std@@YA?AV?$basic_string@_WU?$char_traits@_W@std@@V?$allocator@_W@2@@0@AEBV10@QEB_W@Z 0000000140023f20 f i AdQuery.cpp.obj
 0001:00023020       ??$?H_WU?$char_traits@_W@std@@V?$allocator@_W@1@@std@@YA?AV?$basic_string@_WU?$char_traits@_W@std@@V?$allocator@_W@2@@0@QEB_W$$QEAV10@@Z 0000000140024020 f i AdQuery.cpp.obj
 0001:00023090       ??$?H_WU?$char_traits@_W@std@@V?$allocator@_W@1@@std@@YA?AV?$basic_string@_WU?$char_traits@_W@std@@V?$allocator@_W@2@@0@QEB_WAEBV10@@Z 0000000140024090 f i AdQuery.cpp.obj
 0001:000231a0       ??$_Adl_verify_range@PEAEPEAE@std@@YAXAEBQEAE0@Z 00000001400241a0 f i AdQuery.cpp.obj
 0001:00023230       ??$_Adl_verify_range@V?$_Vector_iterator@V?$_Vector_val@U?$_Simple_types@UNamedEntry@ith@@@std@@@std@@@std@@V12@@std@@YAXAEBV?$_Vector_iterator@V?$_Vector_val@U?$_Simple_types@UNamedEntry@ith@@@std@@@std@@@0@0@Z 0000000140024230 f i AdQuery.cpp.obj
 0001:00023260       ??$_Allocate_at_least_helper@V?$allocator@E@std@@@std@@YAPEAEAEAV?$allocator@E@0@AEA_K@Z 0000000140024260 f i AdQuery.cpp.obj
 0001:00023290       ??$_Allocate_at_least_helper@V?$allocator@PEA_W@std@@@std@@YAPEAPEA_WAEAV?$allocator@PEA_W@0@AEA_K@Z 0000000140024290 f i AdQuery.cpp.obj
 0001:000232c0       ??$_Allocate_at_least_helper@V?$allocator@PEB_W@std@@@std@@YAPEAPEB_WAEAV?$allocator@PEB_W@0@AEA_K@Z 00000001400242c0 f i AdQuery.cpp.obj
 0001:000232f0       ??$_Allocate_at_least_helper@V?$allocator@UInfoPair@ith@@@std@@@std@@YAPEAUInfoPair@ith@@AEAV?$allocator@UInfoPair@ith@@@0@AEA_K@Z 00000001400242f0 f i AdQuery.cpp.obj
 0001:00023320       ??$_Allocate_at_least_helper@V?$allocator@UNamedEntry@ith@@@std@@@std@@YAPEAUNamedEntry@ith@@AEAV?$allocator@UNamedEntry@ith@@@0@AEA_K@Z 0000000140024320 f i AdQuery.cpp.obj
 0001:00023350       ??$_Allocate_at_least_helper@V?$allocator@V?$basic_string@_WU?$char_traits@_W@std@@V?$allocator@_W@2@@std@@@std@@@std@@YAPEAV?$basic_string@_WU?$char_traits@_W@std@@V?$allocator@_W@2@@0@AEAV?$allocator@V?$basic_string@_WU?$char_traits@_W@std@@V?$allocator@_W@2@@std@@@0@AEA_K@Z 0000000140024350 f i AdQuery.cpp.obj
 0001:00023380       ??$_Append@_W@?$basic_string@_WU?$char_traits@_W@std@@V?$allocator@_W@2@@std@@AEAAAEAV01@QEB_W_K@Z 0000000140024380 f i AdQuery.cpp.obj
 0001:000234b0       ??$_Assign@AEBQEA_W@?$_Optional_construct_base@V?$basic_string@_WU?$char_traits@_W@std@@V?$allocator@_W@2@@std@@@std@@QEAAXAEBQEA_W@Z 00000001400244b0 f i AdQuery.cpp.obj
 0001:00023510       ??$_Assign@V?$vector@EV?$allocator@E@std@@@std@@@?$_Optional_construct_base@V?$vector@EV?$allocator@E@std@@@std@@@std@@QEAAX$$QEAV?$vector@EV?$allocator@E@std@@@1@@Z 0000000140024510 f i AdQuery.cpp.obj
 0001:00023570       ??$_Assign@_W@?$basic_string@_WU?$char_traits@_W@std@@V?$allocator@_W@2@@std@@AEAAAEAV01@QEB_W_K@Z 0000000140024570 f i AdQuery.cpp.obj
 0001:00023640       ??$_Assign_counted_range@PEAE@?$vector@EV?$allocator@E@std@@@std@@AEAAXPEAE_K@Z 0000000140024640 f i AdQuery.cpp.obj
 0001:00023920       ??$_Construct@AEBQEA_W@?$_Optional_construct_base@V?$basic_string@_WU?$char_traits@_W@std@@V?$allocator@_W@2@@std@@@std@@QEAAAEAV?$basic_string@_WU?$char_traits@_W@std@@V?$allocator@_W@2@@1@AEBQEA_W@Z 0000000140024920 f i AdQuery.cpp.obj
 0001:00023960       ??$_Construct@V?$basic_string@_WU?$char_traits@_W@std@@V?$allocator@_W@2@@std@@@?$_Optional_construct_base@V?$basic_string@_WU?$char_traits@_W@std@@V?$allocator@_W@2@@std@@@std@@QEAAAEAV?$basic_string@_WU?$char_traits@_W@std@@V?$allocator@_W@2@@1@$$QEAV21@@Z 0000000140024960 f i AdQuery.cpp.obj
 0001:000239a0       ??$_Construct@V?$vector@EV?$allocator@E@std@@@std@@@?$_Optional_construct_base@V?$vector@EV?$allocator@E@std@@@std@@@std@@QEAAAEAV?$vector@EV?$allocator@E@std@@@1@$$QEAV21@@Z 00000001400249a0 f i AdQuery.cpp.obj
 0001:000239e0       ??$_Construct_from@U?$_Optional_construct_base@V?$basic_string@_WU?$char_traits@_W@std@@V?$allocator@_W@2@@std@@@std@@@?$_Optional_construct_base@V?$basic_string@_WU?$char_traits@_W@std@@V?$allocator@_W@2@@std@@@std@@QEAAX$$QEAU01@@Z 00000001400249e0 f i AdQuery.cpp.obj
 0001:00023a30       ??$_Construct_from@U?$_Optional_construct_base@V?$vector@EV?$allocator@E@std@@@std@@@std@@@?$_Optional_construct_base@V?$vector@EV?$allocator@E@std@@@std@@@std@@QEAAX$$QEAU01@@Z 0000000140024a30 f i AdQuery.cpp.obj
 0001:00023a80       ??$_Construct_in_place@PEA_WAEAPEA_W@std@@YAXAEAPEA_W0@Z 0000000140024a80 f i AdQuery.cpp.obj
 0001:00023b00       ??$_Construct_in_place@PEA_WPEA_W@std@@YAXAEAPEA_W$$QEAPEA_W@Z 0000000140024b00 f i AdQuery.cpp.obj
 0001:00023b80       ??$_Construct_in_place@UInfoPair@ith@@U12@@std@@YAXAEAUInfoPair@ith@@$$QEAU12@@Z 0000000140024b80 f i AdQuery.cpp.obj
 0001:00023c00       ??$_Construct_in_place@UNamedEntry@ith@@U12@@std@@YAXAEAUNamedEntry@ith@@$$QEAU12@@Z 0000000140024c00 f i AdQuery.cpp.obj
 0001:00023c80       ??$_Construct_in_place@V?$basic_string@_WU?$char_traits@_W@std@@V?$allocator@_W@2@@std@@AEBQEA_W@std@@YAXAEAV?$basic_string@_WU?$char_traits@_W@std@@V?$allocator@_W@2@@0@AEBQEA_W@Z 0000000140024c80 f i AdQuery.cpp.obj
 0001:00023d10       ??$_Construct_in_place@V?$basic_string@_WU?$char_traits@_W@std@@V?$allocator@_W@2@@std@@V12@@std@@YAXAEAV?$basic_string@_WU?$char_traits@_W@std@@V?$allocator@_W@2@@0@$$QEAV10@@Z 0000000140024d10 f i AdQuery.cpp.obj
 0001:00023d90       ??$_Construct_in_place@V?$vector@EV?$allocator@E@std@@@std@@V12@@std@@YAXAEAV?$vector@EV?$allocator@E@std@@@0@$$QEAV10@@Z 0000000140024d90 f i AdQuery.cpp.obj
 0001:00023e10       ??$_Construct_n@AEBQEAEAEBQEAE@?$vector@EV?$allocator@E@std@@@std@@AEAAX_KAEBQEAE1@Z 0000000140024e10 f i AdQuery.cpp.obj
 0001:00023f80       ??$_Construct_n@PEAEPEAE@?$vector@EV?$allocator@E@std@@@std@@AEAAX_K$$QEAPEAE1@Z 0000000140024f80 f i AdQuery.cpp.obj
 0001:000240f0       ??$_Construct_n@PEBQEB_WPEBQEB_W@?$vector@PEB_WV?$allocator@PEB_W@std@@@std@@AEAAX_K$$QEAPEBQEB_W1@Z 00000001400250f0 f i AdQuery.cpp.obj
 0001:00024260       ??$_Contiguous_iter_verify@PEAE@std@@YAXAEBQEAEAEB_J@Z 0000000140025260 f i AdQuery.cpp.obj
 0001:00024270       ??$_Contiguous_iter_verify@PEAPEA_W@std@@YAXAEBQEAPEA_WAEB_J@Z 0000000140025270 f i AdQuery.cpp.obj
 0001:00024280       ??$_Contiguous_iter_verify@PEAPEB_W@std@@YAXAEBQEAPEB_WAEB_J@Z 0000000140025280 f i AdQuery.cpp.obj
 0001:00024290       ??$_Copy_memcpy@PEAEPEAE@std@@YAPEAEPEAE00@Z 0000000140025290 f i AdQuery.cpp.obj
 0001:000242d0       ??$_Copy_memcpy@PEAPEA_WPEAPEA_W@std@@YAPEAPEA_WPEAPEA_W00@Z 00000001400252d0 f i AdQuery.cpp.obj
 0001:00024310       ??$_Copy_memcpy@PEBQEB_WPEAPEB_W@std@@YAPEAPEB_WPEBQEB_W0PEAPEB_W@Z 0000000140025310 f i AdQuery.cpp.obj
 0001:00024350       ??$_Copy_memcpy_n@PEAEPEAE@std@@YAPEAEPEAE_K0@Z 0000000140025350 f i AdQuery.cpp.obj
 0001:00024390       ??$_Copy_memmove_n@PEAEPEAE@std@@YAPEAEPEAE_K0@Z 0000000140025390 f i AdQuery.cpp.obj
 0001:000243d0       ??$_Copy_n_unchecked4@PEAE_KPEAE@std@@YAPEAEPEAE_K0@Z 00000001400253d0 f i AdQuery.cpp.obj
 0001:00024480       ??$_Deallocate@$07@std@@YAXPEAX_K@Z 0000000140025480 f i AdQuery.cpp.obj
 0001:00024690       ??$_Destroy_range@V?$allocator@E@std@@@std@@YAXPEAEQEAEAEAV?$allocator@E@0@@Z 0000000140025690 f i AdQuery.cpp.obj
 0001:000246b0       ??$_Destroy_range@V?$allocator@PEA_W@std@@@std@@YAXPEAPEA_WQEAPEA_WAEAV?$allocator@PEA_W@0@@Z 00000001400256b0 f i AdQuery.cpp.obj
 0001:000246d0       ??$_Destroy_range@V?$allocator@PEB_W@std@@@std@@YAXPEAPEB_WQEAPEB_WAEAV?$allocator@PEB_W@0@@Z 00000001400256d0 f i AdQuery.cpp.obj
 0001:000246f0       ??$_Destroy_range@V?$allocator@UInfoPair@ith@@@std@@@std@@YAXPEAUInfoPair@ith@@QEAU12@AEAV?$allocator@UInfoPair@ith@@@0@@Z 00000001400256f0 f i AdQuery.cpp.obj
 0001:00024760       ??$_Destroy_range@V?$allocator@UNamedEntry@ith@@@std@@@std@@YAXPEAUNamedEntry@ith@@QEAU12@AEAV?$allocator@UNamedEntry@ith@@@0@@Z 0000000140025760 f i AdQuery.cpp.obj
 0001:000247d0       ??$_Destroy_range@V?$allocator@V?$basic_string@_WU?$char_traits@_W@std@@V?$allocator@_W@2@@std@@@std@@@std@@YAXPEAV?$basic_string@_WU?$char_traits@_W@std@@V?$allocator@_W@2@@0@QEAV10@AEAV?$allocator@V?$basic_string@_WU?$char_traits@_W@std@@V?$allocator@_W@2@@std@@@0@@Z 00000001400257d0 f i AdQuery.cpp.obj
 0001:00024840       ??$_Emplace_back@AEAE@?$_Uninitialized_backout_al@V?$allocator@E@std@@@std@@QEAAXAEAE@Z 0000000140025840 f i AdQuery.cpp.obj
 0001:000248c0       ??$_Emplace_back@AEBQEB_W@?$_Uninitialized_backout_al@V?$allocator@PEB_W@std@@@std@@QEAAXAEBQEB_W@Z 00000001400258c0 f i AdQuery.cpp.obj
 0001:00024940       ??$_Emplace_back@PEA_W@?$_Uninitialized_backout_al@V?$allocator@PEA_W@std@@@std@@QEAAX$$QEAPEA_W@Z 0000000140025940 f i AdQuery.cpp.obj
 0001:000249c0       ??$_Emplace_back@UInfoPair@ith@@@?$_Uninitialized_backout_al@V?$allocator@UInfoPair@ith@@@std@@@std@@QEAAX$$QEAUInfoPair@ith@@@Z 00000001400259c0 f i AdQuery.cpp.obj
 0001:00024a40       ??$_Emplace_back@UNamedEntry@ith@@@?$_Uninitialized_backout_al@V?$allocator@UNamedEntry@ith@@@std@@@std@@QEAAX$$QEAUNamedEntry@ith@@@Z 0000000140025a40 f i AdQuery.cpp.obj
 0001:00024ac0       ??$_Emplace_back@V?$basic_string@_WU?$char_traits@_W@std@@V?$allocator@_W@2@@std@@@?$_Uninitialized_backout_al@V?$allocator@V?$basic_string@_WU?$char_traits@_W@std@@V?$allocator@_W@2@@std@@@std@@@std@@QEAAX$$QEAV?$basic_string@_WU?$char_traits@_W@std@@V?$allocator@_W@2@@1@@Z 0000000140025ac0 f i AdQuery.cpp.obj
 0001:00024b40       ??$_Emplace_back_with_unused_capacity@AEBQEA_W@?$vector@V?$basic_string@_WU?$char_traits@_W@std@@V?$allocator@_W@2@@std@@V?$allocator@V?$basic_string@_WU?$char_traits@_W@std@@V?$allocator@_W@2@@std@@@2@@std@@AEAAAEAV?$basic_string@_WU?$char_traits@_W@std@@V?$allocator@_W@2@@1@AEBQEA_W@Z 0000000140025b40 f i AdQuery.cpp.obj
 0001:00024c10       ??$_Emplace_back_with_unused_capacity@PEA_W@?$vector@PEA_WV?$allocator@PEA_W@std@@@std@@AEAAAEAPEA_W$$QEAPEA_W@Z 0000000140025c10 f i AdQuery.cpp.obj
 0001:00024cb0       ??$_Emplace_back_with_unused_capacity@UInfoPair@ith@@@?$vector@UInfoPair@ith@@V?$allocator@UInfoPair@ith@@@std@@@std@@AEAAAEAUInfoPair@ith@@$$QEAU23@@Z 0000000140025cb0 f i AdQuery.cpp.obj
 0001:00024d50       ??$_Emplace_back_with_unused_capacity@UNamedEntry@ith@@@?$vector@UNamedEntry@ith@@V?$allocator@UNamedEntry@ith@@@std@@@std@@AEAAAEAUNamedEntry@ith@@$$QEAU23@@Z 0000000140025d50 f i AdQuery.cpp.obj
 0001:00024df0       ??$_Emplace_one_at_back@AEBQEA_W@?$vector@V?$basic_string@_WU?$char_traits@_W@std@@V?$allocator@_W@2@@std@@V?$allocator@V?$basic_string@_WU?$char_traits@_W@std@@V?$allocator@_W@2@@std@@@2@@std@@AEAAAEAV?$basic_string@_WU?$char_traits@_W@std@@V?$allocator@_W@2@@1@AEBQEA_W@Z 0000000140025df0 f i AdQuery.cpp.obj
 0001:00024e80       ??$_Emplace_one_at_back@PEA_W@?$vector@PEA_WV?$allocator@PEA_W@std@@@std@@AEAAAEAPEA_W$$QEAPEA_W@Z 0000000140025e80 f i AdQuery.cpp.obj
 0001:00024f10       ??$_Emplace_one_at_back@UInfoPair@ith@@@?$vector@UInfoPair@ith@@V?$allocator@UInfoPair@ith@@@std@@@std@@AEAAAEAUInfoPair@ith@@$$QEAU23@@Z 0000000140025f10 f i AdQuery.cpp.obj
 0001:00024fa0       ??$_Emplace_one_at_back@UNamedEntry@ith@@@?$vector@UNamedEntry@ith@@V?$allocator@UNamedEntry@ith@@@std@@@std@@AEAAAEAUNamedEntry@ith@@$$QEAU23@@Z 0000000140025fa0 f i AdQuery.cpp.obj
 0001:00025030       ??$_Emplace_reallocate@AEBQEA_W@?$vector@V?$basic_string@_WU?$char_traits@_W@std@@V?$allocator@_W@2@@std@@V?$allocator@V?$basic_string@_WU?$char_traits@_W@std@@V?$allocator@_W@2@@std@@@2@@std@@AEAAPEAV?$basic_string@_WU?$char_traits@_W@std@@V?$allocator@_W@2@@1@QEAV21@AEBQEA_W@Z 0000000140026030 f i AdQuery.cpp.obj
 0001:000253c0       ??$_Emplace_reallocate@PEA_W@?$vector@PEA_WV?$allocator@PEA_W@std@@@std@@AEAAPEAPEA_WQEAPEA_W$$QEAPEA_W@Z 00000001400263c0 f i AdQuery.cpp.obj
 0001:00025720       ??$_Emplace_reallocate@UInfoPair@ith@@@?$vector@UInfoPair@ith@@V?$allocator@UInfoPair@ith@@@std@@@std@@AEAAPEAUInfoPair@ith@@QEAU23@$$QEAU23@@Z 0000000140026720 f i AdQuery.cpp.obj
 0001:00025ab0       ??$_Emplace_reallocate@UNamedEntry@ith@@@?$vector@UNamedEntry@ith@@V?$allocator@UNamedEntry@ith@@@std@@@std@@AEAAPEAUNamedEntry@ith@@QEAU23@$$QEAU23@@Z 0000000140026ab0 f i AdQuery.cpp.obj
 0001:00025e40       ??$_Get_proxy_allocator@V?$allocator@E@std@@@std@@YA?AV?$allocator@U_Container_proxy@std@@@0@AEBV?$allocator@E@0@@Z 0000000140026e40 f i AdQuery.cpp.obj
 0001:00025e80       ??$_Get_proxy_allocator@V?$allocator@PEA_W@std@@@std@@YA?AV?$allocator@U_Container_proxy@std@@@0@AEBV?$allocator@PEA_W@0@@Z 0000000140026e80 f i AdQuery.cpp.obj
 0001:00025ec0       ??$_Get_proxy_allocator@V?$allocator@PEB_W@std@@@std@@YA?AV?$allocator@U_Container_proxy@std@@@0@AEBV?$allocator@PEB_W@0@@Z 0000000140026ec0 f i AdQuery.cpp.obj
 0001:00025f00       ??$_Get_proxy_allocator@V?$allocator@UInfoPair@ith@@@std@@@std@@YA?AV?$allocator@U_Container_proxy@std@@@0@AEBV?$allocator@UInfoPair@ith@@@0@@Z 0000000140026f00 f i AdQuery.cpp.obj
 0001:00025f40       ??$_Get_proxy_allocator@V?$allocator@UNamedEntry@ith@@@std@@@std@@YA?AV?$allocator@U_Container_proxy@std@@@0@AEBV?$allocator@UNamedEntry@ith@@@0@@Z 0000000140026f40 f i AdQuery.cpp.obj
 0001:00025f80       ??$_Get_proxy_allocator@V?$allocator@V?$basic_string@_WU?$char_traits@_W@std@@V?$allocator@_W@2@@std@@@std@@@std@@YA?AV?$allocator@U_Container_proxy@std@@@0@AEBV?$allocator@V?$basic_string@_WU?$char_traits@_W@std@@V?$allocator@_W@2@@std@@@0@@Z 0000000140026f80 f i AdQuery.cpp.obj
 0001:00025fc0       ??$_Get_size_of_n@$00@std@@YA_K_K@Z 0000000140026fc0 f i AdQuery.cpp.obj
 0001:00025fe0       ??$_Get_size_of_n@$0CI@@std@@YA_K_K@Z 0000000140026fe0 f i AdQuery.cpp.obj
 0001:00026040       ??$_Get_size_of_n@$0DA@@std@@YA_K_K@Z 0000000140027040 f i AdQuery.cpp.obj
 0001:000260a0       ??$_Get_unwrapped@AEAPEAE@std@@YA?A_TAEAPEAE@Z 00000001400270a0 f i AdQuery.cpp.obj
 0001:000260c0       ??$_Get_unwrapped@AEBQEAPEA_W@std@@YA?A_TAEBQEAPEA_W@Z 00000001400270c0 f i AdQuery.cpp.obj
 0001:000260e0       ??$_Get_unwrapped@AEBQEAUInfoPair@ith@@@std@@YA?A_TAEBQEAUInfoPair@ith@@@Z 00000001400270e0 f i AdQuery.cpp.obj
 0001:00026100       ??$_Get_unwrapped@AEBQEAUNamedEntry@ith@@@std@@YA?A_TAEBQEAUNamedEntry@ith@@@Z 0000000140027100 f i AdQuery.cpp.obj
 0001:00026120       ??$_Get_unwrapped@AEBQEAV?$basic_string@_WU?$char_traits@_W@std@@V?$allocator@_W@2@@std@@@std@@YA?A_TAEBQEAV?$basic_string@_WU?$char_traits@_W@std@@V?$allocator@_W@2@@0@@Z 0000000140027120 f i AdQuery.cpp.obj
 0001:00026140       ??$_Get_unwrapped@AEBV?$_Vector_iterator@V?$_Vector_val@U?$_Simple_types@UNamedEntry@ith@@@std@@@std@@@std@@@std@@YA?A_TAEBV?$_Vector_iterator@V?$_Vector_val@U?$_Simple_types@UNamedEntry@ith@@@std@@@std@@@0@@Z 0000000140027140 f i AdQuery.cpp.obj
 0001:00026160       ??$_Get_unwrapped@PEAE@std@@YA?A_T$$QEAPEAE@Z 0000000140027160 f i AdQuery.cpp.obj
 0001:00026680       ??$_Impl_copy_memmeow@$00PEAEPEAE@std@@YAPEAEPEAE00@Z 0000000140027680 f i AdQuery.cpp.obj
 0001:00026770       ??$_Impl_copy_memmeow@$00PEAPEA_WPEAPEA_W@std@@YAPEAPEA_WPEAPEA_W00@Z 0000000140027770 f i AdQuery.cpp.obj
 0001:00026860       ??$_Impl_copy_memmeow@$00PEBQEB_WPEAPEB_W@std@@YAPEAPEB_WPEBQEB_W0PEAPEB_W@Z 0000000140027860 f i AdQuery.cpp.obj
 0001:00026950       ??$_Impl_copy_memmeow_n@$00PEAEPEAE@std@@YAPEAEPEAE_K0@Z 0000000140027950 f i AdQuery.cpp.obj
 0001:00026a00       ??$_Impl_copy_memmeow_n@$0A@PEAEPEAE@std@@YAPEAEPEAE_K0@Z 0000000140027a00 f i AdQuery.cpp.obj
 0001:00026ab0       ??$_Impl_copy_memmeow_tail@$00PEAE@std@@YAPEAEQEBDQEAE_K2@Z 0000000140027ab0 f i AdQuery.cpp.obj
 0001:00026b30       ??$_Impl_copy_memmeow_tail@$00PEAPEA_W@std@@YAPEAPEA_WQEBDQEAPEA_W_K2@Z 0000000140027b30 f i AdQuery.cpp.obj
 0001:00026bb0       ??$_Impl_copy_memmeow_tail@$00PEAPEB_W@std@@YAPEAPEB_WQEBDQEAPEB_W_K2@Z 0000000140027bb0 f i AdQuery.cpp.obj
 0001:00026c30       ??$_Impl_copy_memmeow_tail@$0A@PEAE@std@@YAPEAEQEBDQEAE_K2@Z 0000000140027c30 f i AdQuery.cpp.obj
 0001:00026cb0       ??$_Insert@_W@?$basic_string@_WU?$char_traits@_W@std@@V?$allocator@_W@2@@std@@AEAAAEAV01@_KQEB_W0@Z 0000000140027cb0 f i AdQuery.cpp.obj
 0001:00027800       ??$_Move_backward_unchecked@PEAUNamedEntry@ith@@PEAU12@@std@@YAPEAUNamedEntry@ith@@PEAU12@00@Z 0000000140028800 f i AdQuery.cpp.obj
 0001:00027870       ??$_Next_iter@PEAUNamedEntry@ith@@@std@@YAPEAUNamedEntry@ith@@PEAU12@@Z 0000000140028870 f i AdQuery.cpp.obj
 0001:00028540       ??$_Pocca@V?$allocator@E@std@@@std@@YAXAEAV?$allocator@E@0@AEBV10@@Z 0000000140029540 f i AdQuery.cpp.obj
 0001:00028550       ??$_Pocca@V?$allocator@_W@std@@@std@@YAXAEAV?$allocator@_W@0@AEBV10@@Z 0000000140029550 f i AdQuery.cpp.obj
 0001:00028560       ??$_Pocma@V?$allocator@E@std@@@std@@YAXAEAV?$allocator@E@0@0@Z 0000000140029560 f i AdQuery.cpp.obj
 0001:00028570       ??$_Pocma@V?$allocator@UNamedEntry@ith@@@std@@@std@@YAXAEAV?$allocator@UNamedEntry@ith@@@0@0@Z 0000000140029570 f i AdQuery.cpp.obj
 0001:00028580       ??$_Pocma@V?$allocator@V?$basic_string@_WU?$char_traits@_W@std@@V?$allocator@_W@2@@std@@@std@@@std@@YAXAEAV?$allocator@V?$basic_string@_WU?$char_traits@_W@std@@V?$allocator@_W@2@@std@@@0@0@Z 0000000140029580 f i AdQuery.cpp.obj
 0001:00028590       ??$_Pocma@V?$allocator@_W@std@@@std@@YAXAEAV?$allocator@_W@0@0@Z 0000000140029590 f i AdQuery.cpp.obj
 0001:00028ca0       ??$_Prev_iter@PEAUNamedEntry@ith@@@std@@YAPEAUNamedEntry@ith@@PEAU12@@Z 0000000140029ca0 f i AdQuery.cpp.obj
 0001:00028ed0       ??$_Reallocate@$0A@@?$vector@PEA_WV?$allocator@PEA_W@std@@@std@@AEAAXAEA_K@Z 0000000140029ed0 f i AdQuery.cpp.obj
 0001:00029050       ??$_Reallocate_for@V<lambda_1>@?1???$_Assign@_W@?$basic_string@_WU?$char_traits@_W@std@@V?$allocator@_W@2@@std@@AEAAAEAV23@QEB_W_K@Z@PEB_W@?$basic_string@_WU?$char_traits@_W@std@@V?$allocator@_W@2@@std@@AEAAAEAV01@_KV<lambda_1>@?1???$_Assign@_W@01@AEAAAEAV01@QEB_W0@Z@PEB_W@Z 000000014002a050 f i AdQuery.cpp.obj
 0001:00029220       ??$_Reallocate_grow_by@V<lambda_1>@?1???$_Append@_W@?$basic_string@_WU?$char_traits@_W@std@@V?$allocator@_W@2@@std@@AEAAAEAV23@QEB_W_K@Z@PEB_W_K@?$basic_string@_WU?$char_traits@_W@std@@V?$allocator@_W@2@@std@@AEAAAEAV01@_KV<lambda_1>@?1???$_Append@_W@01@AEAAAEAV01@QEB_W0@Z@PEB_W_K@Z 000000014002a220 f i AdQuery.cpp.obj
 0001:000294a0       ??$_Reallocate_grow_by@V<lambda_1>@?1???$_Insert@_W@?$basic_string@_WU?$char_traits@_W@std@@V?$allocator@_W@2@@std@@AEAAAEAV23@_KQEB_W0@Z@_KPEB_W_K@?$basic_string@_WU?$char_traits@_W@std@@V?$allocator@_W@2@@std@@AEAAAEAV01@_KV<lambda_1>@?1???$_Insert@_W@01@AEAAAEAV01@0QEB_W0@Z@_KPEB_W3@Z 000000014002a4a0 f i AdQuery.cpp.obj
 0001:00029740       ??$_Reallocate_grow_by@V<lambda_1>@?1??push_back@?$basic_string@_WU?$char_traits@_W@std@@V?$allocator@_W@2@@std@@QEAAX_W@Z@_W@?$basic_string@_WU?$char_traits@_W@std@@V?$allocator@_W@2@@std@@AEAAAEAV01@_KV<lambda_1>@?1??push_back@01@QEAAX_W@Z@_W@Z 000000014002a740 f i AdQuery.cpp.obj
 0001:00029990       ??$_Reallocate_grow_by@V<lambda_1>@?1??reserve@?$basic_string@_WU?$char_traits@_W@std@@V?$allocator@_W@2@@std@@QEAAX_K@Z@$$V@?$basic_string@_WU?$char_traits@_W@std@@V?$allocator@_W@2@@std@@AEAAAEAV01@_KV<lambda_1>@?1??reserve@01@QEAAX0@Z@@Z 000000014002a990 f i AdQuery.cpp.obj
 0001:0002a170       ??$_To_address@PEAE@std@@YA?A_PAEBQEAE@Z 000000014002b170 f i AdQuery.cpp.obj
 0001:0002a1a0       ??$_To_address@PEAPEA_W@std@@YA?A_PAEBQEAPEA_W@Z 000000014002b1a0 f i AdQuery.cpp.obj
 0001:0002a1d0       ??$_To_address@PEAPEB_W@std@@YA?A_PAEBQEAPEB_W@Z 000000014002b1d0 f i AdQuery.cpp.obj
 0001:0002a200       ??$_To_address@PEBQEB_W@std@@YA?A_PAEBQEBQEB_W@Z 000000014002b200 f i AdQuery.cpp.obj
 0001:0002a230       ??$_Traits_move_batch@U?$char_traits@_W@std@@_W@std@@YAXQEA_WQEB_W_K@Z 000000014002b230 f i AdQuery.cpp.obj
 0001:0002a270       ??$_Unfancy@E@std@@YAPEAEPEAE@Z 000000014002b270 f i AdQuery.cpp.obj
 0001:0002a280       ??$_Unfancy@PEA_W@std@@YAPEAPEA_WPEAPEA_W@Z 000000014002b280 f i AdQuery.cpp.obj
 0001:0002a290       ??$_Unfancy@PEB_W@std@@YAPEAPEB_WPEAPEB_W@Z 000000014002b290 f i AdQuery.cpp.obj
 0001:0002a2a0       ??$_Unfancy@UInfoPair@ith@@@std@@YAPEAUInfoPair@ith@@PEAU12@@Z 000000014002b2a0 f i AdQuery.cpp.obj
 0001:0002a2b0       ??$_Unfancy@UNamedEntry@ith@@@std@@YAPEAUNamedEntry@ith@@PEAU12@@Z 000000014002b2b0 f i AdQuery.cpp.obj
 0001:0002a2c0       ??$_Unfancy@V?$basic_string@_WU?$char_traits@_W@std@@V?$allocator@_W@2@@std@@@std@@YAPEAV?$basic_string@_WU?$char_traits@_W@std@@V?$allocator@_W@2@@0@PEAV10@@Z 000000014002b2c0 f i AdQuery.cpp.obj
 0001:0002a2d0       ??$_Unfancy_maybe_null@E@std@@YAPEAEPEAE@Z 000000014002b2d0 f i AdQuery.cpp.obj
 0001:0002a2e0       ??$_Unfancy_maybe_null@PEA_W@std@@YAPEAPEA_WPEAPEA_W@Z 000000014002b2e0 f i AdQuery.cpp.obj
 0001:0002a2f0       ??$_Unfancy_maybe_null@PEB_W@std@@YAPEAPEB_WPEAPEB_W@Z 000000014002b2f0 f i AdQuery.cpp.obj
 0001:0002a300       ??$_Unfancy_maybe_null@UNamedEntry@ith@@@std@@YAPEAUNamedEntry@ith@@PEAU12@@Z 000000014002b300 f i AdQuery.cpp.obj
 0001:0002a310       ??$_Unfancy_maybe_null@V?$basic_string@_WU?$char_traits@_W@std@@V?$allocator@_W@2@@std@@@std@@YAPEAV?$basic_string@_WU?$char_traits@_W@std@@V?$allocator@_W@2@@0@PEAV10@@Z 000000014002b310 f i AdQuery.cpp.obj
 0001:0002a320       ??$_Uninitialized_copy@PEAEPEAEV?$allocator@E@std@@@std@@YAPEAEPEAE00AEAV?$allocator@E@0@@Z 000000014002b320 f i AdQuery.cpp.obj
 0001:0002a500       ??$_Uninitialized_copy@PEBQEB_WPEBQEB_WV?$allocator@PEB_W@std@@@std@@YAPEAPEB_WPEBQEB_W0PEAPEB_WAEAV?$allocator@PEB_W@0@@Z 000000014002b500 f i AdQuery.cpp.obj
 0001:0002a6f0       ??$_Uninitialized_copy_n@PEAEV?$allocator@E@std@@@std@@YAPEAEPEAE_K0AEAV?$allocator@E@0@@Z 000000014002b6f0 f i AdQuery.cpp.obj
 0001:0002a860       ??$_Uninitialized_move@PEAPEA_WV?$allocator@PEA_W@std@@@std@@YAPEAPEA_WQEAPEA_W0PEAPEA_WAEAV?$allocator@PEA_W@0@@Z 000000014002b860 f i AdQuery.cpp.obj
 0001:0002a9d0       ??$_Uninitialized_move@PEAUInfoPair@ith@@V?$allocator@UInfoPair@ith@@@std@@@std@@YAPEAUInfoPair@ith@@QEAU12@0PEAU12@AEAV?$allocator@UInfoPair@ith@@@0@@Z 000000014002b9d0 f i AdQuery.cpp.obj
 0001:0002aae0       ??$_Uninitialized_move@PEAUNamedEntry@ith@@V?$allocator@UNamedEntry@ith@@@std@@@std@@YAPEAUNamedEntry@ith@@QEAU12@0PEAU12@AEAV?$allocator@UNamedEntry@ith@@@0@@Z 000000014002bae0 f i AdQuery.cpp.obj
 0001:0002abf0       ??$_Uninitialized_move@PEAV?$basic_string@_WU?$char_traits@_W@std@@V?$allocator@_W@2@@std@@V?$allocator@V?$basic_string@_WU?$char_traits@_W@std@@V?$allocator@_W@2@@std@@@2@@std@@YAPEAV?$basic_string@_WU?$char_traits@_W@std@@V?$allocator@_W@2@@0@QEAV10@0PEAV10@AEAV?$allocator@V?$basic_string@_WU?$char_traits@_W@std@@V?$allocator@_W@2@@std@@@0@@Z 000000014002bbf0 f i AdQuery.cpp.obj
 0001:0002ad00       ??$_Unwrap_iter@PEAEPEAE@ranges@std@@YA?A_T$$QEAPEAE@Z 000000014002bd00 f i AdQuery.cpp.obj
 0001:0002ad20       ??$_Unwrap_iter@PEBQEB_WPEBQEB_W@ranges@std@@YA?A_T$$QEAPEBQEB_W@Z 000000014002bd20 f i AdQuery.cpp.obj
 0001:0002ad40       ??$_Unwrap_sent@PEAEPEAE@ranges@std@@YA?A_T$$QEAPEAE@Z 000000014002bd40 f i AdQuery.cpp.obj
 0001:0002ad60       ??$_Unwrap_sent@PEBQEB_WPEBQEB_W@ranges@std@@YA?A_T$$QEAPEBQEB_W@Z 000000014002bd60 f i AdQuery.cpp.obj
 0001:0002ada0       ??$addressof@$$CBV?$basic_string@_WU?$char_traits@_W@std@@V?$allocator@_W@2@@std@@@std@@YAPEBV?$basic_string@_WU?$char_traits@_W@std@@V?$allocator@_W@2@@0@AEBV10@@Z 000000014002bda0 f i AdQuery.cpp.obj
 0001:0002adb0       ??$addressof@$$CBV?$vector@EV?$allocator@E@std@@@std@@@std@@YAPEBV?$vector@EV?$allocator@E@std@@@0@AEBV10@@Z 000000014002bdb0 f i AdQuery.cpp.obj
 0001:0002adc0       ??$addressof@UInfoPair@ith@@@std@@YAPEAUInfoPair@ith@@AEAU12@@Z 000000014002bdc0 f i AdQuery.cpp.obj
 0001:0002add0       ??$addressof@UNamedEntry@ith@@@std@@YAPEAUNamedEntry@ith@@AEAU12@@Z 000000014002bdd0 f i AdQuery.cpp.obj
 0001:0002ade0       ??$addressof@V?$_String_val@U?$_Simple_types@_W@std@@@std@@@std@@YAPEAV?$_String_val@U?$_Simple_types@_W@std@@@0@AEAV10@@Z 000000014002bde0 f i AdQuery.cpp.obj
 0001:0002adf0       ??$addressof@V?$_Vector_val@U?$_Simple_types@UNamedEntry@ith@@@std@@@std@@@std@@YAPEAV?$_Vector_val@U?$_Simple_types@UNamedEntry@ith@@@std@@@0@AEAV10@@Z 000000014002bdf0 f i AdQuery.cpp.obj
 0001:0002ae00       ??$addressof@V?$basic_string@_WU?$char_traits@_W@std@@V?$allocator@_W@2@@std@@@std@@YAPEAV?$basic_string@_WU?$char_traits@_W@std@@V?$allocator@_W@2@@0@AEAV10@@Z 000000014002be00 f i AdQuery.cpp.obj
 0001:0002ae10       ??$addressof@V?$vector@EV?$allocator@E@std@@@std@@@std@@YAPEAV?$vector@EV?$allocator@E@std@@@0@AEAV10@@Z 000000014002be10 f i AdQuery.cpp.obj
 0001:0002ae20       ??$addressof@V?$vector@UNamedEntry@ith@@V?$allocator@UNamedEntry@ith@@@std@@@std@@@std@@YAPEAV?$vector@UNamedEntry@ith@@V?$allocator@UNamedEntry@ith@@@std@@@0@AEAV10@@Z 000000014002be20 f i AdQuery.cpp.obj
 0001:0002ae30       ??$addressof@V?$vector@V?$basic_string@_WU?$char_traits@_W@std@@V?$allocator@_W@2@@std@@V?$allocator@V?$basic_string@_WU?$char_traits@_W@std@@V?$allocator@_W@2@@std@@@2@@std@@@std@@YAPEAV?$vector@V?$basic_string@_WU?$char_traits@_W@std@@V?$allocator@_W@2@@std@@V?$allocator@V?$basic_string@_WU?$char_traits@_W@std@@V?$allocator@_W@2@@std@@@2@@0@AEAV10@@Z 000000014002be30 f i AdQuery.cpp.obj
 0001:0002ae40       ??$construct@EAEAE@?$_Default_allocator_traits@V?$allocator@E@std@@@std@@SAXAEAV?$allocator@E@1@QEAEAEAE@Z 000000014002be40 f i AdQuery.cpp.obj
 0001:0002ae80       ??$construct@PEA_WPEA_W@?$_Default_allocator_traits@V?$allocator@PEA_W@std@@@std@@SAXAEAV?$allocator@PEA_W@1@QEAPEA_W$$QEAPEA_W@Z 000000014002be80 f i AdQuery.cpp.obj
 0001:0002aec0       ??$construct@PEB_WAEBQEB_W@?$_Default_allocator_traits@V?$allocator@PEB_W@std@@@std@@SAXAEAV?$allocator@PEB_W@1@QEAPEB_WAEBQEB_W@Z 000000014002bec0 f i AdQuery.cpp.obj
 0001:0002af00       ??$construct@UInfoPair@ith@@U12@@?$_Default_allocator_traits@V?$allocator@UInfoPair@ith@@@std@@@std@@SAXAEAV?$allocator@UInfoPair@ith@@@1@QEAUInfoPair@ith@@$$QEAU34@@Z 000000014002bf00 f i AdQuery.cpp.obj
 0001:0002af40       ??$construct@UNamedEntry@ith@@U12@@?$_Default_allocator_traits@V?$allocator@UNamedEntry@ith@@@std@@@std@@SAXAEAV?$allocator@UNamedEntry@ith@@@1@QEAUNamedEntry@ith@@$$QEAU34@@Z 000000014002bf40 f i AdQuery.cpp.obj
 0001:0002af80       ??$construct@V?$basic_string@_WU?$char_traits@_W@std@@V?$allocator@_W@2@@std@@AEBQEA_W@?$_Default_allocator_traits@V?$allocator@V?$basic_string@_WU?$char_traits@_W@std@@V?$allocator@_W@2@@std@@@std@@@std@@SAXAEAV?$allocator@V?$basic_string@_WU?$char_traits@_W@std@@V?$allocator@_W@2@@std@@@1@QEAV?$basic_string@_WU?$char_traits@_W@std@@V?$allocator@_W@2@@1@AEBQEA_W@Z 000000014002bf80 f i AdQuery.cpp.obj
 0001:0002afc0       ??$construct@V?$basic_string@_WU?$char_traits@_W@std@@V?$allocator@_W@2@@std@@V12@@?$_Default_allocator_traits@V?$allocator@V?$basic_string@_WU?$char_traits@_W@std@@V?$allocator@_W@2@@std@@@std@@@std@@SAXAEAV?$allocator@V?$basic_string@_WU?$char_traits@_W@std@@V?$allocator@_W@2@@std@@@1@QEAV?$basic_string@_WU?$char_traits@_W@std@@V?$allocator@_W@2@@1@$$QEAV31@@Z 000000014002bfc0 f i AdQuery.cpp.obj
 0001:0002b000       ??$construct_at@EAEAE@std@@YAPEAEQEAEAEAE@Z 000000014002c000 f i AdQuery.cpp.obj
 0001:0002b050       ??$construct_at@PEA_WAEAPEA_W@std@@YAPEAPEA_WQEAPEA_WAEAPEA_W@Z 000000014002c050 f i AdQuery.cpp.obj
 0001:0002b0a0       ??$construct_at@PEA_WPEA_W@std@@YAPEAPEA_WQEAPEA_W$$QEAPEA_W@Z 000000014002c0a0 f i AdQuery.cpp.obj
 0001:0002b0f0       ??$construct_at@PEB_WAEBQEB_W@std@@YAPEAPEB_WQEAPEB_WAEBQEB_W@Z 000000014002c0f0 f i AdQuery.cpp.obj
 0001:0002b140       ??$construct_at@UInfoPair@ith@@U12@@std@@YAPEAUInfoPair@ith@@QEAU12@$$QEAU12@@Z 000000014002c140 f i AdQuery.cpp.obj
 0001:0002b190       ??$construct_at@UNamedEntry@ith@@U12@@std@@YAPEAUNamedEntry@ith@@QEAU12@$$QEAU12@@Z 000000014002c190 f i AdQuery.cpp.obj
 0001:0002b1e0       ??$construct_at@V?$basic_string@_WU?$char_traits@_W@std@@V?$allocator@_W@2@@std@@AEBQEA_W@std@@YAPEAV?$basic_string@_WU?$char_traits@_W@std@@V?$allocator@_W@2@@0@QEAV10@AEBQEA_W@Z 000000014002c1e0 f i AdQuery.cpp.obj
 0001:0002b230       ??$construct_at@V?$basic_string@_WU?$char_traits@_W@std@@V?$allocator@_W@2@@std@@V12@@std@@YAPEAV?$basic_string@_WU?$char_traits@_W@std@@V?$allocator@_W@2@@0@QEAV10@$$QEAV10@@Z 000000014002c230 f i AdQuery.cpp.obj
 0001:0002b280       ??$construct_at@V?$vector@EV?$allocator@E@std@@@std@@V12@@std@@YAPEAV?$vector@EV?$allocator@E@std@@@0@QEAV10@$$QEAV10@@Z 000000014002c280 f i AdQuery.cpp.obj
 0001:0002b2d0       ??$destroy@UInfoPair@ith@@@?$_Default_allocator_traits@V?$allocator@UInfoPair@ith@@@std@@@std@@SAXAEAV?$allocator@UInfoPair@ith@@@1@QEAUInfoPair@ith@@@Z 000000014002c2d0 f i AdQuery.cpp.obj
 0001:0002b300       ??$destroy@UNamedEntry@ith@@@?$_Default_allocator_traits@V?$allocator@UNamedEntry@ith@@@std@@@std@@SAXAEAV?$allocator@UNamedEntry@ith@@@1@QEAUNamedEntry@ith@@@Z 000000014002c300 f i AdQuery.cpp.obj
 0001:0002b330       ??$destroy@V?$basic_string@_WU?$char_traits@_W@std@@V?$allocator@_W@2@@std@@@?$_Default_allocator_traits@V?$allocator@V?$basic_string@_WU?$char_traits@_W@std@@V?$allocator@_W@2@@std@@@std@@@std@@SAXAEAV?$allocator@V?$basic_string@_WU?$char_traits@_W@std@@V?$allocator@_W@2@@std@@@1@QEAV?$basic_string@_WU?$char_traits@_W@std@@V?$allocator@_W@2@@1@@Z 000000014002c330 f i AdQuery.cpp.obj
 0001:0002b360       ??$destroy_at@UInfoPair@ith@@@std@@YAXQEAUInfoPair@ith@@@Z 000000014002c360 f i AdQuery.cpp.obj
 0001:0002b390       ??$destroy_at@UNamedEntry@ith@@@std@@YAXQEAUNamedEntry@ith@@@Z 000000014002c390 f i AdQuery.cpp.obj
 0001:0002b3c0       ??$destroy_at@V?$basic_string@_WU?$char_traits@_W@std@@V?$allocator@_W@2@@std@@@std@@YAXQEAV?$basic_string@_WU?$char_traits@_W@std@@V?$allocator@_W@2@@0@@Z 000000014002c3c0 f i AdQuery.cpp.obj
 0001:0002b3f0       ??$distance@PEAE@std@@YA_JPEAE0@Z 000000014002c3f0 f i AdQuery.cpp.obj
 0001:0002b420       ??$emplace_back@AEBQEA_W@?$vector@V?$basic_string@_WU?$char_traits@_W@std@@V?$allocator@_W@2@@std@@V?$allocator@V?$basic_string@_WU?$char_traits@_W@std@@V?$allocator@_W@2@@std@@@2@@std@@QEAAAEAV?$basic_string@_WU?$char_traits@_W@std@@V?$allocator@_W@2@@1@AEBQEA_W@Z 000000014002c420 f i AdQuery.cpp.obj
 0001:0002b460       ??$exchange@PEAE$$T@std@@YAPEAEAEAPEAE$$QEA$$T@Z 000000014002c460 f i AdQuery.cpp.obj
 0001:0002b4b0       ??$exchange@PEAX$$T@std@@YAPEAXAEAPEAX$$QEA$$T@Z 000000014002c4b0 f i AdQuery.cpp.obj
 0001:0002b580       ??$make_unique@UAdResult@ith@@$$V$0A@@std@@YA?AV?$unique_ptr@UAdResult@ith@@U?$default_delete@UAdResult@ith@@@std@@@0@XZ 000000014002c580 f i AdQuery.cpp.obj
 0001:0002b7e0       ??$swap@UNamedEntry@ith@@$0A@@std@@YAXAEAUNamedEntry@ith@@0@Z 000000014002c7e0 f i AdQuery.cpp.obj
 0001:0002b8b0       ??$to_address@E@std@@YAPEAEQEAE@Z 000000014002c8b0 f i AdQuery.cpp.obj
 0001:0002b8c0       ??$to_address@PEA_W@std@@YAPEAPEA_WQEAPEA_W@Z 000000014002c8c0 f i AdQuery.cpp.obj
 0001:0002b8d0       ??$to_address@PEB_W@std@@YAPEAPEB_WQEAPEB_W@Z 000000014002c8d0 f i AdQuery.cpp.obj
 0001:0002b8e0       ??$to_address@QEB_W@std@@YAPEBQEB_WQEBQEB_W@Z 000000014002c8e0 f i AdQuery.cpp.obj
 0001:0002b8f0       ??0?$ComPtr@UIADs@@@WRL@Microsoft@@QEAA@XZ 000000014002c8f0 f i AdQuery.cpp.obj
 0001:0002b910       ??0?$ComPtr@UIDirectorySearch@@@WRL@Microsoft@@QEAA@XZ 000000014002c910 f i AdQuery.cpp.obj
 0001:0002b930       ??0?$_Func_base@XPEAX@std@@QEAA@XZ 000000014002c930 f i AdQuery.cpp.obj
 0001:0002b940       ??0?$_Func_class@XPEAX@std@@QEAA@XZ 000000014002c940 f i AdQuery.cpp.obj
 0001:0002b970       ??0?$_Non_trivial_copy@U?$_Optional_construct_base@V?$basic_string@_WU?$char_traits@_W@std@@V?$allocator@_W@2@@std@@@std@@@std@@QEAA@XZ 000000014002c970 f i AdQuery.cpp.obj
 0001:0002b9a0       ??0?$_Non_trivial_copy@U?$_Optional_construct_base@V?$vector@EV?$allocator@E@std@@@std@@@std@@@std@@QEAA@XZ 000000014002c9a0 f i AdQuery.cpp.obj
 0001:0002b9d0       ??0?$_Non_trivial_copy_assign@U?$_Optional_construct_base@V?$basic_string@_WU?$char_traits@_W@std@@V?$allocator@_W@2@@std@@@std@@V?$basic_string@_WU?$char_traits@_W@std@@V?$allocator@_W@2@@2@@std@@QEAA@$$QEAU01@@Z 000000014002c9d0 f i AdQuery.cpp.obj
 0001:0002ba10       ??0?$_Non_trivial_copy_assign@U?$_Optional_construct_base@V?$basic_string@_WU?$char_traits@_W@std@@V?$allocator@_W@2@@std@@@std@@V?$basic_string@_WU?$char_traits@_W@std@@V?$allocator@_W@2@@2@@std@@QEAA@XZ 000000014002ca10 f i AdQuery.cpp.obj
 0001:0002ba40       ??0?$_Non_trivial_copy_assign@U?$_Optional_construct_base@V?$vector@EV?$allocator@E@std@@@std@@@std@@V?$vector@EV?$allocator@E@std@@@2@@std@@QEAA@$$QEAU01@@Z 000000014002ca40 f i AdQuery.cpp.obj
 0001:0002ba80       ??0?$_Non_trivial_copy_assign@U?$_Optional_construct_base@V?$vector@EV?$allocator@E@std@@@std@@@std@@V?$vector@EV?$allocator@E@std@@@2@@std@@QEAA@XZ 000000014002ca80 f i AdQuery.cpp.obj
 0001:0002bab0       ??0?$_Non_trivial_move@U?$_Optional_construct_base@V?$basic_string@_WU?$char_traits@_W@std@@V?$allocator@_W@2@@std@@@std@@V?$basic_string@_WU?$char_traits@_W@std@@V?$allocator@_W@2@@2@@std@@QEAA@$$QEAU01@@Z 000000014002cab0 f i AdQuery.cpp.obj
 0001:0002bb00       ??0?$_Non_trivial_move@U?$_Optional_construct_base@V?$basic_string@_WU?$char_traits@_W@std@@V?$allocator@_W@2@@std@@@std@@V?$basic_string@_WU?$char_traits@_W@std@@V?$allocator@_W@2@@2@@std@@QEAA@XZ 000000014002cb00 f i AdQuery.cpp.obj
 0001:0002bb30       ??0?$_Non_trivial_move@U?$_Optional_construct_base@V?$vector@EV?$allocator@E@std@@@std@@@std@@V?$vector@EV?$allocator@E@std@@@2@@std@@QEAA@$$QEAU01@@Z 000000014002cb30 f i AdQuery.cpp.obj
 0001:0002bb80       ??0?$_Non_trivial_move@U?$_Optional_construct_base@V?$vector@EV?$allocator@E@std@@@std@@@std@@V?$vector@EV?$allocator@E@std@@@2@@std@@QEAA@XZ 000000014002cb80 f i AdQuery.cpp.obj
 0001:0002bbb0       ??0?$_Non_trivial_move_assign@U?$_Optional_construct_base@V?$basic_string@_WU?$char_traits@_W@std@@V?$allocator@_W@2@@std@@@std@@V?$basic_string@_WU?$char_traits@_W@std@@V?$allocator@_W@2@@2@@std@@QEAA@$$QEAU01@@Z 000000014002cbb0 f i AdQuery.cpp.obj
 0001:0002bbf0       ??0?$_Non_trivial_move_assign@U?$_Optional_construct_base@V?$basic_string@_WU?$char_traits@_W@std@@V?$allocator@_W@2@@std@@@std@@V?$basic_string@_WU?$char_traits@_W@std@@V?$allocator@_W@2@@2@@std@@QEAA@XZ 000000014002cbf0 f i AdQuery.cpp.obj
 0001:0002bc20       ??0?$_Non_trivial_move_assign@U?$_Optional_construct_base@V?$vector@EV?$allocator@E@std@@@std@@@std@@V?$vector@EV?$allocator@E@std@@@2@@std@@QEAA@$$QEAU01@@Z 000000014002cc20 f i AdQuery.cpp.obj
 0001:0002bc60       ??0?$_Non_trivial_move_assign@U?$_Optional_construct_base@V?$vector@EV?$allocator@E@std@@@std@@@std@@V?$vector@EV?$allocator@E@std@@@2@@std@@QEAA@XZ 000000014002cc60 f i AdQuery.cpp.obj
 0001:0002bc90       ??0?$_Optional_construct_base@I@std@@QEAA@XZ 000000014002cc90 f i AdQuery.cpp.obj
 0001:0002bcc0       ??0?$_Optional_construct_base@V?$basic_string@_WU?$char_traits@_W@std@@V?$allocator@_W@2@@std@@@std@@QEAA@XZ 000000014002ccc0 f i AdQuery.cpp.obj
 0001:0002bcf0       ??0?$_Optional_construct_base@V?$vector@EV?$allocator@E@std@@@std@@@std@@QEAA@XZ 000000014002ccf0 f i AdQuery.cpp.obj
 0001:0002bd20       ??0?$_Optional_construct_base@_J@std@@QEAA@XZ 000000014002cd20 f i AdQuery.cpp.obj
 0001:0002bd50       ??0?$_Optional_destruct_base@I$00@std@@QEAA@XZ 000000014002cd50 f i AdQuery.cpp.obj
 0001:0002bd90       ??0?$_Optional_destruct_base@V?$basic_string@_WU?$char_traits@_W@std@@V?$allocator@_W@2@@std@@$0A@@std@@QEAA@XZ 000000014002cd90 f i AdQuery.cpp.obj
 0001:0002bdd0       ??0?$_Optional_destruct_base@V?$vector@EV?$allocator@E@std@@@std@@$0A@@std@@QEAA@XZ 000000014002cdd0 f i AdQuery.cpp.obj
 0001:0002be10       ??0?$_Optional_destruct_base@_J$00@std@@QEAA@XZ 000000014002ce10 f i AdQuery.cpp.obj
 0001:0002be50       ??0?$_Uninitialized_backout_al@V?$allocator@E@std@@@std@@QEAA@PEAEAEAV?$allocator@E@1@@Z 000000014002ce50 f i AdQuery.cpp.obj
 0001:0002bea0       ??0?$_Uninitialized_backout_al@V?$allocator@PEA_W@std@@@std@@QEAA@PEAPEA_WAEAV?$allocator@PEA_W@1@@Z 000000014002cea0 f i AdQuery.cpp.obj
 0001:0002bef0       ??0?$_Uninitialized_backout_al@V?$allocator@PEB_W@std@@@std@@QEAA@PEAPEB_WAEAV?$allocator@PEB_W@1@@Z 000000014002cef0 f i AdQuery.cpp.obj
 0001:0002bf40       ??0?$_Uninitialized_backout_al@V?$allocator@UInfoPair@ith@@@std@@@std@@QEAA@PEAUInfoPair@ith@@AEAV?$allocator@UInfoPair@ith@@@1@@Z 000000014002cf40 f i AdQuery.cpp.obj
 0001:0002bf90       ??0?$_Uninitialized_backout_al@V?$allocator@UNamedEntry@ith@@@std@@@std@@QEAA@PEAUNamedEntry@ith@@AEAV?$allocator@UNamedEntry@ith@@@1@@Z 000000014002cf90 f i AdQuery.cpp.obj
 0001:0002bfe0       ??0?$_Uninitialized_backout_al@V?$allocator@V?$basic_string@_WU?$char_traits@_W@std@@V?$allocator@_W@2@@std@@@std@@@std@@QEAA@PEAV?$basic_string@_WU?$char_traits@_W@std@@V?$allocator@_W@2@@1@AEAV?$allocator@V?$basic_string@_WU?$char_traits@_W@std@@V?$allocator@_W@2@@std@@@1@@Z 000000014002cfe0 f i AdQuery.cpp.obj
 0001:0002c030       ??0?$_Vector_const_iterator@V?$_Vector_val@U?$_Simple_types@UNamedEntry@ith@@@std@@@std@@@std@@QEAA@PEAUNamedEntry@ith@@PEBU_Container_base12@1@@Z 000000014002d030 f i AdQuery.cpp.obj
 0001:0002c090       ??0?$_Vector_iterator@V?$_Vector_val@U?$_Simple_types@UNamedEntry@ith@@@std@@@std@@@std@@QEAA@PEAUNamedEntry@ith@@PEBU_Container_base12@1@@Z 000000014002d090 f i AdQuery.cpp.obj
 0001:0002c0e0       ??0?$_Vector_val@U?$_Simple_types@E@std@@@std@@QEAA@PEAE00@Z 000000014002d0e0 f i AdQuery.cpp.obj
 0001:0002c150       ??0?$_Vector_val@U?$_Simple_types@E@std@@@std@@QEAA@XZ 000000014002d150 f i AdQuery.cpp.obj
 0001:0002c1b0       ??0?$_Vector_val@U?$_Simple_types@PEA_W@std@@@std@@QEAA@XZ 000000014002d1b0 f i AdQuery.cpp.obj
 0001:0002c210       ??0?$_Vector_val@U?$_Simple_types@PEB_W@std@@@std@@QEAA@XZ 000000014002d210 f i AdQuery.cpp.obj
 0001:0002c270       ??0?$_Vector_val@U?$_Simple_types@UInfoPair@ith@@@std@@@std@@QEAA@XZ 000000014002d270 f i AdQuery.cpp.obj
 0001:0002c2d0       ??0?$_Vector_val@U?$_Simple_types@UNamedEntry@ith@@@std@@@std@@QEAA@XZ 000000014002d2d0 f i AdQuery.cpp.obj
 0001:0002c330       ??0?$_Vector_val@U?$_Simple_types@V?$basic_string@_WU?$char_traits@_W@std@@V?$allocator@_W@2@@std@@@std@@@std@@QEAA@XZ 000000014002d330 f i AdQuery.cpp.obj
 0001:0002c390       ??0?$allocator@E@std@@QEAA@XZ 000000014002d390 f i AdQuery.cpp.obj
 0001:0002c3a0       ??0?$allocator@PEA_W@std@@QEAA@XZ 000000014002d3a0 f i AdQuery.cpp.obj
 0001:0002c3b0       ??0?$allocator@PEB_W@std@@QEAA@XZ 000000014002d3b0 f i AdQuery.cpp.obj
 0001:0002c3c0       ??0?$allocator@UInfoPair@ith@@@std@@QEAA@XZ 000000014002d3c0 f i AdQuery.cpp.obj
 0001:0002c3d0       ??0?$allocator@UNamedEntry@ith@@@std@@QEAA@XZ 000000014002d3d0 f i AdQuery.cpp.obj
 0001:0002c3e0       ??0?$allocator@V?$basic_string@_WU?$char_traits@_W@std@@V?$allocator@_W@2@@std@@@std@@QEAA@XZ 000000014002d3e0 f i AdQuery.cpp.obj
 0001:0002c3f0       ??0?$basic_string@_WU?$char_traits@_W@std@@V?$allocator@_W@2@@std@@QEAA@$$QEAV01@@Z 000000014002d3f0 f i AdQuery.cpp.obj
 0001:0002c4b0       ??0?$basic_string@_WU?$char_traits@_W@std@@V?$allocator@_W@2@@std@@QEAA@U_String_constructor_concat_tag@1@AEBV01@QEB_W_K23@Z 000000014002d4b0 f i AdQuery.cpp.obj
 0001:0002c7a0       ??0?$basic_string@_WU?$char_traits@_W@std@@V?$allocator@_W@2@@std@@QEAA@XZ 000000014002d7a0 f i AdQuery.cpp.obj
 0001:0002c7f0       ??0?$initializer_list@PEB_W@std@@QEAA@PEBQEB_W0@Z 000000014002d7f0 f i AdQuery.cpp.obj
 0001:0002c830       ??0?$optional@I@std@@QEAA@Unullopt_t@1@@Z 000000014002d830 f i AdQuery.cpp.obj
 0001:0002c860       ??0?$optional@I@std@@QEAA@XZ 000000014002d860 f i AdQuery.cpp.obj
 0001:0002c890       ??0?$optional@V?$basic_string@_WU?$char_traits@_W@std@@V?$allocator@_W@2@@std@@@std@@QEAA@$$QEAV01@@Z 000000014002d890 f i AdQuery.cpp.obj
 0001:0002c8d0       ??0?$optional@V?$basic_string@_WU?$char_traits@_W@std@@V?$allocator@_W@2@@std@@@std@@QEAA@Unullopt_t@1@@Z 000000014002d8d0 f i AdQuery.cpp.obj
 0001:0002c900       ??0?$optional@V?$basic_string@_WU?$char_traits@_W@std@@V?$allocator@_W@2@@std@@@std@@QEAA@XZ 000000014002d900 f i AdQuery.cpp.obj
 0001:0002c930       ??0?$optional@V?$vector@EV?$allocator@E@std@@@std@@@std@@QEAA@$$QEAV01@@Z 000000014002d930 f i AdQuery.cpp.obj
 0001:0002c970       ??0?$optional@V?$vector@EV?$allocator@E@std@@@std@@@std@@QEAA@Unullopt_t@1@@Z 000000014002d970 f i AdQuery.cpp.obj
 0001:0002c9a0       ??0?$optional@V?$vector@EV?$allocator@E@std@@@std@@@std@@QEAA@XZ 000000014002d9a0 f i AdQuery.cpp.obj
 0001:0002c9d0       ??0?$optional@_J@std@@QEAA@Unullopt_t@1@@Z 000000014002d9d0 f i AdQuery.cpp.obj
 0001:0002ca00       ??0?$optional@_J@std@@QEAA@XZ 000000014002da00 f i AdQuery.cpp.obj
 0001:0002ca30       ??0?$vector@EV?$allocator@E@std@@@std@@QEAA@$$QEAV01@@Z 000000014002da30 f i AdQuery.cpp.obj
 0001:0002cbd0       ??0?$vector@EV?$allocator@E@std@@@std@@QEAA@AEBV01@@Z 000000014002dbd0 f i AdQuery.cpp.obj
 0001:0002ccb0       ??0?$vector@EV?$allocator@E@std@@@std@@QEAA@XZ 000000014002dcb0 f i AdQuery.cpp.obj
 0001:0002cd30       ??0?$vector@PEA_WV?$allocator@PEA_W@std@@@std@@QEAA@XZ 000000014002dd30 f i AdQuery.cpp.obj
 0001:0002cdb0       ??0?$vector@PEB_WV?$allocator@PEB_W@std@@@std@@QEAA@V?$initializer_list@PEB_W@1@AEBV?$allocator@PEB_W@1@@Z 000000014002ddb0 f i AdQuery.cpp.obj
 0001:0002ce60       ??0?$vector@UInfoPair@ith@@V?$allocator@UInfoPair@ith@@@std@@@std@@QEAA@XZ 000000014002de60 f i AdQuery.cpp.obj
 0001:0002cee0       ??0?$vector@UNamedEntry@ith@@V?$allocator@UNamedEntry@ith@@@std@@@std@@QEAA@XZ 000000014002dee0 f i AdQuery.cpp.obj
 0001:0002cf60       ??0?$vector@V?$basic_string@_WU?$char_traits@_W@std@@V?$allocator@_W@2@@std@@V?$allocator@V?$basic_string@_WU?$char_traits@_W@std@@V?$allocator@_W@2@@std@@@2@@std@@QEAA@XZ 000000014002df60 f i AdQuery.cpp.obj
 0001:0002cfe0       ??0AdResult@ith@@QEAA@XZ   000000014002dfe0 f i AdQuery.cpp.obj
 0001:0002d0b0       ??0BstrPtr@ith@@QEAA@PEB_W@Z 000000014002e0b0 f i AdQuery.cpp.obj
 0001:0002d110       ??0InfoPair@ith@@QEAA@$$QEAU01@@Z 000000014002e110 f i AdQuery.cpp.obj
 0001:0002d190       ??0NamedEntry@ith@@QEAA@$$QEAU01@@Z 000000014002e190 f i AdQuery.cpp.obj
 0001:0002d1f0       ??0NamedEntry@ith@@QEAA@XZ 000000014002e1f0 f i AdQuery.cpp.obj
 0001:0002d220       ??0VariantPtr@ith@@QEAA@XZ 000000014002e220 f i AdQuery.cpp.obj
 0001:0002d250       ??0_Nontrivial_dummy_type@std@@QEAA@XZ 000000014002e250 f i AdQuery.cpp.obj
 0001:0002d260       ??1?$ComPtr@UIADs@@@WRL@Microsoft@@QEAA@XZ 000000014002e260 f i AdQuery.cpp.obj
 0001:0002d290       ??1?$ComPtr@UIDirectorySearch@@@WRL@Microsoft@@QEAA@XZ 000000014002e290 f i AdQuery.cpp.obj
 0001:0002d2c0       ??1?$_Allocation_guard@V?$allocator@PEA_W@std@@@std@@QEAA@XZ 000000014002e2c0 f i AdQuery.cpp.obj
 0001:0002d320       ??1?$_Func_class@XPEAX@std@@QEAA@XZ 000000014002e320 f i AdQuery.cpp.obj
 0001:0002d350       ??1?$_Non_trivial_copy@U?$_Optional_construct_base@V?$basic_string@_WU?$char_traits@_W@std@@V?$allocator@_W@2@@std@@@std@@@std@@QEAA@XZ 000000014002e350 f i AdQuery.cpp.obj
 0001:0002d380       ??1?$_Non_trivial_copy@U?$_Optional_construct_base@V?$vector@EV?$allocator@E@std@@@std@@@std@@@std@@QEAA@XZ 000000014002e380 f i AdQuery.cpp.obj
 0001:0002d3b0       ??1?$_Non_trivial_copy_assign@U?$_Optional_construct_base@V?$basic_string@_WU?$char_traits@_W@std@@V?$allocator@_W@2@@std@@@std@@V?$basic_string@_WU?$char_traits@_W@std@@V?$allocator@_W@2@@2@@std@@QEAA@XZ 000000014002e3b0 f i AdQuery.cpp.obj
 0001:0002d3e0       ??1?$_Non_trivial_copy_assign@U?$_Optional_construct_base@V?$vector@EV?$allocator@E@std@@@std@@@std@@V?$vector@EV?$allocator@E@std@@@2@@std@@QEAA@XZ 000000014002e3e0 f i AdQuery.cpp.obj
 0001:0002d410       ??1?$_Non_trivial_move@U?$_Optional_construct_base@V?$basic_string@_WU?$char_traits@_W@std@@V?$allocator@_W@2@@std@@@std@@V?$basic_string@_WU?$char_traits@_W@std@@V?$allocator@_W@2@@2@@std@@QEAA@XZ 000000014002e410 f i AdQuery.cpp.obj
 0001:0002d440       ??1?$_Non_trivial_move@U?$_Optional_construct_base@V?$vector@EV?$allocator@E@std@@@std@@@std@@V?$vector@EV?$allocator@E@std@@@2@@std@@QEAA@XZ 000000014002e440 f i AdQuery.cpp.obj
 0001:0002d470       ??1?$_Non_trivial_move_assign@U?$_Optional_construct_base@V?$basic_string@_WU?$char_traits@_W@std@@V?$allocator@_W@2@@std@@@std@@V?$basic_string@_WU?$char_traits@_W@std@@V?$allocator@_W@2@@2@@std@@QEAA@XZ 000000014002e470 f i AdQuery.cpp.obj
 0001:0002d4a0       ??1?$_Non_trivial_move_assign@U?$_Optional_construct_base@V?$vector@EV?$allocator@E@std@@@std@@@std@@V?$vector@EV?$allocator@E@std@@@2@@std@@QEAA@XZ 000000014002e4a0 f i AdQuery.cpp.obj
 0001:0002d4d0       ??1?$_Optional_construct_base@V?$basic_string@_WU?$char_traits@_W@std@@V?$allocator@_W@2@@std@@@std@@QEAA@XZ 000000014002e4d0 f i AdQuery.cpp.obj
 0001:0002d500       ??1?$_Optional_construct_base@V?$vector@EV?$allocator@E@std@@@std@@@std@@QEAA@XZ 000000014002e500 f i AdQuery.cpp.obj
 0001:0002d530       ??1?$_Optional_destruct_base@V?$basic_string@_WU?$char_traits@_W@std@@V?$allocator@_W@2@@std@@$0A@@std@@QEAA@XZ 000000014002e530 f i AdQuery.cpp.obj
 0001:0002d580       ??1?$_Optional_destruct_base@V?$vector@EV?$allocator@E@std@@@std@@$0A@@std@@QEAA@XZ 000000014002e580 f i AdQuery.cpp.obj
 0001:0002d5d0       ??1?$_Tidy_guard@V?$vector@EV?$allocator@E@std@@@std@@@std@@QEAA@XZ 000000014002e5d0 f i AdQuery.cpp.obj
 0001:0002d610       ??1?$_Tidy_guard@V?$vector@PEB_WV?$allocator@PEB_W@std@@@std@@@std@@QEAA@XZ 000000014002e610 f i AdQuery.cpp.obj
 0001:0002d650       ??1?$_Uninitialized_backout_al@V?$allocator@E@std@@@std@@QEAA@XZ 000000014002e650 f i AdQuery.cpp.obj
 0001:0002d690       ??1?$_Uninitialized_backout_al@V?$allocator@PEA_W@std@@@std@@QEAA@XZ 000000014002e690 f i AdQuery.cpp.obj
 0001:0002d6d0       ??1?$_Uninitialized_backout_al@V?$allocator@PEB_W@std@@@std@@QEAA@XZ 000000014002e6d0 f i AdQuery.cpp.obj
 0001:0002d710       ??1?$_Uninitialized_backout_al@V?$allocator@UInfoPair@ith@@@std@@@std@@QEAA@XZ 000000014002e710 f i AdQuery.cpp.obj
 0001:0002d750       ??1?$_Uninitialized_backout_al@V?$allocator@UNamedEntry@ith@@@std@@@std@@QEAA@XZ 000000014002e750 f i AdQuery.cpp.obj
 0001:0002d790       ??1?$_Uninitialized_backout_al@V?$allocator@V?$basic_string@_WU?$char_traits@_W@std@@V?$allocator@_W@2@@std@@@std@@@std@@QEAA@XZ 000000014002e790 f i AdQuery.cpp.obj
 0001:0002d7d0       ??1?$_Vector_const_iterator@V?$_Vector_val@U?$_Simple_types@UNamedEntry@ith@@@std@@@std@@@std@@QEAA@XZ 000000014002e7d0 f i AdQuery.cpp.obj
 0001:0002d800       ??1?$_Vector_iterator@V?$_Vector_val@U?$_Simple_types@UNamedEntry@ith@@@std@@@std@@@std@@QEAA@XZ 000000014002e800 f i AdQuery.cpp.obj
 0001:0002d830       ??1?$function@$$A6AXPEAX@Z@std@@QEAA@XZ 000000014002e830 f i AdQuery.cpp.obj
 0001:0002d860       ??1?$optional@V?$basic_string@_WU?$char_traits@_W@std@@V?$allocator@_W@2@@std@@@std@@QEAA@XZ 000000014002e860 f i AdQuery.cpp.obj
 0001:0002d890       ??1?$optional@V?$vector@EV?$allocator@E@std@@@std@@@std@@QEAA@XZ 000000014002e890 f i AdQuery.cpp.obj
 0001:0002d8c0       ??1?$unique_ptr@UAdResult@ith@@U?$default_delete@UAdResult@ith@@@std@@@std@@QEAA@XZ 000000014002e8c0 f i AdQuery.cpp.obj
 0001:0002d920       ??1?$vector@EV?$allocator@E@std@@@std@@QEAA@XZ 000000014002e920 f i AdQuery.cpp.obj
 0001:0002d9c0       ??1?$vector@PEA_WV?$allocator@PEA_W@std@@@std@@QEAA@XZ 000000014002e9c0 f i AdQuery.cpp.obj
 0001:0002da60       ??1?$vector@PEB_WV?$allocator@PEB_W@std@@@std@@QEAA@XZ 000000014002ea60 f i AdQuery.cpp.obj
 0001:0002db00       ??1?$vector@UInfoPair@ith@@V?$allocator@UInfoPair@ith@@@std@@@std@@QEAA@XZ 000000014002eb00 f i AdQuery.cpp.obj
 0001:0002dba0       ??1?$vector@UNamedEntry@ith@@V?$allocator@UNamedEntry@ith@@@std@@@std@@QEAA@XZ 000000014002eba0 f i AdQuery.cpp.obj
 0001:0002dc40       ??1?$vector@V?$basic_string@_WU?$char_traits@_W@std@@V?$allocator@_W@2@@std@@V?$allocator@V?$basic_string@_WU?$char_traits@_W@std@@V?$allocator@_W@2@@std@@@2@@std@@QEAA@XZ 000000014002ec40 f i AdQuery.cpp.obj
 0001:0002dce0       ??1AdResult@ith@@QEAA@XZ   000000014002ece0 f i AdQuery.cpp.obj
 0001:0002dd70       ??1BstrPtr@ith@@QEAA@XZ    000000014002ed70 f i AdQuery.cpp.obj
 0001:0002dda0       ??1InfoPair@ith@@QEAA@XZ   000000014002eda0 f i AdQuery.cpp.obj
 0001:0002dde0       ??1NamedEntry@ith@@QEAA@XZ 000000014002ede0 f i AdQuery.cpp.obj
 0001:0002de10       ??1VariantPtr@ith@@QEAA@XZ 000000014002ee10 f i AdQuery.cpp.obj
 0001:0002de40       ??1_Reallocation_guard2@?$vector@PEA_WV?$allocator@PEA_W@std@@@std@@QEAA@XZ 000000014002ee40 f i AdQuery.cpp.obj
 0001:0002dec0       ??1_Reallocation_guard2@?$vector@UInfoPair@ith@@V?$allocator@UInfoPair@ith@@@std@@@std@@QEAA@XZ 000000014002eec0 f i AdQuery.cpp.obj
 0001:0002df40       ??1_Reallocation_guard2@?$vector@UNamedEntry@ith@@V?$allocator@UNamedEntry@ith@@@std@@@std@@QEAA@XZ 000000014002ef40 f i AdQuery.cpp.obj
 0001:0002dfc0       ??1_Reallocation_guard2@?$vector@V?$basic_string@_WU?$char_traits@_W@std@@V?$allocator@_W@2@@std@@V?$allocator@V?$basic_string@_WU?$char_traits@_W@std@@V?$allocator@_W@2@@std@@@2@@std@@QEAA@XZ 000000014002efc0 f i AdQuery.cpp.obj
 0001:0002e040       ??4?$basic_string@_WU?$char_traits@_W@std@@V?$allocator@_W@2@@std@@QEAAAEAV01@$$QEAV01@@Z 000000014002f040 f i AdQuery.cpp.obj
 0001:0002e0e0       ??4?$basic_string@_WU?$char_traits@_W@std@@V?$allocator@_W@2@@std@@QEAAAEAV01@AEBV01@@Z 000000014002f0e0 f i AdQuery.cpp.obj
 0001:0002e1a0       ??4?$basic_string@_WU?$char_traits@_W@std@@V?$allocator@_W@2@@std@@QEAAAEAV01@QEB_W@Z 000000014002f1a0 f i AdQuery.cpp.obj
 0001:0002e1d0       ??4?$vector@EV?$allocator@E@std@@@std@@QEAAAEAV01@$$QEAV01@@Z 000000014002f1d0 f i AdQuery.cpp.obj
 0001:0002e290       ??4?$vector@EV?$allocator@E@std@@@std@@QEAAAEAV01@AEBV01@@Z 000000014002f290 f i AdQuery.cpp.obj
 0001:0002e350       ??4?$vector@UNamedEntry@ith@@V?$allocator@UNamedEntry@ith@@@std@@@std@@QEAAAEAV01@$$QEAV01@@Z 000000014002f350 f i AdQuery.cpp.obj
 0001:0002e410       ??4?$vector@V?$basic_string@_WU?$char_traits@_W@std@@V?$allocator@_W@2@@std@@V?$allocator@V?$basic_string@_WU?$char_traits@_W@std@@V?$allocator@_W@2@@std@@@2@@std@@QEAAAEAV01@$$QEAV01@@Z 000000014002f410 f i AdQuery.cpp.obj
 0001:0002e4d0       ??4NamedEntry@ith@@QEAAAEAU01@$$QEAU01@@Z 000000014002f4d0 f i AdQuery.cpp.obj
 0001:0002e520       ??A?$vector@EV?$allocator@E@std@@@std@@QEAAAEAE_K@Z 000000014002f520 f i AdQuery.cpp.obj
 0001:0002e5d0       ??A?$vector@EV?$allocator@E@std@@@std@@QEBAAEBE_K@Z 000000014002f5d0 f i AdQuery.cpp.obj
 0001:0002e680       ??B?$optional@I@std@@QEBA_NXZ 000000014002f680 f i AdQuery.cpp.obj
 0001:0002e6a0       ??B?$optional@V?$basic_string@_WU?$char_traits@_W@std@@V?$allocator@_W@2@@std@@@std@@QEBA_NXZ 000000014002f6a0 f i AdQuery.cpp.obj
 0001:0002e6c0       ??B?$optional@V?$vector@EV?$allocator@E@std@@@std@@@std@@QEBA_NXZ 000000014002f6c0 f i AdQuery.cpp.obj
 0001:0002e6e0       ??B?$optional@_J@std@@QEBA_NXZ 000000014002f6e0 f i AdQuery.cpp.obj
 0001:0002e700       ??BBstrPtr@ith@@QEBAPEA_WXZ 000000014002f700 f i AdQuery.cpp.obj
 0001:0002e720       ??C?$ComPtr@UIADs@@@WRL@Microsoft@@QEBAPEAUIADs@@XZ 000000014002f720 f i AdQuery.cpp.obj
 0001:0002e740       ??C?$ComPtr@UIDirectorySearch@@@WRL@Microsoft@@QEBAPEAUIDirectorySearch@@XZ 000000014002f740 f i AdQuery.cpp.obj
 0001:0002e760       ??C?$optional@V?$basic_string@_WU?$char_traits@_W@std@@V?$allocator@_W@2@@std@@@std@@QEAAPEAV?$basic_string@_WU?$char_traits@_W@std@@V?$allocator@_W@2@@1@XZ 000000014002f760 f i AdQuery.cpp.obj
 0001:0002e7f0       ??C?$optional@V?$basic_string@_WU?$char_traits@_W@std@@V?$allocator@_W@2@@std@@@std@@QEBAPEBV?$basic_string@_WU?$char_traits@_W@std@@V?$allocator@_W@2@@1@XZ 000000014002f7f0 f i AdQuery.cpp.obj
 0001:0002e880       ??C?$unique_ptr@UAdResult@ith@@U?$default_delete@UAdResult@ith@@@std@@@std@@QEBAPEAUAdResult@ith@@XZ 000000014002f880 f i AdQuery.cpp.obj
 0001:0002e8a0       ??D?$_Optional_construct_base@I@std@@QEGAAAEAIXZ 000000014002f8a0 f i AdQuery.cpp.obj
 0001:0002e920       ??D?$_Optional_construct_base@V?$basic_string@_WU?$char_traits@_W@std@@V?$allocator@_W@2@@std@@@std@@QEGAAAEAV?$basic_string@_WU?$char_traits@_W@std@@V?$allocator@_W@2@@1@XZ 000000014002f920 f i AdQuery.cpp.obj
 0001:0002e9a0       ??D?$_Optional_construct_base@V?$basic_string@_WU?$char_traits@_W@std@@V?$allocator@_W@2@@std@@@std@@QEGBAAEBV?$basic_string@_WU?$char_traits@_W@std@@V?$allocator@_W@2@@1@XZ 000000014002f9a0 f i AdQuery.cpp.obj
 0001:0002ea20       ??D?$_Optional_construct_base@V?$basic_string@_WU?$char_traits@_W@std@@V?$allocator@_W@2@@std@@@std@@QEHAA$$QEAV?$basic_string@_WU?$char_traits@_W@std@@V?$allocator@_W@2@@1@XZ 000000014002fa20 f i AdQuery.cpp.obj
 0001:0002eaa0       ??D?$_Optional_construct_base@V?$vector@EV?$allocator@E@std@@@std@@@std@@QEGAAAEAV?$vector@EV?$allocator@E@std@@@1@XZ 000000014002faa0 f i AdQuery.cpp.obj
 0001:0002eb20       ??D?$_Optional_construct_base@V?$vector@EV?$allocator@E@std@@@std@@@std@@QEHAA$$QEAV?$vector@EV?$allocator@E@std@@@1@XZ 000000014002fb20 f i AdQuery.cpp.obj
 0001:0002eba0       ??D?$_Optional_construct_base@_J@std@@QEGAAAEA_JXZ 000000014002fba0 f i AdQuery.cpp.obj
 0001:0002ec20       ??IVariantPtr@ith@@QEAAPEAUtagVARIANT@@XZ 000000014002fc20 f i AdQuery.cpp.obj
 0001:0002ec30       ??R<lambda_1>@?1???$_Append@_W@?$basic_string@_WU?$char_traits@_W@std@@V?$allocator@_W@2@@std@@AEAAAEAV12@QEB_W_K@Z@SA@QEA_W0101@Z 000000014002fc30 f i AdQuery.cpp.obj
 0001:0002ece0       ??R<lambda_1>@?1???$_Assign@_W@?$basic_string@_WU?$char_traits@_W@std@@V?$allocator@_W@2@@std@@AEAAAEAV12@QEB_W_K@Z@SA@QEA_W10@Z 000000014002fce0 f i AdQuery.cpp.obj
 0001:0002ed50       ??R<lambda_1>@?1???$_Insert@_W@?$basic_string@_WU?$char_traits@_W@std@@V?$allocator@_W@2@@std@@AEAAAEAV12@_KQEB_W0@Z@SA@QEA_W10010@Z 000000014002fd50 f i AdQuery.cpp.obj
 0001:0002ee20       ??R<lambda_1>@?1??push_back@?$basic_string@_WU?$char_traits@_W@std@@V?$allocator@_W@2@@std@@QEAAX_W@Z@SA@QEA_WQEB_W_K0@Z 000000014002fe20 f i AdQuery.cpp.obj
 0001:0002eec0       ??R<lambda_1>@?1??reserve@?$basic_string@_WU?$char_traits@_W@std@@V?$allocator@_W@2@@std@@QEAAX_K@Z@SA@QEA_WQEB_W0@Z 000000014002fec0 f i AdQuery.cpp.obj
 0001:0002ef10       ??R?$_Func_class@XPEAX@std@@QEBAXPEAX@Z 000000014002ff10 f i AdQuery.cpp.obj
 0001:0002ef90       ??R?$default_delete@UAdResult@ith@@@std@@QEBAXPEAUAdResult@ith@@@Z 000000014002ff90 f i AdQuery.cpp.obj
 0001:0002eff0       ??Y?$basic_string@_WU?$char_traits@_W@std@@V?$allocator@_W@2@@std@@QEAAAEAV01@QEB_W@Z 000000014002fff0 f i AdQuery.cpp.obj
 0001:0002f020       ??Y?$basic_string@_WU?$char_traits@_W@std@@V?$allocator@_W@2@@std@@QEAAAEAV01@_W@Z 0000000140030020 f i AdQuery.cpp.obj
 0001:0002f060       ??_G?$basic_string@_WU?$char_traits@_W@std@@V?$allocator@_W@2@@std@@QEAAPEAXI@Z 0000000140030060 f i AdQuery.cpp.obj
 0001:0002f0b0       ??_G?$vector@EV?$allocator@E@std@@@std@@QEAAPEAXI@Z 00000001400300b0 f i AdQuery.cpp.obj
 0001:0002f100       ??_GAdResult@ith@@QEAAPEAXI@Z 0000000140030100 f i AdQuery.cpp.obj
 0001:0002f150       ??_GInfoPair@ith@@QEAAPEAXI@Z 0000000140030150 f i AdQuery.cpp.obj
 0001:0002f1a0       ??_GNamedEntry@ith@@QEAAPEAXI@Z 00000001400301a0 f i AdQuery.cpp.obj
 0001:0002f1f0       ?BytesToLdapFilter@ith@@YA?AV?$basic_string@_WU?$char_traits@_W@std@@V?$allocator@_W@2@@std@@AEBV?$vector@EV?$allocator@E@std@@@3@@Z 00000001400301f0 f i AdQuery.cpp.obj
 0001:0002f3a0       ?FileTime64ToString@ith@@YA?AV?$basic_string@_WU?$char_traits@_W@std@@V?$allocator@_W@2@@std@@_J@Z 00000001400303a0 f i AdQuery.cpp.obj
 0001:0002f610       ?Get@?$ComPtr@UIDirectorySearch@@@WRL@Microsoft@@QEBAPEAUIDirectorySearch@@XZ 0000000140030610 f i AdQuery.cpp.obj
 0001:0002f630       ?GetAddressOf@?$ComPtr@UIADs@@@WRL@Microsoft@@QEAAPEAPEAUIADs@@XZ 0000000140030630 f i AdQuery.cpp.obj
 0001:0002f640       ?GetAddressOf@?$ComPtr@UIDirectorySearch@@@WRL@Microsoft@@QEAAPEAPEAUIDirectorySearch@@XZ 0000000140030640 f i AdQuery.cpp.obj
 0001:0002f650       ?InternalRelease@?$ComPtr@UIADs@@@WRL@Microsoft@@IEAAKXZ 0000000140030650 f i AdQuery.cpp.obj
 0001:0002f6c0       ?InternalRelease@?$ComPtr@UIDirectorySearch@@@WRL@Microsoft@@IEAAKXZ 00000001400306c0 f i AdQuery.cpp.obj
 0001:0002f730       ?LdapEscape@ith@@YA?AV?$basic_string@_WU?$char_traits@_W@std@@V?$allocator@_W@2@@std@@AEBV23@@Z 0000000140030730 f i AdQuery.cpp.obj
 0001:0002f970       ?LessNoCase@ith@@YA_NAEBV?$basic_string@_WU?$char_traits@_W@std@@V?$allocator@_W@2@@std@@0@Z 0000000140030970 f i AdQuery.cpp.obj
 0001:0002fa00       ?SidReplaceRid@ith@@YA?AV?$optional@V?$vector@EV?$allocator@E@std@@@std@@@std@@AEBV?$vector@EV?$allocator@E@std@@@3@I@Z 0000000140030a00 f i AdQuery.cpp.obj
 0001:0002fcd0       ?SidRid@ith@@YA?AV?$optional@I@std@@AEBV?$vector@EV?$allocator@E@std@@@3@@Z 0000000140030cd0 f i AdQuery.cpp.obj
 0001:0002ff30       ?_Activate_SSO_buffer@?$_String_val@U?$_Simple_types@_W@std@@@std@@QEAAXXZ 0000000140030f30 f i AdQuery.cpp.obj
 0001:0002ffa0       ?_Buy_nonzero@?$vector@EV?$allocator@E@std@@@std@@AEAAX_K@Z 0000000140030fa0 f i AdQuery.cpp.obj
 0001:0002fff0       ?_Buy_nonzero@?$vector@PEB_WV?$allocator@PEB_W@std@@@std@@AEAAX_K@Z 0000000140030ff0 f i AdQuery.cpp.obj
 0001:00030040       ?_Buy_raw@?$vector@EV?$allocator@E@std@@@std@@AEAAX_K@Z 0000000140031040 f i AdQuery.cpp.obj
 0001:00030100       ?_Buy_raw@?$vector@PEB_WV?$allocator@PEB_W@std@@@std@@AEAAX_K@Z 0000000140031100 f i AdQuery.cpp.obj
 0001:000301c0       ?_Calculate_growth@?$basic_string@_WU?$char_traits@_W@std@@V?$allocator@_W@2@@std@@AEBA_K_K@Z 00000001400311c0 f i AdQuery.cpp.obj
 0001:00030220       ?_Calculate_growth@?$vector@EV?$allocator@E@std@@@std@@AEBA_K_K@Z 0000000140031220 f i AdQuery.cpp.obj
 0001:000302f0       ?_Calculate_growth@?$vector@PEA_WV?$allocator@PEA_W@std@@@std@@AEBA_K_K@Z 00000001400312f0 f i AdQuery.cpp.obj
 0001:000303c0       ?_Calculate_growth@?$vector@UInfoPair@ith@@V?$allocator@UInfoPair@ith@@@std@@@std@@AEBA_K_K@Z 00000001400313c0 f i AdQuery.cpp.obj
 0001:00030490       ?_Calculate_growth@?$vector@UNamedEntry@ith@@V?$allocator@UNamedEntry@ith@@@std@@@std@@AEBA_K_K@Z 0000000140031490 f i AdQuery.cpp.obj
 0001:00030560       ?_Calculate_growth@?$vector@V?$basic_string@_WU?$char_traits@_W@std@@V?$allocator@_W@2@@std@@V?$allocator@V?$basic_string@_WU?$char_traits@_W@std@@V?$allocator@_W@2@@std@@@2@@std@@AEBA_K_K@Z 0000000140031560 f i AdQuery.cpp.obj
 0001:00030630       ?_Change_array@?$vector@PEA_WV?$allocator@PEA_W@std@@@std@@AEAAXQEAPEA_W_K1@Z 0000000140031630 f i AdQuery.cpp.obj
 0001:00030770       ?_Change_array@?$vector@UInfoPair@ith@@V?$allocator@UInfoPair@ith@@@std@@@std@@AEAAXQEAUInfoPair@ith@@_K1@Z 0000000140031770 f i AdQuery.cpp.obj
 0001:000308c0       ?_Change_array@?$vector@UNamedEntry@ith@@V?$allocator@UNamedEntry@ith@@@std@@@std@@AEAAXQEAUNamedEntry@ith@@_K1@Z 00000001400318c0 f i AdQuery.cpp.obj
 0001:00030a10       ?_Change_array@?$vector@V?$basic_string@_WU?$char_traits@_W@std@@V?$allocator@_W@2@@std@@V?$allocator@V?$basic_string@_WU?$char_traits@_W@std@@V?$allocator@_W@2@@std@@@2@@std@@AEAAXQEAV?$basic_string@_WU?$char_traits@_W@std@@V?$allocator@_W@2@@2@_K1@Z 0000000140031a10 f i AdQuery.cpp.obj
 0001:00030b60       ?_Check_offset@?$_String_val@U?$_Simple_types@_W@std@@@std@@QEBAX_K@Z 0000000140031b60 f i AdQuery.cpp.obj
 0001:00030ba0       ?_Clear_and_reserve_geometric@?$vector@EV?$allocator@E@std@@@std@@AEAAX_K@Z 0000000140031ba0 f i AdQuery.cpp.obj
 0001:00030cf0       ?_Construct_empty@?$basic_string@_WU?$char_traits@_W@std@@V?$allocator@_W@2@@std@@AEAAXXZ 0000000140031cf0 f i AdQuery.cpp.obj
 0001:00030da0       ?_Empty@?$_Func_class@XPEAX@std@@IEBA_NXZ 0000000140031da0 f i AdQuery.cpp.obj
 0001:00030df0       ?_Eos@?$basic_string@_WU?$char_traits@_W@std@@V?$allocator@_W@2@@std@@AEAAX_K@Z 0000000140031df0 f i AdQuery.cpp.obj
 0001:00030e60       ?_Get_first@?$_Compressed_pair@U?$default_delete@UAdResult@ith@@@std@@PEAUAdResult@ith@@$00@std@@QEAAAEAU?$default_delete@UAdResult@ith@@@2@XZ 0000000140031e60 f i AdQuery.cpp.obj
 0001:00030e70       ?_Get_first@?$_Compressed_pair@V?$allocator@E@std@@V?$_Vector_val@U?$_Simple_types@E@std@@@2@$00@std@@QEAAAEAV?$allocator@E@2@XZ 0000000140031e70 f i AdQuery.cpp.obj
 0001:00030e80       ?_Get_first@?$_Compressed_pair@V?$allocator@E@std@@V?$_Vector_val@U?$_Simple_types@E@std@@@2@$00@std@@QEBAAEBV?$allocator@E@2@XZ 0000000140031e80 f i AdQuery.cpp.obj
 0001:00030e90       ?_Get_first@?$_Compressed_pair@V?$allocator@PEA_W@std@@V?$_Vector_val@U?$_Simple_types@PEA_W@std@@@2@$00@std@@QEAAAEAV?$allocator@PEA_W@2@XZ 0000000140031e90 f i AdQuery.cpp.obj
 0001:00030ea0       ?_Get_first@?$_Compressed_pair@V?$allocator@PEA_W@std@@V?$_Vector_val@U?$_Simple_types@PEA_W@std@@@2@$00@std@@QEBAAEBV?$allocator@PEA_W@2@XZ 0000000140031ea0 f i AdQuery.cpp.obj
 0001:00030eb0       ?_Get_first@?$_Compressed_pair@V?$allocator@PEB_W@std@@V?$_Vector_val@U?$_Simple_types@PEB_W@std@@@2@$00@std@@QEAAAEAV?$allocator@PEB_W@2@XZ 0000000140031eb0 f i AdQuery.cpp.obj
 0001:00030ec0       ?_Get_first@?$_Compressed_pair@V?$allocator@PEB_W@std@@V?$_Vector_val@U?$_Simple_types@PEB_W@std@@@2@$00@std@@QEBAAEBV?$allocator@PEB_W@2@XZ 0000000140031ec0 f i AdQuery.cpp.obj
 0001:00030ed0       ?_Get_first@?$_Compressed_pair@V?$allocator@UInfoPair@ith@@@std@@V?$_Vector_val@U?$_Simple_types@UInfoPair@ith@@@std@@@2@$00@std@@QEAAAEAV?$allocator@UInfoPair@ith@@@2@XZ 0000000140031ed0 f i AdQuery.cpp.obj
 0001:00030ee0       ?_Get_first@?$_Compressed_pair@V?$allocator@UInfoPair@ith@@@std@@V?$_Vector_val@U?$_Simple_types@UInfoPair@ith@@@std@@@2@$00@std@@QEBAAEBV?$allocator@UInfoPair@ith@@@2@XZ 0000000140031ee0 f i AdQuery.cpp.obj
 0001:00030ef0       ?_Get_first@?$_Compressed_pair@V?$allocator@UNamedEntry@ith@@@std@@V?$_Vector_val@U?$_Simple_types@UNamedEntry@ith@@@std@@@2@$00@std@@QEAAAEAV?$allocator@UNamedEntry@ith@@@2@XZ 0000000140031ef0 f i AdQuery.cpp.obj
 0001:00030f00       ?_Get_first@?$_Compressed_pair@V?$allocator@UNamedEntry@ith@@@std@@V?$_Vector_val@U?$_Simple_types@UNamedEntry@ith@@@std@@@2@$00@std@@QEBAAEBV?$allocator@UNamedEntry@ith@@@2@XZ 0000000140031f00 f i AdQuery.cpp.obj
 0001:00030f10       ?_Get_first@?$_Compressed_pair@V?$allocator@V?$basic_string@_WU?$char_traits@_W@std@@V?$allocator@_W@2@@std@@@std@@V?$_Vector_val@U?$_Simple_types@V?$basic_string@_WU?$char_traits@_W@std@@V?$allocator@_W@2@@std@@@std@@@2@$00@std@@QEAAAEAV?$allocator@V?$basic_string@_WU?$char_traits@_W@std@@V?$allocator@_W@2@@std@@@2@XZ 0000000140031f10 f i AdQuery.cpp.obj
 0001:00030f20       ?_Get_first@?$_Compressed_pair@V?$allocator@V?$basic_string@_WU?$char_traits@_W@std@@V?$allocator@_W@2@@std@@@std@@V?$_Vector_val@U?$_Simple_types@V?$basic_string@_WU?$char_traits@_W@std@@V?$allocator@_W@2@@std@@@std@@@2@$00@std@@QEBAAEBV?$allocator@V?$basic_string@_WU?$char_traits@_W@std@@V?$allocator@_W@2@@std@@@2@XZ 0000000140031f20 f i AdQuery.cpp.obj
 0001:00030f30       ?_Getal@?$vector@EV?$allocator@E@std@@@std@@AEAAAEAV?$allocator@E@2@XZ 0000000140031f30 f i AdQuery.cpp.obj
 0001:00030f60       ?_Getal@?$vector@EV?$allocator@E@std@@@std@@AEBAAEBV?$allocator@E@2@XZ 0000000140031f60 f i AdQuery.cpp.obj
 0001:00030f90       ?_Getal@?$vector@PEA_WV?$allocator@PEA_W@std@@@std@@AEAAAEAV?$allocator@PEA_W@2@XZ 0000000140031f90 f i AdQuery.cpp.obj
 0001:00030fc0       ?_Getal@?$vector@PEA_WV?$allocator@PEA_W@std@@@std@@AEBAAEBV?$allocator@PEA_W@2@XZ 0000000140031fc0 f i AdQuery.cpp.obj
 0001:00030ff0       ?_Getal@?$vector@PEB_WV?$allocator@PEB_W@std@@@std@@AEAAAEAV?$allocator@PEB_W@2@XZ 0000000140031ff0 f i AdQuery.cpp.obj
 0001:00031020       ?_Getal@?$vector@PEB_WV?$allocator@PEB_W@std@@@std@@AEBAAEBV?$allocator@PEB_W@2@XZ 0000000140032020 f i AdQuery.cpp.obj
 0001:00031050       ?_Getal@?$vector@UInfoPair@ith@@V?$allocator@UInfoPair@ith@@@std@@@std@@AEAAAEAV?$allocator@UInfoPair@ith@@@2@XZ 0000000140032050 f i AdQuery.cpp.obj
 0001:00031080       ?_Getal@?$vector@UInfoPair@ith@@V?$allocator@UInfoPair@ith@@@std@@@std@@AEBAAEBV?$allocator@UInfoPair@ith@@@2@XZ 0000000140032080 f i AdQuery.cpp.obj
 0001:000310b0       ?_Getal@?$vector@UNamedEntry@ith@@V?$allocator@UNamedEntry@ith@@@std@@@std@@AEAAAEAV?$allocator@UNamedEntry@ith@@@2@XZ 00000001400320b0 f i AdQuery.cpp.obj
 0001:000310e0       ?_Getal@?$vector@UNamedEntry@ith@@V?$allocator@UNamedEntry@ith@@@std@@@std@@AEBAAEBV?$allocator@UNamedEntry@ith@@@2@XZ 00000001400320e0 f i AdQuery.cpp.obj
 0001:00031110       ?_Getal@?$vector@V?$basic_string@_WU?$char_traits@_W@std@@V?$allocator@_W@2@@std@@V?$allocator@V?$basic_string@_WU?$char_traits@_W@std@@V?$allocator@_W@2@@std@@@2@@std@@AEAAAEAV?$allocator@V?$basic_string@_WU?$char_traits@_W@std@@V?$allocator@_W@2@@std@@@2@XZ 0000000140032110 f i AdQuery.cpp.obj
 0001:00031140       ?_Getal@?$vector@V?$basic_string@_WU?$char_traits@_W@std@@V?$allocator@_W@2@@std@@V?$allocator@V?$basic_string@_WU?$char_traits@_W@std@@V?$allocator@_W@2@@std@@@2@@std@@AEBAAEBV?$allocator@V?$basic_string@_WU?$char_traits@_W@std@@V?$allocator@_W@2@@std@@@2@XZ 0000000140032140 f i AdQuery.cpp.obj
 0001:00031170       ?_Getimpl@?$_Func_class@XPEAX@std@@AEBAPEAV?$_Func_base@XPEAX@2@XZ 0000000140032170 f i AdQuery.cpp.obj
 0001:00031190       ?_Local@?$_Func_class@XPEAX@std@@AEBA_NXZ 0000000140032190 f i AdQuery.cpp.obj
 0001:000311e0       ?_Myptr@?$_String_val@U?$_Simple_types@_W@std@@@std@@QEAAPEA_WXZ 00000001400321e0 f i AdQuery.cpp.obj
 0001:00031240       ?_Orphan_range@?$vector@PEA_WV?$allocator@PEA_W@std@@@std@@AEBAXPEAPEA_W0@Z 0000000140032240 f i AdQuery.cpp.obj
 0001:000312b0       ?_Orphan_range@?$vector@UInfoPair@ith@@V?$allocator@UInfoPair@ith@@@std@@@std@@AEBAXPEAUInfoPair@ith@@0@Z 00000001400322b0 f i AdQuery.cpp.obj
 0001:00031320       ?_Orphan_range@?$vector@UNamedEntry@ith@@V?$allocator@UNamedEntry@ith@@@std@@@std@@AEBAXPEAUNamedEntry@ith@@0@Z 0000000140032320 f i AdQuery.cpp.obj
 0001:00031390       ?_Orphan_range@?$vector@V?$basic_string@_WU?$char_traits@_W@std@@V?$allocator@_W@2@@std@@V?$allocator@V?$basic_string@_WU?$char_traits@_W@std@@V?$allocator@_W@2@@std@@@2@@std@@AEBAXPEAV?$basic_string@_WU?$char_traits@_W@std@@V?$allocator@_W@2@@2@0@Z 0000000140032390 f i AdQuery.cpp.obj
 0001:00031400       ?_Orphan_range_locked@?$vector@PEA_WV?$allocator@PEA_W@std@@@std@@AEBAXPEAPEA_W0@Z 0000000140032400 f i AdQuery.cpp.obj
 0001:00031490       ?_Orphan_range_locked@?$vector@UInfoPair@ith@@V?$allocator@UInfoPair@ith@@@std@@@std@@AEBAXPEAUInfoPair@ith@@0@Z 0000000140032490 f i AdQuery.cpp.obj
 0001:00031520       ?_Orphan_range_locked@?$vector@UNamedEntry@ith@@V?$allocator@UNamedEntry@ith@@@std@@@std@@AEBAXPEAUNamedEntry@ith@@0@Z 0000000140032520 f i AdQuery.cpp.obj
 0001:000315b0       ?_Orphan_range_locked@?$vector@V?$basic_string@_WU?$char_traits@_W@std@@V?$allocator@_W@2@@std@@V?$allocator@V?$basic_string@_WU?$char_traits@_W@std@@V?$allocator@_W@2@@std@@@2@@std@@AEBAXPEAV?$basic_string@_WU?$char_traits@_W@std@@V?$allocator@_W@2@@2@0@Z 00000001400325b0 f i AdQuery.cpp.obj
 0001:00031640       ?_Orphan_range_unlocked@?$vector@PEA_WV?$allocator@PEA_W@std@@@std@@AEBAXPEAPEA_W0@Z 0000000140032640 f i AdQuery.cpp.obj
 0001:00031700       ?_Orphan_range_unlocked@?$vector@UInfoPair@ith@@V?$allocator@UInfoPair@ith@@@std@@@std@@AEBAXPEAUInfoPair@ith@@0@Z 0000000140032700 f i AdQuery.cpp.obj
 0001:000317c0       ?_Orphan_range_unlocked@?$vector@UNamedEntry@ith@@V?$allocator@UNamedEntry@ith@@@std@@@std@@AEBAXPEAUNamedEntry@ith@@0@Z 00000001400327c0 f i AdQuery.cpp.obj
 0001:00031880       ?_Orphan_range_unlocked@?$vector@V?$basic_string@_WU?$char_traits@_W@std@@V?$allocator@_W@2@@std@@V?$allocator@V?$basic_string@_WU?$char_traits@_W@std@@V?$allocator@_W@2@@std@@@2@@std@@AEBAXPEAV?$basic_string@_WU?$char_traits@_W@std@@V?$allocator@_W@2@@2@0@Z 0000000140032880 f i AdQuery.cpp.obj
 0001:00031940       ?_Release@?$_Uninitialized_backout_al@V?$allocator@E@std@@@std@@QEAAPEAEXZ 0000000140032940 f i AdQuery.cpp.obj
 0001:00031970       ?_Release@?$_Uninitialized_backout_al@V?$allocator@PEA_W@std@@@std@@QEAAPEAPEA_WXZ 0000000140032970 f i AdQuery.cpp.obj
 0001:000319a0       ?_Release@?$_Uninitialized_backout_al@V?$allocator@PEB_W@std@@@std@@QEAAPEAPEB_WXZ 00000001400329a0 f i AdQuery.cpp.obj
 0001:000319d0       ?_Release@?$_Uninitialized_backout_al@V?$allocator@UInfoPair@ith@@@std@@@std@@QEAAPEAUInfoPair@ith@@XZ 00000001400329d0 f i AdQuery.cpp.obj
 0001:00031a00       ?_Release@?$_Uninitialized_backout_al@V?$allocator@UNamedEntry@ith@@@std@@@std@@QEAAPEAUNamedEntry@ith@@XZ 0000000140032a00 f i AdQuery.cpp.obj
 0001:00031a30       ?_Release@?$_Uninitialized_backout_al@V?$allocator@V?$basic_string@_WU?$char_traits@_W@std@@V?$allocator@_W@2@@std@@@std@@@std@@QEAAPEAV?$basic_string@_WU?$char_traits@_W@std@@V?$allocator@_W@2@@2@XZ 0000000140032a30 f i AdQuery.cpp.obj
 0001:00031a60       ?_Set@?$_Func_class@XPEAX@std@@AEAAXPEAV?$_Func_base@XPEAX@2@@Z 0000000140032a60 f i AdQuery.cpp.obj
 0001:00031a90       ?_Swap_proxy_and_iterators@?$basic_string@_WU?$char_traits@_W@std@@V?$allocator@_W@2@@std@@AEAAXAEAV12@@Z 0000000140032a90 f i AdQuery.cpp.obj
 0001:00031ad0       ?_Take_contents@?$_Vector_val@U?$_Simple_types@E@std@@@std@@QEAAXAEAV12@@Z 0000000140032ad0 f i AdQuery.cpp.obj
 0001:00031b80       ?_Take_contents@?$_Vector_val@U?$_Simple_types@UNamedEntry@ith@@@std@@@std@@QEAAXAEAV12@@Z 0000000140032b80 f i AdQuery.cpp.obj
 0001:00031c30       ?_Take_contents@?$_Vector_val@U?$_Simple_types@V?$basic_string@_WU?$char_traits@_W@std@@V?$allocator@_W@2@@std@@@std@@@std@@QEAAXAEAV12@@Z 0000000140032c30 f i AdQuery.cpp.obj
 0001:00031ce0       ?_Take_contents@?$basic_string@_WU?$char_traits@_W@std@@V?$allocator@_W@2@@std@@AEAAXAEAV12@@Z 0000000140032ce0 f i AdQuery.cpp.obj
 0001:00031f60       ?_Tidy@?$_Func_class@XPEAX@std@@IEAAXXZ 0000000140032f60 f i AdQuery.cpp.obj
 0001:00032000       ?_Tidy@?$vector@EV?$allocator@E@std@@@std@@AEAAXXZ 0000000140033000 f i AdQuery.cpp.obj
 0001:00032110       ?_Tidy@?$vector@PEA_WV?$allocator@PEA_W@std@@@std@@AEAAXXZ 0000000140033110 f i AdQuery.cpp.obj
 0001:00032220       ?_Tidy@?$vector@PEB_WV?$allocator@PEB_W@std@@@std@@AEAAXXZ 0000000140033220 f i AdQuery.cpp.obj
 0001:00032330       ?_Tidy@?$vector@UInfoPair@ith@@V?$allocator@UInfoPair@ith@@@std@@@std@@AEAAXXZ 0000000140033330 f i AdQuery.cpp.obj
 0001:00032440       ?_Tidy@?$vector@UNamedEntry@ith@@V?$allocator@UNamedEntry@ith@@@std@@@std@@AEAAXXZ 0000000140033440 f i AdQuery.cpp.obj
 0001:00032550       ?_Tidy@?$vector@V?$basic_string@_WU?$char_traits@_W@std@@V?$allocator@_W@2@@std@@V?$allocator@V?$basic_string@_WU?$char_traits@_W@std@@V?$allocator@_W@2@@std@@@2@@std@@AEAAXXZ 0000000140033550 f i AdQuery.cpp.obj
 0001:00032660       ?_Unchecked_begin@?$basic_string@_WU?$char_traits@_W@std@@V?$allocator@_W@2@@std@@QEBAPEB_WXZ 0000000140033660 f i AdQuery.cpp.obj
 0001:00032690       ?_Unchecked_begin@?$vector@EV?$allocator@E@std@@@std@@QEBAPEBEXZ 0000000140033690 f i AdQuery.cpp.obj
 0001:000326c0       ?_Unchecked_begin@?$vector@PEB_WV?$allocator@PEB_W@std@@@std@@QEBAPEBQEB_WXZ 00000001400336c0 f i AdQuery.cpp.obj
 0001:000326f0       ?_Unchecked_begin@?$vector@UNamedEntry@ith@@V?$allocator@UNamedEntry@ith@@@std@@@std@@QEAAPEAUNamedEntry@ith@@XZ 00000001400336f0 f i AdQuery.cpp.obj
 0001:00032720       ?_Unchecked_begin@?$vector@V?$basic_string@_WU?$char_traits@_W@std@@V?$allocator@_W@2@@std@@V?$allocator@V?$basic_string@_WU?$char_traits@_W@std@@V?$allocator@_W@2@@std@@@2@@std@@QEBAPEBV?$basic_string@_WU?$char_traits@_W@std@@V?$allocator@_W@2@@2@XZ 0000000140033720 f i AdQuery.cpp.obj
 0001:00032750       ?_Unchecked_end@?$basic_string@_WU?$char_traits@_W@std@@V?$allocator@_W@2@@std@@QEBAPEB_WXZ 0000000140033750 f i AdQuery.cpp.obj
 0001:00032790       ?_Unchecked_end@?$vector@EV?$allocator@E@std@@@std@@QEBAPEBEXZ 0000000140033790 f i AdQuery.cpp.obj
 0001:000327c0       ?_Unchecked_end@?$vector@PEB_WV?$allocator@PEB_W@std@@@std@@QEBAPEBQEB_WXZ 00000001400337c0 f i AdQuery.cpp.obj
 0001:000327f0       ?_Unchecked_end@?$vector@UNamedEntry@ith@@V?$allocator@UNamedEntry@ith@@@std@@@std@@QEAAPEAUNamedEntry@ith@@XZ 00000001400337f0 f i AdQuery.cpp.obj
 0001:00032820       ?_Unchecked_end@?$vector@V?$basic_string@_WU?$char_traits@_W@std@@V?$allocator@_W@2@@std@@V?$allocator@V?$basic_string@_WU?$char_traits@_W@std@@V?$allocator@_W@2@@std@@@2@@std@@QEBAPEBV?$basic_string@_WU?$char_traits@_W@std@@V?$allocator@_W@2@@2@XZ 0000000140033820 f i AdQuery.cpp.obj
 0001:00032850       ?_Unwrapped@?$_Vector_iterator@V?$_Vector_val@U?$_Simple_types@UNamedEntry@ith@@@std@@@std@@@std@@QEBAPEAUNamedEntry@ith@@XZ 0000000140033850 f i AdQuery.cpp.obj
 0001:00032880       ?_Verify_range@std@@YAXAEBV?$_Vector_const_iterator@V?$_Vector_val@U?$_Simple_types@UNamedEntry@ith@@@std@@@std@@@1@0@Z 0000000140033880 f i AdQuery.cpp.obj
 0001:00032990       ?_Xlength@?$vector@EV?$allocator@E@std@@@std@@CAXXZ 0000000140033990 f i AdQuery.cpp.obj
 0001:000329b0       ?_Xlength@?$vector@PEA_WV?$allocator@PEA_W@std@@@std@@CAXXZ 00000001400339b0 f i AdQuery.cpp.obj
 0001:000329d0       ?_Xlength@?$vector@PEB_WV?$allocator@PEB_W@std@@@std@@CAXXZ 00000001400339d0 f i AdQuery.cpp.obj
 0001:000329f0       ?_Xlength@?$vector@UInfoPair@ith@@V?$allocator@UInfoPair@ith@@@std@@@std@@CAXXZ 00000001400339f0 f i AdQuery.cpp.obj
 0001:00032a10       ?_Xlength@?$vector@UNamedEntry@ith@@V?$allocator@UNamedEntry@ith@@@std@@@std@@CAXXZ 0000000140033a10 f i AdQuery.cpp.obj
 0001:00032a30       ?_Xlength@?$vector@V?$basic_string@_WU?$char_traits@_W@std@@V?$allocator@_W@2@@std@@V?$allocator@V?$basic_string@_WU?$char_traits@_W@std@@V?$allocator@_W@2@@std@@@2@@std@@CAXXZ 0000000140033a30 f i AdQuery.cpp.obj
 0001:00032a50       ?_Xran@?$_String_val@U?$_Simple_types@_W@std@@@std@@SAXXZ 0000000140033a50 f i AdQuery.cpp.obj
 0001:00032a70       ?allocate@?$allocator@E@std@@QEAAPEAE_K@Z 0000000140033a70 f i AdQuery.cpp.obj
 0001:00032aa0       ?allocate@?$allocator@PEA_W@std@@QEAAPEAPEA_W_K@Z 0000000140033aa0 f i AdQuery.cpp.obj
 0001:00032ad0       ?allocate@?$allocator@PEB_W@std@@QEAAPEAPEB_W_K@Z 0000000140033ad0 f i AdQuery.cpp.obj
 0001:00032b00       ?allocate@?$allocator@UInfoPair@ith@@@std@@QEAAPEAUInfoPair@ith@@_K@Z 0000000140033b00 f i AdQuery.cpp.obj
 0001:00032b30       ?allocate@?$allocator@UNamedEntry@ith@@@std@@QEAAPEAUNamedEntry@ith@@_K@Z 0000000140033b30 f i AdQuery.cpp.obj
 0001:00032b60       ?allocate@?$allocator@V?$basic_string@_WU?$char_traits@_W@std@@V?$allocator@_W@2@@std@@@std@@QEAAPEAV?$basic_string@_WU?$char_traits@_W@std@@V?$allocator@_W@2@@2@_K@Z 0000000140033b60 f i AdQuery.cpp.obj
 0001:00032b90       ?append@?$basic_string@_WU?$char_traits@_W@std@@V?$allocator@_W@2@@std@@QEAAAEAV12@AEBV12@@Z 0000000140033b90 f i AdQuery.cpp.obj
 0001:00032bf0       ?append@?$basic_string@_WU?$char_traits@_W@std@@V?$allocator@_W@2@@std@@QEAAAEAV12@QEB_W@Z 0000000140033bf0 f i AdQuery.cpp.obj
 0001:00032c40       ?assign@?$basic_string@_WU?$char_traits@_W@std@@V?$allocator@_W@2@@std@@QEAAAEAV12@QEB_W@Z 0000000140033c40 f i AdQuery.cpp.obj
 0001:00032c90       ?assign@?$basic_string@_WU?$char_traits@_W@std@@V?$allocator@_W@2@@std@@QEAAAEAV12@QEB_W_K@Z 0000000140033c90 f i AdQuery.cpp.obj
 0001:00032cd0       ?back@?$basic_string@_WU?$char_traits@_W@std@@V?$allocator@_W@2@@std@@QEAAAEA_WXZ 0000000140033cd0 f i AdQuery.cpp.obj
 0001:00032d90       ?begin@?$initializer_list@PEB_W@std@@QEBAPEBQEB_WXZ 0000000140033d90 f i AdQuery.cpp.obj
 0001:00032db0       ?begin@?$vector@UNamedEntry@ith@@V?$allocator@UNamedEntry@ith@@@std@@@std@@QEAA?AV?$_Vector_iterator@V?$_Vector_val@U?$_Simple_types@UNamedEntry@ith@@@std@@@std@@@2@XZ 0000000140033db0 f i AdQuery.cpp.obj
 0001:00032e20       ?capacity@?$vector@EV?$allocator@E@std@@@std@@QEBA_KXZ 0000000140033e20 f i AdQuery.cpp.obj
 0001:00032e60       ?capacity@?$vector@PEA_WV?$allocator@PEA_W@std@@@std@@QEBA_KXZ 0000000140033e60 f i AdQuery.cpp.obj
 0001:00032ea0       ?capacity@?$vector@UInfoPair@ith@@V?$allocator@UInfoPair@ith@@@std@@@std@@QEBA_KXZ 0000000140033ea0 f i AdQuery.cpp.obj
 0001:00032ef0       ?capacity@?$vector@UNamedEntry@ith@@V?$allocator@UNamedEntry@ith@@@std@@@std@@QEBA_KXZ 0000000140033ef0 f i AdQuery.cpp.obj
 0001:00032f40       ?capacity@?$vector@V?$basic_string@_WU?$char_traits@_W@std@@V?$allocator@_W@2@@std@@V?$allocator@V?$basic_string@_WU?$char_traits@_W@std@@V?$allocator@_W@2@@std@@@2@@std@@QEBA_KXZ 0000000140033f40 f i AdQuery.cpp.obj
 0001:00032f90       ?data@?$vector@PEA_WV?$allocator@PEA_W@std@@@std@@QEAAPEAPEA_WXZ 0000000140033f90 f i AdQuery.cpp.obj
 0001:00032fc0       ?deallocate@?$allocator@E@std@@QEAAXQEAE_K@Z 0000000140033fc0 f i AdQuery.cpp.obj
 0001:00033060       ?deallocate@?$allocator@PEA_W@std@@QEAAXQEAPEA_W_K@Z 0000000140034060 f i AdQuery.cpp.obj
 0001:00033110       ?deallocate@?$allocator@PEB_W@std@@QEAAXQEAPEB_W_K@Z 0000000140034110 f i AdQuery.cpp.obj
 0001:000331c0       ?deallocate@?$allocator@UInfoPair@ith@@@std@@QEAAXQEAUInfoPair@ith@@_K@Z 00000001400341c0 f i AdQuery.cpp.obj
 0001:00033260       ?deallocate@?$allocator@UNamedEntry@ith@@@std@@QEAAXQEAUNamedEntry@ith@@_K@Z 0000000140034260 f i AdQuery.cpp.obj
 0001:00033300       ?deallocate@?$allocator@V?$basic_string@_WU?$char_traits@_W@std@@V?$allocator@_W@2@@std@@@std@@QEAAXQEAV?$basic_string@_WU?$char_traits@_W@std@@V?$allocator@_W@2@@2@_K@Z 0000000140034300 f i AdQuery.cpp.obj
 0001:000333a0       ?empty@?$basic_string@_WU?$char_traits@_W@std@@V?$allocator@_W@2@@std@@QEBA_NXZ 00000001400343a0 f i AdQuery.cpp.obj
 0001:000333e0       ?empty@?$vector@EV?$allocator@E@std@@@std@@QEBA_NXZ 00000001400343e0 f i AdQuery.cpp.obj
 0001:00033440       ?end@?$initializer_list@PEB_W@std@@QEBAPEBQEB_WXZ 0000000140034440 f i AdQuery.cpp.obj
 0001:00033460       ?end@?$vector@UNamedEntry@ith@@V?$allocator@UNamedEntry@ith@@@std@@@std@@QEAA?AV?$_Vector_iterator@V?$_Vector_val@U?$_Simple_types@UNamedEntry@ith@@@std@@@std@@@2@XZ 0000000140034460 f i AdQuery.cpp.obj
 0001:000334d0       ?free@BstrPtr@ith@@AEAAXXZ 00000001400344d0 f i AdQuery.cpp.obj
 0001:00033520       ?get@VariantPtr@ith@@QEBAAEBUtagVARIANT@@XZ 0000000140034520 f i AdQuery.cpp.obj
 0001:00033530       ?insert@?$basic_string@_WU?$char_traits@_W@std@@V?$allocator@_W@2@@std@@QEAAAEAV12@_KQEB_W@Z 0000000140034530 f i AdQuery.cpp.obj
 0001:00033590       ?max_size@?$_Default_allocator_traits@V?$allocator@E@std@@@std@@SA_KAEBV?$allocator@E@2@@Z 0000000140034590 f i AdQuery.cpp.obj
 0001:000335b0       ?max_size@?$_Default_allocator_traits@V?$allocator@PEA_W@std@@@std@@SA_KAEBV?$allocator@PEA_W@2@@Z 00000001400345b0 f i AdQuery.cpp.obj
 0001:000335d0       ?max_size@?$_Default_allocator_traits@V?$allocator@PEB_W@std@@@std@@SA_KAEBV?$allocator@PEB_W@2@@Z 00000001400345d0 f i AdQuery.cpp.obj
 0001:000335f0       ?max_size@?$_Default_allocator_traits@V?$allocator@UInfoPair@ith@@@std@@@std@@SA_KAEBV?$allocator@UInfoPair@ith@@@2@@Z 00000001400345f0 f i AdQuery.cpp.obj
 0001:00033610       ?max_size@?$_Default_allocator_traits@V?$allocator@UNamedEntry@ith@@@std@@@std@@SA_KAEBV?$allocator@UNamedEntry@ith@@@2@@Z 0000000140034610 f i AdQuery.cpp.obj
 0001:00033630       ?max_size@?$_Default_allocator_traits@V?$allocator@V?$basic_string@_WU?$char_traits@_W@std@@V?$allocator@_W@2@@std@@@std@@@std@@SA_KAEBV?$allocator@V?$basic_string@_WU?$char_traits@_W@std@@V?$allocator@_W@2@@std@@@2@@Z 0000000140034630 f i AdQuery.cpp.obj
 0001:00033650       ?max_size@?$vector@EV?$allocator@E@std@@@std@@QEBA_KXZ 0000000140034650 f i AdQuery.cpp.obj
 0001:000336b0       ?max_size@?$vector@PEA_WV?$allocator@PEA_W@std@@@std@@QEBA_KXZ 00000001400346b0 f i AdQuery.cpp.obj
 0001:00033710       ?max_size@?$vector@PEB_WV?$allocator@PEB_W@std@@@std@@QEBA_KXZ 0000000140034710 f i AdQuery.cpp.obj
 0001:00033770       ?max_size@?$vector@UInfoPair@ith@@V?$allocator@UInfoPair@ith@@@std@@@std@@QEBA_KXZ 0000000140034770 f i AdQuery.cpp.obj
 0001:000337d0       ?max_size@?$vector@UNamedEntry@ith@@V?$allocator@UNamedEntry@ith@@@std@@@std@@QEBA_KXZ 00000001400347d0 f i AdQuery.cpp.obj
 0001:00033830       ?max_size@?$vector@V?$basic_string@_WU?$char_traits@_W@std@@V?$allocator@_W@2@@std@@V?$allocator@V?$basic_string@_WU?$char_traits@_W@std@@V?$allocator@_W@2@@std@@@2@@std@@QEBA_KXZ 0000000140034830 f i AdQuery.cpp.obj
 0001:00033890       ?move@?$_Char_traits@_WG@std@@SAPEA_WQEA_WQEB_W_K@Z 0000000140034890 f i AdQuery.cpp.obj
 0001:00033a10       ?pop_back@?$basic_string@_WU?$char_traits@_W@std@@V?$allocator@_W@2@@std@@QEAAXXZ 0000000140034a10 f i AdQuery.cpp.obj
 0001:00033ab0       ?push_back@?$basic_string@_WU?$char_traits@_W@std@@V?$allocator@_W@2@@std@@QEAAX_W@Z 0000000140034ab0 f i AdQuery.cpp.obj
 0001:00033ba0       ?push_back@?$vector@PEA_WV?$allocator@PEA_W@std@@@std@@QEAAX$$QEAPEA_W@Z 0000000140034ba0 f i AdQuery.cpp.obj
 0001:00033bd0       ?push_back@?$vector@UInfoPair@ith@@V?$allocator@UInfoPair@ith@@@std@@@std@@QEAAX$$QEAUInfoPair@ith@@@Z 0000000140034bd0 f i AdQuery.cpp.obj
 0001:00033c00       ?push_back@?$vector@UNamedEntry@ith@@V?$allocator@UNamedEntry@ith@@@std@@@std@@QEAAX$$QEAUNamedEntry@ith@@@Z 0000000140034c00 f i AdQuery.cpp.obj
 0001:00033c30       ?reserve@?$basic_string@_WU?$char_traits@_W@std@@V?$allocator@_W@2@@std@@QEAAX_K@Z 0000000140034c30 f i AdQuery.cpp.obj
 0001:00033cb0       ?reserve@?$vector@PEA_WV?$allocator@PEA_W@std@@@std@@QEAAX_K@Z 0000000140034cb0 f i AdQuery.cpp.obj
 0001:00033d10       ?select_on_container_copy_construction@?$_Default_allocator_traits@V?$allocator@E@std@@@std@@SA?AV?$allocator@E@2@AEBV32@@Z 0000000140034d10 f i AdQuery.cpp.obj
 0001:00033d30       ?size@?$basic_string@_WU?$char_traits@_W@std@@V?$allocator@_W@2@@std@@QEBA_KXZ 0000000140034d30 f i AdQuery.cpp.obj
 0001:00033d50       ?size@?$initializer_list@PEB_W@std@@QEBA_KXZ 0000000140034d50 f i AdQuery.cpp.obj
 0001:00033d80       ?size@?$vector@EV?$allocator@E@std@@@std@@QEBA_KXZ 0000000140034d80 f i AdQuery.cpp.obj
 0001:00033dc0       ?size@?$vector@PEA_WV?$allocator@PEA_W@std@@@std@@QEBA_KXZ 0000000140034dc0 f i AdQuery.cpp.obj
 0001:00033e00       ?size@?$vector@PEB_WV?$allocator@PEB_W@std@@@std@@QEBA_KXZ 0000000140034e00 f i AdQuery.cpp.obj
 0001:00033e40       ?type@VariantPtr@ith@@QEBAGXZ 0000000140034e40 f i AdQuery.cpp.obj
 0001:00033e60       ?CreateView@AdQueryTool@ith@@UEAA?AV?$unique_ptr@VToolView@ith@@U?$default_delete@VToolView@ith@@@std@@@std@@PEAUHWND__@@PEAUHFONT__@@@Z 0000000140034e60 f   AdQueryTool.cpp.obj
 0001:00033ed0       ??0AdQueryView@ith@@QEAA@PEAUHWND__@@PEAUHFONT__@@@Z 0000000140034ed0 f   AdQueryTool.cpp.obj
 0001:00034130       ??1AdQueryView@ith@@UEAA@XZ 0000000140035130 f   AdQueryTool.cpp.obj
 0001:000341c0       ?SetBounds@AdQueryView@ith@@UEAAXAEBUtagRECT@@@Z 00000001400351c0 f   AdQueryTool.cpp.obj
 0001:00034230       ?Show@AdQueryView@ith@@UEAAX_N@Z 0000000140035230 f   AdQueryTool.cpp.obj
 0001:00034280       ?RootProc@AdQueryView@ith@@QEAA_JPEAUHWND__@@I_K_J@Z 0000000140035280 f   AdQueryTool.cpp.obj
 0001:00034460       ?ResultsProc@AdQueryView@ith@@QEAA_JPEAUHWND__@@I_K_J@Z 0000000140035460 f   AdQueryTool.cpp.obj
 0001:00034d30       ?StartCrossSearch@AdQueryView@ith@@QEAAXAEBV?$basic_string@_WU?$char_traits@_W@std@@V?$allocator@_W@2@@std@@W4ObjectType@2@@Z 0000000140035d30 f   AdQueryTool.cpp.obj
 0001:00034da0       ?EnsureClasses@AdQueryView@ith@@CAXPEAUHINSTANCE__@@@Z 0000000140035da0 f   AdQueryTool.cpp.obj
 0001:00034ea0       ?CreateControls@AdQueryView@ith@@AEAAXXZ 0000000140035ea0 f   AdQueryTool.cpp.obj
 0001:00035730       ?LayoutTop@AdQueryView@ith@@AEAAXH@Z 0000000140036730 f   AdQueryTool.cpp.obj
 0001:00035c70       ?LayoutResults@AdQueryView@ith@@AEAAXXZ 0000000140036c70 f   AdQueryTool.cpp.obj
 0001:00036490       ?BeginSearch@AdQueryView@ith@@AEAAXXZ 0000000140037490 f   AdQueryTool.cpp.obj
 0001:00036710       ?OnResult@AdQueryView@ith@@AEAAXV?$unique_ptr@UAdResult@ith@@U?$default_delete@UAdResult@ith@@@std@@@std@@@Z 0000000140037710 f   AdQueryTool.cpp.obj
 0001:000369a0       ?SetBusy@AdQueryView@ith@@AEAAX_N@Z 00000001400379a0 f   AdQueryTool.cpp.obj
 0001:00036a70       ?FillInfo@AdQueryView@ith@@AEAAXAEBV?$vector@UInfoPair@ith@@V?$allocator@UInfoPair@ith@@@std@@@std@@@Z 0000000140037a70 f   AdQueryTool.cpp.obj
 0001:00036bf0       ?FillNamedList@AdQueryView@ith@@AEAAXPEAUHWND__@@AEBV?$vector@UNamedEntry@ith@@V?$allocator@UNamedEntry@ith@@@std@@@std@@@Z 0000000140037bf0 f   AdQueryTool.cpp.obj
 0001:00036d20       ?OnListContextMenu@AdQueryView@ith@@AEAAXPEAUHWND__@@HUtagPOINT@@@Z 0000000140037d20 f   AdQueryTool.cpp.obj
 0001:000371b0       ?CopySelected@AdQueryView@ith@@AEAAXPEAUHWND__@@H@Z 00000001400381b0 f   AdQueryTool.cpp.obj
 0001:00037460       ?CopyTextToClipboard@AdQueryView@ith@@AEAAXAEBV?$basic_string@_WU?$char_traits@_W@std@@V?$allocator@_W@2@@std@@@Z 0000000140038460 f   AdQueryTool.cpp.obj
 0001:00037530       ?ListPreferredHeight@AdQueryView@ith@@AEBAHPEAUHWND__@@_K_N@Z 0000000140038530 f   AdQueryTool.cpp.obj
 0001:00037700       ?ComboType@AdQueryView@ith@@AEBA?AW4ObjectType@2@XZ 0000000140038700 f   AdQueryTool.cpp.obj
 0001:00037760       ?SetComboType@AdQueryView@ith@@AEAAXW4ObjectType@2@@Z 0000000140038760 f   AdQueryTool.cpp.obj
 0001:00039d30       ??$?0$$V@?$_Compressed_pair@U?$default_delete@UAdResult@ith@@@std@@PEAUAdResult@ith@@$00@std@@QEAA@U_Zero_then_variadic_args_t@1@@Z 000000014003ad30 f i AdQueryTool.cpp.obj
 0001:00039da0       ??$?0A6AXPEAUHWND__@@IUAdQueryRequest@ith@@@Z@?$_Tuple_val@P6AXPEAUHWND__@@IUAdQueryRequest@ith@@@Z@std@@QEAA@A6AXPEAUHWND__@@IUAdQueryRequest@ith@@@Z@Z 000000014003ada0 f i AdQueryTool.cpp.obj
 0001:00039dd0       ??$?0A6AXPEAUHWND__@@IUAdQueryRequest@ith@@@ZAEAPEAU0@AEAIAEAU12@$0A@@?$tuple@P6AXPEAUHWND__@@IUAdQueryRequest@ith@@@ZPEAU1@IU23@@std@@QEAA@A6AXPEAUHWND__@@IUAdQueryRequest@ith@@@ZAEAPEAU2@AEAIAEAU34@@Z 000000014003add0 f i AdQueryTool.cpp.obj
 0001:00039e40       ??$?0A6AXPEAUHWND__@@IUAdQueryRequest@ith@@@ZAEAPEAU0@AEAIAEAU12@$0A@@thread@std@@QEAA@A6AXPEAUHWND__@@IUAdQueryRequest@ith@@@ZAEAPEAU2@AEAIAEAU34@@Z 000000014003ae40 f i AdQueryTool.cpp.obj
 0001:00039ea0       ??$?0AEAI@?$_Tuple_val@I@std@@QEAA@AEAI@Z 000000014003aea0 f i AdQueryTool.cpp.obj
 0001:00039ed0       ??$?0AEAPEAUHWND__@@@?$_Tuple_val@PEAUHWND__@@@std@@QEAA@AEAPEAUHWND__@@@Z 000000014003aed0 f i AdQueryTool.cpp.obj
 0001:00039f00       ??$?0AEAPEAV?$tuple@P6AXPEAUHWND__@@IUAdQueryRequest@ith@@@ZPEAU1@IU23@@std@@@?$_Compressed_pair@U?$default_delete@V?$tuple@P6AXPEAUHWND__@@IUAdQueryRequest@ith@@@ZPEAU1@IU23@@std@@@std@@PEAV?$tuple@P6AXPEAUHWND__@@IUAdQueryRequest@ith@@@ZPEAU1@IU23@@2@$00@std@@QEAA@U_Zero_then_variadic_args_t@1@AEAPEAV?$tuple@P6AXPEAUHWND__@@IUAdQueryRequest@ith@@@ZPEAU1@IU23@@1@@Z 000000014003af00 f i AdQueryTool.cpp.obj
 0001:00039f30       ??$?0AEAPEAVAdQueryView@ith@@@?$_Compressed_pair@U?$default_delete@VAdQueryView@ith@@@std@@PEAVAdQueryView@ith@@$00@std@@QEAA@U_Zero_then_variadic_args_t@1@AEAPEAVAdQueryView@ith@@@Z 000000014003af30 f i AdQueryTool.cpp.obj
 0001:00039f60       ??$?0AEAUAdQueryRequest@ith@@@?$_Tuple_val@UAdQueryRequest@ith@@@std@@QEAA@AEAUAdQueryRequest@ith@@@Z 000000014003af60 f i AdQueryTool.cpp.obj
 0001:00039fb0       ??$?0AEAV?$allocator@_W@std@@$$V@?$_Compressed_pair@V?$allocator@_W@std@@V?$_String_val@U?$_Simple_types@_W@std@@@2@$00@std@@QEAA@U_One_then_variadic_args_t@1@AEAV?$allocator@_W@1@@Z 000000014003afb0 f i AdQueryTool.cpp.obj
 0001:00039ff0       ??$?0AEBV?$allocator@_W@std@@$$V@?$_Compressed_pair@V?$allocator@_W@std@@V?$_String_val@U?$_Simple_types@_W@std@@@2@$00@std@@QEAA@U_One_then_variadic_args_t@1@AEBV?$allocator@_W@1@@Z 000000014003aff0 f i AdQueryTool.cpp.obj
 0001:0003a030       ??$?0U?$default_delete@UAdResult@ith@@@std@@$0A@@?$unique_ptr@UAdResult@ith@@U?$default_delete@UAdResult@ith@@@std@@@std@@QEAA@$$QEAV01@@Z 000000014003b030 f i AdQueryTool.cpp.obj
 0001:0003a0b0       ??$?0U?$default_delete@UAdResult@ith@@@std@@$0A@@?$unique_ptr@UAdResult@ith@@U?$default_delete@UAdResult@ith@@@std@@@std@@QEAA@XZ 000000014003b0b0 f i AdQueryTool.cpp.obj
 0001:0003a0f0       ??$?0U?$default_delete@UAdResult@ith@@@std@@PEAUAdResult@ith@@@?$_Compressed_pair@U?$default_delete@UAdResult@ith@@@std@@PEAUAdResult@ith@@$00@std@@QEAA@U_One_then_variadic_args_t@1@$$QEAU?$default_delete@UAdResult@ith@@@1@$$QEAPEAUAdResult@ith@@@Z 000000014003b0f0 f i AdQueryTool.cpp.obj
 0001:0003a130       ??$?0U?$default_delete@V?$tuple@P6AXPEAUHWND__@@IUAdQueryRequest@ith@@@ZPEAU1@IU23@@std@@@std@@$0A@@?$unique_ptr@V?$tuple@P6AXPEAUHWND__@@IUAdQueryRequest@ith@@@ZPEAU1@IU23@@std@@U?$default_delete@V?$tuple@P6AXPEAUHWND__@@IUAdQueryRequest@ith@@@ZPEAU1@IU23@@std@@@2@@std@@QEAA@PEAV?$tuple@P6AXPEAUHWND__@@IUAdQueryRequest@ith@@@ZPEAU1@IU23@@1@@Z 000000014003b130 f i AdQueryTool.cpp.obj
 0001:0003a180       ??$?0U?$default_delete@VAdQueryView@ith@@@std@@$0A@@?$unique_ptr@VAdQueryView@ith@@U?$default_delete@VAdQueryView@ith@@@std@@@std@@QEAA@PEAVAdQueryView@ith@@@Z 000000014003b180 f i AdQueryTool.cpp.obj
 0001:0003a1d0       ??$?0U?$default_delete@VAdQueryView@ith@@@std@@PEAVAdQueryView@ith@@@?$_Compressed_pair@U?$default_delete@VToolView@ith@@@std@@PEAVToolView@ith@@$00@std@@QEAA@U_One_then_variadic_args_t@1@$$QEAU?$default_delete@VAdQueryView@ith@@@1@$$QEAPEAVAdQueryView@ith@@@Z 000000014003b1d0 f i AdQueryTool.cpp.obj
 0001:0003a250       ??$?0U_Exact_args_t@std@@A6AXPEAUHWND__@@IUAdQueryRequest@ith@@@ZAEAPEAU2@AEAIAEAU34@$0A@@?$tuple@P6AXPEAUHWND__@@IUAdQueryRequest@ith@@@ZPEAU1@IU23@@std@@QEAA@U_Exact_args_t@1@A6AXPEAUHWND__@@IUAdQueryRequest@ith@@@ZAEAPEAU3@AEAIAEAU45@@Z 000000014003b250 f i AdQueryTool.cpp.obj
 0001:0003a2d0       ??$?0U_Exact_args_t@std@@AEAIAEAUAdQueryRequest@ith@@$0A@@?$tuple@IUAdQueryRequest@ith@@@std@@QEAA@U_Exact_args_t@1@AEAIAEAUAdQueryRequest@ith@@@Z 000000014003b2d0 f i AdQueryTool.cpp.obj
 0001:0003a340       ??$?0U_Exact_args_t@std@@AEAPEAUHWND__@@AEAIAEAUAdQueryRequest@ith@@$0A@@?$tuple@PEAUHWND__@@IUAdQueryRequest@ith@@@std@@QEAA@U_Exact_args_t@1@AEAPEAUHWND__@@AEAIAEAUAdQueryRequest@ith@@@Z 000000014003b340 f i AdQueryTool.cpp.obj
 0001:0003a3c0       ??$?0U_Exact_args_t@std@@AEAUAdQueryRequest@ith@@$$V$0A@@?$tuple@UAdQueryRequest@ith@@@std@@QEAA@U_Exact_args_t@1@AEAUAdQueryRequest@ith@@@Z 000000014003b3c0 f i AdQueryTool.cpp.obj
 0001:0003a420       ??$?0VAdQueryView@ith@@$0A@@?$default_delete@VToolView@ith@@@std@@QEAA@AEBU?$default_delete@VAdQueryView@ith@@@1@@Z 000000014003b420 f i AdQueryTool.cpp.obj
 0001:0003a440       ??$?0VAdQueryView@ith@@U?$default_delete@VAdQueryView@ith@@@std@@$0A@@?$unique_ptr@VToolView@ith@@U?$default_delete@VToolView@ith@@@std@@@std@@QEAA@$$QEAV?$unique_ptr@VAdQueryView@ith@@U?$default_delete@VAdQueryView@ith@@@std@@@1@@Z 000000014003b440 f i AdQueryTool.cpp.obj
 0001:0003a4c0       ??$?4U?$default_delete@UAdResult@ith@@@std@@$0A@@?$unique_ptr@UAdResult@ith@@U?$default_delete@UAdResult@ith@@@std@@@std@@QEAAAEAV01@$$QEAV01@@Z 000000014003b4c0 f i AdQueryTool.cpp.obj
 0001:0003a520       ??$?H_WU?$char_traits@_W@std@@V?$allocator@_W@1@@std@@YA?AV?$basic_string@_WU?$char_traits@_W@std@@V?$allocator@_W@2@@0@$$QEAV10@0@Z 000000014003b520 f i AdQueryTool.cpp.obj
 0001:0003a630       ??$_Allocators_equal@V?$allocator@_W@std@@@std@@YA_NAEBV?$allocator@_W@0@0@Z 000000014003b630 f i AdQueryTool.cpp.obj
 0001:0003a650       ??$_Assign_counted_range@PEAUInfoPair@ith@@@?$vector@UInfoPair@ith@@V?$allocator@UInfoPair@ith@@@std@@@std@@AEAAXPEAUInfoPair@ith@@_K@Z 000000014003b650 f i AdQueryTool.cpp.obj
 0001:0003a8f0       ??$_Assign_counted_range@PEAUNamedEntry@ith@@@?$vector@UNamedEntry@ith@@V?$allocator@UNamedEntry@ith@@@std@@@std@@AEAAXPEAUNamedEntry@ith@@_K@Z 000000014003b8f0 f i AdQueryTool.cpp.obj
 0001:0003ac70       ??$_Copy_n_unchecked4@PEAUInfoPair@ith@@_KPEAU12@@std@@YAPEAUInfoPair@ith@@PEAU12@_K0@Z 000000014003bc70 f i AdQueryTool.cpp.obj
 0001:0003acf0       ??$_Copy_n_unchecked4@PEAUNamedEntry@ith@@_KPEAU12@@std@@YAPEAUNamedEntry@ith@@PEAU12@_K0@Z 000000014003bcf0 f i AdQueryTool.cpp.obj
 0001:0003ad90       ??$_Emplace_back@AEAUInfoPair@ith@@@?$_Uninitialized_backout_al@V?$allocator@UInfoPair@ith@@@std@@@std@@QEAAXAEAUInfoPair@ith@@@Z 000000014003bd90 f i AdQueryTool.cpp.obj
 0001:0003ae10       ??$_Emplace_back@AEAUNamedEntry@ith@@@?$_Uninitialized_backout_al@V?$allocator@UNamedEntry@ith@@@std@@@std@@QEAAXAEAUNamedEntry@ith@@@Z 000000014003be10 f i AdQueryTool.cpp.obj
 0001:0003b3d0       ??$_Find_first_not_of_pos_vectorized@_W_W@std@@YA_KQEB_W_K01@Z 000000014003c3d0 f i AdQueryTool.cpp.obj
 0001:0003b420       ??$_Find_last_not_of_pos_vectorized@_W_W@std@@YA_KQEB_W_K01@Z 000000014003c420 f i AdQueryTool.cpp.obj
 0001:0003b4b0       ??$_Get_size_of_n@$0BI@@std@@YA_K_K@Z 000000014003c4b0 f i AdQueryTool.cpp.obj
 0001:0003b530       ??$_Get_unwrapped@PEAUInfoPair@ith@@@std@@YA?A_T$$QEAPEAUInfoPair@ith@@@Z 000000014003c530 f i AdQueryTool.cpp.obj
 0001:0003b550       ??$_Get_unwrapped@PEAUNamedEntry@ith@@@std@@YA?A_T$$QEAPEAUNamedEntry@ith@@@Z 000000014003c550 f i AdQueryTool.cpp.obj
 0001:0003b6f0       ??$_Invoke@V?$tuple@P6AXPEAUHWND__@@IUAdQueryRequest@ith@@@ZPEAU1@IU23@@std@@$0A@$00$01$02@thread@std@@CAIPEAX@Z 000000014003c6f0 f i AdQueryTool.cpp.obj
 0001:0003b800       ??$_Pocca@V?$allocator@UInfoPair@ith@@@std@@@std@@YAXAEAV?$allocator@UInfoPair@ith@@@0@AEBV10@@Z 000000014003c800 f i AdQueryTool.cpp.obj
 0001:0003b810       ??$_Pocca@V?$allocator@UNamedEntry@ith@@@std@@@std@@YAXAEAV?$allocator@UNamedEntry@ith@@@0@AEBV10@@Z 000000014003c810 f i AdQueryTool.cpp.obj
 0001:0003b820       ??$_Start@A6AXPEAUHWND__@@IUAdQueryRequest@ith@@@ZAEAPEAU1@AEAIAEAU23@@thread@std@@AEAAXA6AXPEAUHWND__@@IUAdQueryRequest@ith@@@ZAEAPEAU2@AEAIAEAU34@@Z 000000014003c820 f i AdQueryTool.cpp.obj
 0001:0003b990       ??$_Traits_find_first_not_of@U?$char_traits@_W@std@@@std@@YA_KQEB_W_K101@Z 000000014003c990 f i AdQueryTool.cpp.obj
 0001:0003bcc0       ??$_Traits_find_last_not_of@U?$char_traits@_W@std@@@std@@YA_KQEB_W_K101@Z 000000014003ccc0 f i AdQueryTool.cpp.obj
 0001:0003bfd0       ??$_Unfancy_maybe_null@UInfoPair@ith@@@std@@YAPEAUInfoPair@ith@@PEAU12@@Z 000000014003cfd0 f i AdQueryTool.cpp.obj
 0001:0003bff0       ??$_Uninitialized_copy_n@PEAUInfoPair@ith@@V?$allocator@UInfoPair@ith@@@std@@@std@@YAPEAUInfoPair@ith@@PEAU12@_K0AEAV?$allocator@UInfoPair@ith@@@0@@Z 000000014003cff0 f i AdQueryTool.cpp.obj
 0001:0003c100       ??$_Uninitialized_copy_n@PEAUNamedEntry@ith@@V?$allocator@UNamedEntry@ith@@@std@@@std@@YAPEAUNamedEntry@ith@@PEAU12@_K0AEAV?$allocator@UNamedEntry@ith@@@0@@Z 000000014003d100 f i AdQueryTool.cpp.obj
 0001:0003c390       ??$addressof@$$CBV?$vector@UInfoPair@ith@@V?$allocator@UInfoPair@ith@@@std@@@std@@@std@@YAPEBV?$vector@UInfoPair@ith@@V?$allocator@UInfoPair@ith@@@std@@@0@AEBV10@@Z 000000014003d390 f i AdQueryTool.cpp.obj
 0001:0003c3a0       ??$addressof@$$CBV?$vector@UNamedEntry@ith@@V?$allocator@UNamedEntry@ith@@@std@@@std@@@std@@YAPEBV?$vector@UNamedEntry@ith@@V?$allocator@UNamedEntry@ith@@@std@@@0@AEBV10@@Z 000000014003d3a0 f i AdQueryTool.cpp.obj
 0001:0003c3c0       ??$construct@UInfoPair@ith@@AEAU12@@?$_Default_allocator_traits@V?$allocator@UInfoPair@ith@@@std@@@std@@SAXAEAV?$allocator@UInfoPair@ith@@@1@QEAUInfoPair@ith@@AEAU34@@Z 000000014003d3c0 f i AdQueryTool.cpp.obj
 0001:0003c400       ??$construct@UNamedEntry@ith@@AEAU12@@?$_Default_allocator_traits@V?$allocator@UNamedEntry@ith@@@std@@@std@@SAXAEAV?$allocator@UNamedEntry@ith@@@1@QEAUNamedEntry@ith@@AEAU34@@Z 000000014003d400 f i AdQueryTool.cpp.obj
 0001:0003c480       ??$construct_at@UInfoPair@ith@@AEAU12@@std@@YAPEAUInfoPair@ith@@QEAU12@AEAU12@@Z 000000014003d480 f i AdQueryTool.cpp.obj
 0001:0003c4d0       ??$construct_at@UNamedEntry@ith@@AEAU12@@std@@YAPEAUNamedEntry@ith@@QEAU12@AEAU12@@Z 000000014003d4d0 f i AdQueryTool.cpp.obj
 0001:0003c580       ??$exchange@PEAUAdResult@ith@@$$T@std@@YAPEAUAdResult@ith@@AEAPEAU12@$$QEA$$T@Z 000000014003d580 f i AdQueryTool.cpp.obj
 0001:0003c5d0       ??$exchange@PEAUAdResult@ith@@AEAPEAU12@@std@@YAPEAUAdResult@ith@@AEAPEAU12@0@Z 000000014003d5d0 f i AdQueryTool.cpp.obj
 0001:0003c620       ??$exchange@PEAV?$tuple@P6AXPEAUHWND__@@IUAdQueryRequest@ith@@@ZPEAU1@IU23@@std@@$$T@std@@YAPEAV?$tuple@P6AXPEAUHWND__@@IUAdQueryRequest@ith@@@ZPEAU1@IU23@@0@AEAPEAV10@$$QEA$$T@Z 000000014003d620 f i AdQueryTool.cpp.obj
 0001:0003c670       ??$exchange@PEAVAdQueryView@ith@@$$T@std@@YAPEAVAdQueryView@ith@@AEAPEAV12@$$QEA$$T@Z 000000014003d670 f i AdQueryTool.cpp.obj
 0001:0003c6c0       ??$get@$00P6AXPEAUHWND__@@IUAdQueryRequest@ith@@@ZPEAU1@IU23@@std@@YAAEAPEAUHWND__@@AEAV?$tuple@P6AXPEAUHWND__@@IUAdQueryRequest@ith@@@ZPEAU1@IU23@@0@@Z 000000014003d6c0 f i AdQueryTool.cpp.obj
 0001:0003c6e0       ??$get@$01P6AXPEAUHWND__@@IUAdQueryRequest@ith@@@ZPEAU1@IU23@@std@@YAAEAIAEAV?$tuple@P6AXPEAUHWND__@@IUAdQueryRequest@ith@@@ZPEAU1@IU23@@0@@Z 000000014003d6e0 f i AdQueryTool.cpp.obj
 0001:0003c700       ??$get@$02P6AXPEAUHWND__@@IUAdQueryRequest@ith@@@ZPEAU1@IU23@@std@@YAAEAUAdQueryRequest@ith@@AEAV?$tuple@P6AXPEAUHWND__@@IUAdQueryRequest@ith@@@ZPEAU1@IU23@@0@@Z 000000014003d700 f i AdQueryTool.cpp.obj
 0001:0003c710       ??$get@$0A@P6AXPEAUHWND__@@IUAdQueryRequest@ith@@@ZPEAU1@IU23@@std@@YAAEAP6AXPEAUHWND__@@IUAdQueryRequest@ith@@@ZAEAV?$tuple@P6AXPEAUHWND__@@IUAdQueryRequest@ith@@@ZPEAU1@IU23@@0@@Z 000000014003d710 f i AdQueryTool.cpp.obj
 0001:0003c730       ??$invoke@P6AXPEAUHWND__@@IUAdQueryRequest@ith@@@ZPEAU1@IU23@@std@@YAX$$QEAP6AXPEAUHWND__@@IUAdQueryRequest@ith@@@Z$$QEAPEAU1@$$QEAI$$QEAU23@@Z 000000014003d730 f i AdQueryTool.cpp.obj
 0001:0003c810       ??$make_unique@V?$tuple@P6AXPEAUHWND__@@IUAdQueryRequest@ith@@@ZPEAU1@IU23@@std@@A6AXPEAUHWND__@@IUAdQueryRequest@ith@@@ZAEAPEAU3@AEAIAEAU45@$0A@@std@@YA?AV?$unique_ptr@V?$tuple@P6AXPEAUHWND__@@IUAdQueryRequest@ith@@@ZPEAU1@IU23@@std@@U?$default_delete@V?$tuple@P6AXPEAUHWND__@@IUAdQueryRequest@ith@@@ZPEAU1@IU23@@std@@@2@@0@A6AXPEAUHWND__@@IUAdQueryRequest@ith@@@ZAEAPEAU2@AEAIAEAU34@@Z 000000014003d810 f i AdQueryTool.cpp.obj
 0001:0003c8e0       ??$make_unique@VAdQueryView@ith@@AEAPEAUHWND__@@AEAPEAUHFONT__@@$0A@@std@@YA?AV?$unique_ptr@VAdQueryView@ith@@U?$default_delete@VAdQueryView@ith@@@std@@@0@AEAPEAUHWND__@@AEAPEAUHFONT__@@@Z 000000014003d8e0 f i AdQueryTool.cpp.obj
 0001:0003c9a0       ??0?$_String_bitmap@_W$0A@@std@@QEAA@XZ 000000014003d9a0 f i AdQueryTool.cpp.obj
 0001:0003c9d0       ??0?$basic_string@_WU?$char_traits@_W@std@@V?$allocator@_W@2@@std@@QEAA@AEBV01@_K1AEBV?$allocator@_W@1@@Z 000000014003d9d0 f i AdQueryTool.cpp.obj
 0001:0003cab0       ??0?$basic_string@_WU?$char_traits@_W@std@@V?$allocator@_W@2@@std@@QEAA@U_String_constructor_concat_tag@1@AEAV01@1@Z 000000014003dab0 f i AdQueryTool.cpp.obj
 0001:0003d0b0       ??0?$initializer_list@PEAUHWND__@@@std@@QEAA@PEBQEAUHWND__@@0@Z 000000014003e0b0 f i AdQueryTool.cpp.obj
 0001:0003d0f0       ??0AdQueryRequest@ith@@QEAA@$$QEAU01@@Z 000000014003e0f0 f i AdQueryTool.cpp.obj
 0001:0003d180       ??0AdQueryRequest@ith@@QEAA@AEBU01@@Z 000000014003e180 f i AdQueryTool.cpp.obj
 0001:0003d210       ??0AdQueryRequest@ith@@QEAA@XZ 000000014003e210 f i AdQueryTool.cpp.obj
 0001:0003d260       ??0ComApartment@ith@@QEAA@K@Z 000000014003e260 f i AdQueryTool.cpp.obj
 0001:0003d2f0       ??0InfoPair@ith@@QEAA@AEBU01@@Z 000000014003e2f0 f i AdQueryTool.cpp.obj
 0001:0003d370       ??0NamedEntry@ith@@QEAA@AEBU01@@Z 000000014003e370 f i AdQueryTool.cpp.obj
 0001:0003d3d0       ??0ToolView@ith@@QEAA@XZ   000000014003e3d0 f i AdQueryTool.cpp.obj
 0001:0003d400       ??1?$_Tuple_val@UAdQueryRequest@ith@@@std@@QEAA@XZ 000000014003e400 f i AdQueryTool.cpp.obj
 0001:0003d430       ??1?$tuple@IUAdQueryRequest@ith@@@std@@QEAA@XZ 000000014003e430 f i AdQueryTool.cpp.obj
 0001:0003d460       ??1?$tuple@P6AXPEAUHWND__@@IUAdQueryRequest@ith@@@ZPEAU1@IU23@@std@@QEAA@XZ 000000014003e460 f i AdQueryTool.cpp.obj
 0001:0003d490       ??1?$tuple@PEAUHWND__@@IUAdQueryRequest@ith@@@std@@QEAA@XZ 000000014003e490 f i AdQueryTool.cpp.obj
 0001:0003d4c0       ??1?$tuple@UAdQueryRequest@ith@@@std@@QEAA@XZ 000000014003e4c0 f i AdQueryTool.cpp.obj
 0001:0003d4f0       ??1?$unique_ptr@V?$tuple@P6AXPEAUHWND__@@IUAdQueryRequest@ith@@@ZPEAU1@IU23@@std@@U?$default_delete@V?$tuple@P6AXPEAUHWND__@@IUAdQueryRequest@ith@@@ZPEAU1@IU23@@std@@@2@@std@@QEAA@XZ 000000014003e4f0 f i AdQueryTool.cpp.obj
 0001:0003d550       ??1?$unique_ptr@VAdQueryView@ith@@U?$default_delete@VAdQueryView@ith@@@std@@@std@@QEAA@XZ 000000014003e550 f i AdQueryTool.cpp.obj
 0001:0003d5b0       ??1AdQueryRequest@ith@@QEAA@XZ 000000014003e5b0 f i AdQueryTool.cpp.obj
 0001:0003d5f0       ??1ComApartment@ith@@QEAA@XZ 000000014003e5f0 f i AdQueryTool.cpp.obj
 0001:0003d620       ??1ToolView@ith@@UEAA@XZ   000000014003e620 f i AdQueryTool.cpp.obj
 0001:0003d630       ??1thread@std@@QEAA@XZ     000000014003e630 f i AdQueryTool.cpp.obj
 0001:0003d660       ??4?$vector@UInfoPair@ith@@V?$allocator@UInfoPair@ith@@@std@@@std@@QEAAAEAV01@AEBV01@@Z 000000014003e660 f i AdQueryTool.cpp.obj
 0001:0003d730       ??4?$vector@UNamedEntry@ith@@V?$allocator@UNamedEntry@ith@@@std@@@std@@QEAAAEAV01@AEBV01@@Z 000000014003e730 f i AdQueryTool.cpp.obj
 0001:0003d800       ??4InfoPair@ith@@QEAAAEAU01@AEBU01@@Z 000000014003e800 f i AdQueryTool.cpp.obj
 0001:0003d860       ??4NamedEntry@ith@@QEAAAEAU01@AEBU01@@Z 000000014003e860 f i AdQueryTool.cpp.obj
 0001:0003d8b0       ??A?$vector@UNamedEntry@ith@@V?$allocator@UNamedEntry@ith@@@std@@@std@@QEBAAEBUNamedEntry@ith@@_K@Z 000000014003e8b0 f i AdQueryTool.cpp.obj
 0001:0003d970       ??B?$unique_ptr@UAdResult@ith@@U?$default_delete@UAdResult@ith@@@std@@@std@@QEBA_NXZ 000000014003e970 f i AdQueryTool.cpp.obj
 0001:0003d9b0       ??R?$default_delete@V?$tuple@P6AXPEAUHWND__@@IUAdQueryRequest@ith@@@ZPEAU1@IU23@@std@@@std@@QEBAXPEAV?$tuple@P6AXPEAUHWND__@@IUAdQueryRequest@ith@@@ZPEAU1@IU23@@1@@Z 000000014003e9b0 f i AdQueryTool.cpp.obj
 0001:0003da10       ??R?$default_delete@VAdQueryView@ith@@@std@@QEBAXPEAVAdQueryView@ith@@@Z 000000014003ea10 f i AdQueryTool.cpp.obj
 0001:0003da80       ??Y?$basic_string@_WU?$char_traits@_W@std@@V?$allocator@_W@2@@std@@QEAAAEAV01@AEBV01@@Z 000000014003ea80 f i AdQueryTool.cpp.obj
 0001:0003dab0       ??_G?$tuple@P6AXPEAUHWND__@@IUAdQueryRequest@ith@@@ZPEAU1@IU23@@std@@QEAAPEAXI@Z 000000014003eab0 f i AdQueryTool.cpp.obj
 0001:0003db00       ??_EAdQueryView@ith@@UEAAPEAXI@Z 000000014003eb00 f i AdQueryTool.cpp.obj
 0001:0003db00       ??_GAdQueryView@ith@@UEAAPEAXI@Z 000000014003eb00 f i AdQueryTool.cpp.obj
 0001:0003db50       ??_EToolView@ith@@UEAAPEAXI@Z 000000014003eb50 f i AdQueryTool.cpp.obj
 0001:0003db50       ??_GToolView@ith@@UEAAPEAXI@Z 000000014003eb50 f i AdQueryTool.cpp.obj
 0001:0003dba0       ?Handle@AdQueryView@ith@@UEBAPEAUHWND__@@XZ 000000014003eba0 f i AdQueryTool.cpp.obj
 0001:0003dbc0       ?_Buy_raw@?$vector@UInfoPair@ith@@V?$allocator@UInfoPair@ith@@@std@@@std@@AEAAX_K@Z 000000014003ebc0 f i AdQueryTool.cpp.obj
 0001:0003dc80       ?_Buy_raw@?$vector@UNamedEntry@ith@@V?$allocator@UNamedEntry@ith@@@std@@@std@@AEAAX_K@Z 000000014003ec80 f i AdQueryTool.cpp.obj
 0001:0003dd40       ?_Clamp_suffix_size@?$_String_val@U?$_Simple_types@_W@std@@@std@@QEBA_K_K0@Z 000000014003ed40 f i AdQueryTool.cpp.obj
 0001:0003dda0       ?_Clear_and_reserve_geometric@?$vector@UInfoPair@ith@@V?$allocator@UInfoPair@ith@@@std@@@std@@AEAAX_K@Z 000000014003eda0 f i AdQueryTool.cpp.obj
 0001:0003df00       ?_Clear_and_reserve_geometric@?$vector@UNamedEntry@ith@@V?$allocator@UNamedEntry@ith@@@std@@@std@@AEAAX_K@Z 000000014003ef00 f i AdQueryTool.cpp.obj
 0001:0003e060       ?_Get_first@?$_Compressed_pair@U?$default_delete@V?$tuple@P6AXPEAUHWND__@@IUAdQueryRequest@ith@@@ZPEAU1@IU23@@std@@@std@@PEAV?$tuple@P6AXPEAUHWND__@@IUAdQueryRequest@ith@@@ZPEAU1@IU23@@2@$00@std@@QEAAAEAU?$default_delete@V?$tuple@P6AXPEAUHWND__@@IUAdQueryRequest@ith@@@ZPEAU1@IU23@@std@@@2@XZ 000000014003f060 f i AdQueryTool.cpp.obj
 0001:0003e070       ?_Get_first@?$_Compressed_pair@U?$default_delete@VAdQueryView@ith@@@std@@PEAVAdQueryView@ith@@$00@std@@QEAAAEAU?$default_delete@VAdQueryView@ith@@@2@XZ 000000014003f070 f i AdQueryTool.cpp.obj
 0001:0003e080       ?_Mark@?$_String_bitmap@_W$0A@@std@@QEAA_NPEB_WQEB_W@Z 000000014003f080 f i AdQueryTool.cpp.obj
 0001:0003e100       ?_Match@?$_String_bitmap@_W$0A@@std@@QEBA_N_W@Z 000000014003f100 f i AdQueryTool.cpp.obj
 0001:0003e160       ?_Unchecked_begin@?$vector@UInfoPair@ith@@V?$allocator@UInfoPair@ith@@@std@@@std@@QEBAPEBUInfoPair@ith@@XZ 000000014003f160 f i AdQueryTool.cpp.obj
 0001:0003e190       ?_Unchecked_begin@?$vector@UNamedEntry@ith@@V?$allocator@UNamedEntry@ith@@@std@@@std@@QEBAPEBUNamedEntry@ith@@XZ 000000014003f190 f i AdQueryTool.cpp.obj
 0001:0003e1c0       ?_Unchecked_end@?$vector@UInfoPair@ith@@V?$allocator@UInfoPair@ith@@@std@@@std@@QEBAPEBUInfoPair@ith@@XZ 000000014003f1c0 f i AdQueryTool.cpp.obj
 0001:0003e1f0       ?_Unchecked_end@?$vector@UNamedEntry@ith@@V?$allocator@UNamedEntry@ith@@@std@@@std@@QEBAPEBUNamedEntry@ith@@XZ 000000014003f1f0 f i AdQueryTool.cpp.obj
 0001:0003e220       ?begin@?$initializer_list@PEAUHWND__@@@std@@QEBAPEBQEAUHWND__@@XZ 000000014003f220 f i AdQueryTool.cpp.obj
 0001:0003e240       ?clear@?$basic_string@_WU?$char_traits@_W@std@@V?$allocator@_W@2@@std@@QEAAXXZ 000000014003f240 f i AdQueryTool.cpp.obj
 0001:0003e270       ?clear@?$vector@UInfoPair@ith@@V?$allocator@UInfoPair@ith@@@std@@@std@@QEAAXXZ 000000014003f270 f i AdQueryTool.cpp.obj
 0001:0003e340       ?clear@?$vector@UNamedEntry@ith@@V?$allocator@UNamedEntry@ith@@@std@@@std@@QEAAXXZ 000000014003f340 f i AdQueryTool.cpp.obj
 0001:0003e410       ?detach@thread@std@@QEAAXXZ 000000014003f410 f i AdQueryTool.cpp.obj
 0001:0003e4b0       ?empty@?$vector@UInfoPair@ith@@V?$allocator@UInfoPair@ith@@@std@@@std@@QEBA_NXZ 000000014003f4b0 f i AdQueryTool.cpp.obj
 0001:0003e510       ?end@?$initializer_list@PEAUHWND__@@@std@@QEBAPEBQEAUHWND__@@XZ 000000014003f510 f i AdQueryTool.cpp.obj
 0001:0003e530       ?find@?$_WChar_traits@_W@std@@SAPEB_WPEB_W_KAEB_W@Z 000000014003f530 f i AdQueryTool.cpp.obj
 0001:0003e610       ?find_first_not_of@?$basic_string@_WU?$char_traits@_W@std@@V?$allocator@_W@2@@std@@QEBA_KQEB_W_K@Z 000000014003f610 f i AdQueryTool.cpp.obj
 0001:0003e6a0       ?find_last_not_of@?$basic_string@_WU?$char_traits@_W@std@@V?$allocator@_W@2@@std@@QEBA_KQEB_W_K@Z 000000014003f6a0 f i AdQueryTool.cpp.obj
 0001:0003e730       ?get@?$unique_ptr@V?$tuple@P6AXPEAUHWND__@@IUAdQueryRequest@ith@@@ZPEAU1@IU23@@std@@U?$default_delete@V?$tuple@P6AXPEAUHWND__@@IUAdQueryRequest@ith@@@ZPEAU1@IU23@@std@@@2@@std@@QEBAPEAV?$tuple@P6AXPEAUHWND__@@IUAdQueryRequest@ith@@@ZPEAU1@IU23@@2@XZ 000000014003f730 f i AdQueryTool.cpp.obj
 0001:0003e750       ?get_deleter@?$unique_ptr@UAdResult@ith@@U?$default_delete@UAdResult@ith@@@std@@@std@@QEAAAEAU?$default_delete@UAdResult@ith@@@2@XZ 000000014003f750 f i AdQueryTool.cpp.obj
 0001:0003e780       ?get_deleter@?$unique_ptr@VAdQueryView@ith@@U?$default_delete@VAdQueryView@ith@@@std@@@std@@QEAAAEAU?$default_delete@VAdQueryView@ith@@@2@XZ 000000014003f780 f i AdQueryTool.cpp.obj
 0001:0003e7b0       ?joinable@thread@std@@QEBA_NXZ 000000014003f7b0 f i AdQueryTool.cpp.obj
 0001:0003e7f0       ?ok@ComApartment@ith@@QEBA_NXZ 000000014003f7f0 f i AdQueryTool.cpp.obj
 0001:0003e810       ?release@?$unique_ptr@UAdResult@ith@@U?$default_delete@UAdResult@ith@@@std@@@std@@QEAAPEAUAdResult@ith@@XZ 000000014003f810 f i AdQueryTool.cpp.obj
 0001:0003e850       ?release@?$unique_ptr@V?$tuple@P6AXPEAUHWND__@@IUAdQueryRequest@ith@@@ZPEAU1@IU23@@std@@U?$default_delete@V?$tuple@P6AXPEAUHWND__@@IUAdQueryRequest@ith@@@ZPEAU1@IU23@@std@@@2@@std@@QEAAPEAV?$tuple@P6AXPEAUHWND__@@IUAdQueryRequest@ith@@@ZPEAU1@IU23@@2@XZ 000000014003f850 f i AdQueryTool.cpp.obj
 0001:0003e890       ?release@?$unique_ptr@VAdQueryView@ith@@U?$default_delete@VAdQueryView@ith@@@std@@@std@@QEAAPEAVAdQueryView@ith@@XZ 000000014003f890 f i AdQueryTool.cpp.obj
 0001:0003e8d0       ?reset@?$unique_ptr@UAdResult@ith@@U?$default_delete@UAdResult@ith@@@std@@@std@@QEAAXPEAUAdResult@ith@@@Z 000000014003f8d0 f i AdQueryTool.cpp.obj
 0001:0003e940       ?size@?$vector@UInfoPair@ith@@V?$allocator@UInfoPair@ith@@@std@@@std@@QEBA_KXZ 000000014003f940 f i AdQueryTool.cpp.obj
 0001:0003e990       ?size@?$vector@UNamedEntry@ith@@V?$allocator@UNamedEntry@ith@@@std@@@std@@QEBA_KXZ 000000014003f990 f i AdQueryTool.cpp.obj
 0001:0003e9e0       ?substr@?$basic_string@_WU?$char_traits@_W@std@@V?$allocator@_W@2@@std@@QEBA?AV12@_K0@Z 000000014003f9e0 f i AdQueryTool.cpp.obj
 0001:0003ea60       wmemchr                    000000014003fa60 f i AdQueryTool.cpp.obj
 0001:0003eed4       ADsOpenObject              000000014003fed4 f   activeds:ACTIVEDS.dll
 0001:0003eeda       InitCommonControlsEx       000000014003feda f   comctl32:COMCTL32.dll
 0001:0003eee0       SetWindowSubclass          000000014003fee0 f   comctl32:COMCTL32.dll
 0001:0003eee6       RemoveWindowSubclass       000000014003fee6 f   comctl32:COMCTL32.dll
 0001:0003eeec       DefSubclassProc            000000014003feec f   comctl32:COMCTL32.dll
 0001:0003eef2       CoUninitialize             000000014003fef2 f   ole32:ole32.dll
 0001:0003eef8       CoInitializeEx             000000014003fef8 f   ole32:ole32.dll
 0001:0003eefe       SysAllocString             000000014003fefe f   oleaut32:OLEAUT32.dll
 0001:0003ef04       SysFreeString              000000014003ff04 f   oleaut32:OLEAUT32.dll
 0001:0003ef0a       VariantInit                000000014003ff0a f   oleaut32:OLEAUT32.dll
 0001:0003ef10       VariantClear               000000014003ff10 f   oleaut32:OLEAUT32.dll
 0001:0003ef16       GetMessageW                000000014003ff16 f   user32:USER32.dll
 0001:0003ef1c       TranslateMessage           000000014003ff1c f   user32:USER32.dll
 0001:0003ef22       DispatchMessageW           000000014003ff22 f   user32:USER32.dll
 0001:0003ef28       MessageBoxW                000000014003ff28 f   user32:USER32.dll
 0001:0003ef2e       SendMessageW               000000014003ff2e f   user32:USER32.dll
 0001:0003ef34       DefWindowProcW             000000014003ff34 f   user32:USER32.dll
 0001:0003ef3a       PostQuitMessage            000000014003ff3a f   user32:USER32.dll
 0001:0003ef40       RegisterClassExW           000000014003ff40 f   user32:USER32.dll
 0001:0003ef46       CreateWindowExW            000000014003ff46 f   user32:USER32.dll
 0001:0003ef4c       ShowWindow                 000000014003ff4c f   user32:USER32.dll
 0001:0003ef52       MoveWindow                 000000014003ff52 f   user32:USER32.dll
 0001:0003ef58       SetWindowPos               000000014003ff58 f   user32:USER32.dll
 0001:0003ef5e       UpdateWindow               000000014003ff5e f   user32:USER32.dll
 0001:0003ef64       GetClientRect              000000014003ff64 f   user32:USER32.dll
 0001:0003ef6a       GetWindowLongPtrW          000000014003ff6a f   user32:USER32.dll
 0001:0003ef70       SetWindowLongPtrW          000000014003ff70 f   user32:USER32.dll
 0001:0003ef76       LoadCursorW                000000014003ff76 f   user32:USER32.dll
 0001:0003ef7c       LoadIconW                  000000014003ff7c f   user32:USER32.dll
 0001:0003ef82       SystemParametersInfoForDpi 000000014003ff82 f   user32:USER32.dll
 0001:0003ef88       GetDpiForWindow            000000014003ff88 f   user32:USER32.dll
 0001:0003ef8e       PostMessageW               000000014003ff8e f   user32:USER32.dll
 0001:0003ef94       DestroyWindow              000000014003ff94 f   user32:USER32.dll
 0001:0003ef9a       GetDlgItem                 000000014003ff9a f   user32:USER32.dll
 0001:0003efa0       OpenClipboard              000000014003ffa0 f   user32:USER32.dll
 0001:0003efa6       CloseClipboard             000000014003ffa6 f   user32:USER32.dll
 0001:0003efac       SetClipboardData           000000014003ffac f   user32:USER32.dll
 0001:0003efb2       EmptyClipboard             000000014003ffb2 f   user32:USER32.dll
 0001:0003efb8       GetKeyState                000000014003ffb8 f   user32:USER32.dll
 0001:0003efbe       EnableWindow               000000014003ffbe f   user32:USER32.dll
 0001:0003efc4       CreatePopupMenu            000000014003ffc4 f   user32:USER32.dll
 0001:0003efca       DestroyMenu                000000014003ffca f   user32:USER32.dll
 0001:0003efd0       AppendMenuW                000000014003ffd0 f   user32:USER32.dll
 0001:0003efd6       TrackPopupMenu             000000014003ffd6 f   user32:USER32.dll
 0001:0003efdc       InvalidateRect             000000014003ffdc f   user32:USER32.dll
 0001:0003efe2       ScrollWindowEx             000000014003ffe2 f   user32:USER32.dll
 0001:0003efe8       SetScrollPos               000000014003ffe8 f   user32:USER32.dll
 0001:0003efee       SetWindowTextW             000000014003ffee f   user32:USER32.dll
 0001:0003eff4       GetWindowTextW             000000014003fff4 f   user32:USER32.dll
 0001:0003effa       GetWindowRect              000000014003fffa f   user32:USER32.dll
 0001:0003f000       GetCursorPos               0000000140040000 f   user32:USER32.dll
 0001:0003f006       GetSysColor                0000000140040006 f   user32:USER32.dll
 0001:0003f00c       GetSysColorBrush           000000014004000c f   user32:USER32.dll
 0001:0003f012       GetParent                  0000000140040012 f   user32:USER32.dll
 0001:0003f018       SetScrollInfo              0000000140040018 f   user32:USER32.dll
 0001:0003f01e       GetScrollInfo              000000014004001e f   user32:USER32.dll
 0001:0003f024       CreateFontIndirectW        0000000140040024 f   gdi32:GDI32.dll
 0001:0003f02a       DeleteObject               000000014004002a f   gdi32:GDI32.dll
 0001:0003f030       SetBkColor                 0000000140040030 f   gdi32:GDI32.dll
 0001:0003f036       SetBkMode                  0000000140040036 f   gdi32:GDI32.dll
 0001:0003f03c       SetUnhandledExceptionFilter 000000014004003c f   kernel32:KERNEL32.dll
 0001:0003f042       GetModuleFileNameW         0000000140040042 f   kernel32:KERNEL32.dll
 0001:0003f048       GetModuleHandleExW         0000000140040048 f   kernel32:KERNEL32.dll
 0001:0003f04e       MulDiv                     000000014004004e f   kernel32:KERNEL32.dll
 0001:0003f054       FileTimeToLocalFileTime    0000000140040054 f   kernel32:KERNEL32.dll
 0001:0003f05a       LocalFree                  000000014004005a f   kernel32:KERNEL32.dll
 0001:0003f060       FormatMessageW             0000000140040060 f   kernel32:KERNEL32.dll
 0001:0003f066       FileTimeToSystemTime       0000000140040066 f   kernel32:KERNEL32.dll
 0001:0003f06c       CompareStringOrdinal       000000014004006c f   kernel32:KERNEL32.dll
 0001:0003f072       GlobalAlloc                0000000140040072 f   kernel32:KERNEL32.dll
 0001:0003f078       GlobalUnlock               0000000140040078 f   kernel32:KERNEL32.dll
 0001:0003f07e       GlobalLock                 000000014004007e f   kernel32:KERNEL32.dll
 0001:0003f084       GlobalFree                 0000000140040084 f   kernel32:KERNEL32.dll
 0001:0003f090       ??0_Init_locks@std@@QEAA@XZ 0000000140040090 f   libcpmtd:xlock.obj
 0001:0003f140       ??0_Lockit@std@@QEAA@H@Z   0000000140040140 f   libcpmtd:xlock.obj
 0001:0003f1c0       ??0_Lockit@std@@QEAA@XZ    00000001400401c0 f   libcpmtd:xlock.obj
 0001:0003f230       ??1_Init_locks@std@@QEAA@XZ 0000000140040230 f   libcpmtd:xlock.obj
 0001:0003f2d0       ??1_Lockit@std@@QEAA@XZ    00000001400402d0 f   libcpmtd:xlock.obj
 0001:0003f330       ?_Init_locks_ctor@_Init_locks@std@@CAXPEAV12@@Z 0000000140040330 f   libcpmtd:xlock.obj
 0001:0003f3d0       ?_Init_locks_dtor@_Init_locks@std@@CAXPEAV12@@Z 00000001400403d0 f   libcpmtd:xlock.obj
 0001:0003f470       ?_Lockit_ctor@_Lockit@std@@CAXPEAV12@@Z 0000000140040470 f   libcpmtd:xlock.obj
 0001:0003f4b0       ?_Lockit_ctor@_Lockit@std@@CAXPEAV12@H@Z 00000001400404b0 f   libcpmtd:xlock.obj
 0001:0003f520       ?_Lockit_ctor@_Lockit@std@@SAXH@Z 0000000140040520 f   libcpmtd:xlock.obj
 0001:0003f570       ?_Lockit_dtor@_Lockit@std@@CAXPEAV12@@Z 0000000140040570 f   libcpmtd:xlock.obj
 0001:0003f5b0       ?_Lockit_dtor@_Lockit@std@@SAXH@Z 00000001400405b0 f   libcpmtd:xlock.obj
 0001:000cfd60       __check_arch_support       00000001400d0d60 f i libcpmtd:vector_algorithms.obj
 0001:000cfdb0       __std_adjacent_find_1      00000001400d0db0 f   libcpmtd:vector_algorithms.obj
 0001:000cfde0       __std_adjacent_find_2      00000001400d0de0 f   libcpmtd:vector_algorithms.obj
 0001:000cfe10       __std_adjacent_find_4      00000001400d0e10 f   libcpmtd:vector_algorithms.obj
 0001:000cfe40       __std_adjacent_find_8      00000001400d0e40 f   libcpmtd:vector_algorithms.obj
 0001:000cfe70       __std_bitset_from_string_1 00000001400d0e70 f   libcpmtd:vector_algorithms.obj
 0001:000cfee0       __std_bitset_from_string_2 00000001400d0ee0 f   libcpmtd:vector_algorithms.obj
 0001:000cff50       __std_bitset_to_string_1   00000001400d0f50 f   libcpmtd:vector_algorithms.obj
 0001:000cffb0       __std_bitset_to_string_2   00000001400d0fb0 f   libcpmtd:vector_algorithms.obj
 0001:000d0010       __std_count_trivial_1      00000001400d1010 f   libcpmtd:vector_algorithms.obj
 0001:000d0050       __std_count_trivial_2      00000001400d1050 f   libcpmtd:vector_algorithms.obj
 0001:000d0090       __std_count_trivial_4      00000001400d1090 f   libcpmtd:vector_algorithms.obj
 0001:000d00d0       __std_count_trivial_8      00000001400d10d0 f   libcpmtd:vector_algorithms.obj
 0001:000d0110       __std_find_end_1           00000001400d1110 f   libcpmtd:vector_algorithms.obj
 0001:000d0160       __std_find_end_2           00000001400d1160 f   libcpmtd:vector_algorithms.obj
 0001:000d01b0       __std_find_end_4           00000001400d11b0 f   libcpmtd:vector_algorithms.obj
 0001:000d0200       __std_find_end_8           00000001400d1200 f   libcpmtd:vector_algorithms.obj
 0001:000d0250       __std_find_first_not_of_trivial_pos_1 00000001400d1250 f   libcpmtd:vector_algorithms.obj
 0001:000d02a0       __std_find_first_not_of_trivial_pos_2 00000001400d12a0 f   libcpmtd:vector_algorithms.obj
 0001:000d02f0       __std_find_first_of_trivial_1 00000001400d12f0 f   libcpmtd:vector_algorithms.obj
 0001:000d0340       __std_find_first_of_trivial_2 00000001400d1340 f   libcpmtd:vector_algorithms.obj
 0001:000d0390       __std_find_first_of_trivial_4 00000001400d1390 f   libcpmtd:vector_algorithms.obj
 0001:000d03e0       __std_find_first_of_trivial_8 00000001400d13e0 f   libcpmtd:vector_algorithms.obj
 0001:000d0430       __std_find_first_of_trivial_pos_1 00000001400d1430 f   libcpmtd:vector_algorithms.obj
 0001:000d0480       __std_find_first_of_trivial_pos_2 00000001400d1480 f   libcpmtd:vector_algorithms.obj
 0001:000d04d0       __std_find_first_of_trivial_pos_4 00000001400d14d0 f   libcpmtd:vector_algorithms.obj
 0001:000d0520       __std_find_first_of_trivial_pos_8 00000001400d1520 f   libcpmtd:vector_algorithms.obj
 0001:000d0570       __std_find_last_not_ch_pos_1 00000001400d1570 f   libcpmtd:vector_algorithms.obj
 0001:000d05b0       __std_find_last_not_ch_pos_2 00000001400d15b0 f   libcpmtd:vector_algorithms.obj
 0001:000d05f0       __std_find_last_not_ch_pos_4 00000001400d15f0 f   libcpmtd:vector_algorithms.obj
 0001:000d0630       __std_find_last_not_ch_pos_8 00000001400d1630 f   libcpmtd:vector_algorithms.obj
 0001:000d0670       __std_find_last_not_of_trivial_pos_1 00000001400d1670 f   libcpmtd:vector_algorithms.obj
 0001:000d06c0       __std_find_last_not_of_trivial_pos_2 00000001400d16c0 f   libcpmtd:vector_algorithms.obj
 0001:000d0710       __std_find_last_of_trivial_pos_1 00000001400d1710 f   libcpmtd:vector_algorithms.obj
 0001:000d0760       __std_find_last_of_trivial_pos_2 00000001400d1760 f   libcpmtd:vector_algorithms.obj
 0001:000d07b0       __std_find_last_trivial_1  00000001400d17b0 f   libcpmtd:vector_algorithms.obj
 0001:000d07f0       __std_find_last_trivial_2  00000001400d17f0 f   libcpmtd:vector_algorithms.obj
 0001:000d0830       __std_find_last_trivial_4  00000001400d1830 f   libcpmtd:vector_algorithms.obj
 0001:000d0870       __std_find_last_trivial_8  00000001400d1870 f   libcpmtd:vector_algorithms.obj
 0001:000d08b0       __std_find_not_ch_1        00000001400d18b0 f   libcpmtd:vector_algorithms.obj
 0001:000d08f0       __std_find_not_ch_2        00000001400d18f0 f   libcpmtd:vector_algorithms.obj
 0001:000d0930       __std_find_not_ch_4        00000001400d1930 f   libcpmtd:vector_algorithms.obj
 0001:000d0970       __std_find_not_ch_8        00000001400d1970 f   libcpmtd:vector_algorithms.obj
 0001:000d09b0       __std_find_trivial_1       00000001400d19b0 f   libcpmtd:vector_algorithms.obj
 0001:000d09f0       __std_find_trivial_2       00000001400d19f0 f   libcpmtd:vector_algorithms.obj
 0001:000d0a30       __std_find_trivial_4       00000001400d1a30 f   libcpmtd:vector_algorithms.obj
 0001:000d0a70       __std_find_trivial_8       00000001400d1a70 f   libcpmtd:vector_algorithms.obj
 0001:000d0ab0       __std_find_trivial_unsized_1 00000001400d1ab0 f   libcpmtd:vector_algorithms.obj
 0001:000d0af0       __std_find_trivial_unsized_2 00000001400d1af0 f   libcpmtd:vector_algorithms.obj
 0001:000d0b20       __std_find_trivial_unsized_4 00000001400d1b20 f   libcpmtd:vector_algorithms.obj
 0001:000d0b50       __std_find_trivial_unsized_8 00000001400d1b50 f   libcpmtd:vector_algorithms.obj
 0001:000d0b80       __std_includes_less_1i     00000001400d1b80 f   libcpmtd:vector_algorithms.obj
 0001:000d0bd0       __std_includes_less_1u     00000001400d1bd0 f   libcpmtd:vector_algorithms.obj
 0001:000d0c20       __std_includes_less_2i     00000001400d1c20 f   libcpmtd:vector_algorithms.obj
 0001:000d0c70       __std_includes_less_2u     00000001400d1c70 f   libcpmtd:vector_algorithms.obj
 0001:000d0cc0       __std_includes_less_4i     00000001400d1cc0 f   libcpmtd:vector_algorithms.obj
 0001:000d0d10       __std_includes_less_4u     00000001400d1d10 f   libcpmtd:vector_algorithms.obj
 0001:000d0d60       __std_includes_less_8i     00000001400d1d60 f   libcpmtd:vector_algorithms.obj
 0001:000d0db0       __std_includes_less_8u     00000001400d1db0 f   libcpmtd:vector_algorithms.obj
 0001:000d0e00       __std_is_sorted_until_1i   00000001400d1e00 f   libcpmtd:vector_algorithms.obj
 0001:000d0e40       __std_is_sorted_until_1u   00000001400d1e40 f   libcpmtd:vector_algorithms.obj
 0001:000d0e80       __std_is_sorted_until_2i   00000001400d1e80 f   libcpmtd:vector_algorithms.obj
 0001:000d0ec0       __std_is_sorted_until_2u   00000001400d1ec0 f   libcpmtd:vector_algorithms.obj
 0001:000d0f00       __std_is_sorted_until_4i   00000001400d1f00 f   libcpmtd:vector_algorithms.obj
 0001:000d0f40       __std_is_sorted_until_4u   00000001400d1f40 f   libcpmtd:vector_algorithms.obj
 0001:000d0f80       __std_is_sorted_until_8i   00000001400d1f80 f   libcpmtd:vector_algorithms.obj
 0001:000d0fc0       __std_is_sorted_until_8u   00000001400d1fc0 f   libcpmtd:vector_algorithms.obj
 0001:000d1000       __std_is_sorted_until_d    00000001400d2000 f   libcpmtd:vector_algorithms.obj
 0001:000d1040       __std_is_sorted_until_f    00000001400d2040 f   libcpmtd:vector_algorithms.obj
 0001:000d1080       __std_max_1i               00000001400d2080 f   libcpmtd:vector_algorithms.obj
 0001:000d10b0       __std_max_1u               00000001400d20b0 f   libcpmtd:vector_algorithms.obj
 0001:000d10e0       __std_max_2i               00000001400d20e0 f   libcpmtd:vector_algorithms.obj
 0001:000d1110       __std_max_2u               00000001400d2110 f   libcpmtd:vector_algorithms.obj
 0001:000d1140       __std_max_4i               00000001400d2140 f   libcpmtd:vector_algorithms.obj
 0001:000d1170       __std_max_4u               00000001400d2170 f   libcpmtd:vector_algorithms.obj
 0001:000d11a0       __std_max_8i               00000001400d21a0 f   libcpmtd:vector_algorithms.obj
 0001:000d11d0       __std_max_8u               00000001400d21d0 f   libcpmtd:vector_algorithms.obj
 0001:000d1200       __std_max_d                00000001400d2200 f   libcpmtd:vector_algorithms.obj
 0001:000d1230       __std_max_element_1        00000001400d2230 f   libcpmtd:vector_algorithms.obj
 0001:000d1290       __std_max_element_1i       00000001400d2290 f   libcpmtd:vector_algorithms.obj
 0001:000d12c0       __std_max_element_1u       00000001400d22c0 f   libcpmtd:vector_algorithms.obj
 0001:000d12f0       __std_max_element_2        00000001400d22f0 f   libcpmtd:vector_algorithms.obj
 0001:000d1350       __std_max_element_2i       00000001400d2350 f   libcpmtd:vector_algorithms.obj
 0001:000d1380       __std_max_element_2u       00000001400d2380 f   libcpmtd:vector_algorithms.obj
 0001:000d13b0       __std_max_element_4        00000001400d23b0 f   libcpmtd:vector_algorithms.obj
 0001:000d1410       __std_max_element_4i       00000001400d2410 f   libcpmtd:vector_algorithms.obj
 0001:000d1440       __std_max_element_4u       00000001400d2440 f   libcpmtd:vector_algorithms.obj
 0001:000d1470       __std_max_element_8        00000001400d2470 f   libcpmtd:vector_algorithms.obj
 0001:000d14d0       __std_max_element_8i       00000001400d24d0 f   libcpmtd:vector_algorithms.obj
 0001:000d1500       __std_max_element_8u       00000001400d2500 f   libcpmtd:vector_algorithms.obj
 0001:000d1530       __std_max_element_d        00000001400d2530 f   libcpmtd:vector_algorithms.obj
 0001:000d1560       __std_max_element_d_       00000001400d2560 f   libcpmtd:vector_algorithms.obj
 0001:000d1590       __std_max_element_f        00000001400d2590 f   libcpmtd:vector_algorithms.obj
 0001:000d15c0       __std_max_element_f_       00000001400d25c0 f   libcpmtd:vector_algorithms.obj
 0001:000d15f0       __std_max_f                00000001400d25f0 f   libcpmtd:vector_algorithms.obj
 0001:000d1620       __std_min_1i               00000001400d2620 f   libcpmtd:vector_algorithms.obj
 0001:000d1650       __std_min_1u               00000001400d2650 f   libcpmtd:vector_algorithms.obj
 0001:000d1680       __std_min_2i               00000001400d2680 f   libcpmtd:vector_algorithms.obj
 0001:000d16b0       __std_min_2u               00000001400d26b0 f   libcpmtd:vector_algorithms.obj
 0001:000d16e0       __std_min_4i               00000001400d26e0 f   libcpmtd:vector_algorithms.obj
 0001:000d1710       __std_min_4u               00000001400d2710 f   libcpmtd:vector_algorithms.obj
 0001:000d1740       __std_min_8i               00000001400d2740 f   libcpmtd:vector_algorithms.obj
 0001:000d1770       __std_min_8u               00000001400d2770 f   libcpmtd:vector_algorithms.obj
 0001:000d17a0       __std_min_d                00000001400d27a0 f   libcpmtd:vector_algorithms.obj
 0001:000d17d0       __std_min_element_1        00000001400d27d0 f   libcpmtd:vector_algorithms.obj
 0001:000d1830       __std_min_element_1i       00000001400d2830 f   libcpmtd:vector_algorithms.obj
 0001:000d1860       __std_min_element_1u       00000001400d2860 f   libcpmtd:vector_algorithms.obj
 0001:000d1890       __std_min_element_2        00000001400d2890 f   libcpmtd:vector_algorithms.obj
 0001:000d18f0       __std_min_element_2i       00000001400d28f0 f   libcpmtd:vector_algorithms.obj
 0001:000d1920       __std_min_element_2u       00000001400d2920 f   libcpmtd:vector_algorithms.obj
 0001:000d1950       __std_min_element_4        00000001400d2950 f   libcpmtd:vector_algorithms.obj
 0001:000d19b0       __std_min_element_4i       00000001400d29b0 f   libcpmtd:vector_algorithms.obj
 0001:000d19e0       __std_min_element_4u       00000001400d29e0 f   libcpmtd:vector_algorithms.obj
 0001:000d1a10       __std_min_element_8        00000001400d2a10 f   libcpmtd:vector_algorithms.obj
 0001:000d1a70       __std_min_element_8i       00000001400d2a70 f   libcpmtd:vector_algorithms.obj
 0001:000d1aa0       __std_min_element_8u       00000001400d2aa0 f   libcpmtd:vector_algorithms.obj
 0001:000d1ad0       __std_min_element_d        00000001400d2ad0 f   libcpmtd:vector_algorithms.obj
 0001:000d1b00       __std_min_element_d_       00000001400d2b00 f   libcpmtd:vector_algorithms.obj
 0001:000d1b30       __std_min_element_f        00000001400d2b30 f   libcpmtd:vector_algorithms.obj
 0001:000d1b60       __std_min_element_f_       00000001400d2b60 f   libcpmtd:vector_algorithms.obj
 0001:000d1b90       __std_min_f                00000001400d2b90 f   libcpmtd:vector_algorithms.obj
 0001:000d1bc0       __std_minmax_1i            00000001400d2bc0 f   libcpmtd:vector_algorithms.obj
 0001:000d1c00       __std_minmax_1u            00000001400d2c00 f   libcpmtd:vector_algorithms.obj
 0001:000d1c40       __std_minmax_2i            00000001400d2c40 f   libcpmtd:vector_algorithms.obj
 0001:000d1c80       __std_minmax_2u            00000001400d2c80 f   libcpmtd:vector_algorithms.obj
 0001:000d1cc0       __std_minmax_4i            00000001400d2cc0 f   libcpmtd:vector_algorithms.obj
 0001:000d1d00       __std_minmax_4u            00000001400d2d00 f   libcpmtd:vector_algorithms.obj
 0001:000d1d40       __std_minmax_8i            00000001400d2d40 f   libcpmtd:vector_algorithms.obj
 0001:000d1dc0       __std_minmax_8u            00000001400d2dc0 f   libcpmtd:vector_algorithms.obj
 0001:000d1e40       __std_minmax_d             00000001400d2e40 f   libcpmtd:vector_algorithms.obj
 0001:000d1ec0       __std_minmax_element_1     00000001400d2ec0 f   libcpmtd:vector_algorithms.obj
 0001:000d1f70       __std_minmax_element_1i    00000001400d2f70 f   libcpmtd:vector_algorithms.obj
 0001:000d1fd0       __std_minmax_element_1u    00000001400d2fd0 f   libcpmtd:vector_algorithms.obj
 0001:000d2030       __std_minmax_element_2     00000001400d3030 f   libcpmtd:vector_algorithms.obj
 0001:000d20e0       __std_minmax_element_2i    00000001400d30e0 f   libcpmtd:vector_algorithms.obj
 0001:000d2140       __std_minmax_element_2u    00000001400d3140 f   libcpmtd:vector_algorithms.obj
 0001:000d21a0       __std_minmax_element_4     00000001400d31a0 f   libcpmtd:vector_algorithms.obj
 0001:000d2250       __std_minmax_element_4i    00000001400d3250 f   libcpmtd:vector_algorithms.obj
 0001:000d22b0       __std_minmax_element_4u    00000001400d32b0 f   libcpmtd:vector_algorithms.obj
 0001:000d2310       __std_minmax_element_8     00000001400d3310 f   libcpmtd:vector_algorithms.obj
 0001:000d23c0       __std_minmax_element_8i    00000001400d33c0 f   libcpmtd:vector_algorithms.obj
 0001:000d2420       __std_minmax_element_8u    00000001400d3420 f   libcpmtd:vector_algorithms.obj
 0001:000d2480       __std_minmax_element_d     00000001400d3480 f   libcpmtd:vector_algorithms.obj
 0001:000d24e0       __std_minmax_element_d_    00000001400d34e0 f   libcpmtd:vector_algorithms.obj
 0001:000d2540       __std_minmax_element_f     00000001400d3540 f   libcpmtd:vector_algorithms.obj
 0001:000d25a0       __std_minmax_element_f_    00000001400d35a0 f   libcpmtd:vector_algorithms.obj
 0001:000d2600       __std_minmax_f             00000001400d3600 f   libcpmtd:vector_algorithms.obj
 0001:000d2640       __std_mismatch_1           00000001400d3640 f   libcpmtd:vector_algorithms.obj
 0001:000d2680       __std_mismatch_2           00000001400d3680 f   libcpmtd:vector_algorithms.obj
 0001:000d26c0       __std_mismatch_4           00000001400d36c0 f   libcpmtd:vector_algorithms.obj
 0001:000d2700       __std_mismatch_8           00000001400d3700 f   libcpmtd:vector_algorithms.obj
 0001:000d2740       __std_remove_1             00000001400d3740 f   libcpmtd:vector_algorithms.obj
 0001:000d2820       __std_remove_2             00000001400d3820 f   libcpmtd:vector_algorithms.obj
 0001:000d2900       __std_remove_4             00000001400d3900 f   libcpmtd:vector_algorithms.obj
 0001:000d2a50       __std_remove_8             00000001400d3a50 f   libcpmtd:vector_algorithms.obj
 0001:000d2ba0       __std_remove_copy_1        00000001400d3ba0 f   libcpmtd:vector_algorithms.obj
 0001:000d2c80       __std_remove_copy_2        00000001400d3c80 f   libcpmtd:vector_algorithms.obj
 0001:000d2d60       __std_remove_copy_4        00000001400d3d60 f   libcpmtd:vector_algorithms.obj
 0001:000d2eb0       __std_remove_copy_8        00000001400d3eb0 f   libcpmtd:vector_algorithms.obj
 0001:000d3000       __std_replace_4            00000001400d4000 f   libcpmtd:vector_algorithms.obj
 0001:000d32e0       __std_replace_8            00000001400d42e0 f   libcpmtd:vector_algorithms.obj
 0001:000d35d0       __std_replace_copy_1       00000001400d45d0 f   libcpmtd:vector_algorithms.obj
 0001:000d3630       __std_replace_copy_2       00000001400d4630 f   libcpmtd:vector_algorithms.obj
 0001:000d3690       __std_replace_copy_4       00000001400d4690 f   libcpmtd:vector_algorithms.obj
 0001:000d36e0       __std_replace_copy_8       00000001400d46e0 f   libcpmtd:vector_algorithms.obj
 0001:000d3740       __std_reverse_copy_trivially_copyable_1 00000001400d4740 f   libcpmtd:vector_algorithms.obj
 0001:000d3780       __std_reverse_copy_trivially_copyable_2 00000001400d4780 f   libcpmtd:vector_algorithms.obj
 0001:000d37c0       __std_reverse_copy_trivially_copyable_4 00000001400d47c0 f   libcpmtd:vector_algorithms.obj
 0001:000d3800       __std_reverse_copy_trivially_copyable_8 00000001400d4800 f   libcpmtd:vector_algorithms.obj
 0001:000d3840       __std_reverse_trivially_swappable_1 00000001400d4840 f   libcpmtd:vector_algorithms.obj
 0001:000d3870       __std_reverse_trivially_swappable_2 00000001400d4870 f   libcpmtd:vector_algorithms.obj
 0001:000d38a0       __std_reverse_trivially_swappable_4 00000001400d48a0 f   libcpmtd:vector_algorithms.obj
 0001:000d38d0       __std_reverse_trivially_swappable_8 00000001400d48d0 f   libcpmtd:vector_algorithms.obj
 0001:000d3900       __std_rotate               00000001400d4900 f   libcpmtd:vector_algorithms.obj
 0001:000d3ca0       __std_search_1             00000001400d4ca0 f   libcpmtd:vector_algorithms.obj
 0001:000d3cf0       __std_search_2             00000001400d4cf0 f   libcpmtd:vector_algorithms.obj
 0001:000d3d40       __std_search_4             00000001400d4d40 f   libcpmtd:vector_algorithms.obj
 0001:000d3d90       __std_search_8             00000001400d4d90 f   libcpmtd:vector_algorithms.obj
 0001:000d3de0       __std_search_n_1           00000001400d4de0 f   libcpmtd:vector_algorithms.obj
 0001:000d3e30       __std_search_n_2           00000001400d4e30 f   libcpmtd:vector_algorithms.obj
 0001:000d3e80       __std_search_n_4           00000001400d4e80 f   libcpmtd:vector_algorithms.obj
 0001:000d3ed0       __std_search_n_8           00000001400d4ed0 f   libcpmtd:vector_algorithms.obj
 0001:000d3f20       __std_swap_ranges_trivially_swappable 00000001400d4f20 f   libcpmtd:vector_algorithms.obj
 0001:000d3f80       __std_swap_ranges_trivially_swappable_noalias 00000001400d4f80 f   libcpmtd:vector_algorithms.obj
 0001:000d43f0       __std_unique_1             00000001400d53f0 f   libcpmtd:vector_algorithms.obj
 0001:000d4500       __std_unique_2             00000001400d5500 f   libcpmtd:vector_algorithms.obj
 0001:000d4610       __std_unique_4             00000001400d5610 f   libcpmtd:vector_algorithms.obj
 0001:000d4790       __std_unique_8             00000001400d5790 f   libcpmtd:vector_algorithms.obj
 0001:000d4910       __std_unique_copy_1        00000001400d5910 f   libcpmtd:vector_algorithms.obj
 0001:000d4a20       __std_unique_copy_2        00000001400d5a20 f   libcpmtd:vector_algorithms.obj
 0001:000d4b30       __std_unique_copy_4        00000001400d5b30 f   libcpmtd:vector_algorithms.obj
 0001:000d4cb0       __std_unique_copy_8        00000001400d5cb0 f   libcpmtd:vector_algorithms.obj
 0001:000d4e30       ??0bad_alloc@std@@QEAA@XZ  00000001400d5e30 f i libcpmtd:xthrow.obj
 0001:000d4e80       ??0bad_function_call@std@@QEAA@AEBV01@@Z 00000001400d5e80 f i libcpmtd:xthrow.obj
 0001:000d4ed0       ??0bad_function_call@std@@QEAA@XZ 00000001400d5ed0 f i libcpmtd:xthrow.obj
 0001:000d4f10       ??0exception@std@@QEAA@QEBD@Z 00000001400d5f10 f i libcpmtd:xthrow.obj
 0001:000d4f90       ??0exception@std@@QEAA@XZ  00000001400d5f90 f i libcpmtd:xthrow.obj
 0001:000d4fd0       ??0invalid_argument@std@@QEAA@AEBV01@@Z 00000001400d5fd0 f i libcpmtd:xthrow.obj
 0001:000d5020       ??0invalid_argument@std@@QEAA@PEBD@Z 00000001400d6020 f i libcpmtd:xthrow.obj
 0001:000d5070       ??0length_error@std@@QEAA@AEBV01@@Z 00000001400d6070 f i libcpmtd:xthrow.obj
 0001:000d50c0       ??0length_error@std@@QEAA@PEBD@Z 00000001400d60c0 f i libcpmtd:xthrow.obj
 0001:000d5110       ??0logic_error@std@@QEAA@AEBV01@@Z 00000001400d6110 f i libcpmtd:xthrow.obj
 0001:000d5160       ??0logic_error@std@@QEAA@PEBD@Z 00000001400d6160 f i libcpmtd:xthrow.obj
 0001:000d51b0       ??0out_of_range@std@@QEAA@AEBV01@@Z 00000001400d61b0 f i libcpmtd:xthrow.obj
 0001:000d5200       ??0out_of_range@std@@QEAA@PEBD@Z 00000001400d6200 f i libcpmtd:xthrow.obj
 0001:000d5250       ??0overflow_error@std@@QEAA@AEBV01@@Z 00000001400d6250 f i libcpmtd:xthrow.obj
 0001:000d52a0       ??0overflow_error@std@@QEAA@PEBD@Z 00000001400d62a0 f i libcpmtd:xthrow.obj
 0001:000d52f0       ??0regex_error@std@@QEAA@AEBV01@@Z 00000001400d62f0 f i libcpmtd:xthrow.obj
 0001:000d5350       ??0regex_error@std@@QEAA@W4error_type@regex_constants@1@@Z 00000001400d6350 f i libcpmtd:xthrow.obj
 0001:000d53b0       ??0runtime_error@std@@QEAA@AEBV01@@Z 00000001400d63b0 f i libcpmtd:xthrow.obj
 0001:000d5400       ??0runtime_error@std@@QEAA@PEBD@Z 00000001400d6400 f i libcpmtd:xthrow.obj
 0001:000d5450       ??1bad_function_call@std@@UEAA@XZ 00000001400d6450 f i libcpmtd:xthrow.obj
 0001:000d5470       ??1invalid_argument@std@@UEAA@XZ 00000001400d6470 f i libcpmtd:xthrow.obj
 0001:000d5490       ??1length_error@std@@UEAA@XZ 00000001400d6490 f i libcpmtd:xthrow.obj
 0001:000d54b0       ??1logic_error@std@@UEAA@XZ 00000001400d64b0 f i libcpmtd:xthrow.obj
 0001:000d54d0       ??1out_of_range@std@@UEAA@XZ 00000001400d64d0 f i libcpmtd:xthrow.obj
 0001:000d54f0       ??1overflow_error@std@@UEAA@XZ 00000001400d64f0 f i libcpmtd:xthrow.obj
 0001:000d5510       ??1regex_error@std@@UEAA@XZ 00000001400d6510 f i libcpmtd:xthrow.obj
 0001:000d5530       ??1runtime_error@std@@UEAA@XZ 00000001400d6530 f i libcpmtd:xthrow.obj
 0001:000d5550       ??_Ebad_function_call@std@@UEAAPEAXI@Z 00000001400d6550 f i libcpmtd:xthrow.obj
 0001:000d5550       ??_Gbad_function_call@std@@UEAAPEAXI@Z 00000001400d6550 f i libcpmtd:xthrow.obj
 0001:000d55a0       ??_Einvalid_argument@std@@UEAAPEAXI@Z 00000001400d65a0 f i libcpmtd:xthrow.obj
 0001:000d55a0       ??_Ginvalid_argument@std@@UEAAPEAXI@Z 00000001400d65a0 f i libcpmtd:xthrow.obj
 0001:000d55f0       ??_Elength_error@std@@UEAAPEAXI@Z 00000001400d65f0 f i libcpmtd:xthrow.obj
 0001:000d55f0       ??_Glength_error@std@@UEAAPEAXI@Z 00000001400d65f0 f i libcpmtd:xthrow.obj
 0001:000d5640       ??_Elogic_error@std@@UEAAPEAXI@Z 00000001400d6640 f i libcpmtd:xthrow.obj
 0001:000d5640       ??_Glogic_error@std@@UEAAPEAXI@Z 00000001400d6640 f i libcpmtd:xthrow.obj
 0001:000d5690       ??_Eout_of_range@std@@UEAAPEAXI@Z 00000001400d6690 f i libcpmtd:xthrow.obj
 0001:000d5690       ??_Gout_of_range@std@@UEAAPEAXI@Z 00000001400d6690 f i libcpmtd:xthrow.obj
 0001:000d56e0       ??_Eoverflow_error@std@@UEAAPEAXI@Z 00000001400d66e0 f i libcpmtd:xthrow.obj
 0001:000d56e0       ??_Goverflow_error@std@@UEAAPEAXI@Z 00000001400d66e0 f i libcpmtd:xthrow.obj
 0001:000d5730       ??_Eregex_error@std@@UEAAPEAXI@Z 00000001400d6730 f i libcpmtd:xthrow.obj
 0001:000d5730       ??_Gregex_error@std@@UEAAPEAXI@Z 00000001400d6730 f i libcpmtd:xthrow.obj
 0001:000d5780       ??_Eruntime_error@std@@UEAAPEAXI@Z 00000001400d6780 f i libcpmtd:xthrow.obj
 0001:000d5780       ??_Gruntime_error@std@@UEAAPEAXI@Z 00000001400d6780 f i libcpmtd:xthrow.obj
 0001:000d57d0       ?_Stringify@regex_error@std@@CAPEBDW4error_type@regex_constants@2@@Z 00000001400d67d0 f i libcpmtd:xthrow.obj
 0001:000d5920       ?_Xbad_alloc@std@@YAXXZ    00000001400d6920 f   libcpmtd:xthrow.obj
 0001:000d5950       ?_Xbad_function_call@std@@YAXXZ 00000001400d6950 f   libcpmtd:xthrow.obj
 0001:000d5980       ?_Xinvalid_argument@std@@YAXPEBD@Z 00000001400d6980 f   libcpmtd:xthrow.obj
 0001:000d59c0       ?_Xlength_error@std@@YAXPEBD@Z 00000001400d69c0 f   libcpmtd:xthrow.obj
 0001:000d5a00       ?_Xout_of_range@std@@YAXPEBD@Z 00000001400d6a00 f   libcpmtd:xthrow.obj
 0001:000d5a40       ?_Xoverflow_error@std@@YAXPEBD@Z 00000001400d6a40 f   libcpmtd:xthrow.obj
 0001:000d5a80       ?_Xregex_error@std@@YAXW4error_type@regex_constants@1@@Z 00000001400d6a80 f   libcpmtd:xthrow.obj
 0001:000d5ac0       ?_Xruntime_error@std@@YAXPEBD@Z 00000001400d6ac0 f   libcpmtd:xthrow.obj
 0001:000d5b00       ?__empty_global_delete@@YAXPEAX@Z 00000001400d6b00 f i libcpmtd:xthrow.obj
 0001:000d5b10       ?__empty_global_delete@@YAXPEAXW4align_val_t@std@@@Z 00000001400d6b10 f i libcpmtd:xthrow.obj
 0001:000d5b20       ?__empty_global_delete@@YAXPEAX_K@Z 00000001400d6b20 f i libcpmtd:xthrow.obj
 0001:000d5b30       ?__empty_global_delete@@YAXPEAX_KW4align_val_t@std@@@Z 00000001400d6b30 f i libcpmtd:xthrow.obj
 0001:000d5b50       ?what@bad_function_call@std@@UEBAPEBDXZ 00000001400d6b50 f i libcpmtd:xthrow.obj
 0001:000d5b60       ??$?0$$V@?$_Compressed_pair@U?$default_delete@$$BY0A@E@std@@PEAE$00@std@@QEAA@U_Zero_then_variadic_args_t@1@@Z 00000001400d6b60 f i libcpmtd:cthread.obj
 0001:000d5b90       ??$?0U?$default_delete@$$BY0A@E@std@@$0A@@?$unique_ptr@$$BY0A@EU?$default_delete@$$BY0A@E@std@@@std@@QEAA@XZ 00000001400d6b90 f i libcpmtd:cthread.obj
 0001:000d5bd0       ??$?RE$0A@@?$default_delete@$$BY0A@E@std@@QEBAXPEAE@Z 00000001400d6bd0 f i libcpmtd:cthread.obj
 0001:000d5c10       ??$_Checked_popcount@_K@std@@YAH_K@Z 00000001400d6c10 f i libcpmtd:cthread.obj
 0001:000d5c70       ??$_Popcount@_K$0A@@std@@YAH_K@Z 00000001400d6c70 f i libcpmtd:cthread.obj
 0001:000d5cb0       ??$_Popcount_fallback@_K@std@@YAH_K@Z 00000001400d6cb0 f i libcpmtd:cthread.obj
 0001:000d5da0       ??$_Unchecked_popcount@_K@std@@YAH_K@Z 00000001400d6da0 f i libcpmtd:cthread.obj
 0001:000d5dd0       ??$exchange@PEAEAEAPEAE@std@@YAPEAEAEAPEAE0@Z 00000001400d6dd0 f i libcpmtd:cthread.obj
 0001:000d5e10       ??$popcount@_K@std@@YAH_K@Z 00000001400d6e10 f i libcpmtd:cthread.obj
 0001:000d5e30       ??$reset@PEAE$0A@@?$unique_ptr@$$BY0A@EU?$default_delete@$$BY0A@E@std@@@std@@QEAAXPEAE@Z 00000001400d6e30 f i libcpmtd:cthread.obj
 0001:000d5ea0       ??1?$unique_ptr@$$BY0A@EU?$default_delete@$$BY0A@E@std@@@std@@QEAA@XZ 00000001400d6ea0 f i libcpmtd:cthread.obj
 0001:000d5f00       ??B?$unique_ptr@$$BY0A@EU?$default_delete@$$BY0A@E@std@@@std@@QEBA_NXZ 00000001400d6f00 f i libcpmtd:cthread.obj
 0001:000d5f30       ?_Get_first@?$_Compressed_pair@U?$default_delete@$$BY0A@E@std@@PEAE$00@std@@QEAAAEAU?$default_delete@$$BY0A@E@2@XZ 00000001400d6f30 f i libcpmtd:cthread.obj
 0001:000d5ff0       ?get@?$unique_ptr@$$BY0A@EU?$default_delete@$$BY0A@E@std@@@std@@QEBAPEAEXZ 00000001400d6ff0 f i libcpmtd:cthread.obj
 0001:000d6010       _Thrd_create               00000001400d7010 f   libcpmtd:cthread.obj
 0001:000d61b0       _Thrd_current              00000001400d71b0 f   libcpmtd:cthread.obj
 0001:000d61f0       _Thrd_detach               00000001400d71f0 f   libcpmtd:cthread.obj
 0001:000d6240       _Thrd_equal                00000001400d7240 f   libcpmtd:cthread.obj
 0001:000d6290       _Thrd_exit                 00000001400d7290 f   libcpmtd:cthread.obj
 0001:000d62b0       _Thrd_hardware_concurrency 00000001400d72b0 f   libcpmtd:cthread.obj
 0001:000d64e0       _Thrd_id                   00000001400d74e0 f   libcpmtd:cthread.obj
 0001:000d6500       _Thrd_join                 00000001400d7500 f   libcpmtd:cthread.obj
 0001:000d65c0       _Thrd_sleep                00000001400d75c0 f   libcpmtd:cthread.obj
 0001:000d6670       _Thrd_start                00000001400d7670 f   libcpmtd:cthread.obj
 0001:000d6700       _Thrd_yield                00000001400d7700 f   libcpmtd:cthread.obj
 0001:000d6720       ??0?$lock_guard@Vmutex@std@@@std@@QEAA@AEAVmutex@1@@Z 00000001400d7720 f i libcpmtd:xnotify.obj
 0001:000d6760       ??1?$lock_guard@Vmutex@std@@@std@@QEAA@XZ 00000001400d7760 f i libcpmtd:xnotify.obj
 0001:000d6790       ?_Mymtx@_Mutex_base@std@@AEAAPEAU_Mtx_internal_imp_t@@XZ 00000001400d7790 f i libcpmtd:xnotify.obj
 0001:000d67a0       ?_Verify_ownership_levels@_Mutex_base@std@@IEAA_NXZ 00000001400d77a0 f i libcpmtd:xnotify.obj
 0001:000d67e0       ?lock@_Mutex_base@std@@QEAAXXZ 00000001400d77e0 f i libcpmtd:xnotify.obj
 0001:000d6840       ?unlock@_Mutex_base@std@@QEAAXXZ 00000001400d7840 f i libcpmtd:xnotify.obj
 0001:000d6870       _Cnd_do_broadcast_at_thread_exit 00000001400d7870 f   libcpmtd:xnotify.obj
 0001:000d6a20       _Cnd_register_at_thread_exit 00000001400d7a20 f   libcpmtd:xnotify.obj
 0001:000d6be0       _Cnd_unregister_at_thread_exit 00000001400d7be0 f   libcpmtd:xnotify.obj
 0001:000d6ce0       ??$?0$$V@?$_Compressed_pair@V?$allocator@D@std@@V?$_String_val@U?$_Simple_types@D@std@@@2@$00@std@@QEAA@U_Zero_then_variadic_args_t@1@@Z 00000001400d7ce0 f i libcpmtd:thread0.obj
 0001:000d6d20       ??$?0D@?$allocator@U_Container_proxy@std@@@std@@QEAA@AEBV?$allocator@D@1@@Z 00000001400d7d20 f i libcpmtd:thread0.obj
 0001:000d6d40       ??$?0V?$allocator@D@std@@$$V@?$_Compressed_pair@V?$allocator@D@std@@V?$_String_val@U?$_Simple_types@D@std@@@2@$00@std@@QEAA@U_One_then_variadic_args_t@1@$$QEAV?$allocator@D@1@@Z 00000001400d7d40 f i libcpmtd:thread0.obj
 0001:000d6d80       ??$_Allocate_at_least_helper@V?$allocator@D@std@@@std@@YAPEADAEAV?$allocator@D@0@AEA_K@Z 00000001400d7d80 f i libcpmtd:thread0.obj
 0001:000d6db0       ??$_Allocate_for_capacity@$0A@@?$basic_string@DU?$char_traits@D@std@@V?$allocator@D@2@@std@@CAPEADAEAV?$allocator@D@1@AEA_K@Z 00000001400d7db0 f i libcpmtd:thread0.obj
 0001:000d6ea0       ??$_Append@D@?$basic_string@DU?$char_traits@D@std@@V?$allocator@D@2@@std@@AEAAAEAV01@QEBD_K@Z 00000001400d7ea0 f i libcpmtd:thread0.obj
 0001:000d6ff0       ??$_Bit_cast@_KT_Addr_storage@error_category@std@@$0A@@std@@YA_KAEBT_Addr_storage@error_category@0@@Z 00000001400d7ff0 f i libcpmtd:thread0.obj
 0001:000d7020       ??$_Construct@$00PEBD@?$basic_string@DU?$char_traits@D@std@@V?$allocator@D@2@@std@@AEAAXQEBD_K@Z 00000001400d8020 f i libcpmtd:thread0.obj
 0001:000d7260       ??$_Construct@$01PEBD@?$basic_string@DU?$char_traits@D@std@@V?$allocator@D@2@@std@@AEAAXQEBD_K@Z 00000001400d8260 f i libcpmtd:thread0.obj
 0001:000d7460       ??$_Construct_in_place@PEADAEAPEAD@std@@YAXAEAPEAD0@Z 00000001400d8460 f i libcpmtd:thread0.obj
 0001:000d74e0       ??$_Construct_in_place@PEADAEBQEAD@std@@YAXAEAPEADAEBQEAD@Z 00000001400d84e0 f i libcpmtd:thread0.obj
 0001:000d7560       ??$_Destroy_in_place@PEAD@std@@YAXAEAPEAD@Z 00000001400d8560 f i libcpmtd:thread0.obj
 0001:000d7570       ??$_Get_proxy_allocator@V?$allocator@D@std@@@std@@YA?AV?$allocator@U_Container_proxy@std@@@0@AEBV?$allocator@D@0@@Z 00000001400d8570 f i libcpmtd:thread0.obj
 0001:000d75a0       ??$_Immortalize_memcpy_image@V_Generic_error_category@std@@@std@@YAAEBV_Generic_error_category@0@XZ 00000001400d85a0 f i libcpmtd:thread0.obj
 0001:000d75b0       ??$_Reallocate_grow_by@V<lambda_1>@?1???$_Append@D@?$basic_string@DU?$char_traits@D@std@@V?$allocator@D@2@@std@@AEAAAEAV23@QEBD_K@Z@PEBD_K@?$basic_string@DU?$char_traits@D@std@@V?$allocator@D@2@@std@@AEAAAEAV01@_KV<lambda_1>@?1???$_Append@D@01@AEAAAEAV01@QEBD0@Z@PEBD_K@Z 00000001400d85b0 f i libcpmtd:thread0.obj
 0001:000d77f0       ??$_Traits_copy_batch@U?$char_traits@D@std@@D@std@@YAXQEADQEBD_K@Z 00000001400d87f0 f i libcpmtd:thread0.obj
 0001:000d7830       ??$_Traits_move_batch@U?$char_traits@D@std@@D@std@@YAXQEADQEBD_K@Z 00000001400d8830 f i libcpmtd:thread0.obj
 0001:000d7870       ??$_Unfancy@D@std@@YAPEADPEAD@Z 00000001400d8870 f i libcpmtd:thread0.obj
 0001:000d7880       ??$addressof@PEAD@std@@YAPEAPEADAEAPEAD@Z 00000001400d8880 f i libcpmtd:thread0.obj
 0001:000d7890       ??$construct_at@D$$V@std@@YAPEADQEAD@Z 00000001400d8890 f i libcpmtd:thread0.obj
 0001:000d78e0       ??$construct_at@PEADAEAPEAD@std@@YAPEAPEADQEAPEADAEAPEAD@Z 00000001400d88e0 f i libcpmtd:thread0.obj
 0001:000d7930       ??$construct_at@PEADAEBQEAD@std@@YAPEAPEADQEAPEADAEBQEAD@Z 00000001400d8930 f i libcpmtd:thread0.obj
 0001:000d7980       ??0?$_String_val@U?$_Simple_types@D@std@@@std@@QEAA@XZ 00000001400d8980 f i libcpmtd:thread0.obj
 0001:000d79e0       ??0?$allocator@D@std@@QEAA@XZ 00000001400d89e0 f i libcpmtd:thread0.obj
 0001:000d79f0       ??0?$basic_string@DU?$char_traits@D@std@@V?$allocator@D@2@@std@@QEAA@$$QEAV01@@Z 00000001400d89f0 f i libcpmtd:thread0.obj
 0001:000d7ab0       ??0?$basic_string@DU?$char_traits@D@std@@V?$allocator@D@2@@std@@QEAA@AEBV01@@Z 00000001400d8ab0 f i libcpmtd:thread0.obj
 0001:000d7b70       ??0?$basic_string@DU?$char_traits@D@std@@V?$allocator@D@2@@std@@QEAA@QEBD@Z 00000001400d8b70 f i libcpmtd:thread0.obj
 0001:000d7be0       ??0_Bxty@?$_String_val@U?$_Simple_types@D@std@@@std@@QEAA@XZ 00000001400d8be0 f i libcpmtd:thread0.obj
 0001:000d7c10       ??0_System_error@std@@IEAA@Verror_code@1@AEBV?$basic_string@DU?$char_traits@D@std@@V?$allocator@D@2@@1@@Z 00000001400d8c10 f i libcpmtd:thread0.obj
 0001:000d7d70       ??0_System_error@std@@QEAA@AEBV01@@Z 00000001400d8d70 f i libcpmtd:thread0.obj
 0001:000d7de0       ??0error_code@std@@QEAA@HAEBVerror_category@1@@Z 00000001400d8de0 f i libcpmtd:thread0.obj
 0001:000d7e20       ??0error_condition@std@@QEAA@HAEBVerror_category@1@@Z 00000001400d8e20 f i libcpmtd:thread0.obj
 0001:000d7e60       ??0runtime_error@std@@QEAA@AEBV?$basic_string@DU?$char_traits@D@std@@V?$allocator@D@2@@1@@Z 00000001400d8e60 f i libcpmtd:thread0.obj
 0001:000d7eb0       ??0system_error@std@@QEAA@AEBV01@@Z 00000001400d8eb0 f i libcpmtd:thread0.obj
 0001:000d7f00       ??0system_error@std@@QEAA@HAEBVerror_category@1@PEBD@Z 00000001400d8f00 f i libcpmtd:thread0.obj
 0001:000d7ff0       ??1?$_Compressed_pair@V?$allocator@D@std@@V?$_String_val@U?$_Simple_types@D@std@@@2@$00@std@@QEAA@XZ 00000001400d8ff0 f i libcpmtd:thread0.obj
 0001:000d8020       ??1?$_String_val@U?$_Simple_types@D@std@@@std@@QEAA@XZ 00000001400d9020 f i libcpmtd:thread0.obj
 0001:000d8050       ??1?$basic_string@DU?$char_traits@D@std@@V?$allocator@D@2@@std@@QEAA@XZ 00000001400d9050 f i libcpmtd:thread0.obj
 0001:000d80d0       ??1_Bxty@?$_String_val@U?$_Simple_types@D@std@@@std@@QEAA@XZ 00000001400d90d0 f i libcpmtd:thread0.obj
 0001:000d80e0       ??1_Generic_error_category@std@@UEAA@XZ 00000001400d90e0 f i libcpmtd:thread0.obj
 0001:000d8100       ??1_System_error@std@@UEAA@XZ 00000001400d9100 f i libcpmtd:thread0.obj
 0001:000d8120       ??1error_category@std@@UEAA@XZ 00000001400d9120 f i libcpmtd:thread0.obj
 0001:000d8130       ??1system_error@std@@UEAA@XZ 00000001400d9130 f i libcpmtd:thread0.obj
 0001:000d8150       ??8error_category@std@@QEBA_NAEBV01@@Z 00000001400d9150 f i libcpmtd:thread0.obj
 0001:000d81c0       ??8std@@YA_NAEBVerror_condition@0@0@Z 00000001400d91c0 f i libcpmtd:thread0.obj
 0001:000d8260       ??R<lambda_1>@?1???$_Append@D@?$basic_string@DU?$char_traits@D@std@@V?$allocator@D@2@@std@@AEAAAEAV12@QEBD_K@Z@SA@QEAD0101@Z 00000001400d9260 f i libcpmtd:thread0.obj
 0001:000d8310       ??_E_Generic_error_category@std@@UEAAPEAXI@Z 00000001400d9310 f i libcpmtd:thread0.obj
 0001:000d8310       ??_G_Generic_error_category@std@@UEAAPEAXI@Z 00000001400d9310 f i libcpmtd:thread0.obj
 0001:000d8360       ??_E_System_error@std@@UEAAPEAXI@Z 00000001400d9360 f i libcpmtd:thread0.obj
 0001:000d8360       ??_G_System_error@std@@UEAAPEAXI@Z 00000001400d9360 f i libcpmtd:thread0.obj
 0001:000d83b0       ??_Esystem_error@std@@UEAAPEAXI@Z 00000001400d93b0 f i libcpmtd:thread0.obj
 0001:000d83b0       ??_Gsystem_error@std@@UEAAPEAXI@Z 00000001400d93b0 f i libcpmtd:thread0.obj
 0001:000d8400       ?_Activate_SSO_buffer@?$_String_val@U?$_Simple_types@D@std@@@std@@QEAAXXZ 00000001400d9400 f i libcpmtd:thread0.obj
 0001:000d8470       ?_Apply_annotation@?$basic_string@DU?$char_traits@D@std@@V?$allocator@D@2@@std@@CAXQEBD_K11@Z 00000001400d9470 f i libcpmtd:thread0.obj
 0001:000d85d0       ?_Calculate_growth@?$basic_string@DU?$char_traits@D@std@@V?$allocator@D@2@@std@@AEBA_K_K@Z 00000001400d95d0 f i libcpmtd:thread0.obj
 0001:000d8630       ?_Calculate_growth@?$basic_string@DU?$char_traits@D@std@@V?$allocator@D@2@@std@@CA_K_K00@Z 00000001400d9630 f i libcpmtd:thread0.obj
 0001:000d86f0       ?_Clamp_to_end@_Asan_aligned_pointers@std@@QEBAPEBXPEBX@Z 00000001400d96f0 f i libcpmtd:thread0.obj
 0001:000d8730       ?_Create_annotation@?$basic_string@DU?$char_traits@D@std@@V?$allocator@D@2@@std@@AEBAXXZ 00000001400d9730 f i libcpmtd:thread0.obj
 0001:000d87c0       ?_Deallocate_for_capacity@?$basic_string@DU?$char_traits@D@std@@V?$allocator@D@2@@std@@CAXAEAV?$allocator@D@2@QEAD_K@Z 00000001400d97c0 f i libcpmtd:thread0.obj
 0001:000d8800       ?_Get_asan_aligned_after@std@@YAPEBXQEBX@Z 00000001400d9800 f i libcpmtd:thread0.obj
 0001:000d8820       ?_Get_first@?$_Compressed_pair@V?$allocator@D@std@@V?$_String_val@U?$_Simple_types@D@std@@@2@$00@std@@QEAAAEAV?$allocator@D@2@XZ 00000001400d9820 f i libcpmtd:thread0.obj
 0001:000d8830       ?_Get_first@?$_Compressed_pair@V?$allocator@D@std@@V?$_String_val@U?$_Simple_types@D@std@@@2@$00@std@@QEBAAEBV?$allocator@D@2@XZ 00000001400d9830 f i libcpmtd:thread0.obj
 0001:000d8840       ?_Getal@?$basic_string@DU?$char_traits@D@std@@V?$allocator@D@2@@std@@AEAAAEAV?$allocator@D@2@XZ 00000001400d9840 f i libcpmtd:thread0.obj
 0001:000d8870       ?_Getal@?$basic_string@DU?$char_traits@D@std@@V?$allocator@D@2@@std@@AEBAAEBV?$allocator@D@2@XZ 00000001400d9870 f i libcpmtd:thread0.obj
 0001:000d88a0       ?_Large_mode_engaged@?$_String_val@U?$_Simple_types@D@std@@@std@@QEBA_NXZ 00000001400d98a0 f i libcpmtd:thread0.obj
 0001:000d88e0       ?_Makestr@_System_error@std@@CA?AV?$basic_string@DU?$char_traits@D@std@@V?$allocator@D@2@@2@Verror_code@2@V32@@Z 00000001400d98e0 f i libcpmtd:thread0.obj
 0001:000d8a00       ?_Modify_annotation@?$basic_string@DU?$char_traits@D@std@@V?$allocator@D@2@@std@@AEBAX_K0@Z 00000001400d9a00 f i libcpmtd:thread0.obj
 0001:000d8a80       ?_Myptr@?$_String_val@U?$_Simple_types@D@std@@@std@@QEAAPEADXZ 00000001400d9a80 f i libcpmtd:thread0.obj
 0001:000d8ae0       ?_Myptr@?$_String_val@U?$_Simple_types@D@std@@@std@@QEBAPEBDXZ 00000001400d9ae0 f i libcpmtd:thread0.obj
 0001:000d8b40       ?_Remove_annotation@?$basic_string@DU?$char_traits@D@std@@V?$allocator@D@2@@std@@AEBAXXZ 00000001400d9b40 f i libcpmtd:thread0.obj
 0001:000d8bd0       ?_Swap_proxy_and_iterators@?$basic_string@DU?$char_traits@D@std@@V?$allocator@D@2@@std@@AEAAXAEAV12@@Z 00000001400d9bd0 f i libcpmtd:thread0.obj
 0001:000d8c10       ?_Switch_to_buf@_Bxty@?$_String_val@U?$_Simple_types@D@std@@@std@@QEAAXXZ 00000001400d9c10 f i libcpmtd:thread0.obj
 0001:000d8c90       ?_Take_contents@?$basic_string@DU?$char_traits@D@std@@V?$allocator@D@2@@std@@AEAAXAEAV12@@Z 00000001400d9c90 f i libcpmtd:thread0.obj
 0001:000d8e00       ?_Throw_C_error@std@@YAXH@Z 00000001400d9e00 f   libcpmtd:thread0.obj
 0001:000d8e70       ?_Throw_Cpp_error@std@@YAXH@Z 00000001400d9e70 f   libcpmtd:thread0.obj
 0001:000d8f00       ?_Tidy_deallocate@?$basic_string@DU?$char_traits@D@std@@V?$allocator@D@2@@std@@AEAAXXZ 00000001400d9f00 f i libcpmtd:thread0.obj
 0001:000d8ff0       ?allocate@?$allocator@D@std@@QEAAPEAD_K@Z 00000001400d9ff0 f i libcpmtd:thread0.obj
 0001:000d9020       ?append@?$basic_string@DU?$char_traits@D@std@@V?$allocator@D@2@@std@@QEAAAEAV12@AEBV12@@Z 00000001400da020 f i libcpmtd:thread0.obj
 0001:000d9080       ?append@?$basic_string@DU?$char_traits@D@std@@V?$allocator@D@2@@std@@QEAAAEAV12@QEBD@Z 00000001400da080 f i libcpmtd:thread0.obj
 0001:000d90d0       ?assign@?$_Narrow_char_traits@DH@std@@SAXAEADAEBD@Z 00000001400da0d0 f i libcpmtd:thread0.obj
 0001:000d90f0       ?c_str@?$basic_string@DU?$char_traits@D@std@@V?$allocator@D@2@@std@@QEBAPEBDXZ 00000001400da0f0 f i libcpmtd:thread0.obj
 0001:000d9120       ?category@error_code@std@@QEBAAEBVerror_category@2@XZ 00000001400da120 f i libcpmtd:thread0.obj
 0001:000d9140       ?category@error_condition@std@@QEBAAEBVerror_category@2@XZ 00000001400da140 f i libcpmtd:thread0.obj
 0001:000d9160       ?copy@?$_Char_traits@DH@std@@SAPEADQEADQEBD_K@Z 00000001400da160 f i libcpmtd:thread0.obj
 0001:000d9220       ?deallocate@?$allocator@D@std@@QEAAXQEAD_K@Z 00000001400da220 f i libcpmtd:thread0.obj
 0001:000d92c0       ?default_error_condition@error_category@std@@UEBA?AVerror_condition@2@H@Z 00000001400da2c0 f i libcpmtd:thread0.obj
 0001:000d9300       ?empty@?$basic_string@DU?$char_traits@D@std@@V?$allocator@D@2@@std@@QEBA_NXZ 00000001400da300 f i libcpmtd:thread0.obj
 0001:000d9340       ?equivalent@error_category@std@@UEBA_NAEBVerror_code@2@H@Z 00000001400da340 f i libcpmtd:thread0.obj
 0001:000d93c0       ?equivalent@error_category@std@@UEBA_NHAEBVerror_condition@2@@Z 00000001400da3c0 f i libcpmtd:thread0.obj
 0001:000d9430       ?generic_category@std@@YAAEBVerror_category@1@XZ 00000001400da430 f i libcpmtd:thread0.obj
 0001:000d9450       ?length@?$_Narrow_char_traits@DH@std@@SA_KQEBD@Z 00000001400da450 f i libcpmtd:thread0.obj
 0001:000d94a0       ?max_size@?$_Default_allocator_traits@V?$allocator@D@std@@@std@@SA_KAEBV?$allocator@D@2@@Z 00000001400da4a0 f i libcpmtd:thread0.obj
 0001:000d94b0       ?max_size@?$basic_string@DU?$char_traits@D@std@@V?$allocator@D@2@@std@@QEBA_KXZ 00000001400da4b0 f i libcpmtd:thread0.obj
 0001:000d9540       ?message@_Generic_error_category@std@@UEBA?AV?$basic_string@DU?$char_traits@D@std@@V?$allocator@D@2@@2@H@Z 00000001400da540 f i libcpmtd:thread0.obj
 0001:000d95a0       ?message@error_code@std@@QEBA?AV?$basic_string@DU?$char_traits@D@std@@V?$allocator@D@2@@2@XZ 00000001400da5a0 f i libcpmtd:thread0.obj
 0001:000d9640       ?move@?$_Char_traits@DH@std@@SAPEADQEADQEBD_K@Z 00000001400da640 f i libcpmtd:thread0.obj
 0001:000d97c0       ?name@_Generic_error_category@std@@UEBAPEBDXZ 00000001400da7c0 f i libcpmtd:thread0.obj
 0001:000d97d0       ?select_on_container_copy_construction@?$_Default_allocator_traits@V?$allocator@D@std@@@std@@SA?AV?$allocator@D@2@AEBV32@@Z 00000001400da7d0 f i libcpmtd:thread0.obj
 0001:000d97f0       ?value@error_code@std@@QEBAHXZ 00000001400da7f0 f i libcpmtd:thread0.obj
 0001:000d9800       ?value@error_condition@std@@QEBAHXZ 00000001400da800 f i libcpmtd:thread0.obj
 0001:000d9810       _Mtxdst                    00000001400da810 f   libcpmtd:xmtx.obj
 0001:000d9830       _Mtxinit                   00000001400da830 f   libcpmtd:xmtx.obj
 0001:000d9860       _Mtxlock                   00000001400da860 f   libcpmtd:xmtx.obj
 0001:000d9880       _Mtxunlock                 00000001400da880 f   libcpmtd:xmtx.obj
 0001:000d98a0       ??$_Atomic_address_as@_JU?$_Atomic_padded@_J@std@@@std@@YAPEC_JAEAU?$_Atomic_padded@_J@0@@Z 00000001400da8a0 f i libcpmtd:xtime.obj
 0001:000d98b0       ??$_Atomic_address_as@_JU?$_Atomic_padded@_J@std@@@std@@YAPED_JAEBU?$_Atomic_padded@_J@0@@Z 00000001400da8b0 f i libcpmtd:xtime.obj
 0001:000d98c0       ??$_Bit_cast@_J_J$0A@@std@@YA_JAEB_J@Z 00000001400da8c0 f i libcpmtd:xtime.obj
 0001:000d98f0       ?_Check_load_memory_order@std@@YAXW4memory_order@1@@Z 00000001400da8f0 f i libcpmtd:xtime.obj
 0001:000d99b0       ?_Check_store_memory_order@std@@YAXW4memory_order@1@@Z 00000001400da9b0 f i libcpmtd:xtime.obj
 0001:000d9c40       ?load@?$_Atomic_storage@_J$07@std@@QEBA_JW4memory_order@2@@Z 00000001400dac40 f i libcpmtd:xtime.obj
 0001:000d9ca0       ?store@?$_Atomic_storage@_J$07@std@@QEAAX_J@Z 00000001400daca0 f i libcpmtd:xtime.obj
 0001:000d9d00       ?store@?$_Atomic_storage@_J$07@std@@QEAAX_JW4memory_order@2@@Z 00000001400dad00 f i libcpmtd:xtime.obj
 0001:000d9da0       _Query_perf_counter        00000001400dada0 f   libcpmtd:xtime.obj
 0001:000d9dc0       _Query_perf_frequency      00000001400dadc0 f   libcpmtd:xtime.obj
 0001:000d9e30       _Timespec64_get_sys        00000001400dae30 f   libcpmtd:xtime.obj
 0001:000d9ea0       _Xtime_diff_to_millis      00000001400daea0 f   libcpmtd:xtime.obj
 0001:000d9f00       _Xtime_diff_to_millis2     00000001400daf00 f   libcpmtd:xtime.obj
 0001:000d9fb0       _Xtime_get_ticks           00000001400dafb0 f   libcpmtd:xtime.obj
 0001:000da000       xtime_get                  00000001400db000 f   libcpmtd:xtime.obj
 0001:000da050       ??0_Stl_critical_section@@QEAA@XZ 00000001400db050 f i libcpmtd:mutex.obj
 0001:000da080       _Mtx_current_owns          00000001400db080 f   libcpmtd:mutex.obj
 0001:000da0d0       _Mtx_destroy               00000001400db0d0 f   libcpmtd:mutex.obj
 0001:000da110       _Mtx_destroy_in_situ       00000001400db110 f   libcpmtd:mutex.obj
 0001:000da150       _Mtx_getconcrtcs           00000001400db150 f   libcpmtd:mutex.obj
 0001:000da170       _Mtx_init                  00000001400db170 f   libcpmtd:mutex.obj
 0001:000da200       _Mtx_init_in_situ          00000001400db200 f   libcpmtd:mutex.obj
 0001:000da280       _Mtx_lock                  00000001400db280 f   libcpmtd:mutex.obj
 0001:000da2a0       _Mtx_timedlock             00000001400db2a0 f   libcpmtd:mutex.obj
 0001:000da320       _Mtx_trylock               00000001400db320 f   libcpmtd:mutex.obj
 0001:000da3a0       _Mtx_unlock                00000001400db3a0 f   libcpmtd:mutex.obj
 0001:000da460       _Thrd_abort                00000001400db460 f   libcpmtd:mutex.obj
 0001:000da4c0       __set_stl_sync_api_mode    00000001400db4c0 f   libcpmtd:mutex.obj
 0001:000da7c0       ??0_Cnd_internal_imp_t@@QEAA@XZ 00000001400db7c0 f i libcpmtd:cond.obj
 0001:000da7f0       ?_Primitive_notify_all@@YAXQEAU_Cnd_internal_imp_t@@@Z 00000001400db7f0 f i libcpmtd:cond.obj
 0001:000da830       ?_Primitive_notify_one@@YAXQEAU_Cnd_internal_imp_t@@@Z 00000001400db830 f i libcpmtd:cond.obj
 0001:000da870       ?_Primitive_wait@@YAXQEAU_Cnd_internal_imp_t@@QEAU_Mtx_internal_imp_t@@@Z 00000001400db870 f i libcpmtd:cond.obj
 0001:000da8c0       ?_Primitive_wait_for@@YA_NQEAU_Cnd_internal_imp_t@@QEAU_Mtx_internal_imp_t@@I@Z 00000001400db8c0 f i libcpmtd:cond.obj
 0001:000da940       _Cnd_broadcast             00000001400db940 f   libcpmtd:cond.obj
 0001:000da960       _Cnd_destroy               00000001400db960 f   libcpmtd:cond.obj
 0001:000da990       _Cnd_destroy_in_situ       00000001400db990 f   libcpmtd:cond.obj
 0001:000da9a0       _Cnd_init                  00000001400db9a0 f   libcpmtd:cond.obj
 0001:000daa30       _Cnd_init_in_situ          00000001400dba30 f   libcpmtd:cond.obj
 0001:000daa70       _Cnd_signal                00000001400dba70 f   libcpmtd:cond.obj
 0001:000daa90       _Cnd_timedwait             00000001400dba90 f   libcpmtd:cond.obj
 0001:000dabb0       _Cnd_wait                  00000001400dbbb0 f   libcpmtd:cond.obj
 0001:000dac00       _Mtx_clear_owner           00000001400dbc00 f   libcpmtd:cond.obj
 0001:000dac30       _Mtx_reset_owner           00000001400dbc30 f   libcpmtd:cond.obj
 0001:000dac70       ?_Syserror_map@std@@YAPEBDH@Z 00000001400dbc70 f   libcpmtd:syserror.obj
 0001:000dad10       ?_Winerror_map@std@@YAHH@Z 00000001400dbd10 f   libcpmtd:syserror.obj
 0001:000dada0       ?_Winerror_message@std@@YAKKPEADK@Z 00000001400dbda0 f   libcpmtd:syserror.obj
 0001:000dae40       __std_get_string_size_without_trailing_whitespace 00000001400dbe40 f   libcpmtd:syserror_import_lib.obj
 0001:000daeb0       __std_system_error_allocate_message 00000001400dbeb0 f   libcpmtd:syserror_import_lib.obj
 0001:000dafe0       __std_system_error_deallocate_message 00000001400dbfe0 f   libcpmtd:syserror_import_lib.obj
 0001:000db000       _RTC_AllocaHelper          00000001400dc000 f   LIBCMTD:stack.obj
 0001:000db050       _RTC_CheckStackVars        00000001400dc050 f   LIBCMTD:stack.obj
 0001:000db0e0       _RTC_CheckStackVars2       00000001400dc0e0 f   LIBCMTD:stack.obj
 0001:000db200       _CRT_RTC_INIT              00000001400dc200 f   LIBCMTD:init.obj
 0001:000db210       _CRT_RTC_INITW             00000001400dc210 f   LIBCMTD:init.obj
 0001:000db220       _RTC_InitBase              00000001400dc220 f   LIBCMTD:init.obj
 0001:000db270       _RTC_Shutdown              00000001400dc270 f   LIBCMTD:init.obj
 0001:000db6b0       __GSHandlerCheck           00000001400dc6b0 f   LIBCMTD:gshandler.obj
 0001:000db700       __GSHandlerCheckCommon     00000001400dc700 f   LIBCMTD:gshandler.obj
 0001:000db860       __security_check_cookie    00000001400dc860 f   LIBCMTD:amdsecgs.obj
 0001:000db890       ??2@YAPEAX_K@Z             00000001400dc890 f   LIBCMTD:new_scalar.obj
 0001:000db900       ??3@YAXPEAX@Z              00000001400dc900 f   LIBCMTD:delete_scalar.obj
 0001:000db930       ??3@YAXPEAX_K@Z            00000001400dc930 f   LIBCMTD:delete_scalar_size.obj
 0001:000db960       __GSHandlerCheck_EH4       00000001400dc960 f   LIBCMTD:gshandlereh4.obj
 0001:000dba30       ??1type_info@@UEAA@XZ      00000001400dca30 f   LIBCMTD:std_type_info_static.obj
 0001:000dba50       ??_Etype_info@@UEAAPEAXI@Z 00000001400dca50 f i LIBCMTD:std_type_info_static.obj
 0001:000dba50       ??_Gtype_info@@UEAAPEAXI@Z 00000001400dca50 f i LIBCMTD:std_type_info_static.obj
 0001:000dbab0       __chkstk                   00000001400dcab0 f   LIBCMTD:chkstk.obj
 0001:000dbab0       _alloca_probe              00000001400dcab0 f   LIBCMTD:chkstk.obj
 0001:000dbb20       __report_gsfailure         00000001400dcb20 f   LIBCMTD:gs_report.obj
 0001:000dbb30       __report_rangecheckfailure 00000001400dcb30 f   LIBCMTD:gs_report.obj
 0001:000dbb40       __report_securityfailure   00000001400dcb40 f   LIBCMTD:gs_report.obj
 0001:000dbb50       __report_securityfailureEx 00000001400dcb50 f   LIBCMTD:gs_report.obj
 0001:000dbee0       ?configure_argv@__scrt_wide_argv_policy@@SAHXZ 00000001400dcee0 f i LIBCMTD:exe_wwinmain.obj
 0001:000dbf00       ?initialize_environment@__scrt_wide_environment_policy@@SAHXZ 00000001400dcf00 f i LIBCMTD:exe_wwinmain.obj
 0001:000dbf70       ?set_app_type@__scrt_winmain_policy@@SAXXZ 00000001400dcf70 f i LIBCMTD:exe_wwinmain.obj
 0001:000dbf90       ?set_commode@__scrt_file_policy@@SAXXZ 00000001400dcf90 f i LIBCMTD:exe_wwinmain.obj
 0001:000dbfc0       ?set_fmode@__scrt_file_policy@@SAXXZ 00000001400dcfc0 f i LIBCMTD:exe_wwinmain.obj
 0001:000dbfe0       wWinMainCRTStartup         00000001400dcfe0 f   LIBCMTD:exe_wwinmain.obj
 0001:000dc000       ?configure_argv@__scrt_narrow_argv_policy@@SAHXZ 00000001400dd000 f i LIBCMTD:utility.obj
 0001:000dc120       ?initialize_environment@__scrt_narrow_environment_policy@@SAHXZ 00000001400dd120 f i LIBCMTD:utility.obj
 0001:000dc1f0       NtCurrentTeb               00000001400dd1f0 f i LIBCMTD:utility.obj
 0001:000dc200       __scrt_acquire_startup_lock 00000001400dd200 f   LIBCMTD:utility.obj
 0001:000dc280       __scrt_dllmain_after_initialize_c 00000001400dd280 f   LIBCMTD:utility.obj
 0001:000dc2c0       __scrt_dllmain_before_initialize_c 00000001400dd2c0 f   LIBCMTD:utility.obj
 0001:000dc2f0       __scrt_dllmain_crt_thread_attach 00000001400dd2f0 f   LIBCMTD:utility.obj
 0001:000dc330       __scrt_dllmain_crt_thread_detach 00000001400dd330 f   LIBCMTD:utility.obj
 0001:000dc350       __scrt_dllmain_exception_filter 00000001400dd350 f   LIBCMTD:utility.obj
 0001:000dc3d0       __scrt_dllmain_uninitialize_c 00000001400dd3d0 f   LIBCMTD:utility.obj
 0001:000dc410       __scrt_dllmain_uninitialize_critical 00000001400dd410 f   LIBCMTD:utility.obj
 0001:000dc430       __scrt_initialize_crt      00000001400dd430 f   LIBCMTD:utility.obj
 0001:000dc490       __scrt_initialize_onexit_tables 00000001400dd490 f   LIBCMTD:utility.obj
 0001:000dc5e0       __scrt_is_nonwritable_in_current_image 00000001400dd5e0 f   LIBCMTD:utility.obj
 0001:000dc690       __scrt_release_startup_lock 00000001400dd690 f   LIBCMTD:utility.obj
 0001:000dc6d0       __scrt_uninitialize_crt    00000001400dd6d0 f   LIBCMTD:utility.obj
 0001:000dc720       _onexit                    00000001400dd720 f   LIBCMTD:utility.obj
 0001:000dc7c0       at_quick_exit              00000001400dd7c0 f   LIBCMTD:utility.obj
 0001:000dc820       atexit                     00000001400dd820 f   LIBCMTD:utility.obj
 0001:000dc860       __isa_available_init       00000001400dd860 f   LIBCMTD:cpu_disp.obj
 0001:000dcec0       ??_V@YAXPEAX@Z             00000001400ddec0 f   LIBCMTD:delete_array.obj
 0001:000dcee0       ??_U@YAPEAX_KAEBUnothrow_t@std@@@Z 00000001400ddee0 f   LIBCMTD:new_array_nothrow.obj
 0001:000dcf20       _guard_check_icall_nop     00000001400ddf20 f i LIBCMTD:guard_support.obj
 0001:000dcf30       ReadNoFence64              00000001400ddf30 f i LIBCMTD:guard_support.obj
 0001:000dcf60       ReadPointerNoFence         00000001400ddf60 f i LIBCMTD:guard_support.obj
 0001:000dcf80       __castguard_check_failure_debugbreak 00000001400ddf80 f i LIBCMTD:guard_support.obj
 0001:000dcfb0       __castguard_check_failure_fastfail 00000001400ddfb0 f i LIBCMTD:guard_support.obj
 0001:000dcfe0       __castguard_check_failure_nop 00000001400ddfe0 f i LIBCMTD:guard_support.obj
 0001:000dcff0       __castguard_check_failure_os_handled 00000001400ddff0 f i LIBCMTD:guard_support.obj
 0001:000dd060       __castguard_check_failure_user_handled 00000001400de060 f i LIBCMTD:guard_support.obj
 0001:000dd180       __castguard_set_user_handler 00000001400de180 f i LIBCMTD:guard_support.obj
 0001:000dd1b0       __castguard_slow_path_check_debugbreak 00000001400de1b0 f i LIBCMTD:guard_support.obj
 0001:000dd200       __castguard_slow_path_check_fastfail 00000001400de200 f i LIBCMTD:guard_support.obj
 0001:000dd260       __castguard_slow_path_check_nop 00000001400de260 f i LIBCMTD:guard_support.obj
 0001:000dd280       __castguard_slow_path_check_os_handled 00000001400de280 f i LIBCMTD:guard_support.obj
 0001:000dd2e0       __castguard_slow_path_check_user_handled 00000001400de2e0 f i LIBCMTD:guard_support.obj
 0001:000dd3d0       _guard_icall_checks_enforced 00000001400de3d0 f i LIBCMTD:guard_support.obj
 0001:000dd420       _guard_rf_checks_enforced  00000001400de420 f i LIBCMTD:guard_support.obj
 0001:000dd4e0       ?_RTC_AllocaFailure@@YAXPEAXPEAU_RTC_ALLOCA_NODE@@H@Z 00000001400de4e0 f   LIBCMTD:error.obj
 0001:000dd690       ?_RTC_Failure@@YAXPEAXH@Z  00000001400de690 f   LIBCMTD:error.obj
 0001:000dd700       ?_RTC_StackFailure@@YAXPEAXPEBD@Z 00000001400de700 f   LIBCMTD:error.obj
 0001:000ddc40       _RTC_UninitUse             00000001400dec40 f   LIBCMTD:error.obj
 0001:000ddd40       _vsprintf_s_l              00000001400ded40 f i LIBCMTD:error.obj
 0001:000dddb0       sprintf_s                  00000001400dedb0 f i LIBCMTD:error.obj
 0001:000ddde0       ?_RTC_GetErrorFunc@@YAP6AHHPEBDH00ZZPEBX@Z 00000001400dede0 f   LIBCMTD:userapi.obj
 0001:000dddf0       ?_RTC_GetErrorFuncW@@YAP6AHHPEB_WH00ZZPEBX@Z 00000001400dedf0 f   LIBCMTD:userapi.obj
 0001:000dde00       _RTC_GetErrDesc            00000001400dee00 f   LIBCMTD:userapi.obj
 0001:000dde20       _RTC_NumErrors             00000001400dee20 f   LIBCMTD:userapi.obj
 0001:000dde30       _RTC_SetErrorFunc          00000001400dee30 f   LIBCMTD:userapi.obj
 0001:000dde50       _RTC_SetErrorFuncW         00000001400dee50 f   LIBCMTD:userapi.obj
 0001:000dde70       _RTC_SetErrorType          00000001400dee70 f   LIBCMTD:userapi.obj
 0001:000ddea0       ?__scrt_throw_std_bad_alloc@@YAXXZ 00000001400deea0 f   LIBCMTD:throw_bad_alloc.obj
 0001:000dded0       ?__scrt_throw_std_bad_array_new_length@@YAXXZ 00000001400deed0 f   LIBCMTD:throw_bad_alloc.obj
 0001:000ddff0       __security_init_cookie     00000001400deff0 f   LIBCMTD:gs_support.obj
 0001:000de090       _matherr                   00000001400df090 f   LIBCMTD:matherr.obj
 0001:000de0a0       _get_startup_argv_mode     00000001400df0a0 f   LIBCMTD:argv_mode.obj
 0001:000de0b0       _get_startup_commit_mode   00000001400df0b0 f   LIBCMTD:commit_mode.obj
 0001:000de0c0       _get_startup_file_mode     00000001400df0c0 f   LIBCMTD:file_mode.obj
 0001:000de0d0       _get_startup_new_mode      00000001400df0d0 f   LIBCMTD:new_mode.obj
 0001:000de0e0       _get_startup_thread_locale_mode 00000001400df0e0 f   LIBCMTD:thread_locale.obj
 0001:000de0f0       ?__scrt_initialize_type_info@@YAXXZ 00000001400df0f0 f   LIBCMTD:tncleanup.obj
 0001:000de110       ?__scrt_uninitialize_type_info@@YAXXZ 00000001400df110 f   LIBCMTD:tncleanup.obj
 0001:000de130       _should_initialize_environment 00000001400df130 f   LIBCMTD:env_mode.obj
 0001:000de140       _initialize_invalid_parameter_handler 00000001400df140 f   LIBCMTD:invalid_parameter_handler.obj
 0001:000de150       _initialize_denormal_control 00000001400df150 f   LIBCMTD:denormal_control.obj
 0001:000de160       __local_stdio_scanf_options 00000001400df160 f i LIBCMTD:default_local_stdio_options.obj
 0001:000de170       __scrt_initialize_default_local_stdio_options 00000001400df170 f   LIBCMTD:default_local_stdio_options.obj
 0001:000de1d0       __scrt_is_user_matherr_present 00000001400df1d0 f   LIBCMTD:matherr_detection.obj
 0001:000de200       __scrt_get_dyn_tls_init_callback 00000001400df200 f   LIBCMTD:dyn_tls_init.obj
 0001:000de210       __scrt_get_dyn_tls_dtor_callback 00000001400df210 f   LIBCMTD:dyn_tls_dtor.obj
 0001:000de220       __crt_debugger_hook        00000001400df220 f   LIBCMTD:utility_desktop.obj
 0001:000de240       __scrt_fastfail            00000001400df240 f   LIBCMTD:utility_desktop.obj
 0001:000de250       __scrt_get_show_window_mode 00000001400df250 f   LIBCMTD:utility_desktop.obj
 0001:000de2c0       __scrt_initialize_mta      00000001400df2c0 f   LIBCMTD:utility_desktop.obj
 0001:000de2e0       __scrt_initialize_winrt    00000001400df2e0 f   LIBCMTD:utility_desktop.obj
 0001:000de2f0       __scrt_is_managed_app      00000001400df2f0 f   LIBCMTD:utility_desktop.obj
 0001:000de3c0       __scrt_set_unhandled_exception_filter 00000001400df3c0 f   LIBCMTD:utility_desktop.obj
 0001:000de3e0       __scrt_exe_initialize_mta  00000001400df3e0 f   LIBCMTD:utility_desktop.obj
 0001:000de3e0       __scrt_stub_for_initialize_mta 00000001400df3e0 f   LIBCMTD:utility_desktop.obj
 0001:000de3f0       __scrt_unhandled_exception_filter 00000001400df3f0 f   LIBCMTD:utility_desktop.obj
 0001:000de4c0       _RTC_Initialize            00000001400df4c0 f   LIBCMTD:initsect.obj
 0001:000de520       _RTC_Terminate             00000001400df520 f   LIBCMTD:initsect.obj
 0001:000de580       __scrt_is_ucrt_dll_in_use  00000001400df580 f   LIBCMTD:ucrt_detection.obj
 0001:000de5b0       ??_U@YAPEAX_K@Z            00000001400df5b0 f   LIBCMTD:new_array.obj
 0001:000dec10       ?_RTC_GetSrcLine@@YAHPEAEPEA_WKPEAH1K@Z 00000001400dfc10 f   LIBCMTD:pdblkup.obj
 0001:000df0e0       ??$?0AEAViterator@TryBlockMap4@FH4@@AEAV012@$0A@@?$pair@Viterator@TryBlockMap4@FH4@@V123@@std@@QEAA@AEAViterator@TryBlockMap4@FH4@@0@Z 00000001400e00e0 f i libvcruntimed:risctrnsctrl.obj
 0001:000df130       ??$?0AEAViterator@TryBlockMap@__FrameHandler3@@AEAV012@$0A@@?$pair@Viterator@TryBlockMap@__FrameHandler3@@V123@@std@@QEAA@AEAViterator@TryBlockMap@__FrameHandler3@@0@Z 00000001400e0130 f i libvcruntimed:risctrnsctrl.obj
 0001:000df390       ??$_CallSETranslator@V__FrameHandler3@@@@YAHPEAUEHExceptionRecord@@PEA_KPEAU_CONTEXT@@PEAU_xDISPATCHER_CONTEXT@@PEBU_s_FuncInfo@@K1H@Z 00000001400e0390 f i libvcruntimed:risctrnsctrl.obj
 0001:000df450       ??$_CallSETranslator@V__FrameHandler4@@@@YAHPEAUEHExceptionRecord@@PEA_KPEAU_CONTEXT@@PEAU_xDISPATCHER_CONTEXT@@PEAUFuncInfo4@FH4@@K1H@Z 00000001400e0450 f i libvcruntimed:risctrnsctrl.obj
 0001:000df510       ??0FuncInfo4@FH4@@QEAA@XZ  00000001400e0510 f i libvcruntimed:risctrnsctrl.obj
 0001:000df590       ??0FuncInfoHeader@FH4@@QEAA@XZ 00000001400e0590 f i libvcruntimed:risctrnsctrl.obj
 0001:000df5b0       ??0iterator@TryBlockMap4@FH4@@QEAA@AEAV12@I@Z 00000001400e05b0 f i libvcruntimed:risctrnsctrl.obj
 0001:000df5f0       ??0iterator@TryBlockMap@__FrameHandler3@@QEAA@AEAV12@I@Z 00000001400e05f0 f i libvcruntimed:risctrnsctrl.obj
 0001:000df630       ??4iterator@TryBlockMap4@FH4@@QEAAAEAV012@AEBV012@@Z 00000001400e0630 f i libvcruntimed:risctrnsctrl.obj
 0001:000df660       ??9iterator@TryBlockMap4@FH4@@QEBA_NAEBV012@@Z 00000001400e0660 f i libvcruntimed:risctrnsctrl.obj
 0001:000df6b0       ??Diterator@TryBlockMap4@FH4@@QEAA?AUTryBlockMapEntry4@2@XZ 00000001400e06b0 f i libvcruntimed:risctrnsctrl.obj
 0001:000df6f0       ??Eiterator@TryBlockMap4@FH4@@QEAAAEAV012@XZ 00000001400e06f0 f i libvcruntimed:risctrnsctrl.obj
 0001:000df730       ?CatchTryBlock@__FrameHandler3@@SAPEBU_s_TryBlockMapEntry@@PEBU_s_FuncInfo@@H@Z 00000001400e0730 f   libvcruntimed:risctrnsctrl.obj
 0001:000df7e0       ?DecompFuncInfo@FH4@@YA_JPEAEAEAUFuncInfo4@1@_KH@Z 00000001400e07e0 f i libvcruntimed:risctrnsctrl.obj
 0001:000df830       ?DecompFuncInfo@FH4@@YA_JPEAEAEAUFuncInfo4@1@_KH_N@Z 00000001400e0830 f i libvcruntimed:risctrnsctrl.obj
 0001:000dfa90       ?DecompTryBlock@TryBlockMap4@FH4@@AEAAXXZ 00000001400e0a90 f i libvcruntimed:risctrnsctrl.obj
 0001:000dfb20       ?ExecutionInCatch@__FrameHandler3@@SA_NPEAU_xDISPATCHER_CONTEXT@@PEBU_s_FuncInfo@@@Z 00000001400e0b20 f   libvcruntimed:risctrnsctrl.obj
 0001:000dfb90       ?ExecutionInCatch@__FrameHandler4@@SA_NPEAU_xDISPATCHER_CONTEXT@@PEAUFuncInfo4@FH4@@@Z 00000001400e0b90 f   libvcruntimed:risctrnsctrl.obj
 0001:000dfbb0       ?FrameUnwindToEmptyState@__FrameHandler3@@SAXPEA_KPEAU_xDISPATCHER_CONTEXT@@PEBU_s_FuncInfo@@@Z 00000001400e0bb0 f   libvcruntimed:risctrnsctrl.obj
 0001:000dfc70       ?FrameUnwindToEmptyState@__FrameHandler4@@SAXPEA_KPEAU_xDISPATCHER_CONTEXT@@PEAUFuncInfo4@FH4@@@Z 00000001400e0c70 f   libvcruntimed:risctrnsctrl.obj
 0001:000dfce0       ?GetEstablisherFrame@__FrameHandler3@@SAPEA_KPEA_KPEAU_xDISPATCHER_CONTEXT@@PEBU_s_FuncInfo@@0@Z 00000001400e0ce0 f   libvcruntimed:risctrnsctrl.obj
 0001:000dfeb0       ?GetEstablisherFrame@__FrameHandler4@@SAPEA_KPEA_KPEAU_xDISPATCHER_CONTEXT@@PEAUFuncInfo4@FH4@@0@Z 00000001400e0eb0 f   libvcruntimed:risctrnsctrl.obj
 0001:000dff30       ?GetRangeOfTrysToCheck@__FrameHandler3@@SA?AU?$pair@Viterator@TryBlockMap@__FrameHandler3@@V123@@std@@AEAVTryBlockMap@1@HPEAU_xDISPATCHER_CONTEXT@@PEBU_s_FuncInfo@@H@Z 00000001400e0f30 f   libvcruntimed:risctrnsctrl.obj
 0001:000e0200       ?GetRangeOfTrysToCheck@__FrameHandler4@@SA?AU?$pair@Viterator@TryBlockMap4@FH4@@V123@@std@@AEAVTryBlockMap4@FH4@@HPEAU_xDISPATCHER_CONTEXT@@PEAUFuncInfo4@5@H@Z 00000001400e1200 f   libvcruntimed:risctrnsctrl.obj
 0001:000e0430       ?ReadInt@FH4@@YAHPEAPEAE@Z 00000001400e1430 f i libvcruntimed:risctrnsctrl.obj
 0001:000e0470       ?ReadUnsigned@FH4@@YAIPEAPEAE@Z 00000001400e1470 f i libvcruntimed:risctrnsctrl.obj
 0001:000e0520       ?UnwindNestedFrames@__FrameHandler3@@SAXPEA_KPEAUEHExceptionRecord@@PEAU_CONTEXT@@0PEAXPEBU_s_FuncInfo@@HHPEBU_s_HandlerType@@PEAU_xDISPATCHER_CONTEXT@@E@Z 00000001400e1520 f   libvcruntimed:risctrnsctrl.obj
 0001:000e06f0       ?UnwindNestedFrames@__FrameHandler4@@SAXPEA_KPEAUEHExceptionRecord@@PEAU_CONTEXT@@0PEAXPEAUFuncInfo4@FH4@@HHPEAUHandlerType4@5@PEAU_xDISPATCHER_CONTEXT@@E@Z 00000001400e16f0 f   libvcruntimed:risctrnsctrl.obj
 0001:000e0930       ?begin@TryBlockMap4@FH4@@QEAA?AViterator@12@XZ 00000001400e1930 f i libvcruntimed:risctrnsctrl.obj
 0001:000e0970       ?end@TryBlockMap4@FH4@@QEAA?AViterator@12@XZ 00000001400e1970 f i libvcruntimed:risctrnsctrl.obj
 0001:000e09b0       ?imageRelToByteBuffer@FH4@@YAPEAE_KH@Z 00000001400e19b0 f i libvcruntimed:risctrnsctrl.obj
 0001:000e09d0       ?incrementToSentinel@iterator@TryBlockMap4@FH4@@QEAAXXZ 00000001400e19d0 f i libvcruntimed:risctrnsctrl.obj
 0001:000e09f0       ?setBuffer@TryBlockMap4@FH4@@QEAAXViterator@12@@Z 00000001400e19f0 f i libvcruntimed:risctrnsctrl.obj
 0001:000e0a80       _CreateFrameInfo           00000001400e1a80 f   libvcruntimed:risctrnsctrl.obj
 0001:000e0b10       _FindAndUnlinkFrame        00000001400e1b10 f   libvcruntimed:risctrnsctrl.obj
 0001:000e0bb0       _GetImageBase              00000001400e1bb0 f   libvcruntimed:risctrnsctrl.obj
 0001:000e0bd0       _GetThrowImageBase         00000001400e1bd0 f   libvcruntimed:risctrnsctrl.obj
 0001:000e0bf0       _SetImageBase              00000001400e1bf0 f   libvcruntimed:risctrnsctrl.obj
 0001:000e0c20       _SetThrowImageBase         00000001400e1c20 f   libvcruntimed:risctrnsctrl.obj
 0001:000e0c50       __CxxFrameHandler          00000001400e1c50 f   libvcruntimed:risctrnsctrl.obj
 0001:000e0ca0       __CxxFrameHandler2         00000001400e1ca0 f   libvcruntimed:risctrnsctrl.obj
 0001:000e0cf0       __CxxFrameHandler3         00000001400e1cf0 f   libvcruntimed:risctrnsctrl.obj
 0001:000e0e00       __CxxFrameHandler4         00000001400e1e00 f   libvcruntimed:risctrnsctrl.obj
 0001:000e0f50       ??$__crt_interlocked_exchange_pointer@$$A6AXXZP6AXXZ@@YAP6AXXZPEDS6AXXZQ6AXXZ@Z 00000001400e1f50 f i libvcruntimed:purevirt.obj
 0001:000e0f70       ??$__crt_interlocked_read_pointer@$$A6AXXZ@@YAP6AXXZPEDS6AXXZ@Z 00000001400e1f70 f i libvcruntimed:purevirt.obj
 0001:000e0f90       ?__crt_interlocked_read_64@@YA_JPED_J@Z 00000001400e1f90 f i libvcruntimed:purevirt.obj
 0001:000e0fc0       _get_purecall_handler      00000001400e1fc0 f   libvcruntimed:purevirt.obj
 0001:000e0fe0       _purecall                  00000001400e1fe0 f   libvcruntimed:purevirt.obj
 0001:000e1030       _set_purecall_handler      00000001400e2030 f   libvcruntimed:purevirt.obj
 0001:000e1060       ??$?RD@__crt_public_free_policy@@QEBAXQEBD@Z 00000001400e2060 f i libvcruntimed:std_exception.obj
 0001:000e1090       ??0?$__crt_unique_heap_ptr@DU__crt_public_free_policy@@@@QEAA@QEAD@Z 00000001400e2090 f i libvcruntimed:std_exception.obj
 0001:000e10c0       ??1?$__crt_unique_heap_ptr@DU__crt_public_free_policy@@@@QEAA@XZ 00000001400e20c0 f i libvcruntimed:std_exception.obj
 0001:000e10e0       ??B?$__crt_unique_heap_ptr@DU__crt_public_free_policy@@@@QEBA_NXZ 00000001400e20e0 f i libvcruntimed:std_exception.obj
 0001:000e1100       ?detach@?$__crt_unique_heap_ptr@DU__crt_public_free_policy@@@@QEAAPEADXZ 00000001400e2100 f i libvcruntimed:std_exception.obj
 0001:000e1140       ?get@?$__crt_unique_heap_ptr@DU__crt_public_free_policy@@@@QEBAPEADXZ 00000001400e2140 f i libvcruntimed:std_exception.obj
 0001:000e1160       ?is_valid@?$__crt_unique_heap_ptr@DU__crt_public_free_policy@@@@QEBA_NXZ 00000001400e2160 f i libvcruntimed:std_exception.obj
 0001:000e11a0       ?release@?$__crt_unique_heap_ptr@DU__crt_public_free_policy@@@@QEAAXXZ 00000001400e21a0 f i libvcruntimed:std_exception.obj
 0001:000e11e0       __std_exception_copy       00000001400e21e0 f   libvcruntimed:std_exception.obj
 0001:000e1370       __std_exception_destroy    00000001400e2370 f   libvcruntimed:std_exception.obj
 0001:000e13c0       _CxxThrowException         00000001400e23c0 f   libvcruntimed:throw.obj
 0001:000e1550       __C_specific_handler       00000001400e2550 f   libvcruntimed:riscchandler.obj
 0001:000e1ae0       __vcrt_initialize          00000001400e2ae0 f   libvcruntimed:initialization.obj
 0001:000e1b20       __vcrt_thread_attach       00000001400e2b20 f   libvcruntimed:initialization.obj
 0001:000e1b40       __vcrt_thread_detach       00000001400e2b40 f   libvcruntimed:initialization.obj
 0001:000e1b60       __vcrt_uninitialize        00000001400e2b60 f   libvcruntimed:initialization.obj
 0001:000e1b80       __vcrt_uninitialize_critical 00000001400e2b80 f   libvcruntimed:initialization.obj
 0001:000e1ba0       __C_specific_handler_noexcept 00000001400e2ba0 f   libvcruntimed:chandler_noexcept.obj
 0001:000e1cb0       ??$?RD@__crt_internal_free_policy@@QEBAXQEBD@Z 00000001400e2cb0 f i libvcruntimed:std_type_info.obj
 0001:000e1ce0       ??$?RX@__crt_internal_free_policy@@QEBAXQEBX@Z 00000001400e2ce0 f i libvcruntimed:std_type_info.obj
 0001:000e1d10       ??$__crt_interlocked_compare_exchange_pointer@$$CBDPEAD$$T@@YAPEBDPEDSEBDQEAD$$T@Z 00000001400e2d10 f i libvcruntimed:std_type_info.obj
 0001:000e1d60       ??$__crt_interlocked_read_pointer@$$CBD@@YAPEBDPEDSEBD@Z 00000001400e2d60 f i libvcruntimed:std_type_info.obj
 0001:000e1d80       ??0?$__crt_unique_heap_ptr@DU__crt_internal_free_policy@@@@QEAA@QEAD@Z 00000001400e2d80 f i libvcruntimed:std_type_info.obj
 0001:000e1db0       ??0?$__crt_unique_heap_ptr@XU__crt_internal_free_policy@@@@QEAA@QEAX@Z 00000001400e2db0 f i libvcruntimed:std_type_info.obj
 0001:000e1de0       ??1?$__crt_unique_heap_ptr@DU__crt_internal_free_policy@@@@QEAA@XZ 00000001400e2de0 f i libvcruntimed:std_type_info.obj
 0001:000e1e00       ??1?$__crt_unique_heap_ptr@XU__crt_internal_free_policy@@@@QEAA@XZ 00000001400e2e00 f i libvcruntimed:std_type_info.obj
 0001:000e1e20       ??B?$__crt_unique_heap_ptr@DU__crt_internal_free_policy@@@@QEBA_NXZ 00000001400e2e20 f i libvcruntimed:std_type_info.obj
 0001:000e1e40       ??B?$__crt_unique_heap_ptr@XU__crt_internal_free_policy@@@@QEBA_NXZ 00000001400e2e40 f i libvcruntimed:std_type_info.obj
 0001:000e1ed0       ?detach@?$__crt_unique_heap_ptr@XU__crt_internal_free_policy@@@@QEAAPEAXXZ 00000001400e2ed0 f i libvcruntimed:std_type_info.obj
 0001:000e1f10       ?get@?$__crt_unique_heap_ptr@DU__crt_internal_free_policy@@@@QEBAPEADXZ 00000001400e2f10 f i libvcruntimed:std_type_info.obj
 0001:000e1f30       ?get@?$__crt_unique_heap_ptr@XU__crt_internal_free_policy@@@@QEBAPEAXXZ 00000001400e2f30 f i libvcruntimed:std_type_info.obj
 0001:000e1f50       ?is_valid@?$__crt_unique_heap_ptr@DU__crt_internal_free_policy@@@@QEBA_NXZ 00000001400e2f50 f i libvcruntimed:std_type_info.obj
 0001:000e1f90       ?is_valid@?$__crt_unique_heap_ptr@XU__crt_internal_free_policy@@@@QEBA_NXZ 00000001400e2f90 f i libvcruntimed:std_type_info.obj
 0001:000e1fd0       ?release@?$__crt_unique_heap_ptr@DU__crt_internal_free_policy@@@@QEAAXXZ 00000001400e2fd0 f i libvcruntimed:std_type_info.obj
 0001:000e2010       ?release@?$__crt_unique_heap_ptr@XU__crt_internal_free_policy@@@@QEAAXXZ 00000001400e3010 f i libvcruntimed:std_type_info.obj
 0001:000e2050       __std_type_info_compare    00000001400e3050 f   libvcruntimed:std_type_info.obj
 0001:000e20a0       __std_type_info_destroy_list 00000001400e30a0 f   libvcruntimed:std_type_info.obj
 0001:000e2110       __std_type_info_hash       00000001400e3110 f   libvcruntimed:std_type_info.obj
 0001:000e21f0       __std_type_info_name       00000001400e31f0 f   libvcruntimed:std_type_info.obj
 0001:000e2520       __DestructExceptionObject  00000001400e3520 f   libvcruntimed:ehhelpers.obj
 0001:000e2660       ?_CallMemberFunction0@@YAXQEAX0@Z 00000001400e3660 f i libvcruntimed:ehhelpers.obj
 0001:000e2770       ?raw_name@type_info@@QEBAPEBDXZ 00000001400e3770 f i libvcruntimed:ehhelpers.obj
 0001:000e2790       _IsExceptionObjectToBeDestroyed 00000001400e3790 f   libvcruntimed:ehhelpers.obj
 0001:000e2800       _SetWinRTOutOfMemoryExceptionCallback 00000001400e3800 f   libvcruntimed:ehhelpers.obj
 0001:000e2820       __AdjustPointer            00000001400e3820 f   libvcruntimed:ehhelpers.obj
 0001:000e28c0       __FrameUnwindFilter        00000001400e38c0 f   libvcruntimed:ehhelpers.obj
 0001:000e2990       __GetPlatformExceptionInfo 00000001400e3990 f   libvcruntimed:ehhelpers.obj
 0001:000e2a70       __current_exception        00000001400e3a70 f   libvcruntimed:ehhelpers.obj
 0001:000e2a90       __current_exception_context 00000001400e3a90 f   libvcruntimed:ehhelpers.obj
 0001:000e2ab0       __processing_throw         00000001400e3ab0 f   libvcruntimed:ehhelpers.obj
 0001:000e2ad0       __std_terminate            00000001400e3ad0 f   libvcruntimed:ehhelpers.obj
 0001:000e2af0       _is_exception_typeof       00000001400e3af0 f   libvcruntimed:ehhelpers.obj
 0001:000e2c90       __vcrt_GetModuleFileNameW  00000001400e3c90 f   libvcruntimed:winapi_thunks.obj
 0001:000e2cd0       __vcrt_GetModuleHandleW    00000001400e3cd0 f   libvcruntimed:winapi_thunks.obj
 0001:000e2cf0       __vcrt_LoadLibraryExW      00000001400e3cf0 f   libvcruntimed:winapi_thunks.obj
 0001:000e2d30       ??$?RU__vcrt_ptd@@@__crt_internal_free_policy@@QEBAXQEBU__vcrt_ptd@@@Z 00000001400e3d30 f i libvcruntimed:per_thread_data.obj
 0001:000e2d60       ??0?$__crt_unique_heap_ptr@U__vcrt_ptd@@U__crt_internal_free_policy@@@@QEAA@QEAU__vcrt_ptd@@@Z 00000001400e3d60 f i libvcruntimed:per_thread_data.obj
 0001:000e2dc0       ??1?$__crt_unique_heap_ptr@U__vcrt_ptd@@U__crt_internal_free_policy@@@@QEAA@XZ 00000001400e3dc0 f i libvcruntimed:per_thread_data.obj
 0001:000e2e10       ??B?$__crt_unique_heap_ptr@U__vcrt_ptd@@U__crt_internal_free_policy@@@@QEBA_NXZ 00000001400e3e10 f i libvcruntimed:per_thread_data.obj
 0001:000e2e30       ?detach@?$__crt_unique_heap_ptr@U__vcrt_ptd@@U__crt_internal_free_policy@@@@QEAAPEAU__vcrt_ptd@@XZ 00000001400e3e30 f i libvcruntimed:per_thread_data.obj
 0001:000e2e70       ?get@?$__crt_unique_heap_ptr@U__vcrt_ptd@@U__crt_internal_free_policy@@@@QEBAPEAU__vcrt_ptd@@XZ 00000001400e3e70 f i libvcruntimed:per_thread_data.obj
 0001:000e2e90       ?is_valid@?$__crt_unique_heap_ptr@U__vcrt_ptd@@U__crt_internal_free_policy@@@@QEBA_NXZ 00000001400e3e90 f i libvcruntimed:per_thread_data.obj
 0001:000e2ed0       ?release@?$__crt_unique_heap_ptr@U__vcrt_ptd@@U__crt_internal_free_policy@@@@QEAAXXZ 00000001400e3ed0 f i libvcruntimed:per_thread_data.obj
 0001:000e2f60       __vcrt_freefls             00000001400e3f60 f   libvcruntimed:per_thread_data.obj
 0001:000e2fb0       __vcrt_freeptd_for_this_thread 00000001400e3fb0 f   libvcruntimed:per_thread_data.obj
 0001:000e3000       __vcrt_getptd              00000001400e4000 f   libvcruntimed:per_thread_data.obj
 0001:000e3030       __vcrt_getptd_noexit       00000001400e4030 f   libvcruntimed:per_thread_data.obj
 0001:000e3240       __vcrt_getptd_noinit       00000001400e4240 f   libvcruntimed:per_thread_data.obj
 0001:000e32c0       __vcrt_initialize_ptd      00000001400e42c0 f   libvcruntimed:per_thread_data.obj
 0001:000e3320       __vcrt_uninitialize_ptd    00000001400e4320 f   libvcruntimed:per_thread_data.obj
 0001:000e3360       ?GetCurrentState@__FrameHandler3@@SAHPEA_KPEAU_xDISPATCHER_CONTEXT@@PEBU_s_FuncInfo@@@Z 00000001400e4360 f   libvcruntimed:ehstate.obj
 0001:000e33f0       ?GetUnwindTryBlock@__FrameHandler3@@SAHPEA_KPEAU_xDISPATCHER_CONTEXT@@PEBU_s_FuncInfo@@@Z 00000001400e43f0 f   libvcruntimed:ehstate.obj
 0001:000e3470       ?SetState@__FrameHandler3@@SAXPEA_KPEAU_xDISPATCHER_CONTEXT@@PEBU_s_FuncInfo@@H@Z 00000001400e4470 f   libvcruntimed:ehstate.obj
 0001:000e34d0       ?SetUnwindTryBlock@__FrameHandler3@@SAXPEA_KPEAU_xDISPATCHER_CONTEXT@@PEBU_s_FuncInfo@@H@Z 00000001400e44d0 f   libvcruntimed:ehstate.obj
 0001:000e3580       ?StateFromControlPc@__FrameHandler3@@SAHPEBU_s_FuncInfo@@PEAU_xDISPATCHER_CONTEXT@@@Z 00000001400e4580 f   libvcruntimed:ehstate.obj
 0001:000e35d0       ?StateFromControlPc@__FrameHandler4@@SAHPEAUFuncInfo4@FH4@@PEAU_xDISPATCHER_CONTEXT@@@Z 00000001400e45d0 f   libvcruntimed:ehstate.obj
 0001:000e3620       ?StateFromIp@__FrameHandler3@@SAHPEBU_s_FuncInfo@@PEAU_xDISPATCHER_CONTEXT@@_K@Z 00000001400e4620 f   libvcruntimed:ehstate.obj
 0001:000e3750       ?StateFromIp@__FrameHandler4@@SAHPEAUFuncInfo4@FH4@@PEAU_xDISPATCHER_CONTEXT@@_K@Z 00000001400e4750 f   libvcruntimed:ehstate.obj
 0001:000e3870       ?__FuncRelToRealOffset@@YA_KPEAU_xDISPATCHER_CONTEXT@@I@Z 00000001400e4870 f i libvcruntimed:ehstate.obj
 0001:000e38b0       ?__RVAtoRealOffset@@YA_KPEAU_xDISPATCHER_CONTEXT@@H@Z 00000001400e48b0 f i libvcruntimed:ehstate.obj
 0001:000e6400       ??$TypeMatchHelper@V__FrameHandler3@@@@YAHPEBU_s_HandlerType@@PEBU_s_CatchableType@@PEBU_s_ThrowInfo@@@Z 00000001400e7400 f i libvcruntimed:frame.obj
 0001:000e6680       ??$TypeMatchHelper@V__FrameHandler4@@@@YAHPEAUHandlerType4@FH4@@PEBU_s_CatchableType@@PEBU_s_ThrowInfo@@@Z 00000001400e7680 f i libvcruntimed:frame.obj
 0001:000e6910       ??$__InternalCxxFrameHandler@V__FrameHandler3@@@@YA?AW4_EXCEPTION_DISPOSITION@@PEAUEHExceptionRecord@@PEA_KPEAU_CONTEXT@@PEAU_xDISPATCHER_CONTEXT@@PEBU_s_FuncInfo@@H1E@Z 00000001400e7910 f i libvcruntimed:frame.obj
 0001:000e6eb0       ??$__InternalCxxFrameHandler@V__FrameHandler4@@@@YA?AW4_EXCEPTION_DISPOSITION@@PEAUEHExceptionRecord@@PEA_KPEAU_CONTEXT@@PEAU_xDISPATCHER_CONTEXT@@PEAUFuncInfo4@FH4@@H1E@Z 00000001400e7eb0 f i libvcruntimed:frame.obj
 0001:000e7470       ??$__InternalCxxFrameHandlerWrapper@V__FrameHandler3@@@@YA?AW4_EXCEPTION_DISPOSITION@@PEAUEHExceptionRecord@@PEA_KPEAU_CONTEXT@@PEAU_xDISPATCHER_CONTEXT@@PEBU_s_FuncInfo@@H1E@Z 00000001400e8470 f i libvcruntimed:frame.obj
 0001:000e74f0       ??$__InternalCxxFrameHandlerWrapper@V__FrameHandler4@@@@YA?AW4_EXCEPTION_DISPOSITION@@PEAUEHExceptionRecord@@PEA_KPEAU_CONTEXT@@PEAU_xDISPATCHER_CONTEXT@@PEAUFuncInfo4@FH4@@H1E@Z 00000001400e84f0 f i libvcruntimed:frame.obj
 0001:000e75a0       ??0HandlerMap4@FH4@@QEAA@PEBUTryBlockMapEntry4@1@_KH@Z 00000001400e85a0 f i libvcruntimed:frame.obj
 0001:000e76b0       ??0HandlerMap@__FrameHandler3@@QEAA@PEBU_s_TryBlockMapEntry@@_KI@Z 00000001400e86b0 f i libvcruntimed:frame.obj
 0001:000e7710       ??0HandlerType4@FH4@@QEAA@XZ 00000001400e8710 f i libvcruntimed:frame.obj
 0001:000e7740       ??0TryBlockMap4@FH4@@QEAA@PEBUFuncInfo4@1@_K@Z 00000001400e8740 f i libvcruntimed:frame.obj
 0001:000e7830       ??0TryBlockMap@__FrameHandler3@@QEAA@PEBU_s_FuncInfo@@_K@Z 00000001400e8830 f i libvcruntimed:frame.obj
 0001:000e7870       ??0UWMap4@FH4@@QEAA@PEBUFuncInfo4@1@_K@Z 00000001400e8870 f i libvcruntimed:frame.obj
 0001:000e7930       ??0bad_exception@std@@QEAA@AEBV01@@Z 00000001400e8930 f i libvcruntimed:frame.obj
 0001:000e7980       ??0bad_exception@std@@QEAA@XZ 00000001400e8980 f i libvcruntimed:frame.obj
 0001:000e79d0       ??0iterator@HandlerMap4@FH4@@QEAA@AEAV12@I@Z 00000001400e89d0 f i libvcruntimed:frame.obj
 0001:000e7a10       ??0iterator@HandlerMap@__FrameHandler3@@QEAA@AEAV12@I@Z 00000001400e8a10 f i libvcruntimed:frame.obj
 0001:000e7a50       ??0iterator@UWMap4@FH4@@QEAA@AEAV12@PEAE@Z 00000001400e8a50 f i libvcruntimed:frame.obj
 0001:000e7a90       ??1bad_exception@std@@UEAA@XZ 00000001400e8a90 f i libvcruntimed:frame.obj
 0001:000e7ab0       ??4iterator@UWMap4@FH4@@QEAAAEAV012@AEBV012@@Z 00000001400e8ab0 f i libvcruntimed:frame.obj
 0001:000e7b10       ??8iterator@HandlerMap4@FH4@@QEBA_NAEBV012@@Z 00000001400e8b10 f i libvcruntimed:frame.obj
 0001:000e7b60       ??8iterator@HandlerMap@__FrameHandler3@@QEBA_NAEBV012@@Z 00000001400e8b60 f i libvcruntimed:frame.obj
 0001:000e7bb0       ??8type_info@@QEBA_NAEBV0@@Z 00000001400e8bb0 f i libvcruntimed:frame.obj
 0001:000e7c50       ??9iterator@HandlerMap4@FH4@@QEBA_NAEBV012@@Z 00000001400e8c50 f i libvcruntimed:frame.obj
 0001:000e7ca0       ??9iterator@HandlerMap@__FrameHandler3@@QEBA_NAEBV012@@Z 00000001400e8ca0 f i libvcruntimed:frame.obj
 0001:000e7cf0       ??Diterator@HandlerMap4@FH4@@QEAA?AUHandlerType4@2@XZ 00000001400e8cf0 f i libvcruntimed:frame.obj
 0001:000e7d30       ??Diterator@HandlerMap@__FrameHandler3@@QEAA?BU_s_HandlerType@@XZ 00000001400e8d30 f i libvcruntimed:frame.obj
 0001:000e7d80       ??Diterator@TryBlockMap@__FrameHandler3@@QEAA?BU_s_TryBlockMapEntry@@XZ 00000001400e8d80 f i libvcruntimed:frame.obj
 0001:000e7df0       ??Diterator@UWMap4@FH4@@QEAA?AUUnwindMapEntry4@2@XZ 00000001400e8df0 f i libvcruntimed:frame.obj
 0001:000e7e80       ??Eiterator@HandlerMap4@FH4@@QEAAAEAV012@XZ 00000001400e8e80 f i libvcruntimed:frame.obj
 0001:000e7ec0       ??Eiterator@HandlerMap@__FrameHandler3@@QEAAAEAV012@XZ 00000001400e8ec0 f i libvcruntimed:frame.obj
 0001:000e7ef0       ??Eiterator@TryBlockMap@__FrameHandler3@@QEAAAEAV012@XZ 00000001400e8ef0 f i libvcruntimed:frame.obj
 0001:000e7f20       ??Eiterator@UWMap4@FH4@@QEAAAEAV012@XZ 00000001400e8f20 f i libvcruntimed:frame.obj
 0001:000e7f70       ??Giterator@UWMap4@FH4@@QEBA_JAEBV012@@Z 00000001400e8f70 f i libvcruntimed:frame.obj
 0001:000e7fa0       ??Miterator@TryBlockMap4@FH4@@QEBA_NAEBV012@@Z 00000001400e8fa0 f i libvcruntimed:frame.obj
 0001:000e7ff0       ??Miterator@TryBlockMap@__FrameHandler3@@QEBA_NAEBV012@@Z 00000001400e8ff0 f i libvcruntimed:frame.obj
 0001:000e8040       ??Oiterator@UWMap4@FH4@@QEBA_NAEBV012@@Z 00000001400e9040 f i libvcruntimed:frame.obj
 0001:000e8090       ??Piterator@UWMap4@FH4@@QEBA_NAEBV012@@Z 00000001400e9090 f i libvcruntimed:frame.obj
 0001:000e80e0       ??_Ebad_exception@std@@UEAAPEAXI@Z 00000001400e90e0 f i libvcruntimed:frame.obj
 0001:000e80e0       ??_Gbad_exception@std@@UEAAPEAXI@Z 00000001400e90e0 f i libvcruntimed:frame.obj
 0001:000e8130       ?BuildCatchObject@__FrameHandler3@@SAXPEAUEHExceptionRecord@@PEAXPEBU_s_HandlerType@@PEBU_s_CatchableType@@@Z 00000001400e9130 f   libvcruntimed:frame.obj
 0001:000e8180       ?BuildCatchObject@__FrameHandler4@@SAXPEAUEHExceptionRecord@@PEAXPEAUHandlerType4@FH4@@PEBU_s_CatchableType@@@Z 00000001400e9180 f   libvcruntimed:frame.obj
 0001:000e81d0       ?BuildCatchObjectHelper@__FrameHandler3@@SAHPEAUEHExceptionRecord@@PEAXPEBU_s_HandlerType@@PEBU_s_CatchableType@@@Z 00000001400e91d0 f   libvcruntimed:frame.obj
 0001:000e8220       ?BuildCatchObjectHelper@__FrameHandler4@@SAHPEAUEHExceptionRecord@@PEAXPEAUHandlerType4@FH4@@PEBU_s_CatchableType@@@Z 00000001400e9220 f   libvcruntimed:frame.obj
 0001:000e8270       ?CxxCallCatchBlock@__FrameHandler3@@SAPEAXPEAU_EXCEPTION_RECORD@@@Z 00000001400e9270 f   libvcruntimed:frame.obj
 0001:000e8580       ?CxxCallCatchBlock@__FrameHandler4@@SAPEAXPEAU_EXCEPTION_RECORD@@@Z 00000001400e9580 f   libvcruntimed:frame.obj
 0001:000e8980       ?DecompHandler@HandlerMap4@FH4@@AEAAXXZ 00000001400e9980 f i libvcruntimed:frame.obj
 0001:000e8e30       ?FrameUnwindToState@__FrameHandler3@@SAXPEA_KPEAU_xDISPATCHER_CONTEXT@@PEBU_s_FuncInfo@@H@Z 00000001400e9e30 f   libvcruntimed:frame.obj
 0001:000e9120       ?FrameUnwindToState@__FrameHandler4@@SAXPEA_KPEAU_xDISPATCHER_CONTEXT@@PEAUFuncInfo4@FH4@@H@Z 00000001400ea120 f   libvcruntimed:frame.obj
 0001:000e9500       ?GetHandlerSearchState@__FrameHandler3@@SAHPEA_KPEAU_xDISPATCHER_CONTEXT@@PEBU_s_FuncInfo@@@Z 00000001400ea500 f i libvcruntimed:frame.obj
 0001:000e95e0       ?GetHandlerSearchState@__FrameHandler4@@SAHPEA_KPEAU_xDISPATCHER_CONTEXT@@PEAUFuncInfo4@FH4@@@Z 00000001400ea5e0 f i libvcruntimed:frame.obj
 0001:000e9690       ?GetMaxState@__FrameHandler3@@SAHPEAU_xDISPATCHER_CONTEXT@@PEBU_s_FuncInfo@@@Z 00000001400ea690 f i libvcruntimed:frame.obj
 0001:000e96b0       ?GetMaxState@__FrameHandler4@@SAHPEAU_xDISPATCHER_CONTEXT@@PEAUFuncInfo4@FH4@@@Z 00000001400ea6b0 f i libvcruntimed:frame.obj
 0001:000e9960       ?ReadEntry@UWMap4@FH4@@AEAAXPEAPEAE@Z 00000001400ea960 f i libvcruntimed:frame.obj
 0001:000e9a30       ?TypeMatch@__FrameHandler3@@SAHPEBU_s_HandlerType@@PEBU_s_CatchableType@@PEBU_s_ThrowInfo@@@Z 00000001400eaa30 f   libvcruntimed:frame.obj
 0001:000e9a70       ?TypeMatch@__FrameHandler4@@SAHPEAUHandlerType4@FH4@@PEBU_s_CatchableType@@PEBU_s_ThrowInfo@@@Z 00000001400eaa70 f   libvcruntimed:frame.obj
 0001:000e9ab0       ?WalkBack@UWMap4@FH4@@AEAAXPEAPEAE@Z 00000001400eaab0 f i libvcruntimed:frame.obj
 0001:000e9b10       ?WalkBack@iterator@UWMap4@FH4@@QEAAXXZ 00000001400eab10 f i libvcruntimed:frame.obj
 0001:000e9b50       ?WalkForward@UWMap4@FH4@@AEAAXPEAPEAE@Z 00000001400eab50 f i libvcruntimed:frame.obj
 0001:000e9b80       ?_CallMemberFunction1@@YAXQEAX00@Z 00000001400eab80 f i libvcruntimed:frame.obj
 0001:000e9bd0       ?_CallMemberFunction2@@YAXQEAX00H@Z 00000001400eabd0 f i libvcruntimed:frame.obj
 0001:000e9c80       ?begin@HandlerMap4@FH4@@QEAA?AViterator@12@XZ 00000001400eac80 f i libvcruntimed:frame.obj
 0001:000e9cc0       ?begin@HandlerMap@__FrameHandler3@@QEAA?AViterator@12@XZ 00000001400eacc0 f i libvcruntimed:frame.obj
 0001:000e9d00       ?begin@UWMap4@FH4@@QEAA?AViterator@12@XZ 00000001400ead00 f i libvcruntimed:frame.obj
 0001:000e9d40       ?end@HandlerMap4@FH4@@QEAA?AViterator@12@XZ 00000001400ead40 f i libvcruntimed:frame.obj
 0001:000e9d80       ?end@HandlerMap@__FrameHandler3@@QEAA?AViterator@12@XZ 00000001400ead80 f i libvcruntimed:frame.obj
 0001:000e9dc0       ?getESTypes@__FrameHandler3@@SAPEBU_s_ESTypeList@@PEBU_s_FuncInfo@@@Z 00000001400eadc0 f i libvcruntimed:frame.obj
 0001:000e9e10       ?getESTypes@__FrameHandler4@@SAPEBU_s_ESTypeList@@PEAUFuncInfo4@FH4@@@Z 00000001400eae10 f i libvcruntimed:frame.obj
 0001:000e9e20       ?getLastEntry@HandlerMap4@FH4@@QEAAPEAUHandlerType4@2@XZ 00000001400eae20 f i libvcruntimed:frame.obj
 0001:000e9e70       ?getLastEntry@HandlerMap@__FrameHandler3@@QEAAPEBU_s_HandlerType@@XZ 00000001400eae70 f i libvcruntimed:frame.obj
 0001:000e9ea0       ?getMagicNum@__FrameHandler3@@SAIPEBU_s_FuncInfo@@@Z 00000001400eaea0 f i libvcruntimed:frame.obj
 0001:000e9ec0       ?getMagicNum@__FrameHandler4@@SAIPEAUFuncInfo4@FH4@@@Z 00000001400eaec0 f i libvcruntimed:frame.obj
 0001:000e9ed0       ?getNumTryBlocks@TryBlockMap4@FH4@@QEAAIXZ 00000001400eaed0 f i libvcruntimed:frame.obj
 0001:000e9ee0       ?getNumTryBlocks@TryBlockMap@__FrameHandler3@@QEAAIXZ 00000001400eaee0 f i libvcruntimed:frame.obj
 0001:000e9f00       ?getStartStop@UWMap4@FH4@@QEAAXHHAEAViterator@12@0@Z 00000001400eaf00 f i libvcruntimed:frame.obj
 0001:000ea070       ?getStateFromIterators@UWMap4@FH4@@SAHAEBViterator@12@H0H0@Z 00000001400eb070 f i libvcruntimed:frame.obj
 0001:000ea200       ?isEHs@__FrameHandler3@@SA_NPEBU_s_FuncInfo@@@Z 00000001400eb200 f i libvcruntimed:frame.obj
 0001:000ea240       ?isEHs@__FrameHandler4@@SA_NPEAUFuncInfo4@FH4@@@Z 00000001400eb240 f i libvcruntimed:frame.obj
 0001:000ea260       ?isNoExcept@__FrameHandler3@@SA_NPEBU_s_FuncInfo@@@Z 00000001400eb260 f i libvcruntimed:frame.obj
 0001:000ea2a0       ?isNoExcept@__FrameHandler4@@SA_NPEAUFuncInfo4@FH4@@@Z 00000001400eb2a0 f i libvcruntimed:frame.obj
 0001:000ea2c0       ?reset@HandlerType4@FH4@@QEAAXXZ 00000001400eb2c0 f i libvcruntimed:frame.obj
 0001:000ea340       ?resetBuffer@HandlerMap4@FH4@@QEAAXXZ 00000001400eb340 f i libvcruntimed:frame.obj
 0001:000ea370       ?setBuffer@HandlerMap4@FH4@@QEAAXI@Z 00000001400eb370 f i libvcruntimed:frame.obj
 0001:000ea3e0       __BuildCatchObject         00000001400eb3e0 f   libvcruntimed:frame.obj
 0001:000ea430       __BuildCatchObjectHelper   00000001400eb430 f   libvcruntimed:frame.obj
 0001:000ea480       __TypeMatch                00000001400eb480 f   libvcruntimed:frame.obj
 0001:000ea500       _NLG_Notify                00000001400eb500 f   libvcruntimed:notify.obj
 0001:000ea530       __NLG_Dispatch2            00000001400eb530 f   libvcruntimed:notify.obj
 0001:000ea540       __NLG_Return2              00000001400eb540 f   libvcruntimed:notify.obj
 0001:000ea570       __except_validate_context_record 00000001400eb570 f   libvcruntimed:jbcxrval.obj
 0001:000ea5e0       __except_validate_jump_buffer 00000001400eb5e0 f   libvcruntimed:jbcxrval.obj
 0001:000ea610       __except_validate_jump_buffer_common 00000001400eb610 f i libvcruntimed:jbcxrval.obj
 0001:000ea6b0       __vcrt_initialize_locks    00000001400eb6b0 f   libvcruntimed:locks.obj
 0001:000ea740       __vcrt_lock                00000001400eb740 f   libvcruntimed:locks.obj
 0001:000ea780       __vcrt_uninitialize_locks  00000001400eb780 f   libvcruntimed:locks.obj
 0001:000ea7f0       __vcrt_unlock              00000001400eb7f0 f   libvcruntimed:locks.obj
 0001:000ea830       ??$?0$00@DName@@QEAA@PEAVUnDecorator@@PEBDU?$StringLifeSelector@$00@@@Z 00000001400eb830 f i libvcruntimed:undname.obj
 0001:000ea8d0       ??$?0$00@pcharNode@@QEAA@PEBDHU?$StringLifeSelector@$00@@AEAV_HeapManager@@@Z 00000001400eb8d0 f i libvcruntimed:undname.obj
 0001:000ea940       ??$?0$01@DName@@QEAA@PEAVUnDecorator@@PEBDU?$StringLifeSelector@$01@@@Z 00000001400eb940 f i libvcruntimed:undname.obj
 0001:000ea9e0       ??$?0$01@pcharNode@@QEAA@PEBDHU?$StringLifeSelector@$01@@AEAV_HeapManager@@@Z 00000001400eb9e0 f i libvcruntimed:undname.obj
 0001:000eaab0       ??$?0$0A@@DName@@QEAA@PEAVUnDecorator@@PEBDU?$StringLifeSelector@$0A@@@@Z 00000001400ebab0 f i libvcruntimed:undname.obj
 0001:000eab50       ??$?0$0A@@pcharNode@@QEAA@PEBDHU?$StringLifeSelector@$0A@@@AEAV_HeapManager@@@Z 00000001400ebb50 f i libvcruntimed:undname.obj
 0001:000eac20       ??$append@VDNameNode@@@DName@@AEAAXPEBVDNameNode@@@Z 00000001400ebc20 f i libvcruntimed:undname.obj
 0001:000ead10       ??$append@VDNameStatusNode@@@DName@@AEAAXPEBVDNameStatusNode@@@Z 00000001400ebd10 f i libvcruntimed:undname.obj
 0001:000eae00       ??$append@VcharNode@@@DName@@AEAAXPEBVcharNode@@@Z 00000001400ebe00 f i libvcruntimed:undname.obj
 0001:000eaef0       ??$append@VpDNameNode@@@DName@@AEAAXPEBVpDNameNode@@@Z 00000001400ebef0 f i libvcruntimed:undname.obj
 0001:000eafe0       ??$append@VpcharNode@@@DName@@AEAAXPEBVpcharNode@@@Z 00000001400ebfe0 f i libvcruntimed:undname.obj
 0001:000eb0d0       ??$doPchar@$00@DName@@AEAAXPEBDH@Z 00000001400ec0d0 f i libvcruntimed:undname.obj
 0001:000eb2e0       ??$doPchar@$01@DName@@AEAAXPEBDH@Z 00000001400ec2e0 f i libvcruntimed:undname.obj
 0001:000eb4f0       ??$doPchar@$0A@@DName@@AEAAXPEBDH@Z 00000001400ec4f0 f i libvcruntimed:undname.obj
 0001:000eb930       ??0Block@_HeapManager@@QEAA@XZ 00000001400ec930 f i libvcruntimed:undname.obj
 0001:000eb950       ??0DName@@QEAA@AEBV0@@Z    00000001400ec950 f i libvcruntimed:undname.obj
 0001:000eb9b0       ??0DName@@QEAA@PEAVUnDecorator@@@Z 00000001400ec9b0 f i libvcruntimed:undname.obj
 0001:000eba00       ??0DName@@QEAA@PEAVUnDecorator@@AEAPEBDD@Z 00000001400eca00 f   libvcruntimed:undname.obj
 0001:000ebc60       ??0DName@@QEAA@PEAVUnDecorator@@AEBUStringLiteral@@@Z 00000001400ecc60 f   libvcruntimed:undname.obj
 0001:000ebcf0       ??0DName@@QEAA@PEAVUnDecorator@@D@Z 00000001400eccf0 f   libvcruntimed:undname.obj
 0001:000ebd60       ??0DName@@QEAA@PEAVUnDecorator@@PEAV0@@Z 00000001400ecd60 f   libvcruntimed:undname.obj
 0001:000ebea0       ??0DName@@QEAA@PEAVUnDecorator@@W4DNameStatus@@@Z 00000001400ecea0 f   libvcruntimed:undname.obj
 0001:000ebfa0       ??0DName@@QEAA@PEAVUnDecorator@@_J@Z 00000001400ecfa0 f   libvcruntimed:undname.obj
 0001:000ec110       ??0DName@@QEAA@PEAVUnDecorator@@_K@Z 00000001400ed110 f   libvcruntimed:undname.obj
 0001:000ec230       ??0DNameNode@@IEAA@XZ      00000001400ed230 f i libvcruntimed:undname.obj
 0001:000ec250       ??0OptionalValue@UnDecorator@@QEAA@XZ 00000001400ed250 f i libvcruntimed:undname.obj
 0001:000ec280       ??0OptionalValue@UnDecorator@@QEAA@_K@Z 00000001400ed280 f i libvcruntimed:undname.obj
 0001:000ec2b0       ??0Replicator@@QEAA@PEAVUnDecorator@@@Z 00000001400ed2b0 f i libvcruntimed:undname.obj
 0001:000ec340       ??0UnDecorator@@QEAA@PEBDP6APEADJ@ZKP6APEAX_K@ZP6AXPEAX@Z@Z 00000001400ed340 f i libvcruntimed:undname.obj
 0001:000ec540       ??0_HeapManager@@QEAA@P6APEAX_K@ZP6AXPEAX@Z@Z 00000001400ed540 f i libvcruntimed:undname.obj
 0001:000ec5b0       ??0charNode@@QEAA@D@Z      00000001400ed5b0 f i libvcruntimed:undname.obj
 0001:000ec600       ??0pDNameNode@@QEAA@PEAVDName@@@Z 00000001400ed600 f   libvcruntimed:undname.obj
 0001:000ec6a0       ??0pairNode@@QEAA@PEBVDNameNode@@0@Z 00000001400ed6a0 f i libvcruntimed:undname.obj
 0001:000ec750       ??2@YAPEAX_KAEAV_HeapManager@@H@Z 00000001400ed750 f   libvcruntimed:undname.obj
 0001:000ec7c0       ??4DName@@QEAAAEAV0@AEBUStringLiteral@@@Z 00000001400ed7c0 f   libvcruntimed:undname.obj
 0001:000ec820       ??4DName@@QEAAAEAV0@AEBV0@@Z 00000001400ed820 f   libvcruntimed:undname.obj
 0001:000ec860       ??4DName@@QEAAAEAV0@D@Z    00000001400ed860 f i libvcruntimed:undname.obj
 0001:000ec8b0       ??4DName@@QEAAAEAV0@PEAV0@@Z 00000001400ed8b0 f   libvcruntimed:undname.obj
 0001:000ec9b0       ??4DName@@QEAAAEAV0@W4DNameStatus@@@Z 00000001400ed9b0 f   libvcruntimed:undname.obj
 0001:000eca70       ??AReplicator@@QEBA?AVDName@@H@Z 00000001400eda70 f   libvcruntimed:undname.obj
 0001:000ecb40       ??BOptionalValue@UnDecorator@@QEBA_NXZ 00000001400edb40 f i libvcruntimed:undname.obj
 0001:000ecb60       ??DOptionalValue@UnDecorator@@QEBA_KXZ 00000001400edb60 f i libvcruntimed:undname.obj
 0001:000ecb80       ??H@YA?AVDName@@AEBUStringLiteral@@AEBV0@@Z 00000001400edb80 f i libvcruntimed:undname.obj
 0001:000ecbf0       ??H@YA?AVDName@@DAEBV0@@Z  00000001400edbf0 f i libvcruntimed:undname.obj
 0001:000ecc60       ??H@YA?AVDName@@W4DNameStatus@@AEBV0@@Z 00000001400edc60 f i libvcruntimed:undname.obj
 0001:000eccd0       ??HDName@@QEBA?AV0@AEBUStringLiteral@@@Z 00000001400edcd0 f   libvcruntimed:undname.obj
 0001:000ecd20       ??HDName@@QEBA?AV0@AEBV0@@Z 00000001400edd20 f   libvcruntimed:undname.obj
 0001:000ecd70       ??HDName@@QEBA?AV0@D@Z     00000001400edd70 f   libvcruntimed:undname.obj
 0001:000ecdc0       ??HDName@@QEBA?AV0@PEAV0@@Z 00000001400eddc0 f   libvcruntimed:undname.obj
 0001:000ece10       ??HDName@@QEBA?AV0@W4DNameStatus@@@Z 00000001400ede10 f   libvcruntimed:undname.obj
 0001:000ece60       ??HStringLiteral@@QEBA?AU0@H@Z 00000001400ede60 f i libvcruntimed:undname.obj
 0001:000ecfb0       ??YDName@@QEAAAEAV0@AEBUStringLiteral@@@Z 00000001400edfb0 f   libvcruntimed:undname.obj
 0001:000ed110       ??YDName@@QEAAAEAV0@AEBV0@@Z 00000001400ee110 f   libvcruntimed:undname.obj
 0001:000ed200       ??YDName@@QEAAAEAV0@D@Z    00000001400ee200 f   libvcruntimed:undname.obj
 0001:000ed2e0       ??YDName@@QEAAAEAV0@PEAV0@@Z 00000001400ee2e0 f   libvcruntimed:undname.obj
 0001:000ed410       ??YDName@@QEAAAEAV0@W4DNameStatus@@@Z 00000001400ee410 f   libvcruntimed:undname.obj
 0001:000ed4a0       ??YReplicator@@QEAAAEAV0@AEBVDName@@@Z 00000001400ee4a0 f   libvcruntimed:undname.obj
 0001:000ed5a0       ??_5DName@@QEAAAEAV0@AEBV0@@Z 00000001400ee5a0 f   libvcruntimed:undname.obj
 0001:000ed630       ??__K_l@@YA?AUStringLiteral@@PEBD_K@Z 00000001400ee630 f i libvcruntimed:undname.obj
 0001:000ed670       ?Destructor@UnDecorator@@QEAAXXZ 00000001400ee670 f i libvcruntimed:undname.obj
 0001:000ed6a0       ?Destructor@_HeapManager@@QEAAXXZ 00000001400ee6a0 f i libvcruntimed:undname.obj
 0001:000ed760       ?UScore@UnDecorator@@QEAA?AUStringLiteral@@W4Tokens@@@Z 00000001400ee760 f   libvcruntimed:undname.obj
 0001:000ed810       ?composeDeclaration@UnDecorator@@AEAA?AVDName@@AEBV2@@Z 00000001400ee810 f i libvcruntimed:undname.obj
 0001:000f0960       ?doAccessSpecifiers@UnDecorator@@QEAAHXZ 00000001400f1960 f i libvcruntimed:undname.obj
 0001:000f09b0       ?doAllocationLanguage@UnDecorator@@QEAAHXZ 00000001400f19b0 f i libvcruntimed:undname.obj
 0001:000f09f0       ?doAllocationModel@UnDecorator@@QEAAHXZ 00000001400f19f0 f i libvcruntimed:undname.obj
 0001:000f0a30       ?doEcsu@UnDecorator@@QEAAHXZ 00000001400f1a30 f i libvcruntimed:undname.obj
 0001:000f0a80       ?doEllipsis@UnDecorator@@QEAAHXZ 00000001400f1a80 f i libvcruntimed:undname.obj
 0001:000f0ad0       ?doFunctionReturns@UnDecorator@@QEAAHXZ 00000001400f1ad0 f i libvcruntimed:undname.obj
 0001:000f0b10       ?doMSKeywords@UnDecorator@@QEAAHXZ 00000001400f1b10 f i libvcruntimed:undname.obj
 0001:000f0b50       ?doMemberTypes@UnDecorator@@QEAAHXZ 00000001400f1b50 f i libvcruntimed:undname.obj
 0001:000f0ba0       ?doNameOnly@UnDecorator@@QEAAHXZ 00000001400f1ba0 f i libvcruntimed:undname.obj
 0001:000f0bc0       ?doNoIdentCharCheck@UnDecorator@@QEAAHXZ 00000001400f1bc0 f i libvcruntimed:undname.obj
 0001:000f0be0       ?doPchar@DName@@AEAAXD@Z   00000001400f1be0 f   libvcruntimed:undname.obj
 0001:000f0ca0       ?doPtr64@UnDecorator@@QEAAHXZ 00000001400f1ca0 f i libvcruntimed:undname.obj
 0001:000f0cf0       ?doRestrictionSpec@UnDecorator@@QEAAHXZ 00000001400f1cf0 f i libvcruntimed:undname.obj
 0001:000f0d40       ?doThisTypes@UnDecorator@@QEAAHXZ 00000001400f1d40 f i libvcruntimed:undname.obj
 0001:000f0d90       ?doThrowTypes@UnDecorator@@QEAAHXZ 00000001400f1d90 f i libvcruntimed:undname.obj
 0001:000f0de0       ?doTypeOnly@UnDecorator@@QEAAHXZ 00000001400f1de0 f i libvcruntimed:undname.obj
 0001:000f0e00       ?doUnderScore@UnDecorator@@QEAAHXZ 00000001400f1e00 f i libvcruntimed:undname.obj
 0001:000f0e40       ?getAddressOf@UnDecorator@@AEAA?AVDName@@XZ 00000001400f1e40 f   libvcruntimed:undname.obj
 0001:000f0f30       ?getArgumentList@UnDecorator@@AEAA?AVDName@@XZ 00000001400f1f30 f   libvcruntimed:undname.obj
 0001:000f11d0       ?getArgumentTypes@UnDecorator@@AEAA?AVDName@@XZ 00000001400f21d0 f   libvcruntimed:undname.obj
 0001:000f15b0       ?getArrayAccess@UnDecorator@@AEAA?AVDName@@XZ 00000001400f25b0 f   libvcruntimed:undname.obj
 0001:000f16c0       ?getArrayObject@UnDecorator@@AEAA?AVDName@@XZ 00000001400f26c0 f   libvcruntimed:undname.obj
 0001:000f18d0       ?getArrayType@UnDecorator@@AEAA?AVDName@@AEBV2@@Z 00000001400f28d0 f i libvcruntimed:undname.obj
 0001:000f1e00       ?getBasedType@UnDecorator@@AEAA?AVDName@@XZ 00000001400f2e00 f   libvcruntimed:undname.obj
 0001:000f1fd0       ?getBasicDataType@UnDecorator@@AEAA?AVDName@@AEBV2@@Z 00000001400f2fd0 f   libvcruntimed:undname.obj
 0001:000f32f0       ?getCHPEName@UnDecorator@@QEAAPEADPEADH@Z 00000001400f42f0 f i libvcruntimed:undname.obj
 0001:000f35d0       ?getCallIndex@UnDecorator@@AEAA?AVDName@@XZ 00000001400f45d0 f i libvcruntimed:undname.obj
 0001:000f3610       ?getCallingConvention@UnDecorator@@AEAA?AVDName@@XZ 00000001400f4610 f   libvcruntimed:undname.obj
 0001:000f3a40       ?getDataIndirectType@UnDecorator@@AEAA?AVDName@@AEBV2@W4IndirectionKind@@0H@Z 00000001400f4a40 f   libvcruntimed:undname.obj
 0001:000f4b90       ?getDataIndirectType@UnDecorator@@AEAA?AVDName@@XZ 00000001400f5b90 f i libvcruntimed:undname.obj
 0001:000f4c30       ?getDataType@UnDecorator@@AEAA?AVDName@@PEAV2@@Z 00000001400f5c30 f   libvcruntimed:undname.obj
 0001:000f4eb0       ?getDecoratedName@UnDecorator@@AEAA?AVDName@@XZ 00000001400f5eb0 f   libvcruntimed:undname.obj
 0001:000f5690       ?getDimension@UnDecorator@@AEAA?AVDName@@_N@Z 00000001400f6690 f   libvcruntimed:undname.obj
 0001:000f5ab0       ?getDispatchTarget@UnDecorator@@AEAA?AVDName@@XZ 00000001400f6ab0 f   libvcruntimed:undname.obj
 0001:000f5bd0       ?getDisplacement@UnDecorator@@AEAA?AVDName@@XZ 00000001400f6bd0 f i libvcruntimed:undname.obj
 0001:000f5c10       ?getECSUDataType@UnDecorator@@AEAA?AVDName@@XZ 00000001400f6c10 f   libvcruntimed:undname.obj
 0001:000f6200       ?getECSUName@UnDecorator@@AEAA?AVDName@@XZ 00000001400f7200 f i libvcruntimed:undname.obj
 0001:000f6230       ?getEnumEncoding@UnDecorator@@AEAA?AVDName@@XZ 00000001400f7230 f   libvcruntimed:undname.obj
 0001:000f6340       ?getEnumType@UnDecorator@@AEAA?AVDName@@XZ 00000001400f7340 f i libvcruntimed:undname.obj
 0001:000f66b0       ?getExtendedDataIndirectType@UnDecorator@@AEAA?AVDName@@AEAW4IndirectionKind@@AEA_NH@Z 00000001400f76b0 f   libvcruntimed:undname.obj
 0001:000f6bd0       ?getExternalDataType@UnDecorator@@AEAA?AVDName@@AEBV2@@Z 00000001400f7bd0 f i libvcruntimed:undname.obj
 0001:000f6d00       ?getFloatingPoint@UnDecorator@@AEAA?AVDName@@H@Z 00000001400f7d00 f   libvcruntimed:undname.obj
 0001:000f6ef0       ?getFunctionIndirectType@UnDecorator@@AEAA?AVDName@@AEBV2@@Z 00000001400f7ef0 f   libvcruntimed:undname.obj
 0001:000f7830       ?getGuardNumber@UnDecorator@@AEAA?AVDName@@XZ 00000001400f8830 f i libvcruntimed:undname.obj
 0001:000f7870       ?getHeap@UnDecorator@@QEAAAEAV_HeapManager@@XZ 00000001400f8870 f i libvcruntimed:undname.obj
 0001:000f7890       ?getLastChar@DName@@QEBADXZ 00000001400f8890 f i libvcruntimed:undname.obj
 0001:000f78f0       ?getLastChar@DNameStatusNode@@UEBADXZ 00000001400f88f0 f i libvcruntimed:undname.obj
 0001:000f7940       ?getLastChar@charNode@@UEBADXZ 00000001400f8940 f i libvcruntimed:undname.obj
 0001:000f7960       ?getLastChar@pDNameNode@@UEBADXZ 00000001400f8960 f i libvcruntimed:undname.obj
 0001:000f79b0       ?getLastChar@pairNode@@UEBADXZ 00000001400f89b0 f i libvcruntimed:undname.obj
 0001:000f7a50       ?getLastChar@pcharNode@@UEBADXZ 00000001400f8a50 f i libvcruntimed:undname.obj
 0001:000f7aa0       ?getLexicalFrame@UnDecorator@@AEAA?AVDName@@XZ 00000001400f8aa0 f i libvcruntimed:undname.obj
 0001:000f7b10       ?getMemberAccess@UnDecorator@@AEAA?AVDName@@XZ 00000001400f8b10 f   libvcruntimed:undname.obj
 0001:000f7c20       ?getMemoryWithBuffer@_HeapManager@@QEAAPEAX_K@Z 00000001400f8c20 f   libvcruntimed:undname.obj
 0001:000f7db0       ?getMemoryWithoutBuffer@_HeapManager@@QEAAPEAX_K@Z 00000001400f8db0 f   libvcruntimed:undname.obj
 0001:000f7e10       ?getModuleOwner@UnDecorator@@AEAA?AVDName@@AEBV2@@Z 00000001400f8e10 f   libvcruntimed:undname.obj
 0001:000f80f0       ?getNoexcept@UnDecorator@@AEAA?AVDName@@XZ 00000001400f90f0 f   libvcruntimed:undname.obj
 0001:000f81d0       ?getNumberOfDimensions@UnDecorator@@AEAAHXZ 00000001400f91d0 f   libvcruntimed:undname.obj
 0001:000f8320       ?getOperatorName@UnDecorator@@AEAA?AVDName@@_NPEA_N@Z 00000001400f9320 f i libvcruntimed:undname.obj
 0001:000f98a0       ?getPointerToMember@UnDecorator@@AEAA?AVDName@@XZ 00000001400fa8a0 f   libvcruntimed:undname.obj
 0001:000f9aa0       ?getPointerType@UnDecorator@@AEAA?AVDName@@AEBV2@0@Z 00000001400faaa0 f i libvcruntimed:undname.obj
 0001:000f9b00       ?getPointerTypeArray@UnDecorator@@AEAA?AVDName@@AEBV2@0@Z 00000001400fab00 f i libvcruntimed:undname.obj
 0001:000f9b60       ?getPrimaryDataType@UnDecorator@@AEAA?AVDName@@AEBV2@@Z 00000001400fab60 f   libvcruntimed:undname.obj
 0001:000fae70       ?getPtrRefDataType@UnDecorator@@AEAA?AVDName@@AEBV2@H@Z 00000001400fbe70 f   libvcruntimed:undname.obj
 0001:000fb3e0       ?getPtrRefType@UnDecorator@@AEAA?AVDName@@AEBV2@0W4IndirectionKind@@@Z 00000001400fc3e0 f   libvcruntimed:undname.obj
 0001:000fb710       ?getReferenceType@UnDecorator@@AEAA?AVDName@@AEBV2@0W4IndirectionKind@@@Z 00000001400fc710 f i libvcruntimed:undname.obj
 0001:000fb770       ?getRestrictionSpec@UnDecorator@@AEAA?AVDName@@XZ 00000001400fc770 f   libvcruntimed:undname.obj
 0001:000fbad0       ?getReturnType@UnDecorator@@AEAA?AVDName@@PEAV2@@Z 00000001400fcad0 f   libvcruntimed:undname.obj
 0001:000fbb60       ?getScope@UnDecorator@@AEAA?AVDName@@XZ 00000001400fcb60 f   libvcruntimed:undname.obj
 0001:000fc620       ?getScopedName@UnDecorator@@AEAA?AVDName@@XZ 00000001400fd620 f   libvcruntimed:undname.obj
 0001:000fc940       ?getSignedDimension@UnDecorator@@AEAA?AVDName@@XZ 00000001400fd940 f   libvcruntimed:undname.obj
 0001:000fca10       ?getStorageConvention@UnDecorator@@AEAA?AVDName@@XZ 00000001400fda10 f i libvcruntimed:undname.obj
 0001:000fca40       ?getString@DName@@QEBAPEADPEAD0@Z 00000001400fda40 f i libvcruntimed:undname.obj
 0001:000fcad0       ?getString@DName@@QEBAPEADPEADH@Z 00000001400fdad0 f i libvcruntimed:undname.obj
 0001:000fcbc0       ?getString@DNameStatusNode@@UEBAPEADPEAD0@Z 00000001400fdbc0 f i libvcruntimed:undname.obj
 0001:000fcc20       ?getString@charNode@@UEBAPEADPEAD0@Z 00000001400fdc20 f i libvcruntimed:undname.obj
 0001:000fcc70       ?getString@pDNameNode@@UEBAPEADPEAD0@Z 00000001400fdc70 f i libvcruntimed:undname.obj
 0001:000fccf0       ?getString@pairNode@@UEBAPEADPEAD0@Z 00000001400fdcf0 f i libvcruntimed:undname.obj
 0001:000fcdf0       ?getString@pcharNode@@UEBAPEADPEAD0@Z 00000001400fddf0 f i libvcruntimed:undname.obj
 0001:000fce40       ?getStringEncoding@UnDecorator@@AEAA?AVDName@@W4PrefixKind@@H@Z 00000001400fde40 f   libvcruntimed:undname.obj
 0001:000fd080       ?getStringHelper@@YAPEADPEADPEBD1H@Z 00000001400fe080 f i libvcruntimed:undname.obj
 0001:000fd100       ?getStringObject@UnDecorator@@AEAA?AVDName@@XZ 00000001400fe100 f   libvcruntimed:undname.obj
 0001:000fd250       ?getSymbolName@UnDecorator@@AEAA?AVDName@@XZ 00000001400fe250 f i libvcruntimed:undname.obj
 0001:000fd330       ?getTemplateArgumentList@UnDecorator@@AEAA?AVDName@@XZ 00000001400fe330 f   libvcruntimed:undname.obj
 0001:000fd830       ?getTemplateName@UnDecorator@@AEAA?AVDName@@_N@Z 00000001400fe830 f   libvcruntimed:undname.obj
 0001:000fdbe0       ?getTemplateNonTypeArgument@UnDecorator@@AEAA?AVDName@@XZ 00000001400febe0 f   libvcruntimed:undname.obj
 0001:000fe850       ?getTemplateTypeArgument@UnDecorator@@AEAA?AVDName@@XZ 00000001400ff850 f   libvcruntimed:undname.obj
 0001:000febf0       ?getThisType@UnDecorator@@AEAA?AVDName@@XZ 00000001400ffbf0 f i libvcruntimed:undname.obj
 0001:000fec90       ?getThrowTypes@UnDecorator@@AEAA?AVDName@@XZ 00000001400ffc90 f   libvcruntimed:undname.obj
 0001:000fecf0       ?getTypeEncoding@UnDecorator@@AEAAHXZ 00000001400ffcf0 f i libvcruntimed:undname.obj
 0001:000ffd70       ?getUndecoratedName@UnDecorator@@QEAAPEADPEADH@Z 0000000140100d70 f i libvcruntimed:undname.obj
 0001:00100030       ?getUnionObject@UnDecorator@@AEAA?AVDName@@XZ 0000000140101030 f   libvcruntimed:undname.obj
 0001:001001f0       ?getVCallThunkType@UnDecorator@@AEAA?AVDName@@XZ 00000001401011f0 f i libvcruntimed:undname.obj
 0001:001002e0       ?getValue@UnDecorator@@AEAA?AUOptionalValue@1@XZ 00000001401012e0 f   libvcruntimed:undname.obj
 0001:00100420       ?getValueObject@UnDecorator@@AEAA?AVDName@@XZ 0000000140101420 f   libvcruntimed:undname.obj
 0001:00100800       ?getVbTableType@UnDecorator@@AEAA?AVDName@@AEBV2@@Z 0000000140101800 f i libvcruntimed:undname.obj
 0001:00100840       ?getVdispMapType@UnDecorator@@AEAA?AVDName@@AEBV2@@Z 0000000140101840 f i libvcruntimed:undname.obj
 0001:00100950       ?getVfTableType@UnDecorator@@AEAA?AVDName@@AEBV2@@Z 0000000140101950 f i libvcruntimed:undname.obj
 0001:00100d30       ?getZName@UnDecorator@@AEAA?AVDName@@_N0@Z 0000000140101d30 f   libvcruntimed:undname.obj
 0001:001013a0       ?get_current_character_and_increment_buffer@UnDecorator@@AEAADXZ 00000001401023a0 f i libvcruntimed:undname.obj
 0001:00101400       ?haveTemplateParameters@UnDecorator@@QEAAHXZ 0000000140102400 f i libvcruntimed:undname.obj
 0001:00101420       ?increment_buffer@UnDecorator@@AEAA_N_K@Z 0000000140102420 f i libvcruntimed:undname.obj
 0001:001014b0       ?increment_buffer_no_check@UnDecorator@@AEAAXXZ 00000001401024b0 f i libvcruntimed:undname.obj
 0001:001014e0       ?increment_buffer_no_check@UnDecorator@@AEAAX_K@Z 00000001401024e0 f i libvcruntimed:undname.obj
 0001:00101550       ?isArray@DName@@QEBAHXZ    0000000140102550 f i libvcruntimed:undname.obj
 0001:00101570       ?isComArray@DName@@QEBAHXZ 0000000140102570 f i libvcruntimed:undname.obj
 0001:00101590       ?isEmpty@DName@@QEBAHXZ    0000000140102590 f i libvcruntimed:undname.obj
 0001:001015d0       ?isFull@Replicator@@QEBAHXZ 00000001401025d0 f i libvcruntimed:undname.obj
 0001:00101610       ?isNoTE@DName@@QEBAHXZ     0000000140102610 f i libvcruntimed:undname.obj
 0001:00101630       ?isPinPtr@DName@@QEBAHXZ   0000000140102630 f i libvcruntimed:undname.obj
 0001:00101650       ?isPtrRef@DName@@QEBAHXZ   0000000140102650 f i libvcruntimed:undname.obj
 0001:00101670       ?isUDC@DName@@QEBAHXZ      0000000140102670 f i libvcruntimed:undname.obj
 0001:001016d0       ?isUDTThunk@DName@@QEBAHXZ 00000001401026d0 f i libvcruntimed:undname.obj
 0001:00101730       ?isVCallThunk@DName@@QEBAHXZ 0000000140102730 f i libvcruntimed:undname.obj
 0001:00101750       ?isValid@DName@@QEBAHXZ    0000000140102750 f i libvcruntimed:undname.obj
 0001:001017a0       ?length@DName@@QEBAHXZ     00000001401027a0 f i libvcruntimed:undname.obj
 0001:00101800       ?length@DNameStatusNode@@UEBAHXZ 0000000140102800 f i libvcruntimed:undname.obj
 0001:00101820       ?length@charNode@@UEBAHXZ  0000000140102820 f i libvcruntimed:undname.obj
 0001:00101830       ?length@pDNameNode@@UEBAHXZ 0000000140102830 f i libvcruntimed:undname.obj
 0001:00101880       ?length@pairNode@@UEBAHXZ  0000000140102880 f i libvcruntimed:undname.obj
 0001:00101930       ?length@pcharNode@@UEBAHXZ 0000000140102930 f i libvcruntimed:undname.obj
 0001:00101950       ?make@DNameStatusNode@@SAPEBV1@W4DNameStatus@@@Z 0000000140102950 f i libvcruntimed:undname.obj
 0001:001019b0       ?parseDecoratedName@UnDecorator@@AEAA?AVDName@@XZ 00000001401029b0 f   libvcruntimed:undname.obj
 0001:00101d00       ?raw_length@DNameStatusNode@@UEBAHXZ 0000000140102d00 f i libvcruntimed:undname.obj
 0001:00101d20       ?raw_length@charNode@@UEBAHXZ 0000000140102d20 f i libvcruntimed:undname.obj
 0001:00101d40       ?raw_length@pDNameNode@@UEBAHXZ 0000000140102d40 f i libvcruntimed:undname.obj
 0001:00101d50       ?raw_length@pairNode@@UEBAHXZ 0000000140102d50 f i libvcruntimed:undname.obj
 0001:00101d70       ?raw_length@pcharNode@@UEBAHXZ 0000000140102d70 f i libvcruntimed:undname.obj
 0001:00101d90       ?setIsArray@DName@@QEAAXXZ 0000000140102d90 f i libvcruntimed:undname.obj
 0001:00101db0       ?setIsComArray@DName@@QEAAXXZ 0000000140102db0 f i libvcruntimed:undname.obj
 0001:00101dd0       ?setIsNoTE@DName@@QEAAXXZ  0000000140102dd0 f i libvcruntimed:undname.obj
 0001:00101df0       ?setIsPinPtr@DName@@QEAAXXZ 0000000140102df0 f i libvcruntimed:undname.obj
 0001:00101e10       ?setIsUDC@DName@@QEAAXXZ   0000000140102e10 f i libvcruntimed:undname.obj
 0001:00101e50       ?setIsVCallThunk@DName@@QEAAXXZ 0000000140102e50 f i libvcruntimed:undname.obj
 0001:00101e70       ?setPtrRef@DName@@QEAAAEAV1@XZ 0000000140102e70 f i libvcruntimed:undname.obj
 0001:00101ea0       ?status@DName@@QEBA?AW4DNameStatus@@XZ 0000000140102ea0 f i libvcruntimed:undname.obj
 0001:00102010       ?value_object@DName@@QEAAX_N@Z 0000000140103010 f i libvcruntimed:undname.obj
 0001:00102050       ?value_object@DName@@QEBA_NXZ 0000000140103050 f i libvcruntimed:undname.obj
 0001:00102070       __unDName                  0000000140103070 f   libvcruntimed:undname.obj
 0001:001020e0       __unDNameEx                00000001401030e0 f   libvcruntimed:undname.obj
 0001:001021d0       snprintf                   00000001401031d0 f i libvcruntimed:undname.obj
 0001:00102240       unDNameGenerateCHPE        0000000140103240 f   libvcruntimed:undname.obj
 0001:00102310       vsnprintf                  0000000140103310 f i libvcruntimed:undname.obj
 0001:00102400       _CallSettingFrame          0000000140103400 f   libvcruntimed:handlers.obj
 0001:00102450       _CallSettingFrame_LookupContinuationIndex 0000000140103450 f   libvcruntimed:handlers.obj
 0001:00102490       _CallSettingFrame_NotifyContinuationAddr 0000000140103490 f   libvcruntimed:handlers.obj
 0001:001024c0       _CallSettingFrameEncoded   00000001401034c0 f   libvcruntimed:handlers.obj
 0001:00102520       ??$?0AEBV?$stream_output_adapter@D@__crt_stdio_output@@AEB_KAEBQEBDAEAV__crt_cached_ptd_host@@AEBQEAD@?$format_validation_base@DV?$stream_output_adapter@D@__crt_stdio_output@@@__crt_stdio_output@@IEAA@AEBV?$stream_output_adapter@D@1@AEB_KAEBQEBDAEAV__crt_cached_ptd_host@@AEBQEAD@Z 0000000140103520 f i libucrtd:output.obj
 0001:00102590       ??$?0AEBV?$stream_output_adapter@D@__crt_stdio_output@@AEB_KAEBQEBDAEAV__crt_cached_ptd_host@@AEBQEAD@?$positional_parameter_base@DV?$stream_output_adapter@D@__crt_stdio_output@@@__crt_stdio_output@@IEAA@AEBV?$stream_output_adapter@D@1@AEB_KAEBQEBDAEAV__crt_cached_ptd_host@@AEBQEAD@Z 0000000140103590 f i libucrtd:output.obj
 0001:00102660       ??$?0AEBV?$stream_output_adapter@D@__crt_stdio_output@@AEB_KAEBQEBDAEAV__crt_cached_ptd_host@@AEBQEAD@?$standard_base@DV?$stream_output_adapter@D@__crt_stdio_output@@@__crt_stdio_output@@IEAA@AEBV?$stream_output_adapter@D@1@AEB_KAEBQEBDAEAV__crt_cached_ptd_host@@AEBQEAD@Z 0000000140103660 f i libucrtd:output.obj
 0001:001026e0       ??$?0AEBV?$stream_output_adapter@_W@__crt_stdio_output@@AEB_KAEBQEB_WAEAV__crt_cached_ptd_host@@AEBQEAD@?$format_validation_base@_WV?$stream_output_adapter@_W@__crt_stdio_output@@@__crt_stdio_output@@IEAA@AEBV?$stream_output_adapter@_W@1@AEB_KAEBQEB_WAEAV__crt_cached_ptd_host@@AEBQEAD@Z 00000001401036e0 f i libucrtd:output.obj
 0001:00102750       ??$?0AEBV?$stream_output_adapter@_W@__crt_stdio_output@@AEB_KAEBQEB_WAEAV__crt_cached_ptd_host@@AEBQEAD@?$positional_parameter_base@_WV?$stream_output_adapter@_W@__crt_stdio_output@@@__crt_stdio_output@@IEAA@AEBV?$stream_output_adapter@_W@1@AEB_KAEBQEB_WAEAV__crt_cached_ptd_host@@AEBQEAD@Z 0000000140103750 f i libucrtd:output.obj
 0001:00102820       ??$?0AEBV?$stream_output_adapter@_W@__crt_stdio_output@@AEB_KAEBQEB_WAEAV__crt_cached_ptd_host@@AEBQEAD@?$standard_base@_WV?$stream_output_adapter@_W@__crt_stdio_output@@@__crt_stdio_output@@IEAA@AEBV?$stream_output_adapter@_W@1@AEB_KAEBQEB_WAEAV__crt_cached_ptd_host@@AEBQEAD@Z 0000000140103820 f i libucrtd:output.obj
 0001:001028a0       ??$?0AEBV?$string_output_adapter@D@__crt_stdio_output@@AEB_KAEBQEBDAEAV__crt_cached_ptd_host@@AEBQEAD@?$format_validation_base@DV?$string_output_adapter@D@__crt_stdio_output@@@__crt_stdio_output@@IEAA@AEBV?$string_output_adapter@D@1@AEB_KAEBQEBDAEAV__crt_cached_ptd_host@@AEBQEAD@Z 00000001401038a0 f i libucrtd:output.obj
 0001:00102910       ??$?0AEBV?$string_output_adapter@D@__crt_stdio_output@@AEB_KAEBQEBDAEAV__crt_cached_ptd_host@@AEBQEAD@?$positional_parameter_base@DV?$string_output_adapter@D@__crt_stdio_output@@@__crt_stdio_output@@IEAA@AEBV?$string_output_adapter@D@1@AEB_KAEBQEBDAEAV__crt_cached_ptd_host@@AEBQEAD@Z 0000000140103910 f i libucrtd:output.obj
 0001:001029e0       ??$?0AEBV?$string_output_adapter@D@__crt_stdio_output@@AEB_KAEBQEBDAEAV__crt_cached_ptd_host@@AEBQEAD@?$standard_base@DV?$string_output_adapter@D@__crt_stdio_output@@@__crt_stdio_output@@IEAA@AEBV?$string_output_adapter@D@1@AEB_KAEBQEBDAEAV__crt_cached_ptd_host@@AEBQEAD@Z 00000001401039e0 f i libucrtd:output.obj
 0001:00102a60       ??$?0AEBV?$string_output_adapter@_W@__crt_stdio_output@@AEB_KAEBQEB_WAEAV__crt_cached_ptd_host@@AEBQEAD@?$format_validation_base@_WV?$string_output_adapter@_W@__crt_stdio_output@@@__crt_stdio_output@@IEAA@AEBV?$string_output_adapter@_W@1@AEB_KAEBQEB_WAEAV__crt_cached_ptd_host@@AEBQEAD@Z 0000000140103a60 f i libucrtd:output.obj
 0001:00102ad0       ??$?0AEBV?$string_output_adapter@_W@__crt_stdio_output@@AEB_KAEBQEB_WAEAV__crt_cached_ptd_host@@AEBQEAD@?$positional_parameter_base@_WV?$string_output_adapter@_W@__crt_stdio_output@@@__crt_stdio_output@@IEAA@AEBV?$string_output_adapter@_W@1@AEB_KAEBQEB_WAEAV__crt_cached_ptd_host@@AEBQEAD@Z 0000000140103ad0 f i libucrtd:output.obj
 0001:00102ba0       ??$?0AEBV?$string_output_adapter@_W@__crt_stdio_output@@AEB_KAEBQEB_WAEAV__crt_cached_ptd_host@@AEBQEAD@?$standard_base@_WV?$string_output_adapter@_W@__crt_stdio_output@@@__crt_stdio_output@@IEAA@AEBV?$string_output_adapter@_W@1@AEB_KAEBQEB_WAEAV__crt_cached_ptd_host@@AEBQEAD@Z 0000000140103ba0 f i libucrtd:output.obj
 0001:00103160       ??$__crt_interlocked_read@J@@YAJPEDJ@Z 0000000140104160 f i libucrtd:output.obj
 0001:00103180       ??$_tcstol_internal@DPEAPEAD$0A@@@YAJAEAV__crt_cached_ptd_host@@QEBDQEAPEADH@Z 0000000140104180 f i libucrtd:output.obj
 0001:001031f0       ??$_tcstol_internal@_WPEAPEA_W$0A@@@YAJAEAV__crt_cached_ptd_host@@QEB_WQEAPEA_WH@Z 00000001401041f0 f i libucrtd:output.obj
 0001:00108170       ??$count@D@formatting_buffer@__crt_stdio_output@@QEBA_KXZ 0000000140109170 f i libucrtd:output.obj
 0001:001081d0       ??$count@_W@formatting_buffer@__crt_stdio_output@@QEBA_KXZ 00000001401091d0 f i libucrtd:output.obj
 0001:00108240       ??$data@D@formatting_buffer@__crt_stdio_output@@QEAAPEADXZ 0000000140109240 f i libucrtd:output.obj
 0001:001082a0       ??$data@_W@formatting_buffer@__crt_stdio_output@@QEAAPEA_WXZ 00000001401092a0 f i libucrtd:output.obj
 0001:00108300       ??$ensure_buffer_is_big_enough@D@formatting_buffer@__crt_stdio_output@@QEAA_N_KAEAV__crt_cached_ptd_host@@@Z 0000000140109300 f i libucrtd:output.obj
 0001:00108490       ??$ensure_buffer_is_big_enough@_W@formatting_buffer@__crt_stdio_output@@QEAA_N_KAEAV__crt_cached_ptd_host@@@Z 0000000140109490 f i libucrtd:output.obj
 0001:00108620       ??$extract_argument_from_va_list@C_J@?$positional_parameter_base@DV?$stream_output_adapter@D@__crt_stdio_output@@@__crt_stdio_output@@IEAA_NAEA_J@Z 0000000140109620 f i libucrtd:output.obj
 0001:00108850       ??$extract_argument_from_va_list@C_J@?$positional_parameter_base@DV?$string_output_adapter@D@__crt_stdio_output@@@__crt_stdio_output@@IEAA_NAEA_J@Z 0000000140109850 f i libucrtd:output.obj
 0001:00108a80       ??$extract_argument_from_va_list@C_J@?$positional_parameter_base@_WV?$stream_output_adapter@_W@__crt_stdio_output@@@__crt_stdio_output@@IEAA_NAEA_J@Z 0000000140109a80 f i libucrtd:output.obj
 0001:00108cb0       ??$extract_argument_from_va_list@C_J@?$positional_parameter_base@_WV?$string_output_adapter@_W@__crt_stdio_output@@@__crt_stdio_output@@IEAA_NAEA_J@Z 0000000140109cb0 f i libucrtd:output.obj
 0001:00108ee0       ??$extract_argument_from_va_list@C_J@?$standard_base@DV?$stream_output_adapter@D@__crt_stdio_output@@@__crt_stdio_output@@IEAA_NAEA_J@Z 0000000140109ee0 f i libucrtd:output.obj
 0001:00108f20       ??$extract_argument_from_va_list@C_J@?$standard_base@DV?$string_output_adapter@D@__crt_stdio_output@@@__crt_stdio_output@@IEAA_NAEA_J@Z 0000000140109f20 f i libucrtd:output.obj
 0001:00108f60       ??$extract_argument_from_va_list@C_J@?$standard_base@_WV?$stream_output_adapter@_W@__crt_stdio_output@@@__crt_stdio_output@@IEAA_NAEA_J@Z 0000000140109f60 f i libucrtd:output.obj
 0001:00108fa0       ??$extract_argument_from_va_list@C_J@?$standard_base@_WV?$string_output_adapter@_W@__crt_stdio_output@@@__crt_stdio_output@@IEAA_NAEA_J@Z 0000000140109fa0 f i libucrtd:output.obj
 0001:00108fe0       ??$extract_argument_from_va_list@E_J@?$positional_parameter_base@DV?$stream_output_adapter@D@__crt_stdio_output@@@__crt_stdio_output@@IEAA_NAEA_J@Z 0000000140109fe0 f i libucrtd:output.obj
 0001:00109210       ??$extract_argument_from_va_list@E_J@?$positional_parameter_base@DV?$string_output_adapter@D@__crt_stdio_output@@@__crt_stdio_output@@IEAA_NAEA_J@Z 000000014010a210 f i libucrtd:output.obj
 0001:00109440       ??$extract_argument_from_va_list@E_J@?$positional_parameter_base@_WV?$stream_output_adapter@_W@__crt_stdio_output@@@__crt_stdio_output@@IEAA_NAEA_J@Z 000000014010a440 f i libucrtd:output.obj
 0001:00109670       ??$extract_argument_from_va_list@E_J@?$positional_parameter_base@_WV?$string_output_adapter@_W@__crt_stdio_output@@@__crt_stdio_output@@IEAA_NAEA_J@Z 000000014010a670 f i libucrtd:output.obj
 0001:001098a0       ??$extract_argument_from_va_list@E_J@?$standard_base@DV?$stream_output_adapter@D@__crt_stdio_output@@@__crt_stdio_output@@IEAA_NAEA_J@Z 000000014010a8a0 f i libucrtd:output.obj
 0001:001098e0       ??$extract_argument_from_va_list@E_J@?$standard_base@DV?$string_output_adapter@D@__crt_stdio_output@@@__crt_stdio_output@@IEAA_NAEA_J@Z 000000014010a8e0 f i libucrtd:output.obj
 0001:00109920       ??$extract_argument_from_va_list@E_J@?$standard_base@_WV?$stream_output_adapter@_W@__crt_stdio_output@@@__crt_stdio_output@@IEAA_NAEA_J@Z 000000014010a920 f i libucrtd:output.obj
 0001:00109960       ??$extract_argument_from_va_list@E_J@?$standard_base@_WV?$string_output_adapter@_W@__crt_stdio_output@@@__crt_stdio_output@@IEAA_NAEA_J@Z 000000014010a960 f i libucrtd:output.obj
 0001:001099a0       ??$extract_argument_from_va_list@F_J@?$positional_parameter_base@DV?$stream_output_adapter@D@__crt_stdio_output@@@__crt_stdio_output@@IEAA_NAEA_J@Z 000000014010a9a0 f i libucrtd:output.obj
 0001:00109bd0       ??$extract_argument_from_va_list@F_J@?$positional_parameter_base@DV?$string_output_adapter@D@__crt_stdio_output@@@__crt_stdio_output@@IEAA_NAEA_J@Z 000000014010abd0 f i libucrtd:output.obj
 0001:00109e00       ??$extract_argument_from_va_list@F_J@?$positional_parameter_base@_WV?$stream_output_adapter@_W@__crt_stdio_output@@@__crt_stdio_output@@IEAA_NAEA_J@Z 000000014010ae00 f i libucrtd:output.obj
 0001:0010a030       ??$extract_argument_from_va_list@F_J@?$positional_parameter_base@_WV?$string_output_adapter@_W@__crt_stdio_output@@@__crt_stdio_output@@IEAA_NAEA_J@Z 000000014010b030 f i libucrtd:output.obj
 0001:0010a260       ??$extract_argument_from_va_list@F_J@?$standard_base@DV?$stream_output_adapter@D@__crt_stdio_output@@@__crt_stdio_output@@IEAA_NAEA_J@Z 000000014010b260 f i libucrtd:output.obj
 0001:0010a2a0       ??$extract_argument_from_va_list@F_J@?$standard_base@DV?$string_output_adapter@D@__crt_stdio_output@@@__crt_stdio_output@@IEAA_NAEA_J@Z 000000014010b2a0 f i libucrtd:output.obj
 0001:0010a2e0       ??$extract_argument_from_va_list@F_J@?$standard_base@_WV?$stream_output_adapter@_W@__crt_stdio_output@@@__crt_stdio_output@@IEAA_NAEA_J@Z 000000014010b2e0 f i libucrtd:output.obj
 0001:0010a320       ??$extract_argument_from_va_list@F_J@?$standard_base@_WV?$string_output_adapter@_W@__crt_stdio_output@@@__crt_stdio_output@@IEAA_NAEA_J@Z 000000014010b320 f i libucrtd:output.obj
 0001:0010a360       ??$extract_argument_from_va_list@GD@?$positional_parameter_base@DV?$stream_output_adapter@D@__crt_stdio_output@@@__crt_stdio_output@@IEAA_NAEAD@Z 000000014010b360 f i libucrtd:output.obj
 0001:0010a590       ??$extract_argument_from_va_list@GD@?$positional_parameter_base@DV?$string_output_adapter@D@__crt_stdio_output@@@__crt_stdio_output@@IEAA_NAEAD@Z 000000014010b590 f i libucrtd:output.obj
 0001:0010a7c0       ??$extract_argument_from_va_list@GD@?$standard_base@DV?$stream_output_adapter@D@__crt_stdio_output@@@__crt_stdio_output@@IEAA_NAEAD@Z 000000014010b7c0 f i libucrtd:output.obj
 0001:0010a800       ??$extract_argument_from_va_list@GD@?$standard_base@DV?$string_output_adapter@D@__crt_stdio_output@@@__crt_stdio_output@@IEAA_NAEAD@Z 000000014010b800 f i libucrtd:output.obj
 0001:0010a840       ??$extract_argument_from_va_list@G_J@?$positional_parameter_base@DV?$stream_output_adapter@D@__crt_stdio_output@@@__crt_stdio_output@@IEAA_NAEA_J@Z 000000014010b840 f i libucrtd:output.obj
 0001:0010aa70       ??$extract_argument_from_va_list@G_J@?$positional_parameter_base@DV?$string_output_adapter@D@__crt_stdio_output@@@__crt_stdio_output@@IEAA_NAEA_J@Z 000000014010ba70 f i libucrtd:output.obj
 0001:0010aca0       ??$extract_argument_from_va_list@G_J@?$positional_parameter_base@_WV?$stream_output_adapter@_W@__crt_stdio_output@@@__crt_stdio_output@@IEAA_NAEA_J@Z 000000014010bca0 f i libucrtd:output.obj
 0001:0010aed0       ??$extract_argument_from_va_list@G_J@?$positional_parameter_base@_WV?$string_output_adapter@_W@__crt_stdio_output@@@__crt_stdio_output@@IEAA_NAEA_J@Z 000000014010bed0 f i libucrtd:output.obj
 0001:0010b100       ??$extract_argument_from_va_list@G_J@?$standard_base@DV?$stream_output_adapter@D@__crt_stdio_output@@@__crt_stdio_output@@IEAA_NAEA_J@Z 000000014010c100 f i libucrtd:output.obj
 0001:0010b140       ??$extract_argument_from_va_list@G_J@?$standard_base@DV?$string_output_adapter@D@__crt_stdio_output@@@__crt_stdio_output@@IEAA_NAEA_J@Z 000000014010c140 f i libucrtd:output.obj
 0001:0010b180       ??$extract_argument_from_va_list@G_J@?$standard_base@_WV?$stream_output_adapter@_W@__crt_stdio_output@@@__crt_stdio_output@@IEAA_NAEA_J@Z 000000014010c180 f i libucrtd:output.obj
 0001:0010b1c0       ??$extract_argument_from_va_list@G_J@?$standard_base@_WV?$string_output_adapter@_W@__crt_stdio_output@@@__crt_stdio_output@@IEAA_NAEA_J@Z 000000014010c1c0 f i libucrtd:output.obj
 0001:0010b200       ??$extract_argument_from_va_list@H_J@?$positional_parameter_base@DV?$stream_output_adapter@D@__crt_stdio_output@@@__crt_stdio_output@@IEAA_NAEA_J@Z 000000014010c200 f i libucrtd:output.obj
 0001:0010b430       ??$extract_argument_from_va_list@H_J@?$positional_parameter_base@DV?$string_output_adapter@D@__crt_stdio_output@@@__crt_stdio_output@@IEAA_NAEA_J@Z 000000014010c430 f i libucrtd:output.obj
 0001:0010b660       ??$extract_argument_from_va_list@H_J@?$positional_parameter_base@_WV?$stream_output_adapter@_W@__crt_stdio_output@@@__crt_stdio_output@@IEAA_NAEA_J@Z 000000014010c660 f i libucrtd:output.obj
 0001:0010b890       ??$extract_argument_from_va_list@H_J@?$positional_parameter_base@_WV?$string_output_adapter@_W@__crt_stdio_output@@@__crt_stdio_output@@IEAA_NAEA_J@Z 000000014010c890 f i libucrtd:output.obj
 0001:0010bac0       ??$extract_argument_from_va_list@H_J@?$standard_base@DV?$stream_output_adapter@D@__crt_stdio_output@@@__crt_stdio_output@@IEAA_NAEA_J@Z 000000014010cac0 f i libucrtd:output.obj
 0001:0010bb00       ??$extract_argument_from_va_list@H_J@?$standard_base@DV?$string_output_adapter@D@__crt_stdio_output@@@__crt_stdio_output@@IEAA_NAEA_J@Z 000000014010cb00 f i libucrtd:output.obj
 0001:0010bb40       ??$extract_argument_from_va_list@H_J@?$standard_base@_WV?$stream_output_adapter@_W@__crt_stdio_output@@@__crt_stdio_output@@IEAA_NAEA_J@Z 000000014010cb40 f i libucrtd:output.obj
 0001:0010bb80       ??$extract_argument_from_va_list@H_J@?$standard_base@_WV?$string_output_adapter@_W@__crt_stdio_output@@@__crt_stdio_output@@IEAA_NAEA_J@Z 000000014010cb80 f i libucrtd:output.obj
 0001:0010bbc0       ??$extract_argument_from_va_list@I_J@?$positional_parameter_base@DV?$stream_output_adapter@D@__crt_stdio_output@@@__crt_stdio_output@@IEAA_NAEA_J@Z 000000014010cbc0 f i libucrtd:output.obj
 0001:0010bdf0       ??$extract_argument_from_va_list@I_J@?$positional_parameter_base@DV?$string_output_adapter@D@__crt_stdio_output@@@__crt_stdio_output@@IEAA_NAEA_J@Z 000000014010cdf0 f i libucrtd:output.obj
 0001:0010c020       ??$extract_argument_from_va_list@I_J@?$positional_parameter_base@_WV?$stream_output_adapter@_W@__crt_stdio_output@@@__crt_stdio_output@@IEAA_NAEA_J@Z 000000014010d020 f i libucrtd:output.obj
 0001:0010c250       ??$extract_argument_from_va_list@I_J@?$positional_parameter_base@_WV?$string_output_adapter@_W@__crt_stdio_output@@@__crt_stdio_output@@IEAA_NAEA_J@Z 000000014010d250 f i libucrtd:output.obj
 0001:0010c480       ??$extract_argument_from_va_list@I_J@?$standard_base@DV?$stream_output_adapter@D@__crt_stdio_output@@@__crt_stdio_output@@IEAA_NAEA_J@Z 000000014010d480 f i libucrtd:output.obj
 0001:0010c4c0       ??$extract_argument_from_va_list@I_J@?$standard_base@DV?$string_output_adapter@D@__crt_stdio_output@@@__crt_stdio_output@@IEAA_NAEA_J@Z 000000014010d4c0 f i libucrtd:output.obj
 0001:0010c500       ??$extract_argument_from_va_list@I_J@?$standard_base@_WV?$stream_output_adapter@_W@__crt_stdio_output@@@__crt_stdio_output@@IEAA_NAEA_J@Z 000000014010d500 f i libucrtd:output.obj
 0001:0010c540       ??$extract_argument_from_va_list@I_J@?$standard_base@_WV?$string_output_adapter@_W@__crt_stdio_output@@@__crt_stdio_output@@IEAA_NAEA_J@Z 000000014010d540 f i libucrtd:output.obj
 0001:0010c580       ??$extract_argument_from_va_list@PEADPEAD@?$positional_parameter_base@DV?$stream_output_adapter@D@__crt_stdio_output@@@__crt_stdio_output@@IEAA_NAEAPEAD@Z 000000014010d580 f i libucrtd:output.obj
 0001:0010c7b0       ??$extract_argument_from_va_list@PEADPEAD@?$positional_parameter_base@DV?$string_output_adapter@D@__crt_stdio_output@@@__crt_stdio_output@@IEAA_NAEAPEAD@Z 000000014010d7b0 f i libucrtd:output.obj
 0001:0010c9e0       ??$extract_argument_from_va_list@PEADPEAD@?$positional_parameter_base@_WV?$stream_output_adapter@_W@__crt_stdio_output@@@__crt_stdio_output@@IEAA_NAEAPEAD@Z 000000014010d9e0 f i libucrtd:output.obj
 0001:0010cc10       ??$extract_argument_from_va_list@PEADPEAD@?$positional_parameter_base@_WV?$string_output_adapter@_W@__crt_stdio_output@@@__crt_stdio_output@@IEAA_NAEAPEAD@Z 000000014010dc10 f i libucrtd:output.obj
 0001:0010ce40       ??$extract_argument_from_va_list@PEADPEAD@?$standard_base@DV?$stream_output_adapter@D@__crt_stdio_output@@@__crt_stdio_output@@IEAA_NAEAPEAD@Z 000000014010de40 f i libucrtd:output.obj
 0001:0010ce80       ??$extract_argument_from_va_list@PEADPEAD@?$standard_base@DV?$string_output_adapter@D@__crt_stdio_output@@@__crt_stdio_output@@IEAA_NAEAPEAD@Z 000000014010de80 f i libucrtd:output.obj
 0001:0010cec0       ??$extract_argument_from_va_list@PEADPEAD@?$standard_base@_WV?$stream_output_adapter@_W@__crt_stdio_output@@@__crt_stdio_output@@IEAA_NAEAPEAD@Z 000000014010dec0 f i libucrtd:output.obj
 0001:0010cf00       ??$extract_argument_from_va_list@PEADPEAD@?$standard_base@_WV?$string_output_adapter@_W@__crt_stdio_output@@@__crt_stdio_output@@IEAA_NAEAPEAD@Z 000000014010df00 f i libucrtd:output.obj
 0001:0010cf40       ??$extract_argument_from_va_list@PEAUansi_string@?1??type_case_Z@?$output_processor@DV?$stream_output_adapter@D@__crt_stdio_output@@V?$format_validation_base@DV?$stream_output_adapter@D@__crt_stdio_output@@@2@@__crt_stdio_output@@AEAA_NXZ@PEAU1?1??234@AEAA_NXZ@@?$standard_base@DV?$stream_output_adapter@D@__crt_stdio_output@@@__crt_stdio_output@@IEAA_NAEAPEAUansi_string@?1??type_case_Z@?$output_processor@DV?$stream_output_adapter@D@__crt_stdio_output@@V?$format_validation_base@DV?$stream_output_adapter@D@__crt_stdio_output@@@2@@1@AEAA_NXZ@@Z 000000014010df40 f i libucrtd:output.obj
 0001:0010cf80       ??$extract_argument_from_va_list@PEAUansi_string@?1??type_case_Z@?$output_processor@DV?$stream_output_adapter@D@__crt_stdio_output@@V?$positional_parameter_base@DV?$stream_output_adapter@D@__crt_stdio_output@@@2@@__crt_stdio_output@@AEAA_NXZ@PEAU1?1??234@AEAA_NXZ@@?$positional_parameter_base@DV?$stream_output_adapter@D@__crt_stdio_output@@@__crt_stdio_output@@IEAA_NAEAPEAUansi_string@?1??type_case_Z@?$output_processor@DV?$stream_output_adapter@D@__crt_stdio_output@@V?$positional_parameter_base@DV?$stream_output_adapter@D@__crt_stdio_output@@@2@@1@AEAA_NXZ@@Z 000000014010df80 f i libucrtd:output.obj
 0001:0010d1b0       ??$extract_argument_from_va_list@PEAUansi_string@?1??type_case_Z@?$output_processor@DV?$stream_output_adapter@D@__crt_stdio_output@@V?$positional_parameter_base@DV?$stream_output_adapter@D@__crt_stdio_output@@@2@@__crt_stdio_output@@AEAA_NXZ@PEAU1?1??234@AEAA_NXZ@@?$standard_base@DV?$stream_output_adapter@D@__crt_stdio_output@@@__crt_stdio_output@@IEAA_NAEAPEAUansi_string@?1??type_case_Z@?$output_processor@DV?$stream_output_adapter@D@__crt_stdio_output@@V?$positional_parameter_base@DV?$stream_output_adapter@D@__crt_stdio_output@@@2@@1@AEAA_NXZ@@Z 000000014010e1b0 f i libucrtd:output.obj
 0001:0010d1f0       ??$extract_argument_from_va_list@PEAUansi_string@?1??type_case_Z@?$output_processor@DV?$stream_output_adapter@D@__crt_stdio_output@@V?$standard_base@DV?$stream_output_adapter@D@__crt_stdio_output@@@2@@__crt_stdio_output@@AEAA_NXZ@PEAU1?1??234@AEAA_NXZ@@?$standard_base@DV?$stream_output_adapter@D@__crt_stdio_output@@@__crt_stdio_output@@IEAA_NAEAPEAUansi_string@?1??type_case_Z@?$output_processor@DV?$stream_output_adapter@D@__crt_stdio_output@@V?$standard_base@DV?$stream_output_adapter@D@__crt_stdio_output@@@2@@1@AEAA_NXZ@@Z 000000014010e1f0 f i libucrtd:output.obj
 0001:0010d230       ??$extract_argument_from_va_list@PEAUansi_string@?1??type_case_Z@?$output_processor@DV?$string_output_adapter@D@__crt_stdio_output@@V?$format_validation_base@DV?$string_output_adapter@D@__crt_stdio_output@@@2@@__crt_stdio_output@@AEAA_NXZ@PEAU1?1??234@AEAA_NXZ@@?$standard_base@DV?$string_output_adapter@D@__crt_stdio_output@@@__crt_stdio_output@@IEAA_NAEAPEAUansi_string@?1??type_case_Z@?$output_processor@DV?$string_output_adapter@D@__crt_stdio_output@@V?$format_validation_base@DV?$string_output_adapter@D@__crt_stdio_output@@@2@@1@AEAA_NXZ@@Z 000000014010e230 f i libucrtd:output.obj
 0001:0010d270       ??$extract_argument_from_va_list@PEAUansi_string@?1??type_case_Z@?$output_processor@DV?$string_output_adapter@D@__crt_stdio_output@@V?$positional_parameter_base@DV?$string_output_adapter@D@__crt_stdio_output@@@2@@__crt_stdio_output@@AEAA_NXZ@PEAU1?1??234@AEAA_NXZ@@?$positional_parameter_base@DV?$string_output_adapter@D@__crt_stdio_output@@@__crt_stdio_output@@IEAA_NAEAPEAUansi_string@?1??type_case_Z@?$output_processor@DV?$string_output_adapter@D@__crt_stdio_output@@V?$positional_parameter_base@DV?$string_output_adapter@D@__crt_stdio_output@@@2@@1@AEAA_NXZ@@Z 000000014010e270 f i libucrtd:output.obj
 0001:0010d4a0       ??$extract_argument_from_va_list@PEAUansi_string@?1??type_case_Z@?$output_processor@DV?$string_output_adapter@D@__crt_stdio_output@@V?$positional_parameter_base@DV?$string_output_adapter@D@__crt_stdio_output@@@2@@__crt_stdio_output@@AEAA_NXZ@PEAU1?1??234@AEAA_NXZ@@?$standard_base@DV?$string_output_adapter@D@__crt_stdio_output@@@__crt_stdio_output@@IEAA_NAEAPEAUansi_string@?1??type_case_Z@?$output_processor@DV?$string_output_adapter@D@__crt_stdio_output@@V?$positional_parameter_base@DV?$string_output_adapter@D@__crt_stdio_output@@@2@@1@AEAA_NXZ@@Z 000000014010e4a0 f i libucrtd:output.obj
 0001:0010d4e0       ??$extract_argument_from_va_list@PEAUansi_string@?1??type_case_Z@?$output_processor@DV?$string_output_adapter@D@__crt_stdio_output@@V?$standard_base@DV?$string_output_adapter@D@__crt_stdio_output@@@2@@__crt_stdio_output@@AEAA_NXZ@PEAU1?1??234@AEAA_NXZ@@?$standard_base@DV?$string_output_adapter@D@__crt_stdio_output@@@__crt_stdio_output@@IEAA_NAEAPEAUansi_string@?1??type_case_Z@?$output_processor@DV?$string_output_adapter@D@__crt_stdio_output@@V?$standard_base@DV?$string_output_adapter@D@__crt_stdio_output@@@2@@1@AEAA_NXZ@@Z 000000014010e4e0 f i libucrtd:output.obj
 0001:0010d520       ??$extract_argument_from_va_list@PEAUansi_string@?1??type_case_Z@?$output_processor@_WV?$stream_output_adapter@_W@__crt_stdio_output@@V?$format_validation_base@_WV?$stream_output_adapter@_W@__crt_stdio_output@@@2@@__crt_stdio_output@@AEAA_NXZ@PEAU1?1??234@AEAA_NXZ@@?$standard_base@_WV?$stream_output_adapter@_W@__crt_stdio_output@@@__crt_stdio_output@@IEAA_NAEAPEAUansi_string@?1??type_case_Z@?$output_processor@_WV?$stream_output_adapter@_W@__crt_stdio_output@@V?$format_validation_base@_WV?$stream_output_adapter@_W@__crt_stdio_output@@@2@@1@AEAA_NXZ@@Z 000000014010e520 f i libucrtd:output.obj
 0001:0010d560       ??$extract_argument_from_va_list@PEAUansi_string@?1??type_case_Z@?$output_processor@_WV?$stream_output_adapter@_W@__crt_stdio_output@@V?$positional_parameter_base@_WV?$stream_output_adapter@_W@__crt_stdio_output@@@2@@__crt_stdio_output@@AEAA_NXZ@PEAU1?1??234@AEAA_NXZ@@?$positional_parameter_base@_WV?$stream_output_adapter@_W@__crt_stdio_output@@@__crt_stdio_output@@IEAA_NAEAPEAUansi_string@?1??type_case_Z@?$output_processor@_WV?$stream_output_adapter@_W@__crt_stdio_output@@V?$positional_parameter_base@_WV?$stream_output_adapter@_W@__crt_stdio_output@@@2@@1@AEAA_NXZ@@Z 000000014010e560 f i libucrtd:output.obj
 0001:0010d790       ??$extract_argument_from_va_list@PEAUansi_string@?1??type_case_Z@?$output_processor@_WV?$stream_output_adapter@_W@__crt_stdio_output@@V?$positional_parameter_base@_WV?$stream_output_adapter@_W@__crt_stdio_output@@@2@@__crt_stdio_output@@AEAA_NXZ@PEAU1?1??234@AEAA_NXZ@@?$standard_base@_WV?$stream_output_adapter@_W@__crt_stdio_output@@@__crt_stdio_output@@IEAA_NAEAPEAUansi_string@?1??type_case_Z@?$output_processor@_WV?$stream_output_adapter@_W@__crt_stdio_output@@V?$positional_parameter_base@_WV?$stream_output_adapter@_W@__crt_stdio_output@@@2@@1@AEAA_NXZ@@Z 000000014010e790 f i libucrtd:output.obj
 0001:0010d7d0       ??$extract_argument_from_va_list@PEAUansi_string@?1??type_case_Z@?$output_processor@_WV?$stream_output_adapter@_W@__crt_stdio_output@@V?$standard_base@_WV?$stream_output_adapter@_W@__crt_stdio_output@@@2@@__crt_stdio_output@@AEAA_NXZ@PEAU1?1??234@AEAA_NXZ@@?$standard_base@_WV?$stream_output_adapter@_W@__crt_stdio_output@@@__crt_stdio_output@@IEAA_NAEAPEAUansi_string@?1??type_case_Z@?$output_processor@_WV?$stream_output_adapter@_W@__crt_stdio_output@@V?$standard_base@_WV?$stream_output_adapter@_W@__crt_stdio_output@@@2@@1@AEAA_NXZ@@Z 000000014010e7d0 f i libucrtd:output.obj
 0001:0010d810       ??$extract_argument_from_va_list@PEAUansi_string@?1??type_case_Z@?$output_processor@_WV?$string_output_adapter@_W@__crt_stdio_output@@V?$format_validation_base@_WV?$string_output_adapter@_W@__crt_stdio_output@@@2@@__crt_stdio_output@@AEAA_NXZ@PEAU1?1??234@AEAA_NXZ@@?$standard_base@_WV?$string_output_adapter@_W@__crt_stdio_output@@@__crt_stdio_output@@IEAA_NAEAPEAUansi_string@?1??type_case_Z@?$output_processor@_WV?$string_output_adapter@_W@__crt_stdio_output@@V?$format_validation_base@_WV?$string_output_adapter@_W@__crt_stdio_output@@@2@@1@AEAA_NXZ@@Z 000000014010e810 f i libucrtd:output.obj
 0001:0010d850       ??$extract_argument_from_va_list@PEAUansi_string@?1??type_case_Z@?$output_processor@_WV?$string_output_adapter@_W@__crt_stdio_output@@V?$positional_parameter_base@_WV?$string_output_adapter@_W@__crt_stdio_output@@@2@@__crt_stdio_output@@AEAA_NXZ@PEAU1?1??234@AEAA_NXZ@@?$positional_parameter_base@_WV?$string_output_adapter@_W@__crt_stdio_output@@@__crt_stdio_output@@IEAA_NAEAPEAUansi_string@?1??type_case_Z@?$output_processor@_WV?$string_output_adapter@_W@__crt_stdio_output@@V?$positional_parameter_base@_WV?$string_output_adapter@_W@__crt_stdio_output@@@2@@1@AEAA_NXZ@@Z 000000014010e850 f i libucrtd:output.obj
 0001:0010da80       ??$extract_argument_from_va_list@PEAUansi_string@?1??type_case_Z@?$output_processor@_WV?$string_output_adapter@_W@__crt_stdio_output@@V?$positional_parameter_base@_WV?$string_output_adapter@_W@__crt_stdio_output@@@2@@__crt_stdio_output@@AEAA_NXZ@PEAU1?1??234@AEAA_NXZ@@?$standard_base@_WV?$string_output_adapter@_W@__crt_stdio_output@@@__crt_stdio_output@@IEAA_NAEAPEAUansi_string@?1??type_case_Z@?$output_processor@_WV?$string_output_adapter@_W@__crt_stdio_output@@V?$positional_parameter_base@_WV?$string_output_adapter@_W@__crt_stdio_output@@@2@@1@AEAA_NXZ@@Z 000000014010ea80 f i libucrtd:output.obj
 0001:0010dac0       ??$extract_argument_from_va_list@PEAUansi_string@?1??type_case_Z@?$output_processor@_WV?$string_output_adapter@_W@__crt_stdio_output@@V?$standard_base@_WV?$string_output_adapter@_W@__crt_stdio_output@@@2@@__crt_stdio_output@@AEAA_NXZ@PEAU1?1??234@AEAA_NXZ@@?$standard_base@_WV?$string_output_adapter@_W@__crt_stdio_output@@@__crt_stdio_output@@IEAA_NAEAPEAUansi_string@?1??type_case_Z@?$output_processor@_WV?$string_output_adapter@_W@__crt_stdio_output@@V?$standard_base@_WV?$string_output_adapter@_W@__crt_stdio_output@@@2@@1@AEAA_NXZ@@Z 000000014010eac0 f i libucrtd:output.obj
 0001:0010db00       ??$extract_argument_from_va_list@PEAXPEAX@?$positional_parameter_base@DV?$stream_output_adapter@D@__crt_stdio_output@@@__crt_stdio_output@@IEAA_NAEAPEAX@Z 000000014010eb00 f i libucrtd:output.obj
 0001:0010dd30       ??$extract_argument_from_va_list@PEAXPEAX@?$positional_parameter_base@DV?$string_output_adapter@D@__crt_stdio_output@@@__crt_stdio_output@@IEAA_NAEAPEAX@Z 000000014010ed30 f i libucrtd:output.obj
 0001:0010df60       ??$extract_argument_from_va_list@PEAXPEAX@?$positional_parameter_base@_WV?$stream_output_adapter@_W@__crt_stdio_output@@@__crt_stdio_output@@IEAA_NAEAPEAX@Z 000000014010ef60 f i libucrtd:output.obj
 0001:0010e190       ??$extract_argument_from_va_list@PEAXPEAX@?$positional_parameter_base@_WV?$string_output_adapter@_W@__crt_stdio_output@@@__crt_stdio_output@@IEAA_NAEAPEAX@Z 000000014010f190 f i libucrtd:output.obj
 0001:0010e3c0       ??$extract_argument_from_va_list@PEAXPEAX@?$standard_base@DV?$stream_output_adapter@D@__crt_stdio_output@@@__crt_stdio_output@@IEAA_NAEAPEAX@Z 000000014010f3c0 f i libucrtd:output.obj
 0001:0010e400       ??$extract_argument_from_va_list@PEAXPEAX@?$standard_base@DV?$string_output_adapter@D@__crt_stdio_output@@@__crt_stdio_output@@IEAA_NAEAPEAX@Z 000000014010f400 f i libucrtd:output.obj
 0001:0010e440       ??$extract_argument_from_va_list@PEAXPEAX@?$standard_base@_WV?$stream_output_adapter@_W@__crt_stdio_output@@@__crt_stdio_output@@IEAA_NAEAPEAX@Z 000000014010f440 f i libucrtd:output.obj
 0001:0010e480       ??$extract_argument_from_va_list@PEAXPEAX@?$standard_base@_WV?$string_output_adapter@_W@__crt_stdio_output@@@__crt_stdio_output@@IEAA_NAEAPEAX@Z 000000014010f480 f i libucrtd:output.obj
 0001:0010e4c0       ??$extract_argument_from_va_list@U_CRT_DOUBLE@@U1@@?$positional_parameter_base@DV?$stream_output_adapter@D@__crt_stdio_output@@@__crt_stdio_output@@IEAA_NAEAU_CRT_DOUBLE@@@Z 000000014010f4c0 f i libucrtd:output.obj
 0001:0010e750       ??$extract_argument_from_va_list@U_CRT_DOUBLE@@U1@@?$positional_parameter_base@DV?$string_output_adapter@D@__crt_stdio_output@@@__crt_stdio_output@@IEAA_NAEAU_CRT_DOUBLE@@@Z 000000014010f750 f i libucrtd:output.obj
 0001:0010e9e0       ??$extract_argument_from_va_list@U_CRT_DOUBLE@@U1@@?$positional_parameter_base@_WV?$stream_output_adapter@_W@__crt_stdio_output@@@__crt_stdio_output@@IEAA_NAEAU_CRT_DOUBLE@@@Z 000000014010f9e0 f i libucrtd:output.obj
 0001:0010ec80       ??$extract_argument_from_va_list@U_CRT_DOUBLE@@U1@@?$positional_parameter_base@_WV?$string_output_adapter@_W@__crt_stdio_output@@@__crt_stdio_output@@IEAA_NAEAU_CRT_DOUBLE@@@Z 000000014010fc80 f i libucrtd:output.obj
 0001:0010ef20       ??$extract_argument_from_va_list@U_CRT_DOUBLE@@U1@@?$standard_base@DV?$stream_output_adapter@D@__crt_stdio_output@@@__crt_stdio_output@@IEAA_NAEAU_CRT_DOUBLE@@@Z 000000014010ff20 f i libucrtd:output.obj
 0001:0010ef70       ??$extract_argument_from_va_list@U_CRT_DOUBLE@@U1@@?$standard_base@DV?$string_output_adapter@D@__crt_stdio_output@@@__crt_stdio_output@@IEAA_NAEAU_CRT_DOUBLE@@@Z 000000014010ff70 f i libucrtd:output.obj
 0001:0010efc0       ??$extract_argument_from_va_list@U_CRT_DOUBLE@@U1@@?$standard_base@_WV?$stream_output_adapter@_W@__crt_stdio_output@@@__crt_stdio_output@@IEAA_NAEAU_CRT_DOUBLE@@@Z 000000014010ffc0 f i libucrtd:output.obj
 0001:0010f010       ??$extract_argument_from_va_list@U_CRT_DOUBLE@@U1@@?$standard_base@_WV?$string_output_adapter@_W@__crt_stdio_output@@@__crt_stdio_output@@IEAA_NAEAU_CRT_DOUBLE@@@Z 0000000140110010 f i libucrtd:output.obj
 0001:0010f060       ??$extract_argument_from_va_list@_J_J@?$positional_parameter_base@DV?$stream_output_adapter@D@__crt_stdio_output@@@__crt_stdio_output@@IEAA_NAEA_J@Z 0000000140110060 f i libucrtd:output.obj
 0001:0010f290       ??$extract_argument_from_va_list@_J_J@?$positional_parameter_base@DV?$string_output_adapter@D@__crt_stdio_output@@@__crt_stdio_output@@IEAA_NAEA_J@Z 0000000140110290 f i libucrtd:output.obj
 0001:0010f4c0       ??$extract_argument_from_va_list@_J_J@?$positional_parameter_base@_WV?$stream_output_adapter@_W@__crt_stdio_output@@@__crt_stdio_output@@IEAA_NAEA_J@Z 00000001401104c0 f i libucrtd:output.obj
 0001:0010f6f0       ??$extract_argument_from_va_list@_J_J@?$positional_parameter_base@_WV?$string_output_adapter@_W@__crt_stdio_output@@@__crt_stdio_output@@IEAA_NAEA_J@Z 00000001401106f0 f i libucrtd:output.obj
 0001:0010f920       ??$extract_argument_from_va_list@_J_J@?$standard_base@DV?$stream_output_adapter@D@__crt_stdio_output@@@__crt_stdio_output@@IEAA_NAEA_J@Z 0000000140110920 f i libucrtd:output.obj
 0001:0010f960       ??$extract_argument_from_va_list@_J_J@?$standard_base@DV?$string_output_adapter@D@__crt_stdio_output@@@__crt_stdio_output@@IEAA_NAEA_J@Z 0000000140110960 f i libucrtd:output.obj
 0001:0010f9a0       ??$extract_argument_from_va_list@_J_J@?$standard_base@_WV?$stream_output_adapter@_W@__crt_stdio_output@@@__crt_stdio_output@@IEAA_NAEA_J@Z 00000001401109a0 f i libucrtd:output.obj
 0001:0010f9e0       ??$extract_argument_from_va_list@_J_J@?$standard_base@_WV?$string_output_adapter@_W@__crt_stdio_output@@@__crt_stdio_output@@IEAA_NAEA_J@Z 00000001401109e0 f i libucrtd:output.obj
 0001:0010fa20       ??$extract_argument_from_va_list@_K_J@?$positional_parameter_base@DV?$stream_output_adapter@D@__crt_stdio_output@@@__crt_stdio_output@@IEAA_NAEA_J@Z 0000000140110a20 f i libucrtd:output.obj
 0001:0010fc50       ??$extract_argument_from_va_list@_K_J@?$positional_parameter_base@DV?$string_output_adapter@D@__crt_stdio_output@@@__crt_stdio_output@@IEAA_NAEA_J@Z 0000000140110c50 f i libucrtd:output.obj
 0001:0010fe80       ??$extract_argument_from_va_list@_K_J@?$positional_parameter_base@_WV?$stream_output_adapter@_W@__crt_stdio_output@@@__crt_stdio_output@@IEAA_NAEA_J@Z 0000000140110e80 f i libucrtd:output.obj
 0001:001100b0       ??$extract_argument_from_va_list@_K_J@?$positional_parameter_base@_WV?$string_output_adapter@_W@__crt_stdio_output@@@__crt_stdio_output@@IEAA_NAEA_J@Z 00000001401110b0 f i libucrtd:output.obj
 0001:001102e0       ??$extract_argument_from_va_list@_K_J@?$standard_base@DV?$stream_output_adapter@D@__crt_stdio_output@@@__crt_stdio_output@@IEAA_NAEA_J@Z 00000001401112e0 f i libucrtd:output.obj
 0001:00110320       ??$extract_argument_from_va_list@_K_J@?$standard_base@DV?$string_output_adapter@D@__crt_stdio_output@@@__crt_stdio_output@@IEAA_NAEA_J@Z 0000000140111320 f i libucrtd:output.obj
 0001:00110360       ??$extract_argument_from_va_list@_K_J@?$standard_base@_WV?$stream_output_adapter@_W@__crt_stdio_output@@@__crt_stdio_output@@IEAA_NAEA_J@Z 0000000140111360 f i libucrtd:output.obj
 0001:001103a0       ??$extract_argument_from_va_list@_K_J@?$standard_base@_WV?$string_output_adapter@_W@__crt_stdio_output@@@__crt_stdio_output@@IEAA_NAEA_J@Z 00000001401113a0 f i libucrtd:output.obj
 0001:001103e0       ??$extract_argument_from_va_list@_W_W@?$positional_parameter_base@DV?$stream_output_adapter@D@__crt_stdio_output@@@__crt_stdio_output@@IEAA_NAEA_W@Z 00000001401113e0 f i libucrtd:output.obj
 0001:00110610       ??$extract_argument_from_va_list@_W_W@?$positional_parameter_base@DV?$string_output_adapter@D@__crt_stdio_output@@@__crt_stdio_output@@IEAA_NAEA_W@Z 0000000140111610 f i libucrtd:output.obj
 0001:00110840       ??$extract_argument_from_va_list@_W_W@?$positional_parameter_base@_WV?$stream_output_adapter@_W@__crt_stdio_output@@@__crt_stdio_output@@IEAA_NAEA_W@Z 0000000140111840 f i libucrtd:output.obj
 0001:00110a70       ??$extract_argument_from_va_list@_W_W@?$positional_parameter_base@_WV?$string_output_adapter@_W@__crt_stdio_output@@@__crt_stdio_output@@IEAA_NAEA_W@Z 0000000140111a70 f i libucrtd:output.obj
 0001:00110ca0       ??$extract_argument_from_va_list@_W_W@?$standard_base@DV?$stream_output_adapter@D@__crt_stdio_output@@@__crt_stdio_output@@IEAA_NAEA_W@Z 0000000140111ca0 f i libucrtd:output.obj
 0001:00110ce0       ??$extract_argument_from_va_list@_W_W@?$standard_base@DV?$string_output_adapter@D@__crt_stdio_output@@@__crt_stdio_output@@IEAA_NAEA_W@Z 0000000140111ce0 f i libucrtd:output.obj
 0001:00110d20       ??$extract_argument_from_va_list@_W_W@?$standard_base@_WV?$stream_output_adapter@_W@__crt_stdio_output@@@__crt_stdio_output@@IEAA_NAEA_W@Z 0000000140111d20 f i libucrtd:output.obj
 0001:00110d60       ??$extract_argument_from_va_list@_W_W@?$standard_base@_WV?$string_output_adapter@_W@__crt_stdio_output@@@__crt_stdio_output@@IEAA_NAEA_W@Z 0000000140111d60 f i libucrtd:output.obj
 0001:00110da0       ??$get_parameter_type@D@?$positional_parameter_base@DV?$stream_output_adapter@D@__crt_stdio_output@@@__crt_stdio_output@@CA?AW4parameter_type@01@PEAD@Z 0000000140111da0 f i libucrtd:output.obj
 0001:00110db0       ??$get_parameter_type@D@?$positional_parameter_base@DV?$string_output_adapter@D@__crt_stdio_output@@@__crt_stdio_output@@CA?AW4parameter_type@01@PEAD@Z 0000000140111db0 f i libucrtd:output.obj
 0001:00110dc0       ??$get_parameter_type@D@?$positional_parameter_base@_WV?$stream_output_adapter@_W@__crt_stdio_output@@@__crt_stdio_output@@CA?AW4parameter_type@01@PEAD@Z 0000000140111dc0 f i libucrtd:output.obj
 0001:00110dd0       ??$get_parameter_type@D@?$positional_parameter_base@_WV?$string_output_adapter@_W@__crt_stdio_output@@@__crt_stdio_output@@CA?AW4parameter_type@01@PEAD@Z 0000000140111dd0 f i libucrtd:output.obj
 0001:00110de0       ??$get_parameter_type@Uansi_string@?1??type_case_Z@?$output_processor@DV?$stream_output_adapter@D@__crt_stdio_output@@V?$positional_parameter_base@DV?$stream_output_adapter@D@__crt_stdio_output@@@2@@__crt_stdio_output@@AEAA_NXZ@@?$positional_parameter_base@DV?$stream_output_adapter@D@__crt_stdio_output@@@__crt_stdio_output@@CA?AW4parameter_type@01@PEAUansi_string@?1??type_case_Z@?$output_processor@DV?$stream_output_adapter@D@__crt_stdio_output@@V?$positional_parameter_base@DV?$stream_output_adapter@D@__crt_stdio_output@@@2@@1@AEAA_NXZ@@Z 0000000140111de0 f i libucrtd:output.obj
 0001:00110df0       ??$get_parameter_type@Uansi_string@?1??type_case_Z@?$output_processor@DV?$string_output_adapter@D@__crt_stdio_output@@V?$positional_parameter_base@DV?$string_output_adapter@D@__crt_stdio_output@@@2@@__crt_stdio_output@@AEAA_NXZ@@?$positional_parameter_base@DV?$string_output_adapter@D@__crt_stdio_output@@@__crt_stdio_output@@CA?AW4parameter_type@01@PEAUansi_string@?1??type_case_Z@?$output_processor@DV?$string_output_adapter@D@__crt_stdio_output@@V?$positional_parameter_base@DV?$string_output_adapter@D@__crt_stdio_output@@@2@@1@AEAA_NXZ@@Z 0000000140111df0 f i libucrtd:output.obj
 0001:00110e00       ??$get_parameter_type@Uansi_string@?1??type_case_Z@?$output_processor@_WV?$stream_output_adapter@_W@__crt_stdio_output@@V?$positional_parameter_base@_WV?$stream_output_adapter@_W@__crt_stdio_output@@@2@@__crt_stdio_output@@AEAA_NXZ@@?$positional_parameter_base@_WV?$stream_output_adapter@_W@__crt_stdio_output@@@__crt_stdio_output@@CA?AW4parameter_type@01@PEAUansi_string@?1??type_case_Z@?$output_processor@_WV?$stream_output_adapter@_W@__crt_stdio_output@@V?$positional_parameter_base@_WV?$stream_output_adapter@_W@__crt_stdio_output@@@2@@1@AEAA_NXZ@@Z 0000000140111e00 f i libucrtd:output.obj
 0001:00110e10       ??$get_parameter_type@Uansi_string@?1??type_case_Z@?$output_processor@_WV?$string_output_adapter@_W@__crt_stdio_output@@V?$positional_parameter_base@_WV?$string_output_adapter@_W@__crt_stdio_output@@@2@@__crt_stdio_output@@AEAA_NXZ@@?$positional_parameter_base@_WV?$string_output_adapter@_W@__crt_stdio_output@@@__crt_stdio_output@@CA?AW4parameter_type@01@PEAUansi_string@?1??type_case_Z@?$output_processor@_WV?$string_output_adapter@_W@__crt_stdio_output@@V?$positional_parameter_base@_WV?$string_output_adapter@_W@__crt_stdio_output@@@2@@1@AEAA_NXZ@@Z 0000000140111e10 f i libucrtd:output.obj
 0001:00110e20       ??$get_parameter_type@X@?$positional_parameter_base@DV?$stream_output_adapter@D@__crt_stdio_output@@@__crt_stdio_output@@CA?AW4parameter_type@01@PEAX@Z 0000000140111e20 f i libucrtd:output.obj
 0001:00110e30       ??$get_parameter_type@X@?$positional_parameter_base@DV?$string_output_adapter@D@__crt_stdio_output@@@__crt_stdio_output@@CA?AW4parameter_type@01@PEAX@Z 0000000140111e30 f i libucrtd:output.obj
 0001:00110e40       ??$get_parameter_type@X@?$positional_parameter_base@_WV?$stream_output_adapter@_W@__crt_stdio_output@@@__crt_stdio_output@@CA?AW4parameter_type@01@PEAX@Z 0000000140111e40 f i libucrtd:output.obj
 0001:00110e50       ??$get_parameter_type@X@?$positional_parameter_base@_WV?$string_output_adapter@_W@__crt_stdio_output@@@__crt_stdio_output@@CA?AW4parameter_type@01@PEAX@Z 0000000140111e50 f i libucrtd:output.obj
 0001:00110e60       ??$is_character_specifier@D@?$positional_parameter_base@DV?$stream_output_adapter@D@__crt_stdio_output@@@__crt_stdio_output@@CA_ND@Z 0000000140111e60 f i libucrtd:output.obj
 0001:00110eb0       ??$is_character_specifier@D@?$positional_parameter_base@DV?$string_output_adapter@D@__crt_stdio_output@@@__crt_stdio_output@@CA_ND@Z 0000000140111eb0 f i libucrtd:output.obj
 0001:00110f00       ??$is_character_specifier@_W@?$positional_parameter_base@_WV?$stream_output_adapter@_W@__crt_stdio_output@@@__crt_stdio_output@@CA_N_W@Z 0000000140111f00 f i libucrtd:output.obj
 0001:00110f50       ??$is_character_specifier@_W@?$positional_parameter_base@_WV?$string_output_adapter@_W@__crt_stdio_output@@@__crt_stdio_output@@CA_N_W@Z 0000000140111f50 f i libucrtd:output.obj
 0001:00110fa0       ??$is_integral_specifier@D@?$positional_parameter_base@DV?$stream_output_adapter@D@__crt_stdio_output@@@__crt_stdio_output@@CA_ND@Z 0000000140111fa0 f i libucrtd:output.obj
 0001:00111020       ??$is_integral_specifier@D@?$positional_parameter_base@DV?$string_output_adapter@D@__crt_stdio_output@@@__crt_stdio_output@@CA_ND@Z 0000000140112020 f i libucrtd:output.obj
 0001:001110a0       ??$is_integral_specifier@_W@?$positional_parameter_base@_WV?$stream_output_adapter@_W@__crt_stdio_output@@@__crt_stdio_output@@CA_N_W@Z 00000001401120a0 f i libucrtd:output.obj
 0001:00111130       ??$is_integral_specifier@_W@?$positional_parameter_base@_WV?$string_output_adapter@_W@__crt_stdio_output@@@__crt_stdio_output@@CA_N_W@Z 0000000140112130 f i libucrtd:output.obj
 0001:001111c0       ??$is_overflow_condition@K@__crt_strtox@@YA_NIK@Z 00000001401121c0 f i libucrtd:output.obj
 0001:00111240       ??$is_pointer_specifier@D@?$positional_parameter_base@DV?$stream_output_adapter@D@__crt_stdio_output@@@__crt_stdio_output@@CA_ND@Z 0000000140112240 f i libucrtd:output.obj
 0001:00111280       ??$is_pointer_specifier@D@?$positional_parameter_base@DV?$string_output_adapter@D@__crt_stdio_output@@@__crt_stdio_output@@CA_ND@Z 0000000140112280 f i libucrtd:output.obj
 0001:001112c0       ??$is_pointer_specifier@_W@?$positional_parameter_base@_WV?$stream_output_adapter@_W@__crt_stdio_output@@@__crt_stdio_output@@CA_N_W@Z 00000001401122c0 f i libucrtd:output.obj
 0001:00111300       ??$is_pointer_specifier@_W@?$positional_parameter_base@_WV?$string_output_adapter@_W@__crt_stdio_output@@@__crt_stdio_output@@CA_N_W@Z 0000000140112300 f i libucrtd:output.obj
 0001:00111340       ??$is_string_specifier@D@?$positional_parameter_base@DV?$stream_output_adapter@D@__crt_stdio_output@@@__crt_stdio_output@@CA_ND@Z 0000000140112340 f i libucrtd:output.obj
 0001:00111390       ??$is_string_specifier@D@?$positional_parameter_base@DV?$string_output_adapter@D@__crt_stdio_output@@@__crt_stdio_output@@CA_ND@Z 0000000140112390 f i libucrtd:output.obj
 0001:001113e0       ??$is_string_specifier@_W@?$positional_parameter_base@_WV?$stream_output_adapter@_W@__crt_stdio_output@@@__crt_stdio_output@@CA_N_W@Z 00000001401123e0 f i libucrtd:output.obj
 0001:00111430       ??$is_string_specifier@_W@?$positional_parameter_base@_WV?$string_output_adapter@_W@__crt_stdio_output@@@__crt_stdio_output@@CA_N_W@Z 0000000140112430 f i libucrtd:output.obj
 0001:00111480       ??$is_wide_character_specifier@D@__crt_stdio_output@@YA_N_KDW4length_modifier@0@@Z 0000000140112480 f i libucrtd:output.obj
 0001:00111540       ??$is_wide_character_specifier@_W@__crt_stdio_output@@YA_N_K_WW4length_modifier@0@@Z 0000000140112540 f i libucrtd:output.obj
 0001:00111640       ??$make_c_string_character_source@DPEAPEAD@__crt_strtox@@YA?AV?$c_string_character_source@D@0@QEBDQEAPEAD@Z 0000000140112640 f i libucrtd:output.obj
 0001:00111680       ??$make_c_string_character_source@_WPEAPEA_W@__crt_strtox@@YA?AV?$c_string_character_source@_W@0@QEB_WQEAPEA_W@Z 0000000140112680 f i libucrtd:output.obj
 0001:001116c0       ??$parse_integer@KV?$c_string_character_source@D@__crt_strtox@@$0A@@__crt_strtox@@YAKAEAV__crt_cached_ptd_host@@V?$c_string_character_source@D@0@H_N@Z 00000001401126c0 f i libucrtd:output.obj
 0001:00111c60       ??$parse_integer@KV?$c_string_character_source@_W@__crt_strtox@@$0A@@__crt_strtox@@YAKAEAV__crt_cached_ptd_host@@V?$c_string_character_source@_W@0@H_N@Z 0000000140112c60 f i libucrtd:output.obj
 0001:00112200       ??$peek_va_arg@C@__crt_stdio_output@@YACPEAD@Z 0000000140113200 f i libucrtd:output.obj
 0001:00112270       ??$peek_va_arg@E@__crt_stdio_output@@YAEPEAD@Z 0000000140113270 f i libucrtd:output.obj
 0001:001122e0       ??$peek_va_arg@F@__crt_stdio_output@@YAFPEAD@Z 00000001401132e0 f i libucrtd:output.obj
 0001:00112350       ??$peek_va_arg@G@__crt_stdio_output@@YAGPEAD@Z 0000000140113350 f i libucrtd:output.obj
 0001:001123c0       ??$peek_va_arg@H@__crt_stdio_output@@YAHPEAD@Z 00000001401133c0 f i libucrtd:output.obj
 0001:00112430       ??$peek_va_arg@I@__crt_stdio_output@@YAIPEAD@Z 0000000140113430 f i libucrtd:output.obj
 0001:001124a0       ??$peek_va_arg@PEAD@__crt_stdio_output@@YAPEADPEAD@Z 00000001401134a0 f i libucrtd:output.obj
 0001:00112510       ??$peek_va_arg@PEAUansi_string@?1??type_case_Z@?$output_processor@DV?$stream_output_adapter@D@__crt_stdio_output@@V?$positional_parameter_base@DV?$stream_output_adapter@D@__crt_stdio_output@@@2@@__crt_stdio_output@@AEAA_NXZ@@__crt_stdio_output@@YAPEAUansi_string@?1??type_case_Z@?$output_processor@DV?$stream_output_adapter@D@__crt_stdio_output@@V?$positional_parameter_base@DV?$stream_output_adapter@D@__crt_stdio_output@@@2@@0@AEAA_NXZ@PEAD@Z 0000000140113510 f i libucrtd:output.obj
 0001:00112580       ??$peek_va_arg@PEAUansi_string@?1??type_case_Z@?$output_processor@DV?$string_output_adapter@D@__crt_stdio_output@@V?$positional_parameter_base@DV?$string_output_adapter@D@__crt_stdio_output@@@2@@__crt_stdio_output@@AEAA_NXZ@@__crt_stdio_output@@YAPEAUansi_string@?1??type_case_Z@?$output_processor@DV?$string_output_adapter@D@__crt_stdio_output@@V?$positional_parameter_base@DV?$string_output_adapter@D@__crt_stdio_output@@@2@@0@AEAA_NXZ@PEAD@Z 0000000140113580 f i libucrtd:output.obj
 0001:001125f0       ??$peek_va_arg@PEAUansi_string@?1??type_case_Z@?$output_processor@_WV?$stream_output_adapter@_W@__crt_stdio_output@@V?$positional_parameter_base@_WV?$stream_output_adapter@_W@__crt_stdio_output@@@2@@__crt_stdio_output@@AEAA_NXZ@@__crt_stdio_output@@YAPEAUansi_string@?1??type_case_Z@?$output_processor@_WV?$stream_output_adapter@_W@__crt_stdio_output@@V?$positional_parameter_base@_WV?$stream_output_adapter@_W@__crt_stdio_output@@@2@@0@AEAA_NXZ@PEAD@Z 00000001401135f0 f i libucrtd:output.obj
 0001:00112660       ??$peek_va_arg@PEAUansi_string@?1??type_case_Z@?$output_processor@_WV?$string_output_adapter@_W@__crt_stdio_output@@V?$positional_parameter_base@_WV?$string_output_adapter@_W@__crt_stdio_output@@@2@@__crt_stdio_output@@AEAA_NXZ@@__crt_stdio_output@@YAPEAUansi_string@?1??type_case_Z@?$output_processor@_WV?$string_output_adapter@_W@__crt_stdio_output@@V?$positional_parameter_base@_WV?$string_output_adapter@_W@__crt_stdio_output@@@2@@0@AEAA_NXZ@PEAD@Z 0000000140113660 f i libucrtd:output.obj
 0001:001126d0       ??$peek_va_arg@PEAX@__crt_stdio_output@@YAPEAXPEAD@Z 00000001401136d0 f i libucrtd:output.obj
 0001:00112740       ??$peek_va_arg@U_CRT_DOUBLE@@@__crt_stdio_output@@YA?AU_CRT_DOUBLE@@PEAD@Z 0000000140113740 f i libucrtd:output.obj
 0001:001127b0       ??$peek_va_arg@_J@__crt_stdio_output@@YA_JPEAD@Z 00000001401137b0 f i libucrtd:output.obj
 0001:00112820       ??$peek_va_arg@_K@__crt_stdio_output@@YA_KPEAD@Z 0000000140113820 f i libucrtd:output.obj
 0001:00112890       ??$peek_va_arg@_W@__crt_stdio_output@@YA_WPEAD@Z 0000000140113890 f i libucrtd:output.obj
 0001:00112900       ??$puttc_nolock_internal@AEBDPEAU_iobuf@@AEAV__crt_cached_ptd_host@@@?$__crt_char_traits@D@@SAHAEBD$$QEAPEAU_iobuf@@AEAV__crt_cached_ptd_host@@@Z 0000000140113900 f i libucrtd:output.obj
 0001:00112950       ??$puttc_nolock_internal@AEB_WPEAU_iobuf@@AEAV__crt_cached_ptd_host@@@?$__crt_char_traits@_W@@SAGAEB_W$$QEAPEAU_iobuf@@AEAV__crt_cached_ptd_host@@@Z 0000000140113950 f i libucrtd:output.obj
 0001:00112990       ??$read_va_arg@C@__crt_stdio_output@@YACAEAPEAD@Z 0000000140113990 f i libucrtd:output.obj
 0001:00112a10       ??$read_va_arg@E@__crt_stdio_output@@YAEAEAPEAD@Z 0000000140113a10 f i libucrtd:output.obj
 0001:00112a90       ??$read_va_arg@F@__crt_stdio_output@@YAFAEAPEAD@Z 0000000140113a90 f i libucrtd:output.obj
 0001:00112b10       ??$read_va_arg@G@__crt_stdio_output@@YAGAEAPEAD@Z 0000000140113b10 f i libucrtd:output.obj
 0001:00112b90       ??$read_va_arg@H@__crt_stdio_output@@YAHAEAPEAD@Z 0000000140113b90 f i libucrtd:output.obj
 0001:00112c10       ??$read_va_arg@I@__crt_stdio_output@@YAIAEAPEAD@Z 0000000140113c10 f i libucrtd:output.obj
 0001:00112c90       ??$read_va_arg@PEAD@__crt_stdio_output@@YAPEADAEAPEAD@Z 0000000140113c90 f i libucrtd:output.obj
 0001:00112d10       ??$read_va_arg@PEAUansi_string@?1??type_case_Z@?$output_processor@DV?$stream_output_adapter@D@__crt_stdio_output@@V?$format_validation_base@DV?$stream_output_adapter@D@__crt_stdio_output@@@2@@__crt_stdio_output@@AEAA_NXZ@@__crt_stdio_output@@YAPEAUansi_string@?1??type_case_Z@?$output_processor@DV?$stream_output_adapter@D@__crt_stdio_output@@V?$format_validation_base@DV?$stream_output_adapter@D@__crt_stdio_output@@@2@@0@AEAA_NXZ@AEAPEAD@Z 0000000140113d10 f i libucrtd:output.obj
 0001:00112d90       ??$read_va_arg@PEAUansi_string@?1??type_case_Z@?$output_processor@DV?$stream_output_adapter@D@__crt_stdio_output@@V?$positional_parameter_base@DV?$stream_output_adapter@D@__crt_stdio_output@@@2@@__crt_stdio_output@@AEAA_NXZ@@__crt_stdio_output@@YAPEAUansi_string@?1??type_case_Z@?$output_processor@DV?$stream_output_adapter@D@__crt_stdio_output@@V?$positional_parameter_base@DV?$stream_output_adapter@D@__crt_stdio_output@@@2@@0@AEAA_NXZ@AEAPEAD@Z 0000000140113d90 f i libucrtd:output.obj
 0001:00112e10       ??$read_va_arg@PEAUansi_string@?1??type_case_Z@?$output_processor@DV?$stream_output_adapter@D@__crt_stdio_output@@V?$standard_base@DV?$stream_output_adapter@D@__crt_stdio_output@@@2@@__crt_stdio_output@@AEAA_NXZ@@__crt_stdio_output@@YAPEAUansi_string@?1??type_case_Z@?$output_processor@DV?$stream_output_adapter@D@__crt_stdio_output@@V?$standard_base@DV?$stream_output_adapter@D@__crt_stdio_output@@@2@@0@AEAA_NXZ@AEAPEAD@Z 0000000140113e10 f i libucrtd:output.obj
 0001:00112e90       ??$read_va_arg@PEAUansi_string@?1??type_case_Z@?$output_processor@DV?$string_output_adapter@D@__crt_stdio_output@@V?$format_validation_base@DV?$string_output_adapter@D@__crt_stdio_output@@@2@@__crt_stdio_output@@AEAA_NXZ@@__crt_stdio_output@@YAPEAUansi_string@?1??type_case_Z@?$output_processor@DV?$string_output_adapter@D@__crt_stdio_output@@V?$format_validation_base@DV?$string_output_adapter@D@__crt_stdio_output@@@2@@0@AEAA_NXZ@AEAPEAD@Z 0000000140113e90 f i libucrtd:output.obj
 0001:00112f10       ??$read_va_arg@PEAUansi_string@?1??type_case_Z@?$output_processor@DV?$string_output_adapter@D@__crt_stdio_output@@V?$positional_parameter_base@DV?$string_output_adapter@D@__crt_stdio_output@@@2@@__crt_stdio_output@@AEAA_NXZ@@__crt_stdio_output@@YAPEAUansi_string@?1??type_case_Z@?$output_processor@DV?$string_output_adapter@D@__crt_stdio_output@@V?$positional_parameter_base@DV?$string_output_adapter@D@__crt_stdio_output@@@2@@0@AEAA_NXZ@AEAPEAD@Z 0000000140113f10 f i libucrtd:output.obj
 0001:00112f90       ??$read_va_arg@PEAUansi_string@?1??type_case_Z@?$output_processor@DV?$string_output_adapter@D@__crt_stdio_output@@V?$standard_base@DV?$string_output_adapter@D@__crt_stdio_output@@@2@@__crt_stdio_output@@AEAA_NXZ@@__crt_stdio_output@@YAPEAUansi_string@?1??type_case_Z@?$output_processor@DV?$string_output_adapter@D@__crt_stdio_output@@V?$standard_base@DV?$string_output_adapter@D@__crt_stdio_output@@@2@@0@AEAA_NXZ@AEAPEAD@Z 0000000140113f90 f i libucrtd:output.obj
 0001:00113010       ??$read_va_arg@PEAUansi_string@?1??type_case_Z@?$output_processor@_WV?$stream_output_adapter@_W@__crt_stdio_output@@V?$format_validation_base@_WV?$stream_output_adapter@_W@__crt_stdio_output@@@2@@__crt_stdio_output@@AEAA_NXZ@@__crt_stdio_output@@YAPEAUansi_string@?1??type_case_Z@?$output_processor@_WV?$stream_output_adapter@_W@__crt_stdio_output@@V?$format_validation_base@_WV?$stream_output_adapter@_W@__crt_stdio_output@@@2@@0@AEAA_NXZ@AEAPEAD@Z 0000000140114010 f i libucrtd:output.obj
 0001:00113090       ??$read_va_arg@PEAUansi_string@?1??type_case_Z@?$output_processor@_WV?$stream_output_adapter@_W@__crt_stdio_output@@V?$positional_parameter_base@_WV?$stream_output_adapter@_W@__crt_stdio_output@@@2@@__crt_stdio_output@@AEAA_NXZ@@__crt_stdio_output@@YAPEAUansi_string@?1??type_case_Z@?$output_processor@_WV?$stream_output_adapter@_W@__crt_stdio_output@@V?$positional_parameter_base@_WV?$stream_output_adapter@_W@__crt_stdio_output@@@2@@0@AEAA_NXZ@AEAPEAD@Z 0000000140114090 f i libucrtd:output.obj
 0001:00113110       ??$read_va_arg@PEAUansi_string@?1??type_case_Z@?$output_processor@_WV?$stream_output_adapter@_W@__crt_stdio_output@@V?$standard_base@_WV?$stream_output_adapter@_W@__crt_stdio_output@@@2@@__crt_stdio_output@@AEAA_NXZ@@__crt_stdio_output@@YAPEAUansi_string@?1??type_case_Z@?$output_processor@_WV?$stream_output_adapter@_W@__crt_stdio_output@@V?$standard_base@_WV?$stream_output_adapter@_W@__crt_stdio_output@@@2@@0@AEAA_NXZ@AEAPEAD@Z 0000000140114110 f i libucrtd:output.obj
 0001:00113190       ??$read_va_arg@PEAUansi_string@?1??type_case_Z@?$output_processor@_WV?$string_output_adapter@_W@__crt_stdio_output@@V?$format_validation_base@_WV?$string_output_adapter@_W@__crt_stdio_output@@@2@@__crt_stdio_output@@AEAA_NXZ@@__crt_stdio_output@@YAPEAUansi_string@?1??type_case_Z@?$output_processor@_WV?$string_output_adapter@_W@__crt_stdio_output@@V?$format_validation_base@_WV?$string_output_adapter@_W@__crt_stdio_output@@@2@@0@AEAA_NXZ@AEAPEAD@Z 0000000140114190 f i libucrtd:output.obj
 0001:00113210       ??$read_va_arg@PEAUansi_string@?1??type_case_Z@?$output_processor@_WV?$string_output_adapter@_W@__crt_stdio_output@@V?$positional_parameter_base@_WV?$string_output_adapter@_W@__crt_stdio_output@@@2@@__crt_stdio_output@@AEAA_NXZ@@__crt_stdio_output@@YAPEAUansi_string@?1??type_case_Z@?$output_processor@_WV?$string_output_adapter@_W@__crt_stdio_output@@V?$positional_parameter_base@_WV?$string_output_adapter@_W@__crt_stdio_output@@@2@@0@AEAA_NXZ@AEAPEAD@Z 0000000140114210 f i libucrtd:output.obj
 0001:00113290       ??$read_va_arg@PEAUansi_string@?1??type_case_Z@?$output_processor@_WV?$string_output_adapter@_W@__crt_stdio_output@@V?$standard_base@_WV?$string_output_adapter@_W@__crt_stdio_output@@@2@@__crt_stdio_output@@AEAA_NXZ@@__crt_stdio_output@@YAPEAUansi_string@?1??type_case_Z@?$output_processor@_WV?$string_output_adapter@_W@__crt_stdio_output@@V?$standard_base@_WV?$string_output_adapter@_W@__crt_stdio_output@@@2@@0@AEAA_NXZ@AEAPEAD@Z 0000000140114290 f i libucrtd:output.obj
 0001:00113310       ??$read_va_arg@PEAX@__crt_stdio_output@@YAPEAXAEAPEAD@Z 0000000140114310 f i libucrtd:output.obj
 0001:00113390       ??$read_va_arg@U_CRT_DOUBLE@@@__crt_stdio_output@@YA?AU_CRT_DOUBLE@@AEAPEAD@Z 0000000140114390 f i libucrtd:output.obj
 0001:00113410       ??$read_va_arg@_J@__crt_stdio_output@@YA_JAEAPEAD@Z 0000000140114410 f i libucrtd:output.obj
 0001:00113490       ??$read_va_arg@_K@__crt_stdio_output@@YA_KAEAPEAD@Z 0000000140114490 f i libucrtd:output.obj
 0001:00113510       ??$read_va_arg@_W@__crt_stdio_output@@YA_WAEAPEAD@Z 0000000140114510 f i libucrtd:output.obj
 0001:00113590       ??$scratch_count@D@formatting_buffer@__crt_stdio_output@@QEBA_KXZ 0000000140114590 f i libucrtd:output.obj
 0001:001135b0       ??$scratch_data@D@formatting_buffer@__crt_stdio_output@@QEAAPEADXZ 00000001401145b0 f i libucrtd:output.obj
 0001:00113640       ??$type_case_integer@$07@?$output_processor@DV?$stream_output_adapter@D@__crt_stdio_output@@V?$format_validation_base@DV?$stream_output_adapter@D@__crt_stdio_output@@@2@@__crt_stdio_output@@AEAA_N_N@Z 0000000140114640 f i libucrtd:output.obj
 0001:00113bd0       ??$type_case_integer@$07@?$output_processor@DV?$stream_output_adapter@D@__crt_stdio_output@@V?$positional_parameter_base@DV?$stream_output_adapter@D@__crt_stdio_output@@@2@@__crt_stdio_output@@AEAA_N_N@Z 0000000140114bd0 f i libucrtd:output.obj
 0001:00114160       ??$type_case_integer@$07@?$output_processor@DV?$stream_output_adapter@D@__crt_stdio_output@@V?$standard_base@DV?$stream_output_adapter@D@__crt_stdio_output@@@2@@__crt_stdio_output@@AEAA_N_N@Z 0000000140115160 f i libucrtd:output.obj
 0001:001146f0       ??$type_case_integer@$07@?$output_processor@DV?$string_output_adapter@D@__crt_stdio_output@@V?$format_validation_base@DV?$string_output_adapter@D@__crt_stdio_output@@@2@@__crt_stdio_output@@AEAA_N_N@Z 00000001401156f0 f i libucrtd:output.obj
 0001:00114c80       ??$type_case_integer@$07@?$output_processor@DV?$string_output_adapter@D@__crt_stdio_output@@V?$positional_parameter_base@DV?$string_output_adapter@D@__crt_stdio_output@@@2@@__crt_stdio_output@@AEAA_N_N@Z 0000000140115c80 f i libucrtd:output.obj
 0001:00115210       ??$type_case_integer@$07@?$output_processor@DV?$string_output_adapter@D@__crt_stdio_output@@V?$standard_base@DV?$string_output_adapter@D@__crt_stdio_output@@@2@@__crt_stdio_output@@AEAA_N_N@Z 0000000140116210 f i libucrtd:output.obj
 0001:001157a0       ??$type_case_integer@$07@?$output_processor@_WV?$stream_output_adapter@_W@__crt_stdio_output@@V?$format_validation_base@_WV?$stream_output_adapter@_W@__crt_stdio_output@@@2@@__crt_stdio_output@@AEAA_N_N@Z 00000001401167a0 f i libucrtd:output.obj
 0001:00115d40       ??$type_case_integer@$07@?$output_processor@_WV?$stream_output_adapter@_W@__crt_stdio_output@@V?$positional_parameter_base@_WV?$stream_output_adapter@_W@__crt_stdio_output@@@2@@__crt_stdio_output@@AEAA_N_N@Z 0000000140116d40 f i libucrtd:output.obj
 0001:001162e0       ??$type_case_integer@$07@?$output_processor@_WV?$stream_output_adapter@_W@__crt_stdio_output@@V?$standard_base@_WV?$stream_output_adapter@_W@__crt_stdio_output@@@2@@__crt_stdio_output@@AEAA_N_N@Z 00000001401172e0 f i libucrtd:output.obj
 0001:00116880       ??$type_case_integer@$07@?$output_processor@_WV?$string_output_adapter@_W@__crt_stdio_output@@V?$format_validation_base@_WV?$string_output_adapter@_W@__crt_stdio_output@@@2@@__crt_stdio_output@@AEAA_N_N@Z 0000000140117880 f i libucrtd:output.obj
 0001:00116e20       ??$type_case_integer@$07@?$output_processor@_WV?$string_output_adapter@_W@__crt_stdio_output@@V?$positional_parameter_base@_WV?$string_output_adapter@_W@__crt_stdio_output@@@2@@__crt_stdio_output@@AEAA_N_N@Z 0000000140117e20 f i libucrtd:output.obj
 0001:001173c0       ??$type_case_integer@$07@?$output_processor@_WV?$string_output_adapter@_W@__crt_stdio_output@@V?$standard_base@_WV?$string_output_adapter@_W@__crt_stdio_output@@@2@@__crt_stdio_output@@AEAA_N_N@Z 00000001401183c0 f i libucrtd:output.obj
 0001:00117960       ??$type_case_integer@$09@?$output_processor@DV?$stream_output_adapter@D@__crt_stdio_output@@V?$format_validation_base@DV?$stream_output_adapter@D@__crt_stdio_output@@@2@@__crt_stdio_output@@AEAA_N_N@Z 0000000140118960 f i libucrtd:output.obj
 0001:00117ef0       ??$type_case_integer@$09@?$output_processor@DV?$stream_output_adapter@D@__crt_stdio_output@@V?$positional_parameter_base@DV?$stream_output_adapter@D@__crt_stdio_output@@@2@@__crt_stdio_output@@AEAA_N_N@Z 0000000140118ef0 f i libucrtd:output.obj
 0001:00118480       ??$type_case_integer@$09@?$output_processor@DV?$stream_output_adapter@D@__crt_stdio_output@@V?$standard_base@DV?$stream_output_adapter@D@__crt_stdio_output@@@2@@__crt_stdio_output@@AEAA_N_N@Z 0000000140119480 f i libucrtd:output.obj
 0001:00118a10       ??$type_case_integer@$09@?$output_processor@DV?$string_output_adapter@D@__crt_stdio_output@@V?$format_validation_base@DV?$string_output_adapter@D@__crt_stdio_output@@@2@@__crt_stdio_output@@AEAA_N_N@Z 0000000140119a10 f i libucrtd:output.obj
 0001:00118fa0       ??$type_case_integer@$09@?$output_processor@DV?$string_output_adapter@D@__crt_stdio_output@@V?$positional_parameter_base@DV?$string_output_adapter@D@__crt_stdio_output@@@2@@__crt_stdio_output@@AEAA_N_N@Z 0000000140119fa0 f i libucrtd:output.obj
 0001:00119530       ??$type_case_integer@$09@?$output_processor@DV?$string_output_adapter@D@__crt_stdio_output@@V?$standard_base@DV?$string_output_adapter@D@__crt_stdio_output@@@2@@__crt_stdio_output@@AEAA_N_N@Z 000000014011a530 f i libucrtd:output.obj
 0001:00119ac0       ??$type_case_integer@$09@?$output_processor@_WV?$stream_output_adapter@_W@__crt_stdio_output@@V?$format_validation_base@_WV?$stream_output_adapter@_W@__crt_stdio_output@@@2@@__crt_stdio_output@@AEAA_N_N@Z 000000014011aac0 f i libucrtd:output.obj
 0001:0011a060       ??$type_case_integer@$09@?$output_processor@_WV?$stream_output_adapter@_W@__crt_stdio_output@@V?$positional_parameter_base@_WV?$stream_output_adapter@_W@__crt_stdio_output@@@2@@__crt_stdio_output@@AEAA_N_N@Z 000000014011b060 f i libucrtd:output.obj
 0001:0011a600       ??$type_case_integer@$09@?$output_processor@_WV?$stream_output_adapter@_W@__crt_stdio_output@@V?$standard_base@_WV?$stream_output_adapter@_W@__crt_stdio_output@@@2@@__crt_stdio_output@@AEAA_N_N@Z 000000014011b600 f i libucrtd:output.obj
 0001:0011aba0       ??$type_case_integer@$09@?$output_processor@_WV?$string_output_adapter@_W@__crt_stdio_output@@V?$format_validation_base@_WV?$string_output_adapter@_W@__crt_stdio_output@@@2@@__crt_stdio_output@@AEAA_N_N@Z 000000014011bba0 f i libucrtd:output.obj
 0001:0011b140       ??$type_case_integer@$09@?$output_processor@_WV?$string_output_adapter@_W@__crt_stdio_output@@V?$positional_parameter_base@_WV?$string_output_adapter@_W@__crt_stdio_output@@@2@@__crt_stdio_output@@AEAA_N_N@Z 000000014011c140 f i libucrtd:output.obj
 0001:0011b6e0       ??$type_case_integer@$09@?$output_processor@_WV?$string_output_adapter@_W@__crt_stdio_output@@V?$standard_base@_WV?$string_output_adapter@_W@__crt_stdio_output@@@2@@__crt_stdio_output@@AEAA_N_N@Z 000000014011c6e0 f i libucrtd:output.obj
 0001:0011bc80       ??$type_case_integer@$0BA@@?$output_processor@DV?$stream_output_adapter@D@__crt_stdio_output@@V?$format_validation_base@DV?$stream_output_adapter@D@__crt_stdio_output@@@2@@__crt_stdio_output@@AEAA_N_N@Z 000000014011cc80 f i libucrtd:output.obj
 0001:0011c210       ??$type_case_integer@$0BA@@?$output_processor@DV?$stream_output_adapter@D@__crt_stdio_output@@V?$positional_parameter_base@DV?$stream_output_adapter@D@__crt_stdio_output@@@2@@__crt_stdio_output@@AEAA_N_N@Z 000000014011d210 f i libucrtd:output.obj
 0001:0011c7a0       ??$type_case_integer@$0BA@@?$output_processor@DV?$stream_output_adapter@D@__crt_stdio_output@@V?$standard_base@DV?$stream_output_adapter@D@__crt_stdio_output@@@2@@__crt_stdio_output@@AEAA_N_N@Z 000000014011d7a0 f i libucrtd:output.obj
 0001:0011cd30       ??$type_case_integer@$0BA@@?$output_processor@DV?$string_output_adapter@D@__crt_stdio_output@@V?$format_validation_base@DV?$string_output_adapter@D@__crt_stdio_output@@@2@@__crt_stdio_output@@AEAA_N_N@Z 000000014011dd30 f i libucrtd:output.obj
 0001:0011d2c0       ??$type_case_integer@$0BA@@?$output_processor@DV?$string_output_adapter@D@__crt_stdio_output@@V?$positional_parameter_base@DV?$string_output_adapter@D@__crt_stdio_output@@@2@@__crt_stdio_output@@AEAA_N_N@Z 000000014011e2c0 f i libucrtd:output.obj
 0001:0011d850       ??$type_case_integer@$0BA@@?$output_processor@DV?$string_output_adapter@D@__crt_stdio_output@@V?$standard_base@DV?$string_output_adapter@D@__crt_stdio_output@@@2@@__crt_stdio_output@@AEAA_N_N@Z 000000014011e850 f i libucrtd:output.obj
 0001:0011dde0       ??$type_case_integer@$0BA@@?$output_processor@_WV?$stream_output_adapter@_W@__crt_stdio_output@@V?$format_validation_base@_WV?$stream_output_adapter@_W@__crt_stdio_output@@@2@@__crt_stdio_output@@AEAA_N_N@Z 000000014011ede0 f i libucrtd:output.obj
 0001:0011e380       ??$type_case_integer@$0BA@@?$output_processor@_WV?$stream_output_adapter@_W@__crt_stdio_output@@V?$positional_parameter_base@_WV?$stream_output_adapter@_W@__crt_stdio_output@@@2@@__crt_stdio_output@@AEAA_N_N@Z 000000014011f380 f i libucrtd:output.obj
 0001:0011e920       ??$type_case_integer@$0BA@@?$output_processor@_WV?$stream_output_adapter@_W@__crt_stdio_output@@V?$standard_base@_WV?$stream_output_adapter@_W@__crt_stdio_output@@@2@@__crt_stdio_output@@AEAA_N_N@Z 000000014011f920 f i libucrtd:output.obj
 0001:0011eec0       ??$type_case_integer@$0BA@@?$output_processor@_WV?$string_output_adapter@_W@__crt_stdio_output@@V?$format_validation_base@_WV?$string_output_adapter@_W@__crt_stdio_output@@@2@@__crt_stdio_output@@AEAA_N_N@Z 000000014011fec0 f i libucrtd:output.obj
 0001:0011f460       ??$type_case_integer@$0BA@@?$output_processor@_WV?$string_output_adapter@_W@__crt_stdio_output@@V?$positional_parameter_base@_WV?$string_output_adapter@_W@__crt_stdio_output@@@2@@__crt_stdio_output@@AEAA_N_N@Z 0000000140120460 f i libucrtd:output.obj
 0001:0011fa00       ??$type_case_integer@$0BA@@?$output_processor@_WV?$string_output_adapter@_W@__crt_stdio_output@@V?$standard_base@_WV?$string_output_adapter@_W@__crt_stdio_output@@@2@@__crt_stdio_output@@AEAA_N_N@Z 0000000140120a00 f i libucrtd:output.obj
 0001:0011ffa0       ??$type_case_integer_parse_into_buffer@I$07@?$output_processor@DV?$stream_output_adapter@D@__crt_stdio_output@@V?$format_validation_base@DV?$stream_output_adapter@D@__crt_stdio_output@@@2@@__crt_stdio_output@@AEAAXI_N@Z 0000000140120fa0 f i libucrtd:output.obj
 0001:00120110       ??$type_case_integer_parse_into_buffer@I$07@?$output_processor@DV?$stream_output_adapter@D@__crt_stdio_output@@V?$positional_parameter_base@DV?$stream_output_adapter@D@__crt_stdio_output@@@2@@__crt_stdio_output@@AEAAXI_N@Z 0000000140121110 f i libucrtd:output.obj
 0001:00120280       ??$type_case_integer_parse_into_buffer@I$07@?$output_processor@DV?$stream_output_adapter@D@__crt_stdio_output@@V?$standard_base@DV?$stream_output_adapter@D@__crt_stdio_output@@@2@@__crt_stdio_output@@AEAAXI_N@Z 0000000140121280 f i libucrtd:output.obj
 0001:001203f0       ??$type_case_integer_parse_into_buffer@I$07@?$output_processor@DV?$string_output_adapter@D@__crt_stdio_output@@V?$format_validation_base@DV?$string_output_adapter@D@__crt_stdio_output@@@2@@__crt_stdio_output@@AEAAXI_N@Z 00000001401213f0 f i libucrtd:output.obj
 0001:00120560       ??$type_case_integer_parse_into_buffer@I$07@?$output_processor@DV?$string_output_adapter@D@__crt_stdio_output@@V?$positional_parameter_base@DV?$string_output_adapter@D@__crt_stdio_output@@@2@@__crt_stdio_output@@AEAAXI_N@Z 0000000140121560 f i libucrtd:output.obj
 0001:001206d0       ??$type_case_integer_parse_into_buffer@I$07@?$output_processor@DV?$string_output_adapter@D@__crt_stdio_output@@V?$standard_base@DV?$string_output_adapter@D@__crt_stdio_output@@@2@@__crt_stdio_output@@AEAAXI_N@Z 00000001401216d0 f i libucrtd:output.obj
 0001:00120840       ??$type_case_integer_parse_into_buffer@I$07@?$output_processor@_WV?$stream_output_adapter@_W@__crt_stdio_output@@V?$format_validation_base@_WV?$stream_output_adapter@_W@__crt_stdio_output@@@2@@__crt_stdio_output@@AEAAXI_N@Z 0000000140121840 f i libucrtd:output.obj
 0001:001209d0       ??$type_case_integer_parse_into_buffer@I$07@?$output_processor@_WV?$stream_output_adapter@_W@__crt_stdio_output@@V?$positional_parameter_base@_WV?$stream_output_adapter@_W@__crt_stdio_output@@@2@@__crt_stdio_output@@AEAAXI_N@Z 00000001401219d0 f i libucrtd:output.obj
 0001:00120b60       ??$type_case_integer_parse_into_buffer@I$07@?$output_processor@_WV?$stream_output_adapter@_W@__crt_stdio_output@@V?$standard_base@_WV?$stream_output_adapter@_W@__crt_stdio_output@@@2@@__crt_stdio_output@@AEAAXI_N@Z 0000000140121b60 f i libucrtd:output.obj
 0001:00120cf0       ??$type_case_integer_parse_into_buffer@I$07@?$output_processor@_WV?$string_output_adapter@_W@__crt_stdio_output@@V?$format_validation_base@_WV?$string_output_adapter@_W@__crt_stdio_output@@@2@@__crt_stdio_output@@AEAAXI_N@Z 0000000140121cf0 f i libucrtd:output.obj
 0001:00120e80       ??$type_case_integer_parse_into_buffer@I$07@?$output_processor@_WV?$string_output_adapter@_W@__crt_stdio_output@@V?$positional_parameter_base@_WV?$string_output_adapter@_W@__crt_stdio_output@@@2@@__crt_stdio_output@@AEAAXI_N@Z 0000000140121e80 f i libucrtd:output.obj
 0001:00121010       ??$type_case_integer_parse_into_buffer@I$07@?$output_processor@_WV?$string_output_adapter@_W@__crt_stdio_output@@V?$standard_base@_WV?$string_output_adapter@_W@__crt_stdio_output@@@2@@__crt_stdio_output@@AEAAXI_N@Z 0000000140122010 f i libucrtd:output.obj
 0001:001211a0       ??$type_case_integer_parse_into_buffer@I$09@?$output_processor@DV?$stream_output_adapter@D@__crt_stdio_output@@V?$format_validation_base@DV?$stream_output_adapter@D@__crt_stdio_output@@@2@@__crt_stdio_output@@AEAAXI_N@Z 00000001401221a0 f i libucrtd:output.obj
 0001:00121310       ??$type_case_integer_parse_into_buffer@I$09@?$output_processor@DV?$stream_output_adapter@D@__crt_stdio_output@@V?$positional_parameter_base@DV?$stream_output_adapter@D@__crt_stdio_output@@@2@@__crt_stdio_output@@AEAAXI_N@Z 0000000140122310 f i libucrtd:output.obj
 0001:00121480       ??$type_case_integer_parse_into_buffer@I$09@?$output_processor@DV?$stream_output_adapter@D@__crt_stdio_output@@V?$standard_base@DV?$stream_output_adapter@D@__crt_stdio_output@@@2@@__crt_stdio_output@@AEAAXI_N@Z 0000000140122480 f i libucrtd:output.obj
 0001:001215f0       ??$type_case_integer_parse_into_buffer@I$09@?$output_processor@DV?$string_output_adapter@D@__crt_stdio_output@@V?$format_validation_base@DV?$string_output_adapter@D@__crt_stdio_output@@@2@@__crt_stdio_output@@AEAAXI_N@Z 00000001401225f0 f i libucrtd:output.obj
 0001:00121760       ??$type_case_integer_parse_into_buffer@I$09@?$output_processor@DV?$string_output_adapter@D@__crt_stdio_output@@V?$positional_parameter_base@DV?$string_output_adapter@D@__crt_stdio_output@@@2@@__crt_stdio_output@@AEAAXI_N@Z 0000000140122760 f i libucrtd:output.obj
 0001:001218d0       ??$type_case_integer_parse_into_buffer@I$09@?$output_processor@DV?$string_output_adapter@D@__crt_stdio_output@@V?$standard_base@DV?$string_output_adapter@D@__crt_stdio_output@@@2@@__crt_stdio_output@@AEAAXI_N@Z 00000001401228d0 f i libucrtd:output.obj
 0001:00121a40       ??$type_case_integer_parse_into_buffer@I$09@?$output_processor@_WV?$stream_output_adapter@_W@__crt_stdio_output@@V?$format_validation_base@_WV?$stream_output_adapter@_W@__crt_stdio_output@@@2@@__crt_stdio_output@@AEAAXI_N@Z 0000000140122a40 f i libucrtd:output.obj
 0001:00121bd0       ??$type_case_integer_parse_into_buffer@I$09@?$output_processor@_WV?$stream_output_adapter@_W@__crt_stdio_output@@V?$positional_parameter_base@_WV?$stream_output_adapter@_W@__crt_stdio_output@@@2@@__crt_stdio_output@@AEAAXI_N@Z 0000000140122bd0 f i libucrtd:output.obj
 0001:00121d60       ??$type_case_integer_parse_into_buffer@I$09@?$output_processor@_WV?$stream_output_adapter@_W@__crt_stdio_output@@V?$standard_base@_WV?$stream_output_adapter@_W@__crt_stdio_output@@@2@@__crt_stdio_output@@AEAAXI_N@Z 0000000140122d60 f i libucrtd:output.obj
 0001:00121ef0       ??$type_case_integer_parse_into_buffer@I$09@?$output_processor@_WV?$string_output_adapter@_W@__crt_stdio_output@@V?$format_validation_base@_WV?$string_output_adapter@_W@__crt_stdio_output@@@2@@__crt_stdio_output@@AEAAXI_N@Z 0000000140122ef0 f i libucrtd:output.obj
 0001:00122080       ??$type_case_integer_parse_into_buffer@I$09@?$output_processor@_WV?$string_output_adapter@_W@__crt_stdio_output@@V?$positional_parameter_base@_WV?$string_output_adapter@_W@__crt_stdio_output@@@2@@__crt_stdio_output@@AEAAXI_N@Z 0000000140123080 f i libucrtd:output.obj
 0001:00122210       ??$type_case_integer_parse_into_buffer@I$09@?$output_processor@_WV?$string_output_adapter@_W@__crt_stdio_output@@V?$standard_base@_WV?$string_output_adapter@_W@__crt_stdio_output@@@2@@__crt_stdio_output@@AEAAXI_N@Z 0000000140123210 f i libucrtd:output.obj
 0001:001223a0       ??$type_case_integer_parse_into_buffer@I$0BA@@?$output_processor@DV?$stream_output_adapter@D@__crt_stdio_output@@V?$format_validation_base@DV?$stream_output_adapter@D@__crt_stdio_output@@@2@@__crt_stdio_output@@AEAAXI_N@Z 00000001401233a0 f i libucrtd:output.obj
 0001:00122510       ??$type_case_integer_parse_into_buffer@I$0BA@@?$output_processor@DV?$stream_output_adapter@D@__crt_stdio_output@@V?$positional_parameter_base@DV?$stream_output_adapter@D@__crt_stdio_output@@@2@@__crt_stdio_output@@AEAAXI_N@Z 0000000140123510 f i libucrtd:output.obj
 0001:00122680       ??$type_case_integer_parse_into_buffer@I$0BA@@?$output_processor@DV?$stream_output_adapter@D@__crt_stdio_output@@V?$standard_base@DV?$stream_output_adapter@D@__crt_stdio_output@@@2@@__crt_stdio_output@@AEAAXI_N@Z 0000000140123680 f i libucrtd:output.obj
 0001:001227f0       ??$type_case_integer_parse_into_buffer@I$0BA@@?$output_processor@DV?$string_output_adapter@D@__crt_stdio_output@@V?$format_validation_base@DV?$string_output_adapter@D@__crt_stdio_output@@@2@@__crt_stdio_output@@AEAAXI_N@Z 00000001401237f0 f i libucrtd:output.obj
 0001:00122960       ??$type_case_integer_parse_into_buffer@I$0BA@@?$output_processor@DV?$string_output_adapter@D@__crt_stdio_output@@V?$positional_parameter_base@DV?$string_output_adapter@D@__crt_stdio_output@@@2@@__crt_stdio_output@@AEAAXI_N@Z 0000000140123960 f i libucrtd:output.obj
 0001:00122ad0       ??$type_case_integer_parse_into_buffer@I$0BA@@?$output_processor@DV?$string_output_adapter@D@__crt_stdio_output@@V?$standard_base@DV?$string_output_adapter@D@__crt_stdio_output@@@2@@__crt_stdio_output@@AEAAXI_N@Z 0000000140123ad0 f i libucrtd:output.obj
 0001:00122c40       ??$type_case_integer_parse_into_buffer@I$0BA@@?$output_processor@_WV?$stream_output_adapter@_W@__crt_stdio_output@@V?$format_validation_base@_WV?$stream_output_adapter@_W@__crt_stdio_output@@@2@@__crt_stdio_output@@AEAAXI_N@Z 0000000140123c40 f i libucrtd:output.obj
 0001:00122dd0       ??$type_case_integer_parse_into_buffer@I$0BA@@?$output_processor@_WV?$stream_output_adapter@_W@__crt_stdio_output@@V?$positional_parameter_base@_WV?$stream_output_adapter@_W@__crt_stdio_output@@@2@@__crt_stdio_output@@AEAAXI_N@Z 0000000140123dd0 f i libucrtd:output.obj
 0001:00122f60       ??$type_case_integer_parse_into_buffer@I$0BA@@?$output_processor@_WV?$stream_output_adapter@_W@__crt_stdio_output@@V?$standard_base@_WV?$stream_output_adapter@_W@__crt_stdio_output@@@2@@__crt_stdio_output@@AEAAXI_N@Z 0000000140123f60 f i libucrtd:output.obj
 0001:001230f0       ??$type_case_integer_parse_into_buffer@I$0BA@@?$output_processor@_WV?$string_output_adapter@_W@__crt_stdio_output@@V?$format_validation_base@_WV?$string_output_adapter@_W@__crt_stdio_output@@@2@@__crt_stdio_output@@AEAAXI_N@Z 00000001401240f0 f i libucrtd:output.obj
 0001:00123280       ??$type_case_integer_parse_into_buffer@I$0BA@@?$output_processor@_WV?$string_output_adapter@_W@__crt_stdio_output@@V?$positional_parameter_base@_WV?$string_output_adapter@_W@__crt_stdio_output@@@2@@__crt_stdio_output@@AEAAXI_N@Z 0000000140124280 f i libucrtd:output.obj
 0001:00123410       ??$type_case_integer_parse_into_buffer@I$0BA@@?$output_processor@_WV?$string_output_adapter@_W@__crt_stdio_output@@V?$standard_base@_WV?$string_output_adapter@_W@__crt_stdio_output@@@2@@__crt_stdio_output@@AEAAXI_N@Z 0000000140124410 f i libucrtd:output.obj
 0001:001235a0       ??$type_case_integer_parse_into_buffer@_K$07@?$output_processor@DV?$stream_output_adapter@D@__crt_stdio_output@@V?$format_validation_base@DV?$stream_output_adapter@D@__crt_stdio_output@@@2@@__crt_stdio_output@@AEAAX_K_N@Z 00000001401245a0 f i libucrtd:output.obj
 0001:00123720       ??$type_case_integer_parse_into_buffer@_K$07@?$output_processor@DV?$stream_output_adapter@D@__crt_stdio_output@@V?$positional_parameter_base@DV?$stream_output_adapter@D@__crt_stdio_output@@@2@@__crt_stdio_output@@AEAAX_K_N@Z 0000000140124720 f i libucrtd:output.obj
 0001:001238a0       ??$type_case_integer_parse_into_buffer@_K$07@?$output_processor@DV?$stream_output_adapter@D@__crt_stdio_output@@V?$standard_base@DV?$stream_output_adapter@D@__crt_stdio_output@@@2@@__crt_stdio_output@@AEAAX_K_N@Z 00000001401248a0 f i libucrtd:output.obj
 0001:00123a20       ??$type_case_integer_parse_into_buffer@_K$07@?$output_processor@DV?$string_output_adapter@D@__crt_stdio_output@@V?$format_validation_base@DV?$string_output_adapter@D@__crt_stdio_output@@@2@@__crt_stdio_output@@AEAAX_K_N@Z 0000000140124a20 f i libucrtd:output.obj
 0001:00123ba0       ??$type_case_integer_parse_into_buffer@_K$07@?$output_processor@DV?$string_output_adapter@D@__crt_stdio_output@@V?$positional_parameter_base@DV?$string_output_adapter@D@__crt_stdio_output@@@2@@__crt_stdio_output@@AEAAX_K_N@Z 0000000140124ba0 f i libucrtd:output.obj
 0001:00123d20       ??$type_case_integer_parse_into_buffer@_K$07@?$output_processor@DV?$string_output_adapter@D@__crt_stdio_output@@V?$standard_base@DV?$string_output_adapter@D@__crt_stdio_output@@@2@@__crt_stdio_output@@AEAAX_K_N@Z 0000000140124d20 f i libucrtd:output.obj
 0001:00123ea0       ??$type_case_integer_parse_into_buffer@_K$07@?$output_processor@_WV?$stream_output_adapter@_W@__crt_stdio_output@@V?$format_validation_base@_WV?$stream_output_adapter@_W@__crt_stdio_output@@@2@@__crt_stdio_output@@AEAAX_K_N@Z 0000000140124ea0 f i libucrtd:output.obj
 0001:00124030       ??$type_case_integer_parse_into_buffer@_K$07@?$output_processor@_WV?$stream_output_adapter@_W@__crt_stdio_output@@V?$positional_parameter_base@_WV?$stream_output_adapter@_W@__crt_stdio_output@@@2@@__crt_stdio_output@@AEAAX_K_N@Z 0000000140125030 f i libucrtd:output.obj
 0001:001241c0       ??$type_case_integer_parse_into_buffer@_K$07@?$output_processor@_WV?$stream_output_adapter@_W@__crt_stdio_output@@V?$standard_base@_WV?$stream_output_adapter@_W@__crt_stdio_output@@@2@@__crt_stdio_output@@AEAAX_K_N@Z 00000001401251c0 f i libucrtd:output.obj
 0001:00124350       ??$type_case_integer_parse_into_buffer@_K$07@?$output_processor@_WV?$string_output_adapter@_W@__crt_stdio_output@@V?$format_validation_base@_WV?$string_output_adapter@_W@__crt_stdio_output@@@2@@__crt_stdio_output@@AEAAX_K_N@Z 0000000140125350 f i libucrtd:output.obj
 0001:001244e0       ??$type_case_integer_parse_into_buffer@_K$07@?$output_processor@_WV?$string_output_adapter@_W@__crt_stdio_output@@V?$positional_parameter_base@_WV?$string_output_adapter@_W@__crt_stdio_output@@@2@@__crt_stdio_output@@AEAAX_K_N@Z 00000001401254e0 f i libucrtd:output.obj
 0001:00124670       ??$type_case_integer_parse_into_buffer@_K$07@?$output_processor@_WV?$string_output_adapter@_W@__crt_stdio_output@@V?$standard_base@_WV?$string_output_adapter@_W@__crt_stdio_output@@@2@@__crt_stdio_output@@AEAAX_K_N@Z 0000000140125670 f i libucrtd:output.obj
 0001:00124800       ??$type_case_integer_parse_into_buffer@_K$09@?$output_processor@DV?$stream_output_adapter@D@__crt_stdio_output@@V?$format_validation_base@DV?$stream_output_adapter@D@__crt_stdio_output@@@2@@__crt_stdio_output@@AEAAX_K_N@Z 0000000140125800 f i libucrtd:output.obj
 0001:00124980       ??$type_case_integer_parse_into_buffer@_K$09@?$output_processor@DV?$stream_output_adapter@D@__crt_stdio_output@@V?$positional_parameter_base@DV?$stream_output_adapter@D@__crt_stdio_output@@@2@@__crt_stdio_output@@AEAAX_K_N@Z 0000000140125980 f i libucrtd:output.obj
 0001:00124b00       ??$type_case_integer_parse_into_buffer@_K$09@?$output_processor@DV?$stream_output_adapter@D@__crt_stdio_output@@V?$standard_base@DV?$stream_output_adapter@D@__crt_stdio_output@@@2@@__crt_stdio_output@@AEAAX_K_N@Z 0000000140125b00 f i libucrtd:output.obj
 0001:00124c80       ??$type_case_integer_parse_into_buffer@_K$09@?$output_processor@DV?$string_output_adapter@D@__crt_stdio_output@@V?$format_validation_base@DV?$string_output_adapter@D@__crt_stdio_output@@@2@@__crt_stdio_output@@AEAAX_K_N@Z 0000000140125c80 f i libucrtd:output.obj
 0001:00124e00       ??$type_case_integer_parse_into_buffer@_K$09@?$output_processor@DV?$string_output_adapter@D@__crt_stdio_output@@V?$positional_parameter_base@DV?$string_output_adapter@D@__crt_stdio_output@@@2@@__crt_stdio_output@@AEAAX_K_N@Z 0000000140125e00 f i libucrtd:output.obj
 0001:00124f80       ??$type_case_integer_parse_into_buffer@_K$09@?$output_processor@DV?$string_output_adapter@D@__crt_stdio_output@@V?$standard_base@DV?$string_output_adapter@D@__crt_stdio_output@@@2@@__crt_stdio_output@@AEAAX_K_N@Z 0000000140125f80 f i libucrtd:output.obj
 0001:00125100       ??$type_case_integer_parse_into_buffer@_K$09@?$output_processor@_WV?$stream_output_adapter@_W@__crt_stdio_output@@V?$format_validation_base@_WV?$stream_output_adapter@_W@__crt_stdio_output@@@2@@__crt_stdio_output@@AEAAX_K_N@Z 0000000140126100 f i libucrtd:output.obj
 0001:00125290       ??$type_case_integer_parse_into_buffer@_K$09@?$output_processor@_WV?$stream_output_adapter@_W@__crt_stdio_output@@V?$positional_parameter_base@_WV?$stream_output_adapter@_W@__crt_stdio_output@@@2@@__crt_stdio_output@@AEAAX_K_N@Z 0000000140126290 f i libucrtd:output.obj
 0001:00125420       ??$type_case_integer_parse_into_buffer@_K$09@?$output_processor@_WV?$stream_output_adapter@_W@__crt_stdio_output@@V?$standard_base@_WV?$stream_output_adapter@_W@__crt_stdio_output@@@2@@__crt_stdio_output@@AEAAX_K_N@Z 0000000140126420 f i libucrtd:output.obj
 0001:001255b0       ??$type_case_integer_parse_into_buffer@_K$09@?$output_processor@_WV?$string_output_adapter@_W@__crt_stdio_output@@V?$format_validation_base@_WV?$string_output_adapter@_W@__crt_stdio_output@@@2@@__crt_stdio_output@@AEAAX_K_N@Z 00000001401265b0 f i libucrtd:output.obj
 0001:00125740       ??$type_case_integer_parse_into_buffer@_K$09@?$output_processor@_WV?$string_output_adapter@_W@__crt_stdio_output@@V?$positional_parameter_base@_WV?$string_output_adapter@_W@__crt_stdio_output@@@2@@__crt_stdio_output@@AEAAX_K_N@Z 0000000140126740 f i libucrtd:output.obj
 0001:001258d0       ??$type_case_integer_parse_into_buffer@_K$09@?$output_processor@_WV?$string_output_adapter@_W@__crt_stdio_output@@V?$standard_base@_WV?$string_output_adapter@_W@__crt_stdio_output@@@2@@__crt_stdio_output@@AEAAX_K_N@Z 00000001401268d0 f i libucrtd:output.obj
 0001:00125a60       ??$type_case_integer_parse_into_buffer@_K$0BA@@?$output_processor@DV?$stream_output_adapter@D@__crt_stdio_output@@V?$format_validation_base@DV?$stream_output_adapter@D@__crt_stdio_output@@@2@@__crt_stdio_output@@AEAAX_K_N@Z 0000000140126a60 f i libucrtd:output.obj
 0001:00125be0       ??$type_case_integer_parse_into_buffer@_K$0BA@@?$output_processor@DV?$stream_output_adapter@D@__crt_stdio_output@@V?$positional_parameter_base@DV?$stream_output_adapter@D@__crt_stdio_output@@@2@@__crt_stdio_output@@AEAAX_K_N@Z 0000000140126be0 f i libucrtd:output.obj
 0001:00125d60       ??$type_case_integer_parse_into_buffer@_K$0BA@@?$output_processor@DV?$stream_output_adapter@D@__crt_stdio_output@@V?$standard_base@DV?$stream_output_adapter@D@__crt_stdio_output@@@2@@__crt_stdio_output@@AEAAX_K_N@Z 0000000140126d60 f i libucrtd:output.obj
 0001:00125ee0       ??$type_case_integer_parse_into_buffer@_K$0BA@@?$output_processor@DV?$string_output_adapter@D@__crt_stdio_output@@V?$format_validation_base@DV?$string_output_adapter@D@__crt_stdio_output@@@2@@__crt_stdio_output@@AEAAX_K_N@Z 0000000140126ee0 f i libucrtd:output.obj
 0001:00126060       ??$type_case_integer_parse_into_buffer@_K$0BA@@?$output_processor@DV?$string_output_adapter@D@__crt_stdio_output@@V?$positional_parameter_base@DV?$string_output_adapter@D@__crt_stdio_output@@@2@@__crt_stdio_output@@AEAAX_K_N@Z 0000000140127060 f i libucrtd:output.obj
 0001:001261e0       ??$type_case_integer_parse_into_buffer@_K$0BA@@?$output_processor@DV?$string_output_adapter@D@__crt_stdio_output@@V?$standard_base@DV?$string_output_adapter@D@__crt_stdio_output@@@2@@__crt_stdio_output@@AEAAX_K_N@Z 00000001401271e0 f i libucrtd:output.obj
 0001:00126360       ??$type_case_integer_parse_into_buffer@_K$0BA@@?$output_processor@_WV?$stream_output_adapter@_W@__crt_stdio_output@@V?$format_validation_base@_WV?$stream_output_adapter@_W@__crt_stdio_output@@@2@@__crt_stdio_output@@AEAAX_K_N@Z 0000000140127360 f i libucrtd:output.obj
 0001:001264f0       ??$type_case_integer_parse_into_buffer@_K$0BA@@?$output_processor@_WV?$stream_output_adapter@_W@__crt_stdio_output@@V?$positional_parameter_base@_WV?$stream_output_adapter@_W@__crt_stdio_output@@@2@@__crt_stdio_output@@AEAAX_K_N@Z 00000001401274f0 f i libucrtd:output.obj
 0001:00126680       ??$type_case_integer_parse_into_buffer@_K$0BA@@?$output_processor@_WV?$stream_output_adapter@_W@__crt_stdio_output@@V?$standard_base@_WV?$stream_output_adapter@_W@__crt_stdio_output@@@2@@__crt_stdio_output@@AEAAX_K_N@Z 0000000140127680 f i libucrtd:output.obj
 0001:00126810       ??$type_case_integer_parse_into_buffer@_K$0BA@@?$output_processor@_WV?$string_output_adapter@_W@__crt_stdio_output@@V?$format_validation_base@_WV?$string_output_adapter@_W@__crt_stdio_output@@@2@@__crt_stdio_output@@AEAAX_K_N@Z 0000000140127810 f i libucrtd:output.obj
 0001:001269a0       ??$type_case_integer_parse_into_buffer@_K$0BA@@?$output_processor@_WV?$string_output_adapter@_W@__crt_stdio_output@@V?$positional_parameter_base@_WV?$string_output_adapter@_W@__crt_stdio_output@@@2@@__crt_stdio_output@@AEAAX_K_N@Z 00000001401279a0 f i libucrtd:output.obj
 0001:00126b30       ??$type_case_integer_parse_into_buffer@_K$0BA@@?$output_processor@_WV?$string_output_adapter@_W@__crt_stdio_output@@V?$standard_base@_WV?$string_output_adapter@_W@__crt_stdio_output@@@2@@__crt_stdio_output@@AEAAX_K_N@Z 0000000140127b30 f i libucrtd:output.obj
 0001:00126cc0       ??$write_multiple_characters@V?$stream_output_adapter@D@__crt_stdio_output@@D@__crt_stdio_output@@YAXAEBV?$stream_output_adapter@D@0@DHQEAHAEAV__crt_cached_ptd_host@@@Z 0000000140127cc0 f i libucrtd:output.obj
 0001:00126d40       ??$write_multiple_characters@V?$stream_output_adapter@_W@__crt_stdio_output@@D@__crt_stdio_output@@YAXAEBV?$stream_output_adapter@_W@0@DHQEAHAEAV__crt_cached_ptd_host@@@Z 0000000140127d40 f i libucrtd:output.obj
 0001:00126dc0       ??$write_multiple_characters@V?$string_output_adapter@D@__crt_stdio_output@@D@__crt_stdio_output@@YAXAEBV?$string_output_adapter@D@0@DHQEAHAEAV__crt_cached_ptd_host@@@Z 0000000140127dc0 f i libucrtd:output.obj
 0001:00126e40       ??$write_multiple_characters@V?$string_output_adapter@_W@__crt_stdio_output@@D@__crt_stdio_output@@YAXAEBV?$string_output_adapter@_W@0@DHQEAHAEAV__crt_cached_ptd_host@@@Z 0000000140127e40 f i libucrtd:output.obj
 0001:00127400       ??0?$c_string_character_source@D@__crt_strtox@@QEAA@QEBDQEAPEBD@Z 0000000140128400 f i libucrtd:output.obj
 0001:00127460       ??0?$c_string_character_source@_W@__crt_strtox@@QEAA@QEB_WQEAPEB_W@Z 0000000140128460 f i libucrtd:output.obj
 0001:001274c0       ??0?$cached@H@__crt_cached_ptd_host@@QEAA@XZ 00000001401284c0 f i libucrtd:output.obj
 0001:001274e0       ??0?$cached@K@__crt_cached_ptd_host@@QEAA@XZ 00000001401284e0 f i libucrtd:output.obj
 0001:00127500       ??0?$common_data@D@__crt_stdio_output@@IEAA@AEAV__crt_cached_ptd_host@@@Z 0000000140128500 f i libucrtd:output.obj
 0001:001275f0       ??0?$common_data@_W@__crt_stdio_output@@IEAA@AEAV__crt_cached_ptd_host@@@Z 00000001401285f0 f i libucrtd:output.obj
 0001:001276e0       ??0?$output_adapter_data@DV?$stream_output_adapter@D@__crt_stdio_output@@@__crt_stdio_output@@IEAA@AEBV?$stream_output_adapter@D@1@_KQEBDAEAV__crt_cached_ptd_host@@QEAD@Z 00000001401286e0 f i libucrtd:output.obj
 0001:00127780       ??0?$output_adapter_data@DV?$string_output_adapter@D@__crt_stdio_output@@@__crt_stdio_output@@IEAA@AEBV?$string_output_adapter@D@1@_KQEBDAEAV__crt_cached_ptd_host@@QEAD@Z 0000000140128780 f i libucrtd:output.obj
 0001:00127820       ??0?$output_adapter_data@_WV?$stream_output_adapter@_W@__crt_stdio_output@@@__crt_stdio_output@@IEAA@AEBV?$stream_output_adapter@_W@1@_KQEB_WAEAV__crt_cached_ptd_host@@QEAD@Z 0000000140128820 f i libucrtd:output.obj
 0001:001278c0       ??0?$output_adapter_data@_WV?$string_output_adapter@_W@__crt_stdio_output@@@__crt_stdio_output@@IEAA@AEBV?$string_output_adapter@_W@1@_KQEB_WAEAV__crt_cached_ptd_host@@QEAD@Z 00000001401288c0 f i libucrtd:output.obj
 0001:00127960       ??0?$output_processor@DV?$stream_output_adapter@D@__crt_stdio_output@@V?$format_validation_base@DV?$stream_output_adapter@D@__crt_stdio_output@@@2@@__crt_stdio_output@@QEAA@AEBV?$stream_output_adapter@D@1@_KQEBDAEAV__crt_cached_ptd_host@@QEAD@Z 0000000140128960 f i libucrtd:output.obj
 0001:001279d0       ??0?$output_processor@DV?$stream_output_adapter@D@__crt_stdio_output@@V?$positional_parameter_base@DV?$stream_output_adapter@D@__crt_stdio_output@@@2@@__crt_stdio_output@@QEAA@AEBV?$stream_output_adapter@D@1@_KQEBDAEAV__crt_cached_ptd_host@@QEAD@Z 00000001401289d0 f i libucrtd:output.obj
 0001:00127a40       ??0?$output_processor@DV?$stream_output_adapter@D@__crt_stdio_output@@V?$standard_base@DV?$stream_output_adapter@D@__crt_stdio_output@@@2@@__crt_stdio_output@@QEAA@AEBV?$stream_output_adapter@D@1@_KQEBDAEAV__crt_cached_ptd_host@@QEAD@Z 0000000140128a40 f i libucrtd:output.obj
 0001:00127ab0       ??0?$output_processor@DV?$string_output_adapter@D@__crt_stdio_output@@V?$format_validation_base@DV?$string_output_adapter@D@__crt_stdio_output@@@2@@__crt_stdio_output@@QEAA@AEBV?$string_output_adapter@D@1@_KQEBDAEAV__crt_cached_ptd_host@@QEAD@Z 0000000140128ab0 f i libucrtd:output.obj
 0001:00127b20       ??0?$output_processor@DV?$string_output_adapter@D@__crt_stdio_output@@V?$positional_parameter_base@DV?$string_output_adapter@D@__crt_stdio_output@@@2@@__crt_stdio_output@@QEAA@AEBV?$string_output_adapter@D@1@_KQEBDAEAV__crt_cached_ptd_host@@QEAD@Z 0000000140128b20 f i libucrtd:output.obj
 0001:00127b90       ??0?$output_processor@DV?$string_output_adapter@D@__crt_stdio_output@@V?$standard_base@DV?$string_output_adapter@D@__crt_stdio_output@@@2@@__crt_stdio_output@@QEAA@AEBV?$string_output_adapter@D@1@_KQEBDAEAV__crt_cached_ptd_host@@QEAD@Z 0000000140128b90 f i libucrtd:output.obj
 0001:00127c00       ??0?$output_processor@_WV?$stream_output_adapter@_W@__crt_stdio_output@@V?$format_validation_base@_WV?$stream_output_adapter@_W@__crt_stdio_output@@@2@@__crt_stdio_output@@QEAA@AEBV?$stream_output_adapter@_W@1@_KQEB_WAEAV__crt_cached_ptd_host@@QEAD@Z 0000000140128c00 f i libucrtd:output.obj
 0001:00127c70       ??0?$output_processor@_WV?$stream_output_adapter@_W@__crt_stdio_output@@V?$positional_parameter_base@_WV?$stream_output_adapter@_W@__crt_stdio_output@@@2@@__crt_stdio_output@@QEAA@AEBV?$stream_output_adapter@_W@1@_KQEB_WAEAV__crt_cached_ptd_host@@QEAD@Z 0000000140128c70 f i libucrtd:output.obj
 0001:00127ce0       ??0?$output_processor@_WV?$stream_output_adapter@_W@__crt_stdio_output@@V?$standard_base@_WV?$stream_output_adapter@_W@__crt_stdio_output@@@2@@__crt_stdio_output@@QEAA@AEBV?$stream_output_adapter@_W@1@_KQEB_WAEAV__crt_cached_ptd_host@@QEAD@Z 0000000140128ce0 f i libucrtd:output.obj
 0001:00127d50       ??0?$output_processor@_WV?$string_output_adapter@_W@__crt_stdio_output@@V?$format_validation_base@_WV?$string_output_adapter@_W@__crt_stdio_output@@@2@@__crt_stdio_output@@QEAA@AEBV?$string_output_adapter@_W@1@_KQEB_WAEAV__crt_cached_ptd_host@@QEAD@Z 0000000140128d50 f i libucrtd:output.obj
 0001:00127dc0       ??0?$output_processor@_WV?$string_output_adapter@_W@__crt_stdio_output@@V?$positional_parameter_base@_WV?$string_output_adapter@_W@__crt_stdio_output@@@2@@__crt_stdio_output@@QEAA@AEBV?$string_output_adapter@_W@1@_KQEB_WAEAV__crt_cached_ptd_host@@QEAD@Z 0000000140128dc0 f i libucrtd:output.obj
 0001:00127e30       ??0?$output_processor@_WV?$string_output_adapter@_W@__crt_stdio_output@@V?$standard_base@_WV?$string_output_adapter@_W@__crt_stdio_output@@@2@@__crt_stdio_output@@QEAA@AEBV?$string_output_adapter@_W@1@_KQEB_WAEAV__crt_cached_ptd_host@@QEAD@Z 0000000140128e30 f i libucrtd:output.obj
 0001:00127ea0       ??0?$stream_output_adapter@D@__crt_stdio_output@@QEAA@QEAU_iobuf@@@Z 0000000140128ea0 f i libucrtd:output.obj
 0001:00127ee0       ??0?$stream_output_adapter@_W@__crt_stdio_output@@QEAA@QEAU_iobuf@@@Z 0000000140128ee0 f i libucrtd:output.obj
 0001:00127f20       ??0?$string_output_adapter@D@__crt_stdio_output@@QEAA@QEAU?$string_output_adapter_context@D@1@@Z 0000000140128f20 f i libucrtd:output.obj
 0001:00127f50       ??0?$string_output_adapter@_W@__crt_stdio_output@@QEAA@QEAU?$string_output_adapter_context@_W@1@@Z 0000000140128f50 f i libucrtd:output.obj
 0001:00127f80       ??0__acrt_stdio_temporary_buffering_guard@@QEAA@QEAU_iobuf@@AEAV__crt_cached_ptd_host@@@Z 0000000140128f80 f i libucrtd:output.obj
 0001:00127fe0       ??0__crt_cached_ptd_host@@QEAA@QEAU__crt_locale_pointers@@@Z 0000000140128fe0 f i libucrtd:output.obj
 0001:001280c0       ??0__crt_scoped_get_last_error_reset@@QEAA@XZ 00000001401290c0 f i libucrtd:output.obj
 0001:001280f0       ??0__crt_stdio_stream@@QEAA@QEAU_iobuf@@@Z 00000001401290f0 f i libucrtd:output.obj
 0001:00128120       ??0formatting_buffer@__crt_stdio_output@@QEAA@XZ 0000000140129120 f i libucrtd:output.obj
 0001:00128170       ??0guard@?$cached@H@__crt_cached_ptd_host@@QEAA@AEAU12@@Z 0000000140129170 f i libucrtd:output.obj
 0001:001281c0       ??1?$c_string_character_source@D@__crt_strtox@@QEAA@XZ 00000001401291c0 f i libucrtd:output.obj
 0001:001281f0       ??1?$c_string_character_source@_W@__crt_strtox@@QEAA@XZ 00000001401291f0 f i libucrtd:output.obj
 0001:00128220       ??1?$common_data@D@__crt_stdio_output@@QEAA@XZ 0000000140129220 f i libucrtd:output.obj
 0001:00128250       ??1?$common_data@_W@__crt_stdio_output@@QEAA@XZ 0000000140129250 f i libucrtd:output.obj
 0001:00128280       ??1?$format_validation_base@DV?$stream_output_adapter@D@__crt_stdio_output@@@__crt_stdio_output@@QEAA@XZ 0000000140129280 f i libucrtd:output.obj
 0001:001282a0       ??1?$format_validation_base@DV?$string_output_adapter@D@__crt_stdio_output@@@__crt_stdio_output@@QEAA@XZ 00000001401292a0 f i libucrtd:output.obj
 0001:001282c0       ??1?$format_validation_base@_WV?$stream_output_adapter@_W@__crt_stdio_output@@@__crt_stdio_output@@QEAA@XZ 00000001401292c0 f i libucrtd:output.obj
 0001:001282e0       ??1?$format_validation_base@_WV?$string_output_adapter@_W@__crt_stdio_output@@@__crt_stdio_output@@QEAA@XZ 00000001401292e0 f i libucrtd:output.obj
 0001:00128300       ??1?$output_adapter_data@DV?$stream_output_adapter@D@__crt_stdio_output@@@__crt_stdio_output@@QEAA@XZ 0000000140129300 f i libucrtd:output.obj
 0001:00128320       ??1?$output_adapter_data@DV?$string_output_adapter@D@__crt_stdio_output@@@__crt_stdio_output@@QEAA@XZ 0000000140129320 f i libucrtd:output.obj
 0001:00128340       ??1?$output_adapter_data@_WV?$stream_output_adapter@_W@__crt_stdio_output@@@__crt_stdio_output@@QEAA@XZ 0000000140129340 f i libucrtd:output.obj
 0001:00128360       ??1?$output_adapter_data@_WV?$string_output_adapter@_W@__crt_stdio_output@@@__crt_stdio_output@@QEAA@XZ 0000000140129360 f i libucrtd:output.obj
 0001:00128380       ??1?$output_processor@DV?$stream_output_adapter@D@__crt_stdio_output@@V?$format_validation_base@DV?$stream_output_adapter@D@__crt_stdio_output@@@2@@__crt_stdio_output@@QEAA@XZ 0000000140129380 f i libucrtd:output.obj
 0001:001283a0       ??1?$output_processor@DV?$stream_output_adapter@D@__crt_stdio_output@@V?$positional_parameter_base@DV?$stream_output_adapter@D@__crt_stdio_output@@@2@@__crt_stdio_output@@QEAA@XZ 00000001401293a0 f i libucrtd:output.obj
 0001:001283c0       ??1?$output_processor@DV?$stream_output_adapter@D@__crt_stdio_output@@V?$standard_base@DV?$stream_output_adapter@D@__crt_stdio_output@@@2@@__crt_stdio_output@@QEAA@XZ 00000001401293c0 f i libucrtd:output.obj
 0001:001283e0       ??1?$output_processor@DV?$string_output_adapter@D@__crt_stdio_output@@V?$format_validation_base@DV?$string_output_adapter@D@__crt_stdio_output@@@2@@__crt_stdio_output@@QEAA@XZ 00000001401293e0 f i libucrtd:output.obj
 0001:00128400       ??1?$output_processor@DV?$string_output_adapter@D@__crt_stdio_output@@V?$positional_parameter_base@DV?$string_output_adapter@D@__crt_stdio_output@@@2@@__crt_stdio_output@@QEAA@XZ 0000000140129400 f i libucrtd:output.obj
 0001:00128420       ??1?$output_processor@DV?$string_output_adapter@D@__crt_stdio_output@@V?$standard_base@DV?$string_output_adapter@D@__crt_stdio_output@@@2@@__crt_stdio_output@@QEAA@XZ 0000000140129420 f i libucrtd:output.obj
 0001:00128440       ??1?$output_processor@_WV?$stream_output_adapter@_W@__crt_stdio_output@@V?$format_validation_base@_WV?$stream_output_adapter@_W@__crt_stdio_output@@@2@@__crt_stdio_output@@QEAA@XZ 0000000140129440 f i libucrtd:output.obj
 0001:00128460       ??1?$output_processor@_WV?$stream_output_adapter@_W@__crt_stdio_output@@V?$positional_parameter_base@_WV?$stream_output_adapter@_W@__crt_stdio_output@@@2@@__crt_stdio_output@@QEAA@XZ 0000000140129460 f i libucrtd:output.obj
 0001:00128480       ??1?$output_processor@_WV?$stream_output_adapter@_W@__crt_stdio_output@@V?$standard_base@_WV?$stream_output_adapter@_W@__crt_stdio_output@@@2@@__crt_stdio_output@@QEAA@XZ 0000000140129480 f i libucrtd:output.obj
 0001:001284a0       ??1?$output_processor@_WV?$string_output_adapter@_W@__crt_stdio_output@@V?$format_validation_base@_WV?$string_output_adapter@_W@__crt_stdio_output@@@2@@__crt_stdio_output@@QEAA@XZ 00000001401294a0 f i libucrtd:output.obj
 0001:001284c0       ??1?$output_processor@_WV?$string_output_adapter@_W@__crt_stdio_output@@V?$positional_parameter_base@_WV?$string_output_adapter@_W@__crt_stdio_output@@@2@@__crt_stdio_output@@QEAA@XZ 00000001401294c0 f i libucrtd:output.obj
 0001:001284e0       ??1?$output_processor@_WV?$string_output_adapter@_W@__crt_stdio_output@@V?$standard_base@_WV?$string_output_adapter@_W@__crt_stdio_output@@@2@@__crt_stdio_output@@QEAA@XZ 00000001401294e0 f i libucrtd:output.obj
 0001:00128500       ??1?$positional_parameter_base@DV?$stream_output_adapter@D@__crt_stdio_output@@@__crt_stdio_output@@QEAA@XZ 0000000140129500 f i libucrtd:output.obj
 0001:00128520       ??1?$positional_parameter_base@DV?$string_output_adapter@D@__crt_stdio_output@@@__crt_stdio_output@@QEAA@XZ 0000000140129520 f i libucrtd:output.obj
 0001:00128540       ??1?$positional_parameter_base@_WV?$stream_output_adapter@_W@__crt_stdio_output@@@__crt_stdio_output@@QEAA@XZ 0000000140129540 f i libucrtd:output.obj
 0001:00128560       ??1?$positional_parameter_base@_WV?$string_output_adapter@_W@__crt_stdio_output@@@__crt_stdio_output@@QEAA@XZ 0000000140129560 f i libucrtd:output.obj
 0001:00128580       ??1?$standard_base@DV?$stream_output_adapter@D@__crt_stdio_output@@@__crt_stdio_output@@QEAA@XZ 0000000140129580 f i libucrtd:output.obj
 0001:001285a0       ??1?$standard_base@DV?$string_output_adapter@D@__crt_stdio_output@@@__crt_stdio_output@@QEAA@XZ 00000001401295a0 f i libucrtd:output.obj
 0001:001285c0       ??1?$standard_base@_WV?$stream_output_adapter@_W@__crt_stdio_output@@@__crt_stdio_output@@QEAA@XZ 00000001401295c0 f i libucrtd:output.obj
 0001:001285e0       ??1?$standard_base@_WV?$string_output_adapter@_W@__crt_stdio_output@@@__crt_stdio_output@@QEAA@XZ 00000001401295e0 f i libucrtd:output.obj
 0001:00128600       ??1__acrt_stdio_temporary_buffering_guard@@QEAA@XZ 0000000140129600 f i libucrtd:output.obj
 0001:00128640       ??1__crt_cached_ptd_host@@QEAA@XZ 0000000140129640 f i libucrtd:output.obj
 0001:00128710       ??1__crt_scoped_get_last_error_reset@@QEAA@XZ 0000000140129710 f i libucrtd:output.obj
 0001:00128740       ??1formatting_buffer@__crt_stdio_output@@QEAA@XZ 0000000140129740 f i libucrtd:output.obj
 0001:00128770       ??1guard@?$cached@H@__crt_cached_ptd_host@@QEAA@XZ 0000000140129770 f i libucrtd:output.obj
 0001:001287a0       ??4?$__crt_unique_heap_ptr@DU__crt_internal_free_policy@@@@QEAAAEAV0@$$QEAV0@@Z 00000001401297a0 f i libucrtd:output.obj
 0001:001287f0       ??A?$spectre_mitigated_lookup_table@Ustate_transition_pair@__crt_stdio_output@@$0IA@@__crt_stdio_output@@QEBAAEBUstate_transition_pair@1@_K@Z 00000001401297f0 f i libucrtd:output.obj
 0001:00128820       ??C__crt_stdio_stream@@QEBAPEAU__crt_stdio_stream_data@@XZ 0000000140129820 f i libucrtd:output.obj
 0001:00129320       ?__crt_interlocked_read_32@@YAHPEDH@Z 000000014012a320 f i libucrtd:output.obj
 0001:00129350       ?adjust_hexit@?$output_processor@DV?$stream_output_adapter@D@__crt_stdio_output@@V?$format_validation_base@DV?$stream_output_adapter@D@__crt_stdio_output@@@2@@__crt_stdio_output@@CADH_N@Z 000000014012a350 f i libucrtd:output.obj
 0001:001293b0       ?adjust_hexit@?$output_processor@DV?$stream_output_adapter@D@__crt_stdio_output@@V?$positional_parameter_base@DV?$stream_output_adapter@D@__crt_stdio_output@@@2@@__crt_stdio_output@@CADH_N@Z 000000014012a3b0 f i libucrtd:output.obj
 0001:00129410       ?adjust_hexit@?$output_processor@DV?$stream_output_adapter@D@__crt_stdio_output@@V?$standard_base@DV?$stream_output_adapter@D@__crt_stdio_output@@@2@@__crt_stdio_output@@CADH_N@Z 000000014012a410 f i libucrtd:output.obj
 0001:00129470       ?adjust_hexit@?$output_processor@DV?$string_output_adapter@D@__crt_stdio_output@@V?$format_validation_base@DV?$string_output_adapter@D@__crt_stdio_output@@@2@@__crt_stdio_output@@CADH_N@Z 000000014012a470 f i libucrtd:output.obj
 0001:001294d0       ?adjust_hexit@?$output_processor@DV?$string_output_adapter@D@__crt_stdio_output@@V?$positional_parameter_base@DV?$string_output_adapter@D@__crt_stdio_output@@@2@@__crt_stdio_output@@CADH_N@Z 000000014012a4d0 f i libucrtd:output.obj
 0001:00129530       ?adjust_hexit@?$output_processor@DV?$string_output_adapter@D@__crt_stdio_output@@V?$standard_base@DV?$string_output_adapter@D@__crt_stdio_output@@@2@@__crt_stdio_output@@CADH_N@Z 000000014012a530 f i libucrtd:output.obj
 0001:00129590       ?adjust_hexit@?$output_processor@_WV?$stream_output_adapter@_W@__crt_stdio_output@@V?$format_validation_base@_WV?$stream_output_adapter@_W@__crt_stdio_output@@@2@@__crt_stdio_output@@CADH_N@Z 000000014012a590 f i libucrtd:output.obj
 0001:001295f0       ?adjust_hexit@?$output_processor@_WV?$stream_output_adapter@_W@__crt_stdio_output@@V?$positional_parameter_base@_WV?$stream_output_adapter@_W@__crt_stdio_output@@@2@@__crt_stdio_output@@CADH_N@Z 000000014012a5f0 f i libucrtd:output.obj
 0001:00129650       ?adjust_hexit@?$output_processor@_WV?$stream_output_adapter@_W@__crt_stdio_output@@V?$standard_base@_WV?$stream_output_adapter@_W@__crt_stdio_output@@@2@@__crt_stdio_output@@CADH_N@Z 000000014012a650 f i libucrtd:output.obj
 0001:001296b0       ?adjust_hexit@?$output_processor@_WV?$string_output_adapter@_W@__crt_stdio_output@@V?$format_validation_base@_WV?$string_output_adapter@_W@__crt_stdio_output@@@2@@__crt_stdio_output@@CADH_N@Z 000000014012a6b0 f i libucrtd:output.obj
 0001:00129710       ?adjust_hexit@?$output_processor@_WV?$string_output_adapter@_W@__crt_stdio_output@@V?$positional_parameter_base@_WV?$string_output_adapter@_W@__crt_stdio_output@@@2@@__crt_stdio_output@@CADH_N@Z 000000014012a710 f i libucrtd:output.obj
 0001:00129770       ?adjust_hexit@?$output_processor@_WV?$string_output_adapter@_W@__crt_stdio_output@@V?$standard_base@_WV?$string_output_adapter@_W@__crt_stdio_output@@@2@@__crt_stdio_output@@CADH_N@Z 000000014012a770 f i libucrtd:output.obj
 0001:001297d0       ?advance_to_next_pass@?$positional_parameter_base@DV?$stream_output_adapter@D@__crt_stdio_output@@@__crt_stdio_output@@IEAA_NXZ 000000014012a7d0 f i libucrtd:output.obj
 0001:001298b0       ?advance_to_next_pass@?$positional_parameter_base@DV?$string_output_adapter@D@__crt_stdio_output@@@__crt_stdio_output@@IEAA_NXZ 000000014012a8b0 f i libucrtd:output.obj
 0001:00129990       ?advance_to_next_pass@?$positional_parameter_base@_WV?$stream_output_adapter@_W@__crt_stdio_output@@@__crt_stdio_output@@IEAA_NXZ 000000014012a990 f i libucrtd:output.obj
 0001:00129a70       ?advance_to_next_pass@?$positional_parameter_base@_WV?$string_output_adapter@_W@__crt_stdio_output@@@__crt_stdio_output@@IEAA_NXZ 000000014012aa70 f i libucrtd:output.obj
 0001:00129b50       ?advance_to_next_pass@?$standard_base@DV?$stream_output_adapter@D@__crt_stdio_output@@@__crt_stdio_output@@IEAA_NXZ 000000014012ab50 f i libucrtd:output.obj
 0001:00129bb0       ?advance_to_next_pass@?$standard_base@DV?$string_output_adapter@D@__crt_stdio_output@@@__crt_stdio_output@@IEAA_NXZ 000000014012abb0 f i libucrtd:output.obj
 0001:00129c10       ?advance_to_next_pass@?$standard_base@_WV?$stream_output_adapter@_W@__crt_stdio_output@@@__crt_stdio_output@@IEAA_NXZ 000000014012ac10 f i libucrtd:output.obj
 0001:00129c70       ?advance_to_next_pass@?$standard_base@_WV?$string_output_adapter@_W@__crt_stdio_output@@@__crt_stdio_output@@IEAA_NXZ 000000014012ac70 f i libucrtd:output.obj
 0001:00129cd0       ?check@?$cached@H@__crt_cached_ptd_host@@QEBA_NH@Z 000000014012acd0 f i libucrtd:output.obj
 0001:00129d20       ?check_synchronize_global_state_index@__crt_cached_ptd_host@@AEAA_KAEBV__crt_scoped_get_last_error_reset@@@Z 000000014012ad20 f i libucrtd:output.obj
 0001:00129d70       ?check_synchronize_per_thread_data@__crt_cached_ptd_host@@AEAAPEAU__acrt_ptd@@XZ 000000014012ad70 f i libucrtd:output.obj
 0001:00129dc0       ?create_guard@?$cached@H@__crt_cached_ptd_host@@QEAA?AVguard@12@XZ 000000014012adc0 f i libucrtd:output.obj
 0001:00129df0       ?crop_zeroes@__crt_stdio_output@@YAXPEADQEAU__crt_locale_pointers@@@Z 000000014012adf0 f i libucrtd:output.obj
 0001:00129f90       ?disable@guard@?$cached@H@__crt_cached_ptd_host@@QEAAXXZ 000000014012af90 f i libucrtd:output.obj
 0001:00129fb0       ?enable@guard@?$cached@H@__crt_cached_ptd_host@@QEAAXXZ 000000014012afb0 f i libucrtd:output.obj
 0001:00129fd0       ?find_next_state@?$output_processor@DV?$stream_output_adapter@D@__crt_stdio_output@@V?$format_validation_base@DV?$stream_output_adapter@D@__crt_stdio_output@@@2@@__crt_stdio_output@@AEBA?AW4state@2@DW432@@Z 000000014012afd0 f i libucrtd:output.obj
 0001:0012a090       ?find_next_state@?$output_processor@DV?$stream_output_adapter@D@__crt_stdio_output@@V?$positional_parameter_base@DV?$stream_output_adapter@D@__crt_stdio_output@@@2@@__crt_stdio_output@@AEBA?AW4state@2@DW432@@Z 000000014012b090 f i libucrtd:output.obj
 0001:0012a150       ?find_next_state@?$output_processor@DV?$stream_output_adapter@D@__crt_stdio_output@@V?$standard_base@DV?$stream_output_adapter@D@__crt_stdio_output@@@2@@__crt_stdio_output@@AEBA?AW4state@2@DW432@@Z 000000014012b150 f i libucrtd:output.obj
 0001:0012a210       ?find_next_state@?$output_processor@DV?$string_output_adapter@D@__crt_stdio_output@@V?$format_validation_base@DV?$string_output_adapter@D@__crt_stdio_output@@@2@@__crt_stdio_output@@AEBA?AW4state@2@DW432@@Z 000000014012b210 f i libucrtd:output.obj
 0001:0012a2d0       ?find_next_state@?$output_processor@DV?$string_output_adapter@D@__crt_stdio_output@@V?$positional_parameter_base@DV?$string_output_adapter@D@__crt_stdio_output@@@2@@__crt_stdio_output@@AEBA?AW4state@2@DW432@@Z 000000014012b2d0 f i libucrtd:output.obj
 0001:0012a390       ?find_next_state@?$output_processor@DV?$string_output_adapter@D@__crt_stdio_output@@V?$standard_base@DV?$string_output_adapter@D@__crt_stdio_output@@@2@@__crt_stdio_output@@AEBA?AW4state@2@DW432@@Z 000000014012b390 f i libucrtd:output.obj
 0001:0012a450       ?find_next_state@?$output_processor@_WV?$stream_output_adapter@_W@__crt_stdio_output@@V?$format_validation_base@_WV?$stream_output_adapter@_W@__crt_stdio_output@@@2@@__crt_stdio_output@@AEBA?AW4state@2@_WW432@@Z 000000014012b450 f i libucrtd:output.obj
 0001:0012a510       ?find_next_state@?$output_processor@_WV?$stream_output_adapter@_W@__crt_stdio_output@@V?$positional_parameter_base@_WV?$stream_output_adapter@_W@__crt_stdio_output@@@2@@__crt_stdio_output@@AEBA?AW4state@2@_WW432@@Z 000000014012b510 f i libucrtd:output.obj
 0001:0012a5d0       ?find_next_state@?$output_processor@_WV?$stream_output_adapter@_W@__crt_stdio_output@@V?$standard_base@_WV?$stream_output_adapter@_W@__crt_stdio_output@@@2@@__crt_stdio_output@@AEBA?AW4state@2@_WW432@@Z 000000014012b5d0 f i libucrtd:output.obj
 0001:0012a690       ?find_next_state@?$output_processor@_WV?$string_output_adapter@_W@__crt_stdio_output@@V?$format_validation_base@_WV?$string_output_adapter@_W@__crt_stdio_output@@@2@@__crt_stdio_output@@AEBA?AW4state@2@_WW432@@Z 000000014012b690 f i libucrtd:output.obj
 0001:0012a750       ?find_next_state@?$output_processor@_WV?$string_output_adapter@_W@__crt_stdio_output@@V?$positional_parameter_base@_WV?$string_output_adapter@_W@__crt_stdio_output@@@2@@__crt_stdio_output@@AEBA?AW4state@2@_WW432@@Z 000000014012b750 f i libucrtd:output.obj
 0001:0012a810       ?find_next_state@?$output_processor@_WV?$string_output_adapter@_W@__crt_stdio_output@@V?$standard_base@_WV?$string_output_adapter@_W@__crt_stdio_output@@@2@@__crt_stdio_output@@AEBA?AW4state@2@_WW432@@Z 000000014012b810 f i libucrtd:output.obj
 0001:0012a8d0       ?force_decimal_point@__crt_stdio_output@@YAXPEADQEAU__crt_locale_pointers@@@Z 000000014012b8d0 f i libucrtd:output.obj
 0001:0012aa00       ?force_synchronize_global_state_index@__crt_cached_ptd_host@@AEAA_KAEBV__crt_scoped_get_last_error_reset@@@Z 000000014012ba00 f i libucrtd:output.obj
 0001:0012aa50       ?force_synchronize_per_thread_data@__crt_cached_ptd_host@@AEAAPEAU__acrt_ptd@@XZ 000000014012ba50 f i libucrtd:output.obj
 0001:0012aad0       ?get@?$c_string_character_source@D@__crt_strtox@@QEAADXZ 000000014012bad0 f i libucrtd:output.obj
 0001:0012ab10       ?get@?$c_string_character_source@_W@__crt_strtox@@QEAA_WXZ 000000014012bb10 f i libucrtd:output.obj
 0001:0012ab60       ?get_current_state_index@__crt_state_management@@YA_KAEBV__crt_scoped_get_last_error_reset@@@Z 000000014012bb60 f i libucrtd:output.obj
 0001:0012ab70       ?get_errno@__crt_cached_ptd_host@@QEAA@XZ 000000014012bb70 f i libucrtd:output.obj
 0001:0012ab90       ?get_flags@__crt_stdio_stream@@QEBAJXZ 000000014012bb90 f i libucrtd:output.obj
 0001:0012abc0       ?get_locale@__crt_cached_ptd_host@@QEAAPEAU__crt_locale_pointers@@XZ 000000014012bbc0 f i libucrtd:output.obj
 0001:0012abf0       ?get_parameter_type@?$positional_parameter_base@DV?$stream_output_adapter@D@__crt_stdio_output@@@__crt_stdio_output@@CA?AW4parameter_type@12@F@Z 000000014012bbf0 f i libucrtd:output.obj
 0001:0012ac00       ?get_parameter_type@?$positional_parameter_base@DV?$stream_output_adapter@D@__crt_stdio_output@@@__crt_stdio_output@@CA?AW4parameter_type@12@G@Z 000000014012bc00 f i libucrtd:output.obj
 0001:0012ac10       ?get_parameter_type@?$positional_parameter_base@DV?$stream_output_adapter@D@__crt_stdio_output@@@__crt_stdio_output@@CA?AW4parameter_type@12@H@Z 000000014012bc10 f i libucrtd:output.obj
 0001:0012ac20       ?get_parameter_type@?$positional_parameter_base@DV?$stream_output_adapter@D@__crt_stdio_output@@@__crt_stdio_output@@CA?AW4parameter_type@12@I@Z 000000014012bc20 f i libucrtd:output.obj
 0001:0012ac30       ?get_parameter_type@?$positional_parameter_base@DV?$stream_output_adapter@D@__crt_stdio_output@@@__crt_stdio_output@@CA?AW4parameter_type@12@U_CRT_DOUBLE@@@Z 000000014012bc30 f i libucrtd:output.obj
 0001:0012ac40       ?get_parameter_type@?$positional_parameter_base@DV?$stream_output_adapter@D@__crt_stdio_output@@@__crt_stdio_output@@CA?AW4parameter_type@12@_J@Z 000000014012bc40 f i libucrtd:output.obj
 0001:0012ac50       ?get_parameter_type@?$positional_parameter_base@DV?$stream_output_adapter@D@__crt_stdio_output@@@__crt_stdio_output@@CA?AW4parameter_type@12@_K@Z 000000014012bc50 f i libucrtd:output.obj
 0001:0012ac60       ?get_parameter_type@?$positional_parameter_base@DV?$stream_output_adapter@D@__crt_stdio_output@@@__crt_stdio_output@@CA?AW4parameter_type@12@_W@Z 000000014012bc60 f i libucrtd:output.obj
 0001:0012ac70       ?get_parameter_type@?$positional_parameter_base@DV?$string_output_adapter@D@__crt_stdio_output@@@__crt_stdio_output@@CA?AW4parameter_type@12@F@Z 000000014012bc70 f i libucrtd:output.obj
 0001:0012ac80       ?get_parameter_type@?$positional_parameter_base@DV?$string_output_adapter@D@__crt_stdio_output@@@__crt_stdio_output@@CA?AW4parameter_type@12@G@Z 000000014012bc80 f i libucrtd:output.obj
 0001:0012ac90       ?get_parameter_type@?$positional_parameter_base@DV?$string_output_adapter@D@__crt_stdio_output@@@__crt_stdio_output@@CA?AW4parameter_type@12@H@Z 000000014012bc90 f i libucrtd:output.obj
 0001:0012aca0       ?get_parameter_type@?$positional_parameter_base@DV?$string_output_adapter@D@__crt_stdio_output@@@__crt_stdio_output@@CA?AW4parameter_type@12@I@Z 000000014012bca0 f i libucrtd:output.obj
 0001:0012acb0       ?get_parameter_type@?$positional_parameter_base@DV?$string_output_adapter@D@__crt_stdio_output@@@__crt_stdio_output@@CA?AW4parameter_type@12@U_CRT_DOUBLE@@@Z 000000014012bcb0 f i libucrtd:output.obj
 0001:0012acc0       ?get_parameter_type@?$positional_parameter_base@DV?$string_output_adapter@D@__crt_stdio_output@@@__crt_stdio_output@@CA?AW4parameter_type@12@_J@Z 000000014012bcc0 f i libucrtd:output.obj
 0001:0012acd0       ?get_parameter_type@?$positional_parameter_base@DV?$string_output_adapter@D@__crt_stdio_output@@@__crt_stdio_output@@CA?AW4parameter_type@12@_K@Z 000000014012bcd0 f i libucrtd:output.obj
 0001:0012ace0       ?get_parameter_type@?$positional_parameter_base@DV?$string_output_adapter@D@__crt_stdio_output@@@__crt_stdio_output@@CA?AW4parameter_type@12@_W@Z 000000014012bce0 f i libucrtd:output.obj
 0001:0012acf0       ?get_parameter_type@?$positional_parameter_base@_WV?$stream_output_adapter@_W@__crt_stdio_output@@@__crt_stdio_output@@CA?AW4parameter_type@12@F@Z 000000014012bcf0 f i libucrtd:output.obj
 0001:0012ad00       ?get_parameter_type@?$positional_parameter_base@_WV?$stream_output_adapter@_W@__crt_stdio_output@@@__crt_stdio_output@@CA?AW4parameter_type@12@G@Z 000000014012bd00 f i libucrtd:output.obj
 0001:0012ad10       ?get_parameter_type@?$positional_parameter_base@_WV?$stream_output_adapter@_W@__crt_stdio_output@@@__crt_stdio_output@@CA?AW4parameter_type@12@H@Z 000000014012bd10 f i libucrtd:output.obj
 0001:0012ad20       ?get_parameter_type@?$positional_parameter_base@_WV?$stream_output_adapter@_W@__crt_stdio_output@@@__crt_stdio_output@@CA?AW4parameter_type@12@I@Z 000000014012bd20 f i libucrtd:output.obj
 0001:0012ad30       ?get_parameter_type@?$positional_parameter_base@_WV?$stream_output_adapter@_W@__crt_stdio_output@@@__crt_stdio_output@@CA?AW4parameter_type@12@U_CRT_DOUBLE@@@Z 000000014012bd30 f i libucrtd:output.obj
 0001:0012ad40       ?get_parameter_type@?$positional_parameter_base@_WV?$stream_output_adapter@_W@__crt_stdio_output@@@__crt_stdio_output@@CA?AW4parameter_type@12@_J@Z 000000014012bd40 f i libucrtd:output.obj
 0001:0012ad50       ?get_parameter_type@?$positional_parameter_base@_WV?$stream_output_adapter@_W@__crt_stdio_output@@@__crt_stdio_output@@CA?AW4parameter_type@12@_K@Z 000000014012bd50 f i libucrtd:output.obj
 0001:0012ad60       ?get_parameter_type@?$positional_parameter_base@_WV?$stream_output_adapter@_W@__crt_stdio_output@@@__crt_stdio_output@@CA?AW4parameter_type@12@_W@Z 000000014012bd60 f i libucrtd:output.obj
 0001:0012ad70       ?get_parameter_type@?$positional_parameter_base@_WV?$string_output_adapter@_W@__crt_stdio_output@@@__crt_stdio_output@@CA?AW4parameter_type@12@F@Z 000000014012bd70 f i libucrtd:output.obj
 0001:0012ad80       ?get_parameter_type@?$positional_parameter_base@_WV?$string_output_adapter@_W@__crt_stdio_output@@@__crt_stdio_output@@CA?AW4parameter_type@12@G@Z 000000014012bd80 f i libucrtd:output.obj
 0001:0012ad90       ?get_parameter_type@?$positional_parameter_base@_WV?$string_output_adapter@_W@__crt_stdio_output@@@__crt_stdio_output@@CA?AW4parameter_type@12@H@Z 000000014012bd90 f i libucrtd:output.obj
